; ------------------------------------------------
; OCL_asm02a05bd857049a6b_simd16_entry_0001.visa.ll
; LLVM major version: 16
; ------------------------------------------------
; Function Attrs: convergent nounwind
define spir_kernel void @_ZTSN7cutlass4fmha6kernel15XeFMHAFwdKernelINS1_16FMHAProblemShapeILb0EEENS0_10collective15FMHAFwdMainloopINS0_9XeDefaultILi2EEELb1ELb1ELb1EN4cute8TiledMMAINS9_8MMA_AtomIJNS9_10XE_DPAS_TTILi8EfNS_10bfloat16_tESD_fEEEEENS9_6LayoutINS9_5tupleIJNS9_1CILi16EEENSI_ILi1EEESK_EEENSH_IJSK_NSI_ILi0EEESM_EEEEEKNSH_IJNSG_INSH_IJNSI_ILi8EEESJ_NSI_ILi2EEEEEENSH_IJSK_SJ_SP_EEEEENSG_INSI_ILi32EEESK_EESV_EEEEESY_Li4ENS9_6TensorINS9_10ViewEngineINS9_8gmem_ptrIPSD_EEEENSG_INSH_IJiiiiEEENSH_IJiSK_iiEEEEEEES18_NSZ_IS14_NSG_IS15_NSH_IJSK_iiiEEEEEEES18_S1B_vvvvvEENS5_15FMHAFwdEpilogueIS1C_NSH_IJNSI_ILi256EEENSI_ILi128EEEEEENSZ_INS10_INS11_IPfEEEES17_EEvEENS1_29XeFHMAIndividualTileSchedulerEEE(%"class.std::__generated_tuple"* byval(%"class.std::__generated_tuple") align 8 %0, i8 addrspace(3)* noalias align 1 %1, <8 x i32> %r0, <3 x i32> %globalOffset, i16 %localIdX, i16 %localIdY, i16 %localIdZ, i8 addrspace(2)* %constBase, i8* %privateBase, i32 %const_reg_dword, i32 %const_reg_dword1, i32 %const_reg_dword2, i32 %const_reg_dword3, i32 %const_reg_dword4, i32 %const_reg_dword5, i32 %const_reg_dword6, i32 %const_reg_dword7, i64 %const_reg_qword, i32 %const_reg_dword8, i32 %const_reg_dword9, i32 %const_reg_dword10, i8 %const_reg_byte, i8 %const_reg_byte11, i8 %const_reg_byte12, i8 %const_reg_byte13, i64 %const_reg_qword14, i32 %const_reg_dword15, i32 %const_reg_dword16, i32 %const_reg_dword17, i8 %const_reg_byte18, i8 %const_reg_byte19, i8 %const_reg_byte20, i8 %const_reg_byte21, i64 %const_reg_qword22, i32 %const_reg_dword23, i32 %const_reg_dword24, i32 %const_reg_dword25, i8 %const_reg_byte26, i8 %const_reg_byte27, i8 %const_reg_byte28, i8 %const_reg_byte29, i64 %const_reg_qword30, i32 %const_reg_dword31, i32 %const_reg_dword32, i32 %const_reg_dword33, i8 %const_reg_byte34, i8 %const_reg_byte35, i8 %const_reg_byte36, i8 %const_reg_byte37, i64 %const_reg_qword38, i32 %const_reg_dword39, i32 %const_reg_dword40, i32 %const_reg_dword41, i8 %const_reg_byte42, i8 %const_reg_byte43, i8 %const_reg_byte44, i8 %const_reg_byte45, i64 %const_reg_qword46, i32 %const_reg_dword47, i32 %const_reg_dword48, i32 %const_reg_dword49, i8 %const_reg_byte50, i8 %const_reg_byte51, i8 %const_reg_byte52, i8 %const_reg_byte53, float %const_reg_fp32, i64 %const_reg_qword54, i32 %const_reg_dword55, i64 %const_reg_qword56, i8 %const_reg_byte57, i8 %const_reg_byte58, i8 %const_reg_byte59, i8 %const_reg_byte60, i32 %const_reg_dword61, i32 %const_reg_dword62, i32 %const_reg_dword63, i32 %const_reg_dword64, i32 %const_reg_dword65, i32 %const_reg_dword66, i8 %const_reg_byte67, i8 %const_reg_byte68, i8 %const_reg_byte69, i8 %const_reg_byte70, i32 %bindlessOffset) #1 {
; BB0 :
  %3 = extractelement <8 x i32> %r0, i32 6		; visa id: 2
  %4 = extractelement <8 x i32> %r0, i32 7		; visa id: 2
  %tobool.i = icmp eq i32 %const_reg_dword2, 0		; visa id: 2
  br i1 %tobool.i, label %if.then.i, label %if.end.i, !stats.blockFrequency.digits !1203, !stats.blockFrequency.scale !1204		; visa id: 3

if.then.i:                                        ; preds = %2
; BB1 :
  br label %precompiled_s32divrem_sp.exit, !stats.blockFrequency.digits !1205, !stats.blockFrequency.scale !1206		; visa id: 6

if.end.i:                                         ; preds = %2
; BB2 :
  %shr.i = ashr i32 %const_reg_dword2, 31		; visa id: 8
  %shr1.i = ashr i32 %const_reg_dword1, 31		; visa id: 9
  %add.i = add nsw i32 %shr.i, %const_reg_dword2		; visa id: 10
  %xor.i = xor i32 %add.i, %shr.i		; visa id: 11
  %add2.i = add nsw i32 %shr1.i, %const_reg_dword1		; visa id: 12
  %xor3.i = xor i32 %add2.i, %shr1.i		; visa id: 13
  %5 = call float @llvm.genx.GenISA.uitof.rtz.f32.i32(i32 %xor.i)		; visa id: 14
  %conv.i = fptoui float %5 to i32		; visa id: 16
  %sub.i = sub i32 %xor.i, %conv.i		; visa id: 17
  %6 = call float @llvm.genx.GenISA.uitof.rtz.f32.i32(i32 %xor3.i)		; visa id: 18
  %div.i = fdiv float 1.000000e+00, %5, !fpmath !1207		; visa id: 19
  %7 = call float @llvm.genx.GenISA.fma.rtz.f32.f32.f32.f32(float %div.i, float 0xBE98000000000000, float %div.i)		; visa id: 20
  %8 = call float @llvm.genx.GenISA.mul.rtz.f32.f32.f32(float %6, float %7)		; visa id: 21
  %conv6.i = fptoui float %6 to i32		; visa id: 22
  %sub7.i = sub i32 %xor3.i, %conv6.i		; visa id: 23
  %conv11.i = fptoui float %8 to i32		; visa id: 24
  %9 = call float @llvm.genx.GenISA.uitof.rtz.f32.i32(i32 %sub.i)		; visa id: 25
  %10 = call float @llvm.genx.GenISA.uitof.rtz.f32.i32(i32 %sub7.i)		; visa id: 26
  %11 = call float @llvm.genx.GenISA.uitof.rtz.f32.i32(i32 %conv11.i)		; visa id: 27
  %12 = fsub float 0.000000e+00, %5		; visa id: 28
  %13 = call float @llvm.genx.GenISA.fma.rtz.f32.f32.f32.f32(float %12, float %11, float %6)		; visa id: 29
  %14 = fsub float 0.000000e+00, %9		; visa id: 30
  %15 = call float @llvm.genx.GenISA.fma.rtz.f32.f32.f32.f32(float %14, float %11, float %10)		; visa id: 31
  %16 = call float @llvm.genx.GenISA.add.rtz.f32.f32.f32(float %13, float %15)		; visa id: 32
  %17 = call float @llvm.genx.GenISA.mul.rtz.f32.f32.f32(float %7, float %16)		; visa id: 33
  %conv19.i = fptoui float %17 to i32		; visa id: 35
  %add20.i = add i32 %conv19.i, %conv11.i		; visa id: 36
  %xor21.i = xor i32 %shr.i, %shr1.i		; visa id: 37
  %mul.i = mul i32 %add20.i, %xor.i		; visa id: 38
  %sub22.i = sub i32 %xor3.i, %mul.i		; visa id: 39
  %cmp.i = icmp uge i32 %sub22.i, %xor.i
  %18 = sext i1 %cmp.i to i32		; visa id: 40
  %19 = sub i32 0, %18
  %add24.i = add i32 %add20.i, %xor21.i
  %add29.i = add i32 %add24.i, %19		; visa id: 41
  %xor30.i = xor i32 %add29.i, %xor21.i		; visa id: 42
  br label %precompiled_s32divrem_sp.exit, !stats.blockFrequency.digits !1208, !stats.blockFrequency.scale !1209		; visa id: 43

precompiled_s32divrem_sp.exit:                    ; preds = %if.then.i, %if.end.i
; BB3 :
  %retval.0.i = phi i32 [ %xor30.i, %if.end.i ], [ -1, %if.then.i ]
  %20 = zext i16 %localIdX to i32		; visa id: 44
  %21 = and i32 %20, 240		; visa id: 45
  %simdBroadcast = call i32 @llvm.genx.GenISA.WaveBroadcast.i32(i32 %21, i32 0, i32 0)
  %22 = call { i32, i32 } @llvm.genx.GenISA.mul.pair(i32 %4, i32 0, i32 %const_reg_dword65, i32 0)
  %23 = extractvalue { i32, i32 } %22, 1		; visa id: 46
  %24 = lshr i32 %23, %const_reg_dword66		; visa id: 51
  %25 = icmp eq i32 %const_reg_dword64, 1
  %26 = select i1 %25, i32 %4, i32 %24		; visa id: 52
  %27 = mul nsw i32 %26, %const_reg_dword64, !spirv.Decorations !1210		; visa id: 54
  %28 = sub nsw i32 %4, %27, !spirv.Decorations !1210		; visa id: 55
  %tobool.i6757 = icmp eq i32 %retval.0.i, 0		; visa id: 56
  br i1 %tobool.i6757, label %if.then.i6758, label %if.end.i6788, !stats.blockFrequency.digits !1203, !stats.blockFrequency.scale !1204		; visa id: 57

if.then.i6758:                                    ; preds = %precompiled_s32divrem_sp.exit
; BB4 :
  br label %precompiled_s32divrem_sp.exit6790, !stats.blockFrequency.digits !1205, !stats.blockFrequency.scale !1206		; visa id: 60

if.end.i6788:                                     ; preds = %precompiled_s32divrem_sp.exit
; BB5 :
  %shr.i6759 = ashr i32 %retval.0.i, 31		; visa id: 62
  %shr1.i6760 = ashr i32 %28, 31		; visa id: 63
  %add.i6761 = add nsw i32 %shr.i6759, %retval.0.i		; visa id: 64
  %xor.i6762 = xor i32 %add.i6761, %shr.i6759		; visa id: 65
  %add2.i6763 = add nsw i32 %shr1.i6760, %28		; visa id: 66
  %xor3.i6764 = xor i32 %add2.i6763, %shr1.i6760		; visa id: 67
  %29 = call float @llvm.genx.GenISA.uitof.rtz.f32.i32(i32 %xor.i6762)		; visa id: 68
  %conv.i6765 = fptoui float %29 to i32		; visa id: 70
  %sub.i6766 = sub i32 %xor.i6762, %conv.i6765		; visa id: 71
  %30 = call float @llvm.genx.GenISA.uitof.rtz.f32.i32(i32 %xor3.i6764)		; visa id: 72
  %div.i6769 = fdiv float 1.000000e+00, %29, !fpmath !1207		; visa id: 73
  %31 = call float @llvm.genx.GenISA.fma.rtz.f32.f32.f32.f32(float %div.i6769, float 0xBE98000000000000, float %div.i6769)		; visa id: 74
  %32 = call float @llvm.genx.GenISA.mul.rtz.f32.f32.f32(float %30, float %31)		; visa id: 75
  %conv6.i6767 = fptoui float %30 to i32		; visa id: 76
  %sub7.i6768 = sub i32 %xor3.i6764, %conv6.i6767		; visa id: 77
  %conv11.i6770 = fptoui float %32 to i32		; visa id: 78
  %33 = call float @llvm.genx.GenISA.uitof.rtz.f32.i32(i32 %sub.i6766)		; visa id: 79
  %34 = call float @llvm.genx.GenISA.uitof.rtz.f32.i32(i32 %sub7.i6768)		; visa id: 80
  %35 = call float @llvm.genx.GenISA.uitof.rtz.f32.i32(i32 %conv11.i6770)		; visa id: 81
  %36 = fsub float 0.000000e+00, %29		; visa id: 82
  %37 = call float @llvm.genx.GenISA.fma.rtz.f32.f32.f32.f32(float %36, float %35, float %30)		; visa id: 83
  %38 = fsub float 0.000000e+00, %33		; visa id: 84
  %39 = call float @llvm.genx.GenISA.fma.rtz.f32.f32.f32.f32(float %38, float %35, float %34)		; visa id: 85
  %40 = call float @llvm.genx.GenISA.add.rtz.f32.f32.f32(float %37, float %39)		; visa id: 86
  %41 = call float @llvm.genx.GenISA.mul.rtz.f32.f32.f32(float %31, float %40)		; visa id: 87
  %conv19.i6773 = fptoui float %41 to i32		; visa id: 89
  %add20.i6774 = add i32 %conv19.i6773, %conv11.i6770		; visa id: 90
  %xor21.i6775 = xor i32 %shr.i6759, %shr1.i6760		; visa id: 91
  %mul.i6776 = mul i32 %add20.i6774, %xor.i6762		; visa id: 92
  %sub22.i6777 = sub i32 %xor3.i6764, %mul.i6776		; visa id: 93
  %cmp.i6778 = icmp uge i32 %sub22.i6777, %xor.i6762
  %42 = sext i1 %cmp.i6778 to i32		; visa id: 94
  %43 = sub i32 0, %42
  %add24.i6785 = add i32 %add20.i6774, %xor21.i6775
  %add29.i6786 = add i32 %add24.i6785, %43		; visa id: 95
  %xor30.i6787 = xor i32 %add29.i6786, %xor21.i6775		; visa id: 96
  br label %precompiled_s32divrem_sp.exit6790, !stats.blockFrequency.digits !1208, !stats.blockFrequency.scale !1209		; visa id: 97

precompiled_s32divrem_sp.exit6790:                ; preds = %if.then.i6758, %if.end.i6788
; BB6 :
  %retval.0.i6789 = phi i32 [ %xor30.i6787, %if.end.i6788 ], [ -1, %if.then.i6758 ]
  %44 = shl i32 %3, 8		; visa id: 98
  %45 = icmp ult i32 %44, %const_reg_dword3		; visa id: 99
  br i1 %45, label %46, label %precompiled_s32divrem_sp.exit6790.._crit_edge_crit_edge, !stats.blockFrequency.digits !1203, !stats.blockFrequency.scale !1204		; visa id: 100

precompiled_s32divrem_sp.exit6790.._crit_edge_crit_edge: ; preds = %precompiled_s32divrem_sp.exit6790
; BB:
  br label %._crit_edge, !stats.blockFrequency.digits !1212, !stats.blockFrequency.scale !1209

46:                                               ; preds = %precompiled_s32divrem_sp.exit6790
; BB8 :
  %47 = call i32 @llvm.smin.i32(i32 %const_reg_dword3, i32 %const_reg_dword4)		; visa id: 102
  %48 = sub nsw i32 %const_reg_dword3, %47, !spirv.Decorations !1210		; visa id: 103
  %49 = add i32 %44, %simdBroadcast		; visa id: 104
  %50 = call i32 @llvm.umin.i32(i32 %const_reg_dword3, i32 %49)		; visa id: 105
  %51 = icmp slt i32 %50, %48		; visa id: 106
  br i1 %51, label %.._crit_edge_crit_edge, label %52, !stats.blockFrequency.digits !1212, !stats.blockFrequency.scale !1209		; visa id: 107

.._crit_edge_crit_edge:                           ; preds = %46
; BB:
  br label %._crit_edge, !stats.blockFrequency.digits !1212, !stats.blockFrequency.scale !1206

52:                                               ; preds = %46
; BB10 :
  %53 = sub nsw i32 %const_reg_dword4, %47, !spirv.Decorations !1210		; visa id: 109
  %54 = sub nsw i32 %50, %48, !spirv.Decorations !1210		; visa id: 110
  %55 = call i32 @llvm.smin.i32(i32 %const_reg_dword4, i32 %54)		; visa id: 111
  %56 = add nsw i32 %53, %55, !spirv.Decorations !1210		; visa id: 112
  %57 = add nsw i32 %56, 16, !spirv.Decorations !1210		; visa id: 113
  %58 = add nsw i32 %57, %const_reg_dword5, !spirv.Decorations !1210		; visa id: 114
  %is-neg = icmp slt i32 %58, -31		; visa id: 115
  br i1 %is-neg, label %cond-add, label %.cond-add-join_crit_edge, !stats.blockFrequency.digits !1212, !stats.blockFrequency.scale !1206		; visa id: 116

.cond-add-join_crit_edge:                         ; preds = %52
; BB11 :
  %59 = add nsw i32 %58, 31, !spirv.Decorations !1210		; visa id: 118
  br label %cond-add-join, !stats.blockFrequency.digits !1212, !stats.blockFrequency.scale !1213		; visa id: 119

cond-add:                                         ; preds = %52
; BB12 :
  %60 = add i32 %58, 62		; visa id: 121
  br label %cond-add-join, !stats.blockFrequency.digits !1212, !stats.blockFrequency.scale !1213		; visa id: 122

cond-add-join:                                    ; preds = %.cond-add-join_crit_edge, %cond-add
; BB13 :
  %61 = phi i32 [ %59, %.cond-add-join_crit_edge ], [ %60, %cond-add ]
  %qot = ashr i32 %61, 5		; visa id: 123
  %62 = mul nsw i32 %28, %const_reg_dword9, !spirv.Decorations !1210		; visa id: 124
  %63 = mul nsw i32 %26, %const_reg_dword10, !spirv.Decorations !1210		; visa id: 125
  %64 = add nsw i32 %62, %63, !spirv.Decorations !1210		; visa id: 126
  %65 = sext i32 %64 to i64		; visa id: 127
  %66 = shl nsw i64 %65, 1		; visa id: 128
  %67 = add i64 %66, %const_reg_qword		; visa id: 129
  %68 = mul nsw i32 %retval.0.i6789, %const_reg_dword16, !spirv.Decorations !1210		; visa id: 130
  %69 = mul nsw i32 %26, %const_reg_dword17, !spirv.Decorations !1210		; visa id: 131
  %70 = add nsw i32 %68, %69, !spirv.Decorations !1210		; visa id: 132
  %71 = sext i32 %70 to i64		; visa id: 133
  %72 = shl nsw i64 %71, 1		; visa id: 134
  %73 = add i64 %72, %const_reg_qword14		; visa id: 135
  %74 = mul nsw i32 %retval.0.i6789, %const_reg_dword24, !spirv.Decorations !1210		; visa id: 136
  %75 = mul nsw i32 %26, %const_reg_dword25, !spirv.Decorations !1210		; visa id: 137
  %76 = add nsw i32 %74, %75, !spirv.Decorations !1210		; visa id: 138
  %77 = sext i32 %76 to i64		; visa id: 139
  %78 = shl nsw i64 %77, 1		; visa id: 140
  %79 = add i64 %78, %const_reg_qword22		; visa id: 141
  %80 = mul nsw i32 %retval.0.i6789, %const_reg_dword40, !spirv.Decorations !1210		; visa id: 142
  %81 = mul nsw i32 %26, %const_reg_dword41, !spirv.Decorations !1210		; visa id: 143
  %82 = add nsw i32 %80, %81, !spirv.Decorations !1210		; visa id: 144
  %83 = sext i32 %82 to i64		; visa id: 145
  %84 = shl nsw i64 %83, 1		; visa id: 146
  %85 = add i64 %84, %const_reg_qword38		; visa id: 147
  %86 = mul nsw i32 %retval.0.i6789, %const_reg_dword48, !spirv.Decorations !1210		; visa id: 148
  %87 = mul nsw i32 %26, %const_reg_dword49, !spirv.Decorations !1210		; visa id: 149
  %88 = add nsw i32 %86, %87, !spirv.Decorations !1210		; visa id: 150
  %89 = sext i32 %88 to i64		; visa id: 151
  %90 = shl nsw i64 %89, 1		; visa id: 152
  %91 = add i64 %90, %const_reg_qword46		; visa id: 153
  %is-neg6724 = icmp slt i32 %const_reg_dword6, -31		; visa id: 154
  br i1 %is-neg6724, label %cond-add6725, label %cond-add-join.cond-add-join6726_crit_edge, !stats.blockFrequency.digits !1212, !stats.blockFrequency.scale !1206		; visa id: 155

cond-add-join.cond-add-join6726_crit_edge:        ; preds = %cond-add-join
; BB14 :
  %92 = add nsw i32 %const_reg_dword6, 31, !spirv.Decorations !1210		; visa id: 157
  br label %cond-add-join6726, !stats.blockFrequency.digits !1212, !stats.blockFrequency.scale !1213		; visa id: 158

cond-add6725:                                     ; preds = %cond-add-join
; BB15 :
  %93 = add i32 %const_reg_dword6, 62		; visa id: 160
  br label %cond-add-join6726, !stats.blockFrequency.digits !1212, !stats.blockFrequency.scale !1213		; visa id: 161

cond-add-join6726:                                ; preds = %cond-add-join.cond-add-join6726_crit_edge, %cond-add6725
; BB16 :
  %94 = phi i32 [ %92, %cond-add-join.cond-add-join6726_crit_edge ], [ %93, %cond-add6725 ]
  %95 = extractelement <8 x i32> %r0, i32 1		; visa id: 162
  %qot6727 = ashr i32 %94, 5		; visa id: 162
  %96 = shl i32 %95, 7		; visa id: 163
  %97 = shl nsw i32 %const_reg_dword6, 1, !spirv.Decorations !1210		; visa id: 164
  %98 = shl nsw i32 %const_reg_dword8, 1, !spirv.Decorations !1210		; visa id: 165
  %99 = add i32 %97, -1		; visa id: 166
  %100 = add i32 %const_reg_dword3, -1		; visa id: 167
  %101 = add i32 %98, -1		; visa id: 168
  %Block2D_AddrPayload = call i8 addrspace(4)* @llvm.genx.GenISA.LSC2DBlockCreateAddrPayload.p4i8(i64 %67, i32 %99, i32 %100, i32 %101, i32 0, i32 0, i32 16, i32 16, i32 2)		; visa id: 169
  %102 = shl nsw i32 %const_reg_dword15, 1, !spirv.Decorations !1210		; visa id: 176
  %103 = add i32 %const_reg_dword4, -1		; visa id: 177
  %104 = add i32 %102, -1		; visa id: 178
  %Block2D_AddrPayload112 = call i8 addrspace(4)* @llvm.genx.GenISA.LSC2DBlockCreateAddrPayload.p4i8(i64 %73, i32 %99, i32 %103, i32 %104, i32 0, i32 0, i32 8, i32 16, i32 1)		; visa id: 179
  %105 = shl nsw i32 %const_reg_dword7, 1, !spirv.Decorations !1210		; visa id: 186
  %106 = shl nsw i32 %const_reg_dword23, 1, !spirv.Decorations !1210		; visa id: 187
  %107 = add i32 %105, -1		; visa id: 188
  %108 = add i32 %106, -1		; visa id: 189
  %Block2D_AddrPayload113 = call i8 addrspace(4)* @llvm.genx.GenISA.LSC2DBlockCreateAddrPayload.p4i8(i64 %79, i32 %107, i32 %103, i32 %108, i32 0, i32 0, i32 16, i32 16, i32 2)		; visa id: 190
  %109 = shl nsw i32 %const_reg_dword39, 1, !spirv.Decorations !1210		; visa id: 197
  %110 = add i32 %const_reg_dword5, -1		; visa id: 198
  %111 = add i32 %109, -1		; visa id: 199
  %Block2D_AddrPayload114 = call i8 addrspace(4)* @llvm.genx.GenISA.LSC2DBlockCreateAddrPayload.p4i8(i64 %85, i32 %99, i32 %110, i32 %111, i32 0, i32 0, i32 8, i32 16, i32 1)		; visa id: 200
  %112 = shl nsw i32 %const_reg_dword47, 1, !spirv.Decorations !1210		; visa id: 207
  %113 = add i32 %112, -1		; visa id: 208
  %Block2D_AddrPayload115 = call i8 addrspace(4)* @llvm.genx.GenISA.LSC2DBlockCreateAddrPayload.p4i8(i64 %91, i32 %107, i32 %110, i32 %113, i32 0, i32 0, i32 16, i32 16, i32 2)		; visa id: 209
  %114 = and i32 %20, 65520		; visa id: 216
  %115 = add i32 %44, %114		; visa id: 217
  %Block2D_AddrPayload116 = call i8 addrspace(4)* @llvm.genx.GenISA.LSC2DBlockCreateAddrPayload.p4i8(i64 %67, i32 %99, i32 %100, i32 %101, i32 0, i32 0, i32 32, i32 16, i32 1)		; visa id: 218
  %Block2D_AddrPayload117 = call i8 addrspace(4)* @llvm.genx.GenISA.LSC2DBlockCreateAddrPayload.p4i8(i64 %73, i32 %99, i32 %103, i32 %104, i32 0, i32 0, i32 32, i32 2, i32 1)		; visa id: 225
  %Block2D_AddrPayload118 = call i8 addrspace(4)* @llvm.genx.GenISA.LSC2DBlockCreateAddrPayload.p4i8(i64 %79, i32 %107, i32 %103, i32 %108, i32 0, i32 0, i32 32, i32 2, i32 1)		; visa id: 232
  %Block2D_AddrPayload119 = call i8 addrspace(4)* @llvm.genx.GenISA.LSC2DBlockCreateAddrPayload.p4i8(i64 %85, i32 %99, i32 %110, i32 %111, i32 0, i32 0, i32 32, i32 2, i32 1)		; visa id: 239
  %Block2D_AddrPayload120 = call i8 addrspace(4)* @llvm.genx.GenISA.LSC2DBlockCreateAddrPayload.p4i8(i64 %91, i32 %107, i32 %110, i32 %113, i32 0, i32 0, i32 32, i32 2, i32 1)		; visa id: 246
  %116 = lshr i32 %20, 3		; visa id: 253
  %117 = and i32 %116, 8190		; visa id: 254
  %is-neg6728 = icmp slt i32 %const_reg_dword5, -31		; visa id: 255
  br i1 %is-neg6728, label %cond-add6729, label %cond-add-join6726.cond-add-join6730_crit_edge, !stats.blockFrequency.digits !1212, !stats.blockFrequency.scale !1206		; visa id: 256

cond-add-join6726.cond-add-join6730_crit_edge:    ; preds = %cond-add-join6726
; BB17 :
  %118 = add nsw i32 %const_reg_dword5, 31, !spirv.Decorations !1210		; visa id: 258
  br label %cond-add-join6730, !stats.blockFrequency.digits !1212, !stats.blockFrequency.scale !1213		; visa id: 259

cond-add6729:                                     ; preds = %cond-add-join6726
; BB18 :
  %119 = add i32 %const_reg_dword5, 62		; visa id: 261
  br label %cond-add-join6730, !stats.blockFrequency.digits !1212, !stats.blockFrequency.scale !1213		; visa id: 262

cond-add-join6730:                                ; preds = %cond-add-join6726.cond-add-join6730_crit_edge, %cond-add6729
; BB19 :
  %120 = phi i32 [ %118, %cond-add-join6726.cond-add-join6730_crit_edge ], [ %119, %cond-add6729 ]
  %121 = bitcast i64 %const_reg_qword56 to <2 x i32>		; visa id: 263
  %122 = extractelement <2 x i32> %121, i32 0		; visa id: 264
  %123 = extractelement <2 x i32> %121, i32 1		; visa id: 264
  %qot6731 = ashr i32 %120, 5		; visa id: 264
  %124 = icmp sgt i32 %const_reg_dword6, 0		; visa id: 265
  br i1 %124, label %.lr.ph183.preheader, label %cond-add-join6730..preheader.preheader_crit_edge, !stats.blockFrequency.digits !1212, !stats.blockFrequency.scale !1206		; visa id: 266

cond-add-join6730..preheader.preheader_crit_edge: ; preds = %cond-add-join6730
; BB:
  br label %.preheader.preheader, !stats.blockFrequency.digits !1214, !stats.blockFrequency.scale !1215

.lr.ph183.preheader:                              ; preds = %cond-add-join6730
; BB21 :
  br label %.lr.ph183, !stats.blockFrequency.digits !1216, !stats.blockFrequency.scale !1213		; visa id: 269

.lr.ph183:                                        ; preds = %.lr.ph183..lr.ph183_crit_edge, %.lr.ph183.preheader
; BB22 :
  %125 = phi i32 [ %127, %.lr.ph183..lr.ph183_crit_edge ], [ 0, %.lr.ph183.preheader ]
  %126 = shl nsw i32 %125, 5, !spirv.Decorations !1210		; visa id: 270
  call void @llvm.genx.GenISA.LSC2DBlockSetAddrPayloadField.p4i8.i32(i8 addrspace(4)* %Block2D_AddrPayload116, i32 5, i32 %126, i1 false)		; visa id: 271
  call void @llvm.genx.GenISA.LSC2DBlockSetAddrPayloadField.p4i8.i32(i8 addrspace(4)* %Block2D_AddrPayload116, i32 6, i32 %115, i1 false)		; visa id: 272
  call void asm sideeffect "lsc_load_block2d.ugm.ca.ca (M1, 1)  %null:d$1.$2x$3nn flat[$0+(0,0)]", "rw.u,P,P,P"(i8 addrspace(4)* %Block2D_AddrPayload116, i32 16, i32 32, i32 16) #0		; visa id: 273
  %127 = add nuw nsw i32 %125, 1, !spirv.Decorations !1217		; visa id: 273
  %128 = icmp slt i32 %127, %qot6727		; visa id: 274
  br i1 %128, label %.lr.ph183..lr.ph183_crit_edge, label %.preheader156, !stats.blockFrequency.digits !1219, !stats.blockFrequency.scale !1220		; visa id: 275

.lr.ph183..lr.ph183_crit_edge:                    ; preds = %.lr.ph183
; BB:
  br label %.lr.ph183, !stats.blockFrequency.digits !1221, !stats.blockFrequency.scale !1222

.preheader156:                                    ; preds = %.lr.ph183
; BB24 :
  br i1 true, label %.lr.ph180, label %.preheader156..preheader.preheader_crit_edge, !stats.blockFrequency.digits !1216, !stats.blockFrequency.scale !1213		; visa id: 277

.preheader156..preheader.preheader_crit_edge:     ; preds = %.preheader156
; BB:
  br label %.preheader.preheader, !stats.blockFrequency.digits !1216, !stats.blockFrequency.scale !1215

.lr.ph180:                                        ; preds = %.preheader156
; BB26 :
  %129 = icmp eq i32 %123, 0
  %130 = icmp eq i32 %122, 0		; visa id: 280
  %131 = and i1 %129, %130		; visa id: 281
  %132 = sext i32 %26 to i64		; visa id: 283
  %133 = shl nsw i64 %132, 2		; visa id: 284
  %134 = add i64 %133, %const_reg_qword56		; visa id: 285
  %135 = inttoptr i64 %134 to i32 addrspace(4)*		; visa id: 286
  %136 = addrspacecast i32 addrspace(4)* %135 to i32 addrspace(1)*		; visa id: 286
  %is-neg6732 = icmp slt i32 %const_reg_dword55, 0		; visa id: 287
  br i1 %is-neg6732, label %cond-add6733, label %.lr.ph180.cond-add-join6734_crit_edge, !stats.blockFrequency.digits !1216, !stats.blockFrequency.scale !1215		; visa id: 288

.lr.ph180.cond-add-join6734_crit_edge:            ; preds = %.lr.ph180
; BB27 :
  br label %cond-add-join6734, !stats.blockFrequency.digits !1223, !stats.blockFrequency.scale !1224		; visa id: 291

cond-add6733:                                     ; preds = %.lr.ph180
; BB28 :
  %const_reg_dword556735 = add i32 %const_reg_dword55, 31		; visa id: 293
  br label %cond-add-join6734, !stats.blockFrequency.digits !1225, !stats.blockFrequency.scale !1224		; visa id: 295

cond-add-join6734:                                ; preds = %.lr.ph180.cond-add-join6734_crit_edge, %cond-add6733
; BB29 :
  %const_reg_dword556736 = phi i32 [ %const_reg_dword55, %.lr.ph180.cond-add-join6734_crit_edge ], [ %const_reg_dword556735, %cond-add6733 ]
  %qot6737 = ashr i32 %const_reg_dword556736, 5		; visa id: 296
  %137 = icmp sgt i32 %const_reg_dword5, 0		; visa id: 297
  %138 = and i32 %120, -32		; visa id: 298
  %139 = sub i32 %117, %138		; visa id: 299
  %140 = icmp sgt i32 %const_reg_dword5, 32		; visa id: 300
  %141 = sub i32 32, %138
  %142 = add nuw nsw i32 %117, %141		; visa id: 301
  %tobool.i6791 = icmp eq i32 %const_reg_dword55, 0		; visa id: 302
  %shr.i6793 = ashr i32 %const_reg_dword55, 31		; visa id: 303
  %shr1.i6794 = ashr i32 %const_reg_dword5, 31		; visa id: 304
  %add.i6795 = add nsw i32 %shr.i6793, %const_reg_dword55		; visa id: 305
  %xor.i6796 = xor i32 %add.i6795, %shr.i6793		; visa id: 306
  %add2.i6797 = add nsw i32 %shr1.i6794, %const_reg_dword5		; visa id: 307
  %xor3.i6798 = xor i32 %add2.i6797, %shr1.i6794		; visa id: 308
  %xor21.i6809 = xor i32 %shr1.i6794, %shr.i6793		; visa id: 309
  %tobool.i6887 = icmp ult i32 %const_reg_dword556736, 32		; visa id: 310
  %shr.i6889 = ashr i32 %const_reg_dword556736, 31		; visa id: 311
  %add.i6890 = add nsw i32 %shr.i6889, %qot6737		; visa id: 312
  %xor.i6891 = xor i32 %add.i6890, %shr.i6889		; visa id: 313
  br label %143, !stats.blockFrequency.digits !1216, !stats.blockFrequency.scale !1215		; visa id: 315

143:                                              ; preds = %._crit_edge7183, %cond-add-join6734
; BB30 :
  %144 = phi i32 [ 0, %cond-add-join6734 ], [ %242, %._crit_edge7183 ]
  %145 = shl nsw i32 %144, 5, !spirv.Decorations !1210		; visa id: 316
  br i1 %137, label %146, label %177, !stats.blockFrequency.digits !1226, !stats.blockFrequency.scale !1227		; visa id: 317

146:                                              ; preds = %143
; BB31 :
  br i1 %131, label %147, label %164, !stats.blockFrequency.digits !1228, !stats.blockFrequency.scale !1229		; visa id: 319

147:                                              ; preds = %146
; BB32 :
  br i1 %tobool.i6791, label %if.then.i6792, label %if.end.i6822, !stats.blockFrequency.digits !1228, !stats.blockFrequency.scale !1209		; visa id: 321

if.then.i6792:                                    ; preds = %147
; BB33 :
  br label %precompiled_s32divrem_sp.exit6824, !stats.blockFrequency.digits !1230, !stats.blockFrequency.scale !1206		; visa id: 324

if.end.i6822:                                     ; preds = %147
; BB34 :
  %148 = call float @llvm.genx.GenISA.uitof.rtz.f32.i32(i32 %xor.i6796)		; visa id: 326
  %conv.i6799 = fptoui float %148 to i32		; visa id: 328
  %sub.i6800 = sub i32 %xor.i6796, %conv.i6799		; visa id: 329
  %149 = call float @llvm.genx.GenISA.uitof.rtz.f32.i32(i32 %xor3.i6798)		; visa id: 330
  %div.i6803 = fdiv float 1.000000e+00, %148, !fpmath !1207		; visa id: 331
  %150 = call float @llvm.genx.GenISA.fma.rtz.f32.f32.f32.f32(float %div.i6803, float 0xBE98000000000000, float %div.i6803)		; visa id: 332
  %151 = call float @llvm.genx.GenISA.mul.rtz.f32.f32.f32(float %149, float %150)		; visa id: 333
  %conv6.i6801 = fptoui float %149 to i32		; visa id: 334
  %sub7.i6802 = sub i32 %xor3.i6798, %conv6.i6801		; visa id: 335
  %conv11.i6804 = fptoui float %151 to i32		; visa id: 336
  %152 = call float @llvm.genx.GenISA.uitof.rtz.f32.i32(i32 %sub.i6800)		; visa id: 337
  %153 = call float @llvm.genx.GenISA.uitof.rtz.f32.i32(i32 %sub7.i6802)		; visa id: 338
  %154 = call float @llvm.genx.GenISA.uitof.rtz.f32.i32(i32 %conv11.i6804)		; visa id: 339
  %155 = fsub float 0.000000e+00, %148		; visa id: 340
  %156 = call float @llvm.genx.GenISA.fma.rtz.f32.f32.f32.f32(float %155, float %154, float %149)		; visa id: 341
  %157 = fsub float 0.000000e+00, %152		; visa id: 342
  %158 = call float @llvm.genx.GenISA.fma.rtz.f32.f32.f32.f32(float %157, float %154, float %153)		; visa id: 343
  %159 = call float @llvm.genx.GenISA.add.rtz.f32.f32.f32(float %156, float %158)		; visa id: 344
  %160 = call float @llvm.genx.GenISA.mul.rtz.f32.f32.f32(float %150, float %159)		; visa id: 345
  %conv19.i6807 = fptoui float %160 to i32		; visa id: 347
  %add20.i6808 = add i32 %conv19.i6807, %conv11.i6804		; visa id: 348
  %mul.i6810 = mul i32 %add20.i6808, %xor.i6796		; visa id: 349
  %sub22.i6811 = sub i32 %xor3.i6798, %mul.i6810		; visa id: 350
  %cmp.i6812 = icmp uge i32 %sub22.i6811, %xor.i6796
  %161 = sext i1 %cmp.i6812 to i32		; visa id: 351
  %162 = sub i32 0, %161
  %add24.i6819 = add i32 %add20.i6808, %xor21.i6809
  %add29.i6820 = add i32 %add24.i6819, %162		; visa id: 352
  %xor30.i6821 = xor i32 %add29.i6820, %xor21.i6809		; visa id: 353
  br label %precompiled_s32divrem_sp.exit6824, !stats.blockFrequency.digits !1231, !stats.blockFrequency.scale !1209		; visa id: 354

precompiled_s32divrem_sp.exit6824:                ; preds = %if.then.i6792, %if.end.i6822
; BB35 :
  %retval.0.i6823 = phi i32 [ %xor30.i6821, %if.end.i6822 ], [ -1, %if.then.i6792 ]
  %163 = mul nsw i32 %26, %retval.0.i6823, !spirv.Decorations !1210		; visa id: 355
  br label %166, !stats.blockFrequency.digits !1228, !stats.blockFrequency.scale !1209		; visa id: 356

164:                                              ; preds = %146
; BB36 :
  %165 = load i32, i32 addrspace(1)* %136, align 4		; visa id: 358
  br label %166, !stats.blockFrequency.digits !1228, !stats.blockFrequency.scale !1209		; visa id: 359

166:                                              ; preds = %precompiled_s32divrem_sp.exit6824, %164
; BB37 :
  %167 = phi i32 [ %165, %164 ], [ %163, %precompiled_s32divrem_sp.exit6824 ]
  %168 = sext i32 %167 to i64		; visa id: 360
  %169 = shl nsw i64 %168, 2		; visa id: 361
  %170 = add i64 %169, %const_reg_qword54		; visa id: 362
  %171 = inttoptr i64 %170 to i32 addrspace(4)*		; visa id: 363
  %172 = addrspacecast i32 addrspace(4)* %171 to i32 addrspace(1)*		; visa id: 363
  %173 = load i32, i32 addrspace(1)* %172, align 4		; visa id: 364
  %174 = mul nsw i32 %173, %qot6737, !spirv.Decorations !1210		; visa id: 365
  %175 = shl nsw i32 %174, 5, !spirv.Decorations !1210		; visa id: 366
  %176 = add nsw i32 %117, %175, !spirv.Decorations !1210		; visa id: 367
  call void @llvm.genx.GenISA.LSC2DBlockSetAddrPayloadField.p4i8.i32(i8 addrspace(4)* %Block2D_AddrPayload119, i32 5, i32 %145, i1 false)		; visa id: 368
  call void @llvm.genx.GenISA.LSC2DBlockSetAddrPayloadField.p4i8.i32(i8 addrspace(4)* %Block2D_AddrPayload119, i32 6, i32 %176, i1 false)		; visa id: 369
  call void asm sideeffect "lsc_load_block2d.ugm.ca.ca (M1, 1)  %null:d$1.$2x$3nn flat[$0+(0,0)]", "rw.u,P,P,P"(i8 addrspace(4)* %Block2D_AddrPayload119, i32 16, i32 32, i32 2) #0		; visa id: 370
  br label %178, !stats.blockFrequency.digits !1228, !stats.blockFrequency.scale !1229		; visa id: 370

177:                                              ; preds = %143
; BB38 :
  call void @llvm.genx.GenISA.LSC2DBlockSetAddrPayloadField.p4i8.i32(i8 addrspace(4)* %Block2D_AddrPayload117, i32 5, i32 %145, i1 false)		; visa id: 372
  call void @llvm.genx.GenISA.LSC2DBlockSetAddrPayloadField.p4i8.i32(i8 addrspace(4)* %Block2D_AddrPayload117, i32 6, i32 %139, i1 false)		; visa id: 373
  call void asm sideeffect "lsc_load_block2d.ugm.ca.ca (M1, 1)  %null:d$1.$2x$3nn flat[$0+(0,0)]", "rw.u,P,P,P"(i8 addrspace(4)* %Block2D_AddrPayload117, i32 16, i32 32, i32 2) #0		; visa id: 374
  br label %178, !stats.blockFrequency.digits !1232, !stats.blockFrequency.scale !1229		; visa id: 374

178:                                              ; preds = %177, %166
; BB39 :
  br i1 %140, label %179, label %240, !stats.blockFrequency.digits !1226, !stats.blockFrequency.scale !1227		; visa id: 375

179:                                              ; preds = %178
; BB40 :
  br i1 %131, label %180, label %197, !stats.blockFrequency.digits !1226, !stats.blockFrequency.scale !1229		; visa id: 377

180:                                              ; preds = %179
; BB41 :
  br i1 %tobool.i6791, label %if.then.i6826, label %if.end.i6856, !stats.blockFrequency.digits !1208, !stats.blockFrequency.scale !1209		; visa id: 379

if.then.i6826:                                    ; preds = %180
; BB42 :
  br label %precompiled_s32divrem_sp.exit6858, !stats.blockFrequency.digits !1233, !stats.blockFrequency.scale !1206		; visa id: 382

if.end.i6856:                                     ; preds = %180
; BB43 :
  %181 = call float @llvm.genx.GenISA.uitof.rtz.f32.i32(i32 %xor.i6796)		; visa id: 384
  %conv.i6833 = fptoui float %181 to i32		; visa id: 386
  %sub.i6834 = sub i32 %xor.i6796, %conv.i6833		; visa id: 387
  %182 = call float @llvm.genx.GenISA.uitof.rtz.f32.i32(i32 %xor3.i6798)		; visa id: 388
  %div.i6837 = fdiv float 1.000000e+00, %181, !fpmath !1207		; visa id: 389
  %183 = call float @llvm.genx.GenISA.fma.rtz.f32.f32.f32.f32(float %div.i6837, float 0xBE98000000000000, float %div.i6837)		; visa id: 390
  %184 = call float @llvm.genx.GenISA.mul.rtz.f32.f32.f32(float %182, float %183)		; visa id: 391
  %conv6.i6835 = fptoui float %182 to i32		; visa id: 392
  %sub7.i6836 = sub i32 %xor3.i6798, %conv6.i6835		; visa id: 393
  %conv11.i6838 = fptoui float %184 to i32		; visa id: 394
  %185 = call float @llvm.genx.GenISA.uitof.rtz.f32.i32(i32 %sub.i6834)		; visa id: 395
  %186 = call float @llvm.genx.GenISA.uitof.rtz.f32.i32(i32 %sub7.i6836)		; visa id: 396
  %187 = call float @llvm.genx.GenISA.uitof.rtz.f32.i32(i32 %conv11.i6838)		; visa id: 397
  %188 = fsub float 0.000000e+00, %181		; visa id: 398
  %189 = call float @llvm.genx.GenISA.fma.rtz.f32.f32.f32.f32(float %188, float %187, float %182)		; visa id: 399
  %190 = fsub float 0.000000e+00, %185		; visa id: 400
  %191 = call float @llvm.genx.GenISA.fma.rtz.f32.f32.f32.f32(float %190, float %187, float %186)		; visa id: 401
  %192 = call float @llvm.genx.GenISA.add.rtz.f32.f32.f32(float %189, float %191)		; visa id: 402
  %193 = call float @llvm.genx.GenISA.mul.rtz.f32.f32.f32(float %183, float %192)		; visa id: 403
  %conv19.i6841 = fptoui float %193 to i32		; visa id: 405
  %add20.i6842 = add i32 %conv19.i6841, %conv11.i6838		; visa id: 406
  %mul.i6844 = mul i32 %add20.i6842, %xor.i6796		; visa id: 407
  %sub22.i6845 = sub i32 %xor3.i6798, %mul.i6844		; visa id: 408
  %cmp.i6846 = icmp uge i32 %sub22.i6845, %xor.i6796
  %194 = sext i1 %cmp.i6846 to i32		; visa id: 409
  %195 = sub i32 0, %194
  %add24.i6853 = add i32 %add20.i6842, %xor21.i6809
  %add29.i6854 = add i32 %add24.i6853, %195		; visa id: 410
  %xor30.i6855 = xor i32 %add29.i6854, %xor21.i6809		; visa id: 411
  br label %precompiled_s32divrem_sp.exit6858, !stats.blockFrequency.digits !1234, !stats.blockFrequency.scale !1206		; visa id: 412

precompiled_s32divrem_sp.exit6858:                ; preds = %if.then.i6826, %if.end.i6856
; BB44 :
  %retval.0.i6857 = phi i32 [ %xor30.i6855, %if.end.i6856 ], [ -1, %if.then.i6826 ]
  %196 = mul nsw i32 %26, %retval.0.i6857, !spirv.Decorations !1210		; visa id: 413
  br label %199, !stats.blockFrequency.digits !1208, !stats.blockFrequency.scale !1209		; visa id: 414

197:                                              ; preds = %179
; BB45 :
  %198 = load i32, i32 addrspace(1)* %136, align 4		; visa id: 416
  br label %199, !stats.blockFrequency.digits !1208, !stats.blockFrequency.scale !1209		; visa id: 417

199:                                              ; preds = %precompiled_s32divrem_sp.exit6858, %197
; BB46 :
  %200 = phi i32 [ %198, %197 ], [ %196, %precompiled_s32divrem_sp.exit6858 ]
  br i1 %tobool.i6791, label %if.then.i6860, label %if.end.i6884, !stats.blockFrequency.digits !1226, !stats.blockFrequency.scale !1229		; visa id: 418

if.then.i6860:                                    ; preds = %199
; BB47 :
  br label %precompiled_s32divrem_sp.exit6886, !stats.blockFrequency.digits !1235, !stats.blockFrequency.scale !1209		; visa id: 421

if.end.i6884:                                     ; preds = %199
; BB48 :
  %201 = call float @llvm.genx.GenISA.uitof.rtz.f32.i32(i32 %xor.i6796)		; visa id: 423
  %conv.i6864 = fptoui float %201 to i32		; visa id: 425
  %sub.i6865 = sub i32 %xor.i6796, %conv.i6864		; visa id: 426
  %202 = call float @llvm.genx.GenISA.uitof.rtz.f32.i32(i32 32)		; visa id: 427
  %div.i6868 = fdiv float 1.000000e+00, %201, !fpmath !1207		; visa id: 428
  %203 = call float @llvm.genx.GenISA.fma.rtz.f32.f32.f32.f32(float %div.i6868, float 0xBE98000000000000, float %div.i6868)		; visa id: 429
  %204 = call float @llvm.genx.GenISA.mul.rtz.f32.f32.f32(float %202, float %203)		; visa id: 430
  %conv6.i6866 = fptoui float %202 to i32		; visa id: 431
  %sub7.i6867 = sub i32 32, %conv6.i6866		; visa id: 432
  %conv11.i6869 = fptoui float %204 to i32		; visa id: 433
  %205 = call float @llvm.genx.GenISA.uitof.rtz.f32.i32(i32 %sub.i6865)		; visa id: 434
  %206 = call float @llvm.genx.GenISA.uitof.rtz.f32.i32(i32 %sub7.i6867)		; visa id: 435
  %207 = call float @llvm.genx.GenISA.uitof.rtz.f32.i32(i32 %conv11.i6869)		; visa id: 436
  %208 = fsub float 0.000000e+00, %201		; visa id: 437
  %209 = call float @llvm.genx.GenISA.fma.rtz.f32.f32.f32.f32(float %208, float %207, float %202)		; visa id: 438
  %210 = fsub float 0.000000e+00, %205		; visa id: 439
  %211 = call float @llvm.genx.GenISA.fma.rtz.f32.f32.f32.f32(float %210, float %207, float %206)		; visa id: 440
  %212 = call float @llvm.genx.GenISA.add.rtz.f32.f32.f32(float %209, float %211)		; visa id: 441
  %213 = call float @llvm.genx.GenISA.mul.rtz.f32.f32.f32(float %203, float %212)		; visa id: 442
  %conv19.i6872 = fptoui float %213 to i32		; visa id: 444
  %add20.i6873 = add i32 %conv19.i6872, %conv11.i6869		; visa id: 445
  %mul.i6874 = mul i32 %add20.i6873, %xor.i6796		; visa id: 446
  %sub22.i6875 = sub i32 32, %mul.i6874		; visa id: 447
  %cmp.i6876 = icmp uge i32 %sub22.i6875, %xor.i6796
  %214 = sext i1 %cmp.i6876 to i32		; visa id: 448
  %215 = sub i32 0, %214
  %add24.i6881 = add i32 %add20.i6873, %shr.i6793
  %add29.i6882 = add i32 %add24.i6881, %215		; visa id: 449
  %xor30.i6883 = xor i32 %add29.i6882, %shr.i6793		; visa id: 450
  br label %precompiled_s32divrem_sp.exit6886, !stats.blockFrequency.digits !1228, !stats.blockFrequency.scale !1209		; visa id: 451

precompiled_s32divrem_sp.exit6886:                ; preds = %if.then.i6860, %if.end.i6884
; BB49 :
  %retval.0.i6885 = phi i32 [ %xor30.i6883, %if.end.i6884 ], [ -1, %if.then.i6860 ]
  %216 = add nsw i32 %200, %retval.0.i6885, !spirv.Decorations !1210		; visa id: 452
  %217 = sext i32 %216 to i64		; visa id: 453
  %218 = shl nsw i64 %217, 2		; visa id: 454
  %219 = add i64 %218, %const_reg_qword54		; visa id: 455
  %220 = inttoptr i64 %219 to i32 addrspace(4)*		; visa id: 456
  %221 = addrspacecast i32 addrspace(4)* %220 to i32 addrspace(1)*		; visa id: 456
  %222 = load i32, i32 addrspace(1)* %221, align 4		; visa id: 457
  %223 = mul nsw i32 %222, %qot6737, !spirv.Decorations !1210		; visa id: 458
  br i1 %tobool.i6887, label %if.then.i6888, label %if.end.i6912, !stats.blockFrequency.digits !1226, !stats.blockFrequency.scale !1229		; visa id: 459

if.then.i6888:                                    ; preds = %precompiled_s32divrem_sp.exit6886
; BB50 :
  br label %precompiled_s32divrem_sp.exit6914, !stats.blockFrequency.digits !1208, !stats.blockFrequency.scale !1209		; visa id: 462

if.end.i6912:                                     ; preds = %precompiled_s32divrem_sp.exit6886
; BB51 :
  %224 = call float @llvm.genx.GenISA.uitof.rtz.f32.i32(i32 %xor.i6891)		; visa id: 464
  %conv.i6892 = fptoui float %224 to i32		; visa id: 466
  %sub.i6893 = sub i32 %xor.i6891, %conv.i6892		; visa id: 467
  %225 = call float @llvm.genx.GenISA.uitof.rtz.f32.i32(i32 1)		; visa id: 468
  %div.i6896 = fdiv float 1.000000e+00, %224, !fpmath !1207		; visa id: 469
  %226 = call float @llvm.genx.GenISA.fma.rtz.f32.f32.f32.f32(float %div.i6896, float 0xBE98000000000000, float %div.i6896)		; visa id: 470
  %227 = call float @llvm.genx.GenISA.mul.rtz.f32.f32.f32(float %225, float %226)		; visa id: 471
  %conv6.i6894 = fptoui float %225 to i32		; visa id: 472
  %sub7.i6895 = sub i32 1, %conv6.i6894		; visa id: 473
  %conv11.i6897 = fptoui float %227 to i32		; visa id: 474
  %228 = call float @llvm.genx.GenISA.uitof.rtz.f32.i32(i32 %sub.i6893)		; visa id: 475
  %229 = call float @llvm.genx.GenISA.uitof.rtz.f32.i32(i32 %sub7.i6895)		; visa id: 476
  %230 = call float @llvm.genx.GenISA.uitof.rtz.f32.i32(i32 %conv11.i6897)		; visa id: 477
  %231 = fsub float 0.000000e+00, %224		; visa id: 478
  %232 = call float @llvm.genx.GenISA.fma.rtz.f32.f32.f32.f32(float %231, float %230, float %225)		; visa id: 479
  %233 = fsub float 0.000000e+00, %228		; visa id: 480
  %234 = call float @llvm.genx.GenISA.fma.rtz.f32.f32.f32.f32(float %233, float %230, float %229)		; visa id: 481
  %235 = call float @llvm.genx.GenISA.add.rtz.f32.f32.f32(float %232, float %234)		; visa id: 482
  %236 = call float @llvm.genx.GenISA.mul.rtz.f32.f32.f32(float %226, float %235)		; visa id: 483
  %conv19.i6900 = fptoui float %236 to i32		; visa id: 485
  %add20.i6901 = add i32 %conv19.i6900, %conv11.i6897		; visa id: 486
  %mul.i6902 = mul i32 %add20.i6901, %xor.i6891		; visa id: 487
  %sub22.i6903 = sub i32 1, %mul.i6902		; visa id: 488
  %cmp.i6904.not = icmp ult i32 %sub22.i6903, %xor.i6891		; visa id: 489
  %and25.i6907 = select i1 %cmp.i6904.not, i32 0, i32 %xor.i6891		; visa id: 490
  %add27.i6908 = sub i32 %sub22.i6903, %and25.i6907		; visa id: 491
  br label %precompiled_s32divrem_sp.exit6914, !stats.blockFrequency.digits !1208, !stats.blockFrequency.scale !1209		; visa id: 492

precompiled_s32divrem_sp.exit6914:                ; preds = %if.then.i6888, %if.end.i6912
; BB52 :
  %Remainder6748.0 = phi i32 [ -1, %if.then.i6888 ], [ %add27.i6908, %if.end.i6912 ]
  %237 = add nsw i32 %223, %Remainder6748.0, !spirv.Decorations !1210		; visa id: 493
  %238 = shl nsw i32 %237, 5, !spirv.Decorations !1210		; visa id: 494
  %239 = add nsw i32 %117, %238, !spirv.Decorations !1210		; visa id: 495
  call void @llvm.genx.GenISA.LSC2DBlockSetAddrPayloadField.p4i8.i32(i8 addrspace(4)* %Block2D_AddrPayload119, i32 5, i32 %145, i1 false)		; visa id: 496
  call void @llvm.genx.GenISA.LSC2DBlockSetAddrPayloadField.p4i8.i32(i8 addrspace(4)* %Block2D_AddrPayload119, i32 6, i32 %239, i1 false)		; visa id: 497
  call void asm sideeffect "lsc_load_block2d.ugm.ca.ca (M1, 1)  %null:d$1.$2x$3nn flat[$0+(0,0)]", "rw.u,P,P,P"(i8 addrspace(4)* %Block2D_AddrPayload119, i32 16, i32 32, i32 2) #0		; visa id: 498
  br label %241, !stats.blockFrequency.digits !1226, !stats.blockFrequency.scale !1229		; visa id: 498

240:                                              ; preds = %178
; BB53 :
  call void @llvm.genx.GenISA.LSC2DBlockSetAddrPayloadField.p4i8.i32(i8 addrspace(4)* %Block2D_AddrPayload117, i32 5, i32 %145, i1 false)		; visa id: 500
  call void @llvm.genx.GenISA.LSC2DBlockSetAddrPayloadField.p4i8.i32(i8 addrspace(4)* %Block2D_AddrPayload117, i32 6, i32 %142, i1 false)		; visa id: 501
  call void asm sideeffect "lsc_load_block2d.ugm.ca.ca (M1, 1)  %null:d$1.$2x$3nn flat[$0+(0,0)]", "rw.u,P,P,P"(i8 addrspace(4)* %Block2D_AddrPayload117, i32 16, i32 32, i32 2) #0		; visa id: 502
  br label %241, !stats.blockFrequency.digits !1226, !stats.blockFrequency.scale !1229		; visa id: 502

241:                                              ; preds = %precompiled_s32divrem_sp.exit6914, %240
; BB54 :
  %242 = add nuw nsw i32 %144, 1, !spirv.Decorations !1217		; visa id: 503
  %243 = icmp slt i32 %242, %qot6727		; visa id: 504
  br i1 %243, label %._crit_edge7183, label %.preheader.preheader.loopexit, !stats.blockFrequency.digits !1226, !stats.blockFrequency.scale !1227		; visa id: 505

.preheader.preheader.loopexit:                    ; preds = %241
; BB:
  br label %.preheader.preheader, !stats.blockFrequency.digits !1216, !stats.blockFrequency.scale !1215

._crit_edge7183:                                  ; preds = %241
; BB:
  br label %143, !stats.blockFrequency.digits !1221, !stats.blockFrequency.scale !1227

.preheader.preheader:                             ; preds = %.preheader156..preheader.preheader_crit_edge, %cond-add-join6730..preheader.preheader_crit_edge, %.preheader.preheader.loopexit
; BB57 :
  %244 = icmp sgt i32 %const_reg_dword5, 0		; visa id: 507
  br i1 %244, label %.lr.ph176, label %.preheader.preheader.._crit_edge177_crit_edge, !stats.blockFrequency.digits !1212, !stats.blockFrequency.scale !1206		; visa id: 508

.preheader.preheader.._crit_edge177_crit_edge:    ; preds = %.preheader.preheader
; BB58 :
  br label %._crit_edge177, !stats.blockFrequency.digits !1214, !stats.blockFrequency.scale !1215		; visa id: 640

.lr.ph176:                                        ; preds = %.preheader.preheader
; BB59 :
  %245 = icmp eq i32 %123, 0
  %246 = icmp eq i32 %122, 0		; visa id: 642
  %247 = and i1 %245, %246		; visa id: 643
  %248 = sext i32 %26 to i64		; visa id: 645
  %249 = shl nsw i64 %248, 2		; visa id: 646
  %250 = add i64 %249, %const_reg_qword56		; visa id: 647
  %251 = inttoptr i64 %250 to i32 addrspace(4)*		; visa id: 648
  %252 = addrspacecast i32 addrspace(4)* %251 to i32 addrspace(1)*		; visa id: 648
  %is-neg6738 = icmp slt i32 %const_reg_dword55, 0		; visa id: 649
  br i1 %is-neg6738, label %cond-add6739, label %.lr.ph176.cond-add-join6740_crit_edge, !stats.blockFrequency.digits !1216, !stats.blockFrequency.scale !1213		; visa id: 650

.lr.ph176.cond-add-join6740_crit_edge:            ; preds = %.lr.ph176
; BB60 :
  br label %cond-add-join6740, !stats.blockFrequency.digits !1223, !stats.blockFrequency.scale !1215		; visa id: 653

cond-add6739:                                     ; preds = %.lr.ph176
; BB61 :
  %const_reg_dword556741 = add i32 %const_reg_dword55, 31		; visa id: 655
  br label %cond-add-join6740, !stats.blockFrequency.digits !1236, !stats.blockFrequency.scale !1215		; visa id: 656

cond-add-join6740:                                ; preds = %.lr.ph176.cond-add-join6740_crit_edge, %cond-add6739
; BB62 :
  %const_reg_dword556742 = phi i32 [ %const_reg_dword55, %.lr.ph176.cond-add-join6740_crit_edge ], [ %const_reg_dword556741, %cond-add6739 ]
  %qot6743 = ashr i32 %const_reg_dword556742, 5		; visa id: 657
  %smax194 = call i32 @llvm.smax.i32(i32 %qot6727, i32 1)		; visa id: 658
  %xtraiter195 = and i32 %smax194, 1
  %253 = icmp slt i32 %const_reg_dword6, 33		; visa id: 659
  %unroll_iter198 = and i32 %smax194, 2147483646		; visa id: 660
  %lcmp.mod197.not = icmp eq i32 %xtraiter195, 0		; visa id: 661
  %254 = and i32 %96, 268435328		; visa id: 663
  %255 = or i32 %254, 32		; visa id: 664
  %256 = or i32 %254, 64		; visa id: 665
  %257 = or i32 %254, 96		; visa id: 666
  %tobool.i6915 = icmp eq i32 %const_reg_dword55, 0		; visa id: 667
  %shr.i6917 = ashr i32 %const_reg_dword55, 31		; visa id: 668
  %shr1.i6918 = ashr i32 %const_reg_dword5, 31		; visa id: 669
  %add.i6919 = add nsw i32 %shr.i6917, %const_reg_dword55		; visa id: 670
  %xor.i6920 = xor i32 %add.i6919, %shr.i6917		; visa id: 671
  %add2.i6921 = add nsw i32 %shr1.i6918, %const_reg_dword5		; visa id: 672
  %xor3.i6922 = xor i32 %add2.i6921, %shr1.i6918		; visa id: 673
  %xor21.i6933 = xor i32 %shr1.i6918, %shr.i6917		; visa id: 674
  %tobool.i6983 = icmp ult i32 %const_reg_dword556742, 32		; visa id: 675
  %shr.i6985 = ashr i32 %const_reg_dword556742, 31		; visa id: 676
  %add.i6987 = add nsw i32 %shr.i6985, %qot6743		; visa id: 677
  %xor.i6988 = xor i32 %add.i6987, %shr.i6985		; visa id: 678
  br label %258, !stats.blockFrequency.digits !1216, !stats.blockFrequency.scale !1213		; visa id: 810

258:                                              ; preds = %_ZZN7cutlass4fmha10collective15FMHAFwdMainloopINS0_9XeDefaultILi2EEELb1ELb1ELb1EN4cute8TiledMMAINS5_8MMA_AtomIJNS5_10XE_DPAS_TTILi8EfNS_10bfloat16_tES9_fEEEEENS5_6LayoutINS5_5tupleIJNS5_1CILi16EEENSE_ILi1EEESG_EEENSD_IJSG_NSE_ILi0EEESI_EEEEEKNSD_IJNSC_INSD_IJNSE_ILi8EEESF_NSE_ILi2EEEEEENSD_IJSG_SF_SL_EEEEENSC_INSE_ILi32EEESG_EESR_EEEEESU_Li4ENS5_6TensorINS5_10ViewEngineINS5_8gmem_ptrIPS9_EEEENSC_INSD_IJiiiiEEENSD_IJiSG_iiEEEEEEES14_NSV_IS10_NSC_IS11_NSD_IJSG_iiiEEEEEEES14_S17_vvvvvEclINSD_IJjjEEEEEvRKNSV_IS10_NSC_INSD_IJiiEEENSD_IJiSG_EEEEEEES1G_RKNSV_IS10_NSC_IS1B_NSD_IJSG_iEEEEEEERNS5_14SubgroupTensorINS5_11ArrayEngineIfLm128EEENSC_INSD_IJSL_SM_SM_NSE_ILi4EEEEEENSD_IJSG_SL_SF_SQ_EEEEENSC_INSD_IJSF_NSD_IJSL_NSD_IJSM_SM_EEES1P_EEEEEENSD_IJNS5_11ScaledBasisISG_JLi1EEEENSD_IJNS1W_ISG_JLi0EEEENSD_IJNS1W_ISL_JLi0EEEENS1W_ISF_JLi1EEEEEEENS1W_ISQ_JLi1EEEEEEEEEEEEEERNSV_INS1N_IfLm1EEENSC_ISG_SI_EEEES2B_T_iiiiiiiiiS1G_S1L_ENKUlS2C_iRT0_RT1_RT2_RT3_RT4_RT5_E_clISt17integral_constantIbLb1EENS5_9TiledCopyINS5_9Copy_Atom._crit_edge, %cond-add-join6740
; BB63 :
  %.sroa.724.1 = phi <8 x float> [ zeroinitializer, %cond-add-join6740 ], [ %1556, %_ZZN7cutlass4fmha10collective15FMHAFwdMainloopINS0_9XeDefaultILi2EEELb1ELb1ELb1EN4cute8TiledMMAINS5_8MMA_AtomIJNS5_10XE_DPAS_TTILi8EfNS_10bfloat16_tES9_fEEEEENS5_6LayoutINS5_5tupleIJNS5_1CILi16EEENSE_ILi1EEESG_EEENSD_IJSG_NSE_ILi0EEESI_EEEEEKNSD_IJNSC_INSD_IJNSE_ILi8EEESF_NSE_ILi2EEEEEENSD_IJSG_SF_SL_EEEEENSC_INSE_ILi32EEESG_EESR_EEEEESU_Li4ENS5_6TensorINS5_10ViewEngineINS5_8gmem_ptrIPS9_EEEENSC_INSD_IJiiiiEEENSD_IJiSG_iiEEEEEEES14_NSV_IS10_NSC_IS11_NSD_IJSG_iiiEEEEEEES14_S17_vvvvvEclINSD_IJjjEEEEEvRKNSV_IS10_NSC_INSD_IJiiEEENSD_IJiSG_EEEEEEES1G_RKNSV_IS10_NSC_IS1B_NSD_IJSG_iEEEEEEERNS5_14SubgroupTensorINS5_11ArrayEngineIfLm128EEENSC_INSD_IJSL_SM_SM_NSE_ILi4EEEEEENSD_IJSG_SL_SF_SQ_EEEEENSC_INSD_IJSF_NSD_IJSL_NSD_IJSM_SM_EEES1P_EEEEEENSD_IJNS5_11ScaledBasisISG_JLi1EEEENSD_IJNS1W_ISG_JLi0EEEENSD_IJNS1W_ISL_JLi0EEEENS1W_ISF_JLi1EEEEEEENS1W_ISQ_JLi1EEEEEEEEEEEEEERNSV_INS1N_IfLm1EEENSC_ISG_SI_EEEES2B_T_iiiiiiiiiS1G_S1L_ENKUlS2C_iRT0_RT1_RT2_RT3_RT4_RT5_E_clISt17integral_constantIbLb1EENS5_9TiledCopyINS5_9Copy_Atom._crit_edge ]
  %.sroa.676.1 = phi <8 x float> [ zeroinitializer, %cond-add-join6740 ], [ %1557, %_ZZN7cutlass4fmha10collective15FMHAFwdMainloopINS0_9XeDefaultILi2EEELb1ELb1ELb1EN4cute8TiledMMAINS5_8MMA_AtomIJNS5_10XE_DPAS_TTILi8EfNS_10bfloat16_tES9_fEEEEENS5_6LayoutINS5_5tupleIJNS5_1CILi16EEENSE_ILi1EEESG_EEENSD_IJSG_NSE_ILi0EEESI_EEEEEKNSD_IJNSC_INSD_IJNSE_ILi8EEESF_NSE_ILi2EEEEEENSD_IJSG_SF_SL_EEEEENSC_INSE_ILi32EEESG_EESR_EEEEESU_Li4ENS5_6TensorINS5_10ViewEngineINS5_8gmem_ptrIPS9_EEEENSC_INSD_IJiiiiEEENSD_IJiSG_iiEEEEEEES14_NSV_IS10_NSC_IS11_NSD_IJSG_iiiEEEEEEES14_S17_vvvvvEclINSD_IJjjEEEEEvRKNSV_IS10_NSC_INSD_IJiiEEENSD_IJiSG_EEEEEEES1G_RKNSV_IS10_NSC_IS1B_NSD_IJSG_iEEEEEEERNS5_14SubgroupTensorINS5_11ArrayEngineIfLm128EEENSC_INSD_IJSL_SM_SM_NSE_ILi4EEEEEENSD_IJSG_SL_SF_SQ_EEEEENSC_INSD_IJSF_NSD_IJSL_NSD_IJSM_SM_EEES1P_EEEEEENSD_IJNS5_11ScaledBasisISG_JLi1EEEENSD_IJNS1W_ISG_JLi0EEEENSD_IJNS1W_ISL_JLi0EEEENS1W_ISF_JLi1EEEEEEENS1W_ISQ_JLi1EEEEEEEEEEEEEERNSV_INS1N_IfLm1EEENSC_ISG_SI_EEEES2B_T_iiiiiiiiiS1G_S1L_ENKUlS2C_iRT0_RT1_RT2_RT3_RT4_RT5_E_clISt17integral_constantIbLb1EENS5_9TiledCopyINS5_9Copy_Atom._crit_edge ]
  %.sroa.628.1 = phi <8 x float> [ zeroinitializer, %cond-add-join6740 ], [ %1555, %_ZZN7cutlass4fmha10collective15FMHAFwdMainloopINS0_9XeDefaultILi2EEELb1ELb1ELb1EN4cute8TiledMMAINS5_8MMA_AtomIJNS5_10XE_DPAS_TTILi8EfNS_10bfloat16_tES9_fEEEEENS5_6LayoutINS5_5tupleIJNS5_1CILi16EEENSE_ILi1EEESG_EEENSD_IJSG_NSE_ILi0EEESI_EEEEEKNSD_IJNSC_INSD_IJNSE_ILi8EEESF_NSE_ILi2EEEEEENSD_IJSG_SF_SL_EEEEENSC_INSE_ILi32EEESG_EESR_EEEEESU_Li4ENS5_6TensorINS5_10ViewEngineINS5_8gmem_ptrIPS9_EEEENSC_INSD_IJiiiiEEENSD_IJiSG_iiEEEEEEES14_NSV_IS10_NSC_IS11_NSD_IJSG_iiiEEEEEEES14_S17_vvvvvEclINSD_IJjjEEEEEvRKNSV_IS10_NSC_INSD_IJiiEEENSD_IJiSG_EEEEEEES1G_RKNSV_IS10_NSC_IS1B_NSD_IJSG_iEEEEEEERNS5_14SubgroupTensorINS5_11ArrayEngineIfLm128EEENSC_INSD_IJSL_SM_SM_NSE_ILi4EEEEEENSD_IJSG_SL_SF_SQ_EEEEENSC_INSD_IJSF_NSD_IJSL_NSD_IJSM_SM_EEES1P_EEEEEENSD_IJNS5_11ScaledBasisISG_JLi1EEEENSD_IJNS1W_ISG_JLi0EEEENSD_IJNS1W_ISL_JLi0EEEENS1W_ISF_JLi1EEEEEEENS1W_ISQ_JLi1EEEEEEEEEEEEEERNSV_INS1N_IfLm1EEENSC_ISG_SI_EEEES2B_T_iiiiiiiiiS1G_S1L_ENKUlS2C_iRT0_RT1_RT2_RT3_RT4_RT5_E_clISt17integral_constantIbLb1EENS5_9TiledCopyINS5_9Copy_Atom._crit_edge ]
  %.sroa.580.1 = phi <8 x float> [ zeroinitializer, %cond-add-join6740 ], [ %1554, %_ZZN7cutlass4fmha10collective15FMHAFwdMainloopINS0_9XeDefaultILi2EEELb1ELb1ELb1EN4cute8TiledMMAINS5_8MMA_AtomIJNS5_10XE_DPAS_TTILi8EfNS_10bfloat16_tES9_fEEEEENS5_6LayoutINS5_5tupleIJNS5_1CILi16EEENSE_ILi1EEESG_EEENSD_IJSG_NSE_ILi0EEESI_EEEEEKNSD_IJNSC_INSD_IJNSE_ILi8EEESF_NSE_ILi2EEEEEENSD_IJSG_SF_SL_EEEEENSC_INSE_ILi32EEESG_EESR_EEEEESU_Li4ENS5_6TensorINS5_10ViewEngineINS5_8gmem_ptrIPS9_EEEENSC_INSD_IJiiiiEEENSD_IJiSG_iiEEEEEEES14_NSV_IS10_NSC_IS11_NSD_IJSG_iiiEEEEEEES14_S17_vvvvvEclINSD_IJjjEEEEEvRKNSV_IS10_NSC_INSD_IJiiEEENSD_IJiSG_EEEEEEES1G_RKNSV_IS10_NSC_IS1B_NSD_IJSG_iEEEEEEERNS5_14SubgroupTensorINS5_11ArrayEngineIfLm128EEENSC_INSD_IJSL_SM_SM_NSE_ILi4EEEEEENSD_IJSG_SL_SF_SQ_EEEEENSC_INSD_IJSF_NSD_IJSL_NSD_IJSM_SM_EEES1P_EEEEEENSD_IJNS5_11ScaledBasisISG_JLi1EEEENSD_IJNS1W_ISG_JLi0EEEENSD_IJNS1W_ISL_JLi0EEEENS1W_ISF_JLi1EEEEEEENS1W_ISQ_JLi1EEEEEEEEEEEEEERNSV_INS1N_IfLm1EEENSC_ISG_SI_EEEES2B_T_iiiiiiiiiS1G_S1L_ENKUlS2C_iRT0_RT1_RT2_RT3_RT4_RT5_E_clISt17integral_constantIbLb1EENS5_9TiledCopyINS5_9Copy_Atom._crit_edge ]
  %.sroa.532.1 = phi <8 x float> [ zeroinitializer, %cond-add-join6740 ], [ %1418, %_ZZN7cutlass4fmha10collective15FMHAFwdMainloopINS0_9XeDefaultILi2EEELb1ELb1ELb1EN4cute8TiledMMAINS5_8MMA_AtomIJNS5_10XE_DPAS_TTILi8EfNS_10bfloat16_tES9_fEEEEENS5_6LayoutINS5_5tupleIJNS5_1CILi16EEENSE_ILi1EEESG_EEENSD_IJSG_NSE_ILi0EEESI_EEEEEKNSD_IJNSC_INSD_IJNSE_ILi8EEESF_NSE_ILi2EEEEEENSD_IJSG_SF_SL_EEEEENSC_INSE_ILi32EEESG_EESR_EEEEESU_Li4ENS5_6TensorINS5_10ViewEngineINS5_8gmem_ptrIPS9_EEEENSC_INSD_IJiiiiEEENSD_IJiSG_iiEEEEEEES14_NSV_IS10_NSC_IS11_NSD_IJSG_iiiEEEEEEES14_S17_vvvvvEclINSD_IJjjEEEEEvRKNSV_IS10_NSC_INSD_IJiiEEENSD_IJiSG_EEEEEEES1G_RKNSV_IS10_NSC_IS1B_NSD_IJSG_iEEEEEEERNS5_14SubgroupTensorINS5_11ArrayEngineIfLm128EEENSC_INSD_IJSL_SM_SM_NSE_ILi4EEEEEENSD_IJSG_SL_SF_SQ_EEEEENSC_INSD_IJSF_NSD_IJSL_NSD_IJSM_SM_EEES1P_EEEEEENSD_IJNS5_11ScaledBasisISG_JLi1EEEENSD_IJNS1W_ISG_JLi0EEEENSD_IJNS1W_ISL_JLi0EEEENS1W_ISF_JLi1EEEEEEENS1W_ISQ_JLi1EEEEEEEEEEEEEERNSV_INS1N_IfLm1EEENSC_ISG_SI_EEEES2B_T_iiiiiiiiiS1G_S1L_ENKUlS2C_iRT0_RT1_RT2_RT3_RT4_RT5_E_clISt17integral_constantIbLb1EENS5_9TiledCopyINS5_9Copy_Atom._crit_edge ]
  %.sroa.484.1 = phi <8 x float> [ zeroinitializer, %cond-add-join6740 ], [ %1419, %_ZZN7cutlass4fmha10collective15FMHAFwdMainloopINS0_9XeDefaultILi2EEELb1ELb1ELb1EN4cute8TiledMMAINS5_8MMA_AtomIJNS5_10XE_DPAS_TTILi8EfNS_10bfloat16_tES9_fEEEEENS5_6LayoutINS5_5tupleIJNS5_1CILi16EEENSE_ILi1EEESG_EEENSD_IJSG_NSE_ILi0EEESI_EEEEEKNSD_IJNSC_INSD_IJNSE_ILi8EEESF_NSE_ILi2EEEEEENSD_IJSG_SF_SL_EEEEENSC_INSE_ILi32EEESG_EESR_EEEEESU_Li4ENS5_6TensorINS5_10ViewEngineINS5_8gmem_ptrIPS9_EEEENSC_INSD_IJiiiiEEENSD_IJiSG_iiEEEEEEES14_NSV_IS10_NSC_IS11_NSD_IJSG_iiiEEEEEEES14_S17_vvvvvEclINSD_IJjjEEEEEvRKNSV_IS10_NSC_INSD_IJiiEEENSD_IJiSG_EEEEEEES1G_RKNSV_IS10_NSC_IS1B_NSD_IJSG_iEEEEEEERNS5_14SubgroupTensorINS5_11ArrayEngineIfLm128EEENSC_INSD_IJSL_SM_SM_NSE_ILi4EEEEEENSD_IJSG_SL_SF_SQ_EEEEENSC_INSD_IJSF_NSD_IJSL_NSD_IJSM_SM_EEES1P_EEEEEENSD_IJNS5_11ScaledBasisISG_JLi1EEEENSD_IJNS1W_ISG_JLi0EEEENSD_IJNS1W_ISL_JLi0EEEENS1W_ISF_JLi1EEEEEEENS1W_ISQ_JLi1EEEEEEEEEEEEEERNSV_INS1N_IfLm1EEENSC_ISG_SI_EEEES2B_T_iiiiiiiiiS1G_S1L_ENKUlS2C_iRT0_RT1_RT2_RT3_RT4_RT5_E_clISt17integral_constantIbLb1EENS5_9TiledCopyINS5_9Copy_Atom._crit_edge ]
  %.sroa.436.1 = phi <8 x float> [ zeroinitializer, %cond-add-join6740 ], [ %1417, %_ZZN7cutlass4fmha10collective15FMHAFwdMainloopINS0_9XeDefaultILi2EEELb1ELb1ELb1EN4cute8TiledMMAINS5_8MMA_AtomIJNS5_10XE_DPAS_TTILi8EfNS_10bfloat16_tES9_fEEEEENS5_6LayoutINS5_5tupleIJNS5_1CILi16EEENSE_ILi1EEESG_EEENSD_IJSG_NSE_ILi0EEESI_EEEEEKNSD_IJNSC_INSD_IJNSE_ILi8EEESF_NSE_ILi2EEEEEENSD_IJSG_SF_SL_EEEEENSC_INSE_ILi32EEESG_EESR_EEEEESU_Li4ENS5_6TensorINS5_10ViewEngineINS5_8gmem_ptrIPS9_EEEENSC_INSD_IJiiiiEEENSD_IJiSG_iiEEEEEEES14_NSV_IS10_NSC_IS11_NSD_IJSG_iiiEEEEEEES14_S17_vvvvvEclINSD_IJjjEEEEEvRKNSV_IS10_NSC_INSD_IJiiEEENSD_IJiSG_EEEEEEES1G_RKNSV_IS10_NSC_IS1B_NSD_IJSG_iEEEEEEERNS5_14SubgroupTensorINS5_11ArrayEngineIfLm128EEENSC_INSD_IJSL_SM_SM_NSE_ILi4EEEEEENSD_IJSG_SL_SF_SQ_EEEEENSC_INSD_IJSF_NSD_IJSL_NSD_IJSM_SM_EEES1P_EEEEEENSD_IJNS5_11ScaledBasisISG_JLi1EEEENSD_IJNS1W_ISG_JLi0EEEENSD_IJNS1W_ISL_JLi0EEEENS1W_ISF_JLi1EEEEEEENS1W_ISQ_JLi1EEEEEEEEEEEEEERNSV_INS1N_IfLm1EEENSC_ISG_SI_EEEES2B_T_iiiiiiiiiS1G_S1L_ENKUlS2C_iRT0_RT1_RT2_RT3_RT4_RT5_E_clISt17integral_constantIbLb1EENS5_9TiledCopyINS5_9Copy_Atom._crit_edge ]
  %.sroa.388.1 = phi <8 x float> [ zeroinitializer, %cond-add-join6740 ], [ %1416, %_ZZN7cutlass4fmha10collective15FMHAFwdMainloopINS0_9XeDefaultILi2EEELb1ELb1ELb1EN4cute8TiledMMAINS5_8MMA_AtomIJNS5_10XE_DPAS_TTILi8EfNS_10bfloat16_tES9_fEEEEENS5_6LayoutINS5_5tupleIJNS5_1CILi16EEENSE_ILi1EEESG_EEENSD_IJSG_NSE_ILi0EEESI_EEEEEKNSD_IJNSC_INSD_IJNSE_ILi8EEESF_NSE_ILi2EEEEEENSD_IJSG_SF_SL_EEEEENSC_INSE_ILi32EEESG_EESR_EEEEESU_Li4ENS5_6TensorINS5_10ViewEngineINS5_8gmem_ptrIPS9_EEEENSC_INSD_IJiiiiEEENSD_IJiSG_iiEEEEEEES14_NSV_IS10_NSC_IS11_NSD_IJSG_iiiEEEEEEES14_S17_vvvvvEclINSD_IJjjEEEEEvRKNSV_IS10_NSC_INSD_IJiiEEENSD_IJiSG_EEEEEEES1G_RKNSV_IS10_NSC_IS1B_NSD_IJSG_iEEEEEEERNS5_14SubgroupTensorINS5_11ArrayEngineIfLm128EEENSC_INSD_IJSL_SM_SM_NSE_ILi4EEEEEENSD_IJSG_SL_SF_SQ_EEEEENSC_INSD_IJSF_NSD_IJSL_NSD_IJSM_SM_EEES1P_EEEEEENSD_IJNS5_11ScaledBasisISG_JLi1EEEENSD_IJNS1W_ISG_JLi0EEEENSD_IJNS1W_ISL_JLi0EEEENS1W_ISF_JLi1EEEEEEENS1W_ISQ_JLi1EEEEEEEEEEEEEERNSV_INS1N_IfLm1EEENSC_ISG_SI_EEEES2B_T_iiiiiiiiiS1G_S1L_ENKUlS2C_iRT0_RT1_RT2_RT3_RT4_RT5_E_clISt17integral_constantIbLb1EENS5_9TiledCopyINS5_9Copy_Atom._crit_edge ]
  %.sroa.340.1 = phi <8 x float> [ zeroinitializer, %cond-add-join6740 ], [ %1280, %_ZZN7cutlass4fmha10collective15FMHAFwdMainloopINS0_9XeDefaultILi2EEELb1ELb1ELb1EN4cute8TiledMMAINS5_8MMA_AtomIJNS5_10XE_DPAS_TTILi8EfNS_10bfloat16_tES9_fEEEEENS5_6LayoutINS5_5tupleIJNS5_1CILi16EEENSE_ILi1EEESG_EEENSD_IJSG_NSE_ILi0EEESI_EEEEEKNSD_IJNSC_INSD_IJNSE_ILi8EEESF_NSE_ILi2EEEEEENSD_IJSG_SF_SL_EEEEENSC_INSE_ILi32EEESG_EESR_EEEEESU_Li4ENS5_6TensorINS5_10ViewEngineINS5_8gmem_ptrIPS9_EEEENSC_INSD_IJiiiiEEENSD_IJiSG_iiEEEEEEES14_NSV_IS10_NSC_IS11_NSD_IJSG_iiiEEEEEEES14_S17_vvvvvEclINSD_IJjjEEEEEvRKNSV_IS10_NSC_INSD_IJiiEEENSD_IJiSG_EEEEEEES1G_RKNSV_IS10_NSC_IS1B_NSD_IJSG_iEEEEEEERNS5_14SubgroupTensorINS5_11ArrayEngineIfLm128EEENSC_INSD_IJSL_SM_SM_NSE_ILi4EEEEEENSD_IJSG_SL_SF_SQ_EEEEENSC_INSD_IJSF_NSD_IJSL_NSD_IJSM_SM_EEES1P_EEEEEENSD_IJNS5_11ScaledBasisISG_JLi1EEEENSD_IJNS1W_ISG_JLi0EEEENSD_IJNS1W_ISL_JLi0EEEENS1W_ISF_JLi1EEEEEEENS1W_ISQ_JLi1EEEEEEEEEEEEEERNSV_INS1N_IfLm1EEENSC_ISG_SI_EEEES2B_T_iiiiiiiiiS1G_S1L_ENKUlS2C_iRT0_RT1_RT2_RT3_RT4_RT5_E_clISt17integral_constantIbLb1EENS5_9TiledCopyINS5_9Copy_Atom._crit_edge ]
  %.sroa.292.1 = phi <8 x float> [ zeroinitializer, %cond-add-join6740 ], [ %1281, %_ZZN7cutlass4fmha10collective15FMHAFwdMainloopINS0_9XeDefaultILi2EEELb1ELb1ELb1EN4cute8TiledMMAINS5_8MMA_AtomIJNS5_10XE_DPAS_TTILi8EfNS_10bfloat16_tES9_fEEEEENS5_6LayoutINS5_5tupleIJNS5_1CILi16EEENSE_ILi1EEESG_EEENSD_IJSG_NSE_ILi0EEESI_EEEEEKNSD_IJNSC_INSD_IJNSE_ILi8EEESF_NSE_ILi2EEEEEENSD_IJSG_SF_SL_EEEEENSC_INSE_ILi32EEESG_EESR_EEEEESU_Li4ENS5_6TensorINS5_10ViewEngineINS5_8gmem_ptrIPS9_EEEENSC_INSD_IJiiiiEEENSD_IJiSG_iiEEEEEEES14_NSV_IS10_NSC_IS11_NSD_IJSG_iiiEEEEEEES14_S17_vvvvvEclINSD_IJjjEEEEEvRKNSV_IS10_NSC_INSD_IJiiEEENSD_IJiSG_EEEEEEES1G_RKNSV_IS10_NSC_IS1B_NSD_IJSG_iEEEEEEERNS5_14SubgroupTensorINS5_11ArrayEngineIfLm128EEENSC_INSD_IJSL_SM_SM_NSE_ILi4EEEEEENSD_IJSG_SL_SF_SQ_EEEEENSC_INSD_IJSF_NSD_IJSL_NSD_IJSM_SM_EEES1P_EEEEEENSD_IJNS5_11ScaledBasisISG_JLi1EEEENSD_IJNS1W_ISG_JLi0EEEENSD_IJNS1W_ISL_JLi0EEEENS1W_ISF_JLi1EEEEEEENS1W_ISQ_JLi1EEEEEEEEEEEEEERNSV_INS1N_IfLm1EEENSC_ISG_SI_EEEES2B_T_iiiiiiiiiS1G_S1L_ENKUlS2C_iRT0_RT1_RT2_RT3_RT4_RT5_E_clISt17integral_constantIbLb1EENS5_9TiledCopyINS5_9Copy_Atom._crit_edge ]
  %.sroa.244.1 = phi <8 x float> [ zeroinitializer, %cond-add-join6740 ], [ %1279, %_ZZN7cutlass4fmha10collective15FMHAFwdMainloopINS0_9XeDefaultILi2EEELb1ELb1ELb1EN4cute8TiledMMAINS5_8MMA_AtomIJNS5_10XE_DPAS_TTILi8EfNS_10bfloat16_tES9_fEEEEENS5_6LayoutINS5_5tupleIJNS5_1CILi16EEENSE_ILi1EEESG_EEENSD_IJSG_NSE_ILi0EEESI_EEEEEKNSD_IJNSC_INSD_IJNSE_ILi8EEESF_NSE_ILi2EEEEEENSD_IJSG_SF_SL_EEEEENSC_INSE_ILi32EEESG_EESR_EEEEESU_Li4ENS5_6TensorINS5_10ViewEngineINS5_8gmem_ptrIPS9_EEEENSC_INSD_IJiiiiEEENSD_IJiSG_iiEEEEEEES14_NSV_IS10_NSC_IS11_NSD_IJSG_iiiEEEEEEES14_S17_vvvvvEclINSD_IJjjEEEEEvRKNSV_IS10_NSC_INSD_IJiiEEENSD_IJiSG_EEEEEEES1G_RKNSV_IS10_NSC_IS1B_NSD_IJSG_iEEEEEEERNS5_14SubgroupTensorINS5_11ArrayEngineIfLm128EEENSC_INSD_IJSL_SM_SM_NSE_ILi4EEEEEENSD_IJSG_SL_SF_SQ_EEEEENSC_INSD_IJSF_NSD_IJSL_NSD_IJSM_SM_EEES1P_EEEEEENSD_IJNS5_11ScaledBasisISG_JLi1EEEENSD_IJNS1W_ISG_JLi0EEEENSD_IJNS1W_ISL_JLi0EEEENS1W_ISF_JLi1EEEEEEENS1W_ISQ_JLi1EEEEEEEEEEEEEERNSV_INS1N_IfLm1EEENSC_ISG_SI_EEEES2B_T_iiiiiiiiiS1G_S1L_ENKUlS2C_iRT0_RT1_RT2_RT3_RT4_RT5_E_clISt17integral_constantIbLb1EENS5_9TiledCopyINS5_9Copy_Atom._crit_edge ]
  %.sroa.196.1 = phi <8 x float> [ zeroinitializer, %cond-add-join6740 ], [ %1278, %_ZZN7cutlass4fmha10collective15FMHAFwdMainloopINS0_9XeDefaultILi2EEELb1ELb1ELb1EN4cute8TiledMMAINS5_8MMA_AtomIJNS5_10XE_DPAS_TTILi8EfNS_10bfloat16_tES9_fEEEEENS5_6LayoutINS5_5tupleIJNS5_1CILi16EEENSE_ILi1EEESG_EEENSD_IJSG_NSE_ILi0EEESI_EEEEEKNSD_IJNSC_INSD_IJNSE_ILi8EEESF_NSE_ILi2EEEEEENSD_IJSG_SF_SL_EEEEENSC_INSE_ILi32EEESG_EESR_EEEEESU_Li4ENS5_6TensorINS5_10ViewEngineINS5_8gmem_ptrIPS9_EEEENSC_INSD_IJiiiiEEENSD_IJiSG_iiEEEEEEES14_NSV_IS10_NSC_IS11_NSD_IJSG_iiiEEEEEEES14_S17_vvvvvEclINSD_IJjjEEEEEvRKNSV_IS10_NSC_INSD_IJiiEEENSD_IJiSG_EEEEEEES1G_RKNSV_IS10_NSC_IS1B_NSD_IJSG_iEEEEEEERNS5_14SubgroupTensorINS5_11ArrayEngineIfLm128EEENSC_INSD_IJSL_SM_SM_NSE_ILi4EEEEEENSD_IJSG_SL_SF_SQ_EEEEENSC_INSD_IJSF_NSD_IJSL_NSD_IJSM_SM_EEES1P_EEEEEENSD_IJNS5_11ScaledBasisISG_JLi1EEEENSD_IJNS1W_ISG_JLi0EEEENSD_IJNS1W_ISL_JLi0EEEENS1W_ISF_JLi1EEEEEEENS1W_ISQ_JLi1EEEEEEEEEEEEEERNSV_INS1N_IfLm1EEENSC_ISG_SI_EEEES2B_T_iiiiiiiiiS1G_S1L_ENKUlS2C_iRT0_RT1_RT2_RT3_RT4_RT5_E_clISt17integral_constantIbLb1EENS5_9TiledCopyINS5_9Copy_Atom._crit_edge ]
  %.sroa.148.1 = phi <8 x float> [ zeroinitializer, %cond-add-join6740 ], [ %1142, %_ZZN7cutlass4fmha10collective15FMHAFwdMainloopINS0_9XeDefaultILi2EEELb1ELb1ELb1EN4cute8TiledMMAINS5_8MMA_AtomIJNS5_10XE_DPAS_TTILi8EfNS_10bfloat16_tES9_fEEEEENS5_6LayoutINS5_5tupleIJNS5_1CILi16EEENSE_ILi1EEESG_EEENSD_IJSG_NSE_ILi0EEESI_EEEEEKNSD_IJNSC_INSD_IJNSE_ILi8EEESF_NSE_ILi2EEEEEENSD_IJSG_SF_SL_EEEEENSC_INSE_ILi32EEESG_EESR_EEEEESU_Li4ENS5_6TensorINS5_10ViewEngineINS5_8gmem_ptrIPS9_EEEENSC_INSD_IJiiiiEEENSD_IJiSG_iiEEEEEEES14_NSV_IS10_NSC_IS11_NSD_IJSG_iiiEEEEEEES14_S17_vvvvvEclINSD_IJjjEEEEEvRKNSV_IS10_NSC_INSD_IJiiEEENSD_IJiSG_EEEEEEES1G_RKNSV_IS10_NSC_IS1B_NSD_IJSG_iEEEEEEERNS5_14SubgroupTensorINS5_11ArrayEngineIfLm128EEENSC_INSD_IJSL_SM_SM_NSE_ILi4EEEEEENSD_IJSG_SL_SF_SQ_EEEEENSC_INSD_IJSF_NSD_IJSL_NSD_IJSM_SM_EEES1P_EEEEEENSD_IJNS5_11ScaledBasisISG_JLi1EEEENSD_IJNS1W_ISG_JLi0EEEENSD_IJNS1W_ISL_JLi0EEEENS1W_ISF_JLi1EEEEEEENS1W_ISQ_JLi1EEEEEEEEEEEEEERNSV_INS1N_IfLm1EEENSC_ISG_SI_EEEES2B_T_iiiiiiiiiS1G_S1L_ENKUlS2C_iRT0_RT1_RT2_RT3_RT4_RT5_E_clISt17integral_constantIbLb1EENS5_9TiledCopyINS5_9Copy_Atom._crit_edge ]
  %.sroa.100.1 = phi <8 x float> [ zeroinitializer, %cond-add-join6740 ], [ %1143, %_ZZN7cutlass4fmha10collective15FMHAFwdMainloopINS0_9XeDefaultILi2EEELb1ELb1ELb1EN4cute8TiledMMAINS5_8MMA_AtomIJNS5_10XE_DPAS_TTILi8EfNS_10bfloat16_tES9_fEEEEENS5_6LayoutINS5_5tupleIJNS5_1CILi16EEENSE_ILi1EEESG_EEENSD_IJSG_NSE_ILi0EEESI_EEEEEKNSD_IJNSC_INSD_IJNSE_ILi8EEESF_NSE_ILi2EEEEEENSD_IJSG_SF_SL_EEEEENSC_INSE_ILi32EEESG_EESR_EEEEESU_Li4ENS5_6TensorINS5_10ViewEngineINS5_8gmem_ptrIPS9_EEEENSC_INSD_IJiiiiEEENSD_IJiSG_iiEEEEEEES14_NSV_IS10_NSC_IS11_NSD_IJSG_iiiEEEEEEES14_S17_vvvvvEclINSD_IJjjEEEEEvRKNSV_IS10_NSC_INSD_IJiiEEENSD_IJiSG_EEEEEEES1G_RKNSV_IS10_NSC_IS1B_NSD_IJSG_iEEEEEEERNS5_14SubgroupTensorINS5_11ArrayEngineIfLm128EEENSC_INSD_IJSL_SM_SM_NSE_ILi4EEEEEENSD_IJSG_SL_SF_SQ_EEEEENSC_INSD_IJSF_NSD_IJSL_NSD_IJSM_SM_EEES1P_EEEEEENSD_IJNS5_11ScaledBasisISG_JLi1EEEENSD_IJNS1W_ISG_JLi0EEEENSD_IJNS1W_ISL_JLi0EEEENS1W_ISF_JLi1EEEEEEENS1W_ISQ_JLi1EEEEEEEEEEEEEERNSV_INS1N_IfLm1EEENSC_ISG_SI_EEEES2B_T_iiiiiiiiiS1G_S1L_ENKUlS2C_iRT0_RT1_RT2_RT3_RT4_RT5_E_clISt17integral_constantIbLb1EENS5_9TiledCopyINS5_9Copy_Atom._crit_edge ]
  %.sroa.52.1 = phi <8 x float> [ zeroinitializer, %cond-add-join6740 ], [ %1141, %_ZZN7cutlass4fmha10collective15FMHAFwdMainloopINS0_9XeDefaultILi2EEELb1ELb1ELb1EN4cute8TiledMMAINS5_8MMA_AtomIJNS5_10XE_DPAS_TTILi8EfNS_10bfloat16_tES9_fEEEEENS5_6LayoutINS5_5tupleIJNS5_1CILi16EEENSE_ILi1EEESG_EEENSD_IJSG_NSE_ILi0EEESI_EEEEEKNSD_IJNSC_INSD_IJNSE_ILi8EEESF_NSE_ILi2EEEEEENSD_IJSG_SF_SL_EEEEENSC_INSE_ILi32EEESG_EESR_EEEEESU_Li4ENS5_6TensorINS5_10ViewEngineINS5_8gmem_ptrIPS9_EEEENSC_INSD_IJiiiiEEENSD_IJiSG_iiEEEEEEES14_NSV_IS10_NSC_IS11_NSD_IJSG_iiiEEEEEEES14_S17_vvvvvEclINSD_IJjjEEEEEvRKNSV_IS10_NSC_INSD_IJiiEEENSD_IJiSG_EEEEEEES1G_RKNSV_IS10_NSC_IS1B_NSD_IJSG_iEEEEEEERNS5_14SubgroupTensorINS5_11ArrayEngineIfLm128EEENSC_INSD_IJSL_SM_SM_NSE_ILi4EEEEEENSD_IJSG_SL_SF_SQ_EEEEENSC_INSD_IJSF_NSD_IJSL_NSD_IJSM_SM_EEES1P_EEEEEENSD_IJNS5_11ScaledBasisISG_JLi1EEEENSD_IJNS1W_ISG_JLi0EEEENSD_IJNS1W_ISL_JLi0EEEENS1W_ISF_JLi1EEEEEEENS1W_ISQ_JLi1EEEEEEEEEEEEEERNSV_INS1N_IfLm1EEENSC_ISG_SI_EEEES2B_T_iiiiiiiiiS1G_S1L_ENKUlS2C_iRT0_RT1_RT2_RT3_RT4_RT5_E_clISt17integral_constantIbLb1EENS5_9TiledCopyINS5_9Copy_Atom._crit_edge ]
  %.sroa.0.1 = phi <8 x float> [ zeroinitializer, %cond-add-join6740 ], [ %1140, %_ZZN7cutlass4fmha10collective15FMHAFwdMainloopINS0_9XeDefaultILi2EEELb1ELb1ELb1EN4cute8TiledMMAINS5_8MMA_AtomIJNS5_10XE_DPAS_TTILi8EfNS_10bfloat16_tES9_fEEEEENS5_6LayoutINS5_5tupleIJNS5_1CILi16EEENSE_ILi1EEESG_EEENSD_IJSG_NSE_ILi0EEESI_EEEEEKNSD_IJNSC_INSD_IJNSE_ILi8EEESF_NSE_ILi2EEEEEENSD_IJSG_SF_SL_EEEEENSC_INSE_ILi32EEESG_EESR_EEEEESU_Li4ENS5_6TensorINS5_10ViewEngineINS5_8gmem_ptrIPS9_EEEENSC_INSD_IJiiiiEEENSD_IJiSG_iiEEEEEEES14_NSV_IS10_NSC_IS11_NSD_IJSG_iiiEEEEEEES14_S17_vvvvvEclINSD_IJjjEEEEEvRKNSV_IS10_NSC_INSD_IJiiEEENSD_IJiSG_EEEEEEES1G_RKNSV_IS10_NSC_IS1B_NSD_IJSG_iEEEEEEERNS5_14SubgroupTensorINS5_11ArrayEngineIfLm128EEENSC_INSD_IJSL_SM_SM_NSE_ILi4EEEEEENSD_IJSG_SL_SF_SQ_EEEEENSC_INSD_IJSF_NSD_IJSL_NSD_IJSM_SM_EEES1P_EEEEEENSD_IJNS5_11ScaledBasisISG_JLi1EEEENSD_IJNS1W_ISG_JLi0EEEENSD_IJNS1W_ISL_JLi0EEEENS1W_ISF_JLi1EEEEEEENS1W_ISQ_JLi1EEEEEEEEEEEEEERNSV_INS1N_IfLm1EEENSC_ISG_SI_EEEES2B_T_iiiiiiiiiS1G_S1L_ENKUlS2C_iRT0_RT1_RT2_RT3_RT4_RT5_E_clISt17integral_constantIbLb1EENS5_9TiledCopyINS5_9Copy_Atom._crit_edge ]
  %259 = phi i32 [ 0, %cond-add-join6740 ], [ %1634, %_ZZN7cutlass4fmha10collective15FMHAFwdMainloopINS0_9XeDefaultILi2EEELb1ELb1ELb1EN4cute8TiledMMAINS5_8MMA_AtomIJNS5_10XE_DPAS_TTILi8EfNS_10bfloat16_tES9_fEEEEENS5_6LayoutINS5_5tupleIJNS5_1CILi16EEENSE_ILi1EEESG_EEENSD_IJSG_NSE_ILi0EEESI_EEEEEKNSD_IJNSC_INSD_IJNSE_ILi8EEESF_NSE_ILi2EEEEEENSD_IJSG_SF_SL_EEEEENSC_INSE_ILi32EEESG_EESR_EEEEESU_Li4ENS5_6TensorINS5_10ViewEngineINS5_8gmem_ptrIPS9_EEEENSC_INSD_IJiiiiEEENSD_IJiSG_iiEEEEEEES14_NSV_IS10_NSC_IS11_NSD_IJSG_iiiEEEEEEES14_S17_vvvvvEclINSD_IJjjEEEEEvRKNSV_IS10_NSC_INSD_IJiiEEENSD_IJiSG_EEEEEEES1G_RKNSV_IS10_NSC_IS1B_NSD_IJSG_iEEEEEEERNS5_14SubgroupTensorINS5_11ArrayEngineIfLm128EEENSC_INSD_IJSL_SM_SM_NSE_ILi4EEEEEENSD_IJSG_SL_SF_SQ_EEEEENSC_INSD_IJSF_NSD_IJSL_NSD_IJSM_SM_EEES1P_EEEEEENSD_IJNS5_11ScaledBasisISG_JLi1EEEENSD_IJNS1W_ISG_JLi0EEEENSD_IJNS1W_ISL_JLi0EEEENS1W_ISF_JLi1EEEEEEENS1W_ISQ_JLi1EEEEEEEEEEEEEERNSV_INS1N_IfLm1EEENSC_ISG_SI_EEEES2B_T_iiiiiiiiiS1G_S1L_ENKUlS2C_iRT0_RT1_RT2_RT3_RT4_RT5_E_clISt17integral_constantIbLb1EENS5_9TiledCopyINS5_9Copy_Atom._crit_edge ]
  %.sroa.0215.1174 = phi float [ 0xC7EFFFFFE0000000, %cond-add-join6740 ], [ %631, %_ZZN7cutlass4fmha10collective15FMHAFwdMainloopINS0_9XeDefaultILi2EEELb1ELb1ELb1EN4cute8TiledMMAINS5_8MMA_AtomIJNS5_10XE_DPAS_TTILi8EfNS_10bfloat16_tES9_fEEEEENS5_6LayoutINS5_5tupleIJNS5_1CILi16EEENSE_ILi1EEESG_EEENSD_IJSG_NSE_ILi0EEESI_EEEEEKNSD_IJNSC_INSD_IJNSE_ILi8EEESF_NSE_ILi2EEEEEENSD_IJSG_SF_SL_EEEEENSC_INSE_ILi32EEESG_EESR_EEEEESU_Li4ENS5_6TensorINS5_10ViewEngineINS5_8gmem_ptrIPS9_EEEENSC_INSD_IJiiiiEEENSD_IJiSG_iiEEEEEEES14_NSV_IS10_NSC_IS11_NSD_IJSG_iiiEEEEEEES14_S17_vvvvvEclINSD_IJjjEEEEEvRKNSV_IS10_NSC_INSD_IJiiEEENSD_IJiSG_EEEEEEES1G_RKNSV_IS10_NSC_IS1B_NSD_IJSG_iEEEEEEERNS5_14SubgroupTensorINS5_11ArrayEngineIfLm128EEENSC_INSD_IJSL_SM_SM_NSE_ILi4EEEEEENSD_IJSG_SL_SF_SQ_EEEEENSC_INSD_IJSF_NSD_IJSL_NSD_IJSM_SM_EEES1P_EEEEEENSD_IJNS5_11ScaledBasisISG_JLi1EEEENSD_IJNS1W_ISG_JLi0EEEENSD_IJNS1W_ISL_JLi0EEEENS1W_ISF_JLi1EEEEEEENS1W_ISQ_JLi1EEEEEEEEEEEEEERNSV_INS1N_IfLm1EEENSC_ISG_SI_EEEES2B_T_iiiiiiiiiS1G_S1L_ENKUlS2C_iRT0_RT1_RT2_RT3_RT4_RT5_E_clISt17integral_constantIbLb1EENS5_9TiledCopyINS5_9Copy_Atom._crit_edge ]
  %.sroa.0206.1173 = phi float [ 0.000000e+00, %cond-add-join6740 ], [ %1558, %_ZZN7cutlass4fmha10collective15FMHAFwdMainloopINS0_9XeDefaultILi2EEELb1ELb1ELb1EN4cute8TiledMMAINS5_8MMA_AtomIJNS5_10XE_DPAS_TTILi8EfNS_10bfloat16_tES9_fEEEEENS5_6LayoutINS5_5tupleIJNS5_1CILi16EEENSE_ILi1EEESG_EEENSD_IJSG_NSE_ILi0EEESI_EEEEEKNSD_IJNSC_INSD_IJNSE_ILi8EEESF_NSE_ILi2EEEEEENSD_IJSG_SF_SL_EEEEENSC_INSE_ILi32EEESG_EESR_EEEEESU_Li4ENS5_6TensorINS5_10ViewEngineINS5_8gmem_ptrIPS9_EEEENSC_INSD_IJiiiiEEENSD_IJiSG_iiEEEEEEES14_NSV_IS10_NSC_IS11_NSD_IJSG_iiiEEEEEEES14_S17_vvvvvEclINSD_IJjjEEEEEvRKNSV_IS10_NSC_INSD_IJiiEEENSD_IJiSG_EEEEEEES1G_RKNSV_IS10_NSC_IS1B_NSD_IJSG_iEEEEEEERNS5_14SubgroupTensorINS5_11ArrayEngineIfLm128EEENSC_INSD_IJSL_SM_SM_NSE_ILi4EEEEEENSD_IJSG_SL_SF_SQ_EEEEENSC_INSD_IJSF_NSD_IJSL_NSD_IJSM_SM_EEES1P_EEEEEENSD_IJNS5_11ScaledBasisISG_JLi1EEEENSD_IJNS1W_ISG_JLi0EEEENSD_IJNS1W_ISL_JLi0EEEENS1W_ISF_JLi1EEEEEEENS1W_ISQ_JLi1EEEEEEEEEEEEEERNSV_INS1N_IfLm1EEENSC_ISG_SI_EEEES2B_T_iiiiiiiiiS1G_S1L_ENKUlS2C_iRT0_RT1_RT2_RT3_RT4_RT5_E_clISt17integral_constantIbLb1EENS5_9TiledCopyINS5_9Copy_Atom._crit_edge ]
  br i1 %247, label %260, label %277, !stats.blockFrequency.digits !1219, !stats.blockFrequency.scale !1220		; visa id: 811

260:                                              ; preds = %258
; BB64 :
  br i1 %tobool.i6915, label %if.then.i6916, label %if.end.i6946, !stats.blockFrequency.digits !1226, !stats.blockFrequency.scale !1227		; visa id: 813

if.then.i6916:                                    ; preds = %260
; BB65 :
  br label %precompiled_s32divrem_sp.exit6948, !stats.blockFrequency.digits !1232, !stats.blockFrequency.scale !1229		; visa id: 816

if.end.i6946:                                     ; preds = %260
; BB66 :
  %261 = call float @llvm.genx.GenISA.uitof.rtz.f32.i32(i32 %xor.i6920)		; visa id: 818
  %conv.i6923 = fptoui float %261 to i32		; visa id: 820
  %sub.i6924 = sub i32 %xor.i6920, %conv.i6923		; visa id: 821
  %262 = call float @llvm.genx.GenISA.uitof.rtz.f32.i32(i32 %xor3.i6922)		; visa id: 822
  %div.i6927 = fdiv float 1.000000e+00, %261, !fpmath !1207		; visa id: 823
  %263 = call float @llvm.genx.GenISA.fma.rtz.f32.f32.f32.f32(float %div.i6927, float 0xBE98000000000000, float %div.i6927)		; visa id: 824
  %264 = call float @llvm.genx.GenISA.mul.rtz.f32.f32.f32(float %262, float %263)		; visa id: 825
  %conv6.i6925 = fptoui float %262 to i32		; visa id: 826
  %sub7.i6926 = sub i32 %xor3.i6922, %conv6.i6925		; visa id: 827
  %conv11.i6928 = fptoui float %264 to i32		; visa id: 828
  %265 = call float @llvm.genx.GenISA.uitof.rtz.f32.i32(i32 %sub.i6924)		; visa id: 829
  %266 = call float @llvm.genx.GenISA.uitof.rtz.f32.i32(i32 %sub7.i6926)		; visa id: 830
  %267 = call float @llvm.genx.GenISA.uitof.rtz.f32.i32(i32 %conv11.i6928)		; visa id: 831
  %268 = fsub float 0.000000e+00, %261		; visa id: 832
  %269 = call float @llvm.genx.GenISA.fma.rtz.f32.f32.f32.f32(float %268, float %267, float %262)		; visa id: 833
  %270 = fsub float 0.000000e+00, %265		; visa id: 834
  %271 = call float @llvm.genx.GenISA.fma.rtz.f32.f32.f32.f32(float %270, float %267, float %266)		; visa id: 835
  %272 = call float @llvm.genx.GenISA.add.rtz.f32.f32.f32(float %269, float %271)		; visa id: 836
  %273 = call float @llvm.genx.GenISA.mul.rtz.f32.f32.f32(float %263, float %272)		; visa id: 837
  %conv19.i6931 = fptoui float %273 to i32		; visa id: 839
  %add20.i6932 = add i32 %conv19.i6931, %conv11.i6928		; visa id: 840
  %mul.i6934 = mul i32 %add20.i6932, %xor.i6920		; visa id: 841
  %sub22.i6935 = sub i32 %xor3.i6922, %mul.i6934		; visa id: 842
  %cmp.i6936 = icmp uge i32 %sub22.i6935, %xor.i6920
  %274 = sext i1 %cmp.i6936 to i32		; visa id: 843
  %275 = sub i32 0, %274
  %add24.i6943 = add i32 %add20.i6932, %xor21.i6933
  %add29.i6944 = add i32 %add24.i6943, %275		; visa id: 844
  %xor30.i6945 = xor i32 %add29.i6944, %xor21.i6933		; visa id: 845
  br label %precompiled_s32divrem_sp.exit6948, !stats.blockFrequency.digits !1228, !stats.blockFrequency.scale !1229		; visa id: 846

precompiled_s32divrem_sp.exit6948:                ; preds = %if.then.i6916, %if.end.i6946
; BB67 :
  %retval.0.i6947 = phi i32 [ %xor30.i6945, %if.end.i6946 ], [ -1, %if.then.i6916 ]
  %276 = mul nsw i32 %26, %retval.0.i6947, !spirv.Decorations !1210		; visa id: 847
  br label %279, !stats.blockFrequency.digits !1226, !stats.blockFrequency.scale !1227		; visa id: 848

277:                                              ; preds = %258
; BB68 :
  %278 = load i32, i32 addrspace(1)* %252, align 4		; visa id: 850
  br label %279, !stats.blockFrequency.digits !1226, !stats.blockFrequency.scale !1227		; visa id: 851

279:                                              ; preds = %precompiled_s32divrem_sp.exit6948, %277
; BB69 :
  %280 = phi i32 [ %278, %277 ], [ %276, %precompiled_s32divrem_sp.exit6948 ]
  br i1 %tobool.i6915, label %if.then.i6950, label %if.end.i6980, !stats.blockFrequency.digits !1219, !stats.blockFrequency.scale !1220		; visa id: 852

if.then.i6950:                                    ; preds = %279
; BB70 :
  br label %precompiled_s32divrem_sp.exit6982, !stats.blockFrequency.digits !1237, !stats.blockFrequency.scale !1227		; visa id: 855

if.end.i6980:                                     ; preds = %279
; BB71 :
  %281 = shl nsw i32 %259, 5, !spirv.Decorations !1210		; visa id: 857
  %282 = call float @llvm.genx.GenISA.uitof.rtz.f32.i32(i32 %xor.i6920)		; visa id: 858
  %conv.i6957 = fptoui float %282 to i32		; visa id: 860
  %sub.i6958 = sub i32 %xor.i6920, %conv.i6957		; visa id: 861
  %283 = call float @llvm.genx.GenISA.uitof.rtz.f32.i32(i32 %281)		; visa id: 862
  %div.i6961 = fdiv float 1.000000e+00, %282, !fpmath !1207		; visa id: 863
  %284 = call float @llvm.genx.GenISA.fma.rtz.f32.f32.f32.f32(float %div.i6961, float 0xBE98000000000000, float %div.i6961)		; visa id: 864
  %285 = call float @llvm.genx.GenISA.mul.rtz.f32.f32.f32(float %283, float %284)		; visa id: 865
  %conv6.i6959 = fptoui float %283 to i32		; visa id: 866
  %sub7.i6960 = sub i32 %281, %conv6.i6959		; visa id: 867
  %conv11.i6962 = fptoui float %285 to i32		; visa id: 868
  %286 = call float @llvm.genx.GenISA.uitof.rtz.f32.i32(i32 %sub.i6958)		; visa id: 869
  %287 = call float @llvm.genx.GenISA.uitof.rtz.f32.i32(i32 %sub7.i6960)		; visa id: 870
  %288 = call float @llvm.genx.GenISA.uitof.rtz.f32.i32(i32 %conv11.i6962)		; visa id: 871
  %289 = fsub float 0.000000e+00, %282		; visa id: 872
  %290 = call float @llvm.genx.GenISA.fma.rtz.f32.f32.f32.f32(float %289, float %288, float %283)		; visa id: 873
  %291 = fsub float 0.000000e+00, %286		; visa id: 874
  %292 = call float @llvm.genx.GenISA.fma.rtz.f32.f32.f32.f32(float %291, float %288, float %287)		; visa id: 875
  %293 = call float @llvm.genx.GenISA.add.rtz.f32.f32.f32(float %290, float %292)		; visa id: 876
  %294 = call float @llvm.genx.GenISA.mul.rtz.f32.f32.f32(float %284, float %293)		; visa id: 877
  %conv19.i6965 = fptoui float %294 to i32		; visa id: 879
  %add20.i6966 = add i32 %conv19.i6965, %conv11.i6962		; visa id: 880
  %mul.i6968 = mul i32 %add20.i6966, %xor.i6920		; visa id: 881
  %sub22.i6969 = sub i32 %281, %mul.i6968		; visa id: 882
  %cmp.i6970 = icmp uge i32 %sub22.i6969, %xor.i6920
  %295 = sext i1 %cmp.i6970 to i32		; visa id: 883
  %296 = sub i32 0, %295
  %add24.i6977 = add i32 %add20.i6966, %shr.i6917
  %add29.i6978 = add i32 %add24.i6977, %296		; visa id: 884
  %xor30.i6979 = xor i32 %add29.i6978, %shr.i6917		; visa id: 885
  br label %precompiled_s32divrem_sp.exit6982, !stats.blockFrequency.digits !1238, !stats.blockFrequency.scale !1227		; visa id: 886

precompiled_s32divrem_sp.exit6982:                ; preds = %if.then.i6950, %if.end.i6980
; BB72 :
  %retval.0.i6981 = phi i32 [ %xor30.i6979, %if.end.i6980 ], [ -1, %if.then.i6950 ]
  %297 = add nsw i32 %280, %retval.0.i6981, !spirv.Decorations !1210		; visa id: 887
  %298 = sext i32 %297 to i64		; visa id: 888
  %299 = shl nsw i64 %298, 2		; visa id: 889
  %300 = add i64 %299, %const_reg_qword54		; visa id: 890
  %301 = inttoptr i64 %300 to i32 addrspace(4)*		; visa id: 891
  %302 = addrspacecast i32 addrspace(4)* %301 to i32 addrspace(1)*		; visa id: 891
  %303 = load i32, i32 addrspace(1)* %302, align 4		; visa id: 892
  %304 = mul nsw i32 %303, %qot6743, !spirv.Decorations !1210		; visa id: 893
  br i1 %tobool.i6983, label %if.then.i6984, label %if.end.i7014, !stats.blockFrequency.digits !1219, !stats.blockFrequency.scale !1220		; visa id: 894

if.then.i6984:                                    ; preds = %precompiled_s32divrem_sp.exit6982
; BB73 :
  br label %precompiled_s32divrem_sp.exit7016, !stats.blockFrequency.digits !1226, !stats.blockFrequency.scale !1227		; visa id: 897

if.end.i7014:                                     ; preds = %precompiled_s32divrem_sp.exit6982
; BB74 :
  %305 = call float @llvm.genx.GenISA.uitof.rtz.f32.i32(i32 %xor.i6988)		; visa id: 899
  %conv.i6991 = fptoui float %305 to i32		; visa id: 901
  %sub.i6992 = sub i32 %xor.i6988, %conv.i6991		; visa id: 902
  %306 = call float @llvm.genx.GenISA.uitof.rtz.f32.i32(i32 %259)		; visa id: 903
  %div.i6995 = fdiv float 1.000000e+00, %305, !fpmath !1207		; visa id: 904
  %307 = call float @llvm.genx.GenISA.fma.rtz.f32.f32.f32.f32(float %div.i6995, float 0xBE98000000000000, float %div.i6995)		; visa id: 905
  %308 = call float @llvm.genx.GenISA.mul.rtz.f32.f32.f32(float %306, float %307)		; visa id: 906
  %conv6.i6993 = fptoui float %306 to i32		; visa id: 907
  %sub7.i6994 = sub i32 %259, %conv6.i6993		; visa id: 908
  %conv11.i6996 = fptoui float %308 to i32		; visa id: 909
  %309 = call float @llvm.genx.GenISA.uitof.rtz.f32.i32(i32 %sub.i6992)		; visa id: 910
  %310 = call float @llvm.genx.GenISA.uitof.rtz.f32.i32(i32 %sub7.i6994)		; visa id: 911
  %311 = call float @llvm.genx.GenISA.uitof.rtz.f32.i32(i32 %conv11.i6996)		; visa id: 912
  %312 = fsub float 0.000000e+00, %305		; visa id: 913
  %313 = call float @llvm.genx.GenISA.fma.rtz.f32.f32.f32.f32(float %312, float %311, float %306)		; visa id: 914
  %314 = fsub float 0.000000e+00, %309		; visa id: 915
  %315 = call float @llvm.genx.GenISA.fma.rtz.f32.f32.f32.f32(float %314, float %311, float %310)		; visa id: 916
  %316 = call float @llvm.genx.GenISA.add.rtz.f32.f32.f32(float %313, float %315)		; visa id: 917
  %317 = call float @llvm.genx.GenISA.mul.rtz.f32.f32.f32(float %307, float %316)		; visa id: 918
  %conv19.i6999 = fptoui float %317 to i32		; visa id: 920
  %add20.i7000 = add i32 %conv19.i6999, %conv11.i6996		; visa id: 921
  %mul.i7002 = mul i32 %add20.i7000, %xor.i6988		; visa id: 922
  %sub22.i7003 = sub i32 %259, %mul.i7002		; visa id: 923
  %cmp.i7004.not = icmp ult i32 %sub22.i7003, %xor.i6988		; visa id: 924
  %and25.i7007 = select i1 %cmp.i7004.not, i32 0, i32 %xor.i6988		; visa id: 925
  %add27.i7009 = sub i32 %sub22.i7003, %and25.i7007		; visa id: 926
  br label %precompiled_s32divrem_sp.exit7016, !stats.blockFrequency.digits !1226, !stats.blockFrequency.scale !1227		; visa id: 927

precompiled_s32divrem_sp.exit7016:                ; preds = %if.then.i6984, %if.end.i7014
; BB75 :
  %Remainder6751.0 = phi i32 [ -1, %if.then.i6984 ], [ %add27.i7009, %if.end.i7014 ]
  %318 = add nsw i32 %304, %Remainder6751.0, !spirv.Decorations !1210		; visa id: 928
  %319 = shl nsw i32 %318, 5, !spirv.Decorations !1210		; visa id: 929
  br i1 %124, label %.lr.ph169, label %precompiled_s32divrem_sp.exit7016.._crit_edge170_crit_edge, !stats.blockFrequency.digits !1219, !stats.blockFrequency.scale !1220		; visa id: 930

precompiled_s32divrem_sp.exit7016.._crit_edge170_crit_edge: ; preds = %precompiled_s32divrem_sp.exit7016
; BB76 :
  br label %._crit_edge170, !stats.blockFrequency.digits !1237, !stats.blockFrequency.scale !1227		; visa id: 964

.lr.ph169:                                        ; preds = %precompiled_s32divrem_sp.exit7016
; BB77 :
  br i1 %253, label %.lr.ph169..epil.preheader193_crit_edge, label %.lr.ph169.new, !stats.blockFrequency.digits !1238, !stats.blockFrequency.scale !1227		; visa id: 966

.lr.ph169..epil.preheader193_crit_edge:           ; preds = %.lr.ph169
; BB78 :
  br label %.epil.preheader193, !stats.blockFrequency.digits !1228, !stats.blockFrequency.scale !1229		; visa id: 1001

.lr.ph169.new:                                    ; preds = %.lr.ph169
; BB79 :
  %320 = add i32 %319, 16		; visa id: 1003
  br label %.preheader153, !stats.blockFrequency.digits !1228, !stats.blockFrequency.scale !1229		; visa id: 1038

.preheader153:                                    ; preds = %.preheader153..preheader153_crit_edge, %.lr.ph169.new
; BB80 :
  %.sroa.435.5 = phi <8 x float> [ zeroinitializer, %.lr.ph169.new ], [ %480, %.preheader153..preheader153_crit_edge ]
  %.sroa.291.5 = phi <8 x float> [ zeroinitializer, %.lr.ph169.new ], [ %481, %.preheader153..preheader153_crit_edge ]
  %.sroa.147.5 = phi <8 x float> [ zeroinitializer, %.lr.ph169.new ], [ %479, %.preheader153..preheader153_crit_edge ]
  %.sroa.03157.5 = phi <8 x float> [ zeroinitializer, %.lr.ph169.new ], [ %478, %.preheader153..preheader153_crit_edge ]
  %321 = phi i32 [ 0, %.lr.ph169.new ], [ %482, %.preheader153..preheader153_crit_edge ]
  %niter199 = phi i32 [ 0, %.lr.ph169.new ], [ %niter199.next.1, %.preheader153..preheader153_crit_edge ]
  %322 = shl i32 %321, 5, !spirv.Decorations !1210		; visa id: 1039
  call void @llvm.genx.GenISA.LSC2DBlockSetAddrPayloadField.p4i8.i32(i8 addrspace(4)* %Block2D_AddrPayload, i32 5, i32 %322, i1 false)		; visa id: 1040
  call void @llvm.genx.GenISA.LSC2DBlockSetAddrPayloadField.p4i8.i32(i8 addrspace(4)* %Block2D_AddrPayload, i32 6, i32 %115, i1 false)		; visa id: 1041
  %323 = call <32 x i16> asm "lsc_load_block2d.ugm (M1, 1)  $0:d$2.$3x$4x$5nn flat[$1+(0,0)]", "=rw,rw.u,P,P,P,P"(i8 addrspace(4)* %Block2D_AddrPayload, i32 16, i32 2, i32 16, i32 16) #0		; visa id: 1042
  %324 = lshr exact i32 %322, 1		; visa id: 1042
  call void @llvm.genx.GenISA.LSC2DBlockSetAddrPayloadField.p4i8.i32(i8 addrspace(4)* %Block2D_AddrPayload114, i32 5, i32 %324, i1 false)		; visa id: 1043
  call void @llvm.genx.GenISA.LSC2DBlockSetAddrPayloadField.p4i8.i32(i8 addrspace(4)* %Block2D_AddrPayload114, i32 6, i32 %319, i1 false)		; visa id: 1044
  %325 = call <16 x i16> asm "lsc_load_block2d.ugm (M1, 1)  $0:d$2.$3x$4tn flat[$1+(0,0)]", "=rw,rw.u,P,P,P"(i8 addrspace(4)* %Block2D_AddrPayload114, i32 32, i32 8, i32 16) #0		; visa id: 1045
  call void @llvm.genx.GenISA.LSC2DBlockSetAddrPayloadField.p4i8.i32(i8 addrspace(4)* %Block2D_AddrPayload114, i32 5, i32 %324, i1 false)		; visa id: 1045
  call void @llvm.genx.GenISA.LSC2DBlockSetAddrPayloadField.p4i8.i32(i8 addrspace(4)* %Block2D_AddrPayload114, i32 6, i32 %320, i1 false)		; visa id: 1046
  %326 = call <16 x i16> asm "lsc_load_block2d.ugm (M1, 1)  $0:d$2.$3x$4tn flat[$1+(0,0)]", "=rw,rw.u,P,P,P"(i8 addrspace(4)* %Block2D_AddrPayload114, i32 32, i32 8, i32 16) #0		; visa id: 1047
  %327 = or i32 %324, 8		; visa id: 1047
  call void @llvm.genx.GenISA.LSC2DBlockSetAddrPayloadField.p4i8.i32(i8 addrspace(4)* %Block2D_AddrPayload114, i32 5, i32 %327, i1 false)		; visa id: 1048
  call void @llvm.genx.GenISA.LSC2DBlockSetAddrPayloadField.p4i8.i32(i8 addrspace(4)* %Block2D_AddrPayload114, i32 6, i32 %319, i1 false)		; visa id: 1049
  %328 = call <16 x i16> asm "lsc_load_block2d.ugm (M1, 1)  $0:d$2.$3x$4tn flat[$1+(0,0)]", "=rw,rw.u,P,P,P"(i8 addrspace(4)* %Block2D_AddrPayload114, i32 32, i32 8, i32 16) #0		; visa id: 1050
  call void @llvm.genx.GenISA.LSC2DBlockSetAddrPayloadField.p4i8.i32(i8 addrspace(4)* %Block2D_AddrPayload114, i32 5, i32 %327, i1 false)		; visa id: 1050
  call void @llvm.genx.GenISA.LSC2DBlockSetAddrPayloadField.p4i8.i32(i8 addrspace(4)* %Block2D_AddrPayload114, i32 6, i32 %320, i1 false)		; visa id: 1051
  %329 = call <16 x i16> asm "lsc_load_block2d.ugm (M1, 1)  $0:d$2.$3x$4tn flat[$1+(0,0)]", "=rw,rw.u,P,P,P"(i8 addrspace(4)* %Block2D_AddrPayload114, i32 32, i32 8, i32 16) #0		; visa id: 1052
  %330 = extractelement <32 x i16> %323, i32 0		; visa id: 1052
  %331 = insertelement <8 x i16> undef, i16 %330, i32 0		; visa id: 1052
  %332 = extractelement <32 x i16> %323, i32 1		; visa id: 1052
  %333 = insertelement <8 x i16> %331, i16 %332, i32 1		; visa id: 1052
  %334 = extractelement <32 x i16> %323, i32 2		; visa id: 1052
  %335 = insertelement <8 x i16> %333, i16 %334, i32 2		; visa id: 1052
  %336 = extractelement <32 x i16> %323, i32 3		; visa id: 1052
  %337 = insertelement <8 x i16> %335, i16 %336, i32 3		; visa id: 1052
  %338 = extractelement <32 x i16> %323, i32 4		; visa id: 1052
  %339 = insertelement <8 x i16> %337, i16 %338, i32 4		; visa id: 1052
  %340 = extractelement <32 x i16> %323, i32 5		; visa id: 1052
  %341 = insertelement <8 x i16> %339, i16 %340, i32 5		; visa id: 1052
  %342 = extractelement <32 x i16> %323, i32 6		; visa id: 1052
  %343 = insertelement <8 x i16> %341, i16 %342, i32 6		; visa id: 1052
  %344 = extractelement <32 x i16> %323, i32 7		; visa id: 1052
  %345 = insertelement <8 x i16> %343, i16 %344, i32 7		; visa id: 1052
  %346 = extractelement <32 x i16> %323, i32 8		; visa id: 1052
  %347 = insertelement <8 x i16> undef, i16 %346, i32 0		; visa id: 1052
  %348 = extractelement <32 x i16> %323, i32 9		; visa id: 1052
  %349 = insertelement <8 x i16> %347, i16 %348, i32 1		; visa id: 1052
  %350 = extractelement <32 x i16> %323, i32 10		; visa id: 1052
  %351 = insertelement <8 x i16> %349, i16 %350, i32 2		; visa id: 1052
  %352 = extractelement <32 x i16> %323, i32 11		; visa id: 1052
  %353 = insertelement <8 x i16> %351, i16 %352, i32 3		; visa id: 1052
  %354 = extractelement <32 x i16> %323, i32 12		; visa id: 1052
  %355 = insertelement <8 x i16> %353, i16 %354, i32 4		; visa id: 1052
  %356 = extractelement <32 x i16> %323, i32 13		; visa id: 1052
  %357 = insertelement <8 x i16> %355, i16 %356, i32 5		; visa id: 1052
  %358 = extractelement <32 x i16> %323, i32 14		; visa id: 1052
  %359 = insertelement <8 x i16> %357, i16 %358, i32 6		; visa id: 1052
  %360 = extractelement <32 x i16> %323, i32 15		; visa id: 1052
  %361 = insertelement <8 x i16> %359, i16 %360, i32 7		; visa id: 1052
  %362 = extractelement <32 x i16> %323, i32 16		; visa id: 1052
  %363 = insertelement <8 x i16> undef, i16 %362, i32 0		; visa id: 1052
  %364 = extractelement <32 x i16> %323, i32 17		; visa id: 1052
  %365 = insertelement <8 x i16> %363, i16 %364, i32 1		; visa id: 1052
  %366 = extractelement <32 x i16> %323, i32 18		; visa id: 1052
  %367 = insertelement <8 x i16> %365, i16 %366, i32 2		; visa id: 1052
  %368 = extractelement <32 x i16> %323, i32 19		; visa id: 1052
  %369 = insertelement <8 x i16> %367, i16 %368, i32 3		; visa id: 1052
  %370 = extractelement <32 x i16> %323, i32 20		; visa id: 1052
  %371 = insertelement <8 x i16> %369, i16 %370, i32 4		; visa id: 1052
  %372 = extractelement <32 x i16> %323, i32 21		; visa id: 1052
  %373 = insertelement <8 x i16> %371, i16 %372, i32 5		; visa id: 1052
  %374 = extractelement <32 x i16> %323, i32 22		; visa id: 1052
  %375 = insertelement <8 x i16> %373, i16 %374, i32 6		; visa id: 1052
  %376 = extractelement <32 x i16> %323, i32 23		; visa id: 1052
  %377 = insertelement <8 x i16> %375, i16 %376, i32 7		; visa id: 1052
  %378 = extractelement <32 x i16> %323, i32 24		; visa id: 1052
  %379 = insertelement <8 x i16> undef, i16 %378, i32 0		; visa id: 1052
  %380 = extractelement <32 x i16> %323, i32 25		; visa id: 1052
  %381 = insertelement <8 x i16> %379, i16 %380, i32 1		; visa id: 1052
  %382 = extractelement <32 x i16> %323, i32 26		; visa id: 1052
  %383 = insertelement <8 x i16> %381, i16 %382, i32 2		; visa id: 1052
  %384 = extractelement <32 x i16> %323, i32 27		; visa id: 1052
  %385 = insertelement <8 x i16> %383, i16 %384, i32 3		; visa id: 1052
  %386 = extractelement <32 x i16> %323, i32 28		; visa id: 1052
  %387 = insertelement <8 x i16> %385, i16 %386, i32 4		; visa id: 1052
  %388 = extractelement <32 x i16> %323, i32 29		; visa id: 1052
  %389 = insertelement <8 x i16> %387, i16 %388, i32 5		; visa id: 1052
  %390 = extractelement <32 x i16> %323, i32 30		; visa id: 1052
  %391 = insertelement <8 x i16> %389, i16 %390, i32 6		; visa id: 1052
  %392 = extractelement <32 x i16> %323, i32 31		; visa id: 1052
  %393 = insertelement <8 x i16> %391, i16 %392, i32 7		; visa id: 1052
  %394 = call <8 x float> asm "{\0A.decl DST     v_type=G type=f num_elts=$5 alias=<$0,0>\0A.decl SRC1_UD v_type=G type=UD num_elts=128 alias=<$2,0>\0A.decl SRC2_UD v_type=G type=UD num_elts=$4 alias=<$1,0>\0Adpas.bf.bf.8.$3 (M1, 16) DST.0 DST.0 SRC1_UD.0 SRC2_UD(0,0)\0A}\0A", "=rw,rw,rw,P,P,P,0"(<8 x i16> %345, <16 x i16> %325, i32 8, i32 64, i32 128, <8 x float> %.sroa.03157.5) #0		; visa id: 1052
  %395 = call <8 x float> asm "{\0A.decl DST     v_type=G type=f num_elts=$5 alias=<$0,0>\0A.decl SRC1_UD v_type=G type=UD num_elts=128 alias=<$2,0>\0A.decl SRC2_UD v_type=G type=UD num_elts=$4 alias=<$1,0>\0Adpas.bf.bf.8.$3 (M1, 16) DST.0 DST.0 SRC1_UD.0 SRC2_UD(0,0)\0A}\0A", "=rw,rw,rw,P,P,P,0"(<8 x i16> %361, <16 x i16> %325, i32 8, i32 64, i32 128, <8 x float> %.sroa.147.5) #0		; visa id: 1052
  %396 = call <8 x float> asm "{\0A.decl DST     v_type=G type=f num_elts=$5 alias=<$0,0>\0A.decl SRC1_UD v_type=G type=UD num_elts=128 alias=<$2,0>\0A.decl SRC2_UD v_type=G type=UD num_elts=$4 alias=<$1,0>\0Adpas.bf.bf.8.$3 (M1, 16) DST.0 DST.0 SRC1_UD.0 SRC2_UD(0,0)\0A}\0A", "=rw,rw,rw,P,P,P,0"(<8 x i16> %361, <16 x i16> %326, i32 8, i32 64, i32 128, <8 x float> %.sroa.435.5) #0		; visa id: 1052
  %397 = call <8 x float> asm "{\0A.decl DST     v_type=G type=f num_elts=$5 alias=<$0,0>\0A.decl SRC1_UD v_type=G type=UD num_elts=128 alias=<$2,0>\0A.decl SRC2_UD v_type=G type=UD num_elts=$4 alias=<$1,0>\0Adpas.bf.bf.8.$3 (M1, 16) DST.0 DST.0 SRC1_UD.0 SRC2_UD(0,0)\0A}\0A", "=rw,rw,rw,P,P,P,0"(<8 x i16> %345, <16 x i16> %326, i32 8, i32 64, i32 128, <8 x float> %.sroa.291.5) #0		; visa id: 1052
  %398 = call <8 x float> asm "{\0A.decl DST     v_type=G type=f num_elts=$5 alias=<$0,0>\0A.decl SRC1_UD v_type=G type=UD num_elts=128 alias=<$2,0>\0A.decl SRC2_UD v_type=G type=UD num_elts=$4 alias=<$1,0>\0Adpas.bf.bf.8.$3 (M1, 16) DST.0 DST.0 SRC1_UD.0 SRC2_UD(0,0)\0A}\0A", "=rw,rw,rw,P,P,P,0"(<8 x i16> %377, <16 x i16> %328, i32 8, i32 64, i32 128, <8 x float> %394) #0		; visa id: 1052
  %399 = call <8 x float> asm "{\0A.decl DST     v_type=G type=f num_elts=$5 alias=<$0,0>\0A.decl SRC1_UD v_type=G type=UD num_elts=128 alias=<$2,0>\0A.decl SRC2_UD v_type=G type=UD num_elts=$4 alias=<$1,0>\0Adpas.bf.bf.8.$3 (M1, 16) DST.0 DST.0 SRC1_UD.0 SRC2_UD(0,0)\0A}\0A", "=rw,rw,rw,P,P,P,0"(<8 x i16> %393, <16 x i16> %328, i32 8, i32 64, i32 128, <8 x float> %395) #0		; visa id: 1052
  %400 = call <8 x float> asm "{\0A.decl DST     v_type=G type=f num_elts=$5 alias=<$0,0>\0A.decl SRC1_UD v_type=G type=UD num_elts=128 alias=<$2,0>\0A.decl SRC2_UD v_type=G type=UD num_elts=$4 alias=<$1,0>\0Adpas.bf.bf.8.$3 (M1, 16) DST.0 DST.0 SRC1_UD.0 SRC2_UD(0,0)\0A}\0A", "=rw,rw,rw,P,P,P,0"(<8 x i16> %393, <16 x i16> %329, i32 8, i32 64, i32 128, <8 x float> %396) #0		; visa id: 1052
  %401 = call <8 x float> asm "{\0A.decl DST     v_type=G type=f num_elts=$5 alias=<$0,0>\0A.decl SRC1_UD v_type=G type=UD num_elts=128 alias=<$2,0>\0A.decl SRC2_UD v_type=G type=UD num_elts=$4 alias=<$1,0>\0Adpas.bf.bf.8.$3 (M1, 16) DST.0 DST.0 SRC1_UD.0 SRC2_UD(0,0)\0A}\0A", "=rw,rw,rw,P,P,P,0"(<8 x i16> %377, <16 x i16> %329, i32 8, i32 64, i32 128, <8 x float> %397) #0		; visa id: 1052
  %402 = or i32 %322, 32		; visa id: 1052
  call void @llvm.genx.GenISA.LSC2DBlockSetAddrPayloadField.p4i8.i32(i8 addrspace(4)* %Block2D_AddrPayload, i32 5, i32 %402, i1 false)		; visa id: 1053
  call void @llvm.genx.GenISA.LSC2DBlockSetAddrPayloadField.p4i8.i32(i8 addrspace(4)* %Block2D_AddrPayload, i32 6, i32 %115, i1 false)		; visa id: 1054
  %403 = call <32 x i16> asm "lsc_load_block2d.ugm (M1, 1)  $0:d$2.$3x$4x$5nn flat[$1+(0,0)]", "=rw,rw.u,P,P,P,P"(i8 addrspace(4)* %Block2D_AddrPayload, i32 16, i32 2, i32 16, i32 16) #0		; visa id: 1055
  %404 = lshr exact i32 %402, 1		; visa id: 1055
  call void @llvm.genx.GenISA.LSC2DBlockSetAddrPayloadField.p4i8.i32(i8 addrspace(4)* %Block2D_AddrPayload114, i32 5, i32 %404, i1 false)		; visa id: 1056
  call void @llvm.genx.GenISA.LSC2DBlockSetAddrPayloadField.p4i8.i32(i8 addrspace(4)* %Block2D_AddrPayload114, i32 6, i32 %319, i1 false)		; visa id: 1057
  %405 = call <16 x i16> asm "lsc_load_block2d.ugm (M1, 1)  $0:d$2.$3x$4tn flat[$1+(0,0)]", "=rw,rw.u,P,P,P"(i8 addrspace(4)* %Block2D_AddrPayload114, i32 32, i32 8, i32 16) #0		; visa id: 1058
  call void @llvm.genx.GenISA.LSC2DBlockSetAddrPayloadField.p4i8.i32(i8 addrspace(4)* %Block2D_AddrPayload114, i32 5, i32 %404, i1 false)		; visa id: 1058
  call void @llvm.genx.GenISA.LSC2DBlockSetAddrPayloadField.p4i8.i32(i8 addrspace(4)* %Block2D_AddrPayload114, i32 6, i32 %320, i1 false)		; visa id: 1059
  %406 = call <16 x i16> asm "lsc_load_block2d.ugm (M1, 1)  $0:d$2.$3x$4tn flat[$1+(0,0)]", "=rw,rw.u,P,P,P"(i8 addrspace(4)* %Block2D_AddrPayload114, i32 32, i32 8, i32 16) #0		; visa id: 1060
  %407 = or i32 %404, 8		; visa id: 1060
  call void @llvm.genx.GenISA.LSC2DBlockSetAddrPayloadField.p4i8.i32(i8 addrspace(4)* %Block2D_AddrPayload114, i32 5, i32 %407, i1 false)		; visa id: 1061
  call void @llvm.genx.GenISA.LSC2DBlockSetAddrPayloadField.p4i8.i32(i8 addrspace(4)* %Block2D_AddrPayload114, i32 6, i32 %319, i1 false)		; visa id: 1062
  %408 = call <16 x i16> asm "lsc_load_block2d.ugm (M1, 1)  $0:d$2.$3x$4tn flat[$1+(0,0)]", "=rw,rw.u,P,P,P"(i8 addrspace(4)* %Block2D_AddrPayload114, i32 32, i32 8, i32 16) #0		; visa id: 1063
  call void @llvm.genx.GenISA.LSC2DBlockSetAddrPayloadField.p4i8.i32(i8 addrspace(4)* %Block2D_AddrPayload114, i32 5, i32 %407, i1 false)		; visa id: 1063
  call void @llvm.genx.GenISA.LSC2DBlockSetAddrPayloadField.p4i8.i32(i8 addrspace(4)* %Block2D_AddrPayload114, i32 6, i32 %320, i1 false)		; visa id: 1064
  %409 = call <16 x i16> asm "lsc_load_block2d.ugm (M1, 1)  $0:d$2.$3x$4tn flat[$1+(0,0)]", "=rw,rw.u,P,P,P"(i8 addrspace(4)* %Block2D_AddrPayload114, i32 32, i32 8, i32 16) #0		; visa id: 1065
  %410 = extractelement <32 x i16> %403, i32 0		; visa id: 1065
  %411 = insertelement <8 x i16> undef, i16 %410, i32 0		; visa id: 1065
  %412 = extractelement <32 x i16> %403, i32 1		; visa id: 1065
  %413 = insertelement <8 x i16> %411, i16 %412, i32 1		; visa id: 1065
  %414 = extractelement <32 x i16> %403, i32 2		; visa id: 1065
  %415 = insertelement <8 x i16> %413, i16 %414, i32 2		; visa id: 1065
  %416 = extractelement <32 x i16> %403, i32 3		; visa id: 1065
  %417 = insertelement <8 x i16> %415, i16 %416, i32 3		; visa id: 1065
  %418 = extractelement <32 x i16> %403, i32 4		; visa id: 1065
  %419 = insertelement <8 x i16> %417, i16 %418, i32 4		; visa id: 1065
  %420 = extractelement <32 x i16> %403, i32 5		; visa id: 1065
  %421 = insertelement <8 x i16> %419, i16 %420, i32 5		; visa id: 1065
  %422 = extractelement <32 x i16> %403, i32 6		; visa id: 1065
  %423 = insertelement <8 x i16> %421, i16 %422, i32 6		; visa id: 1065
  %424 = extractelement <32 x i16> %403, i32 7		; visa id: 1065
  %425 = insertelement <8 x i16> %423, i16 %424, i32 7		; visa id: 1065
  %426 = extractelement <32 x i16> %403, i32 8		; visa id: 1065
  %427 = insertelement <8 x i16> undef, i16 %426, i32 0		; visa id: 1065
  %428 = extractelement <32 x i16> %403, i32 9		; visa id: 1065
  %429 = insertelement <8 x i16> %427, i16 %428, i32 1		; visa id: 1065
  %430 = extractelement <32 x i16> %403, i32 10		; visa id: 1065
  %431 = insertelement <8 x i16> %429, i16 %430, i32 2		; visa id: 1065
  %432 = extractelement <32 x i16> %403, i32 11		; visa id: 1065
  %433 = insertelement <8 x i16> %431, i16 %432, i32 3		; visa id: 1065
  %434 = extractelement <32 x i16> %403, i32 12		; visa id: 1065
  %435 = insertelement <8 x i16> %433, i16 %434, i32 4		; visa id: 1065
  %436 = extractelement <32 x i16> %403, i32 13		; visa id: 1065
  %437 = insertelement <8 x i16> %435, i16 %436, i32 5		; visa id: 1065
  %438 = extractelement <32 x i16> %403, i32 14		; visa id: 1065
  %439 = insertelement <8 x i16> %437, i16 %438, i32 6		; visa id: 1065
  %440 = extractelement <32 x i16> %403, i32 15		; visa id: 1065
  %441 = insertelement <8 x i16> %439, i16 %440, i32 7		; visa id: 1065
  %442 = extractelement <32 x i16> %403, i32 16		; visa id: 1065
  %443 = insertelement <8 x i16> undef, i16 %442, i32 0		; visa id: 1065
  %444 = extractelement <32 x i16> %403, i32 17		; visa id: 1065
  %445 = insertelement <8 x i16> %443, i16 %444, i32 1		; visa id: 1065
  %446 = extractelement <32 x i16> %403, i32 18		; visa id: 1065
  %447 = insertelement <8 x i16> %445, i16 %446, i32 2		; visa id: 1065
  %448 = extractelement <32 x i16> %403, i32 19		; visa id: 1065
  %449 = insertelement <8 x i16> %447, i16 %448, i32 3		; visa id: 1065
  %450 = extractelement <32 x i16> %403, i32 20		; visa id: 1065
  %451 = insertelement <8 x i16> %449, i16 %450, i32 4		; visa id: 1065
  %452 = extractelement <32 x i16> %403, i32 21		; visa id: 1065
  %453 = insertelement <8 x i16> %451, i16 %452, i32 5		; visa id: 1065
  %454 = extractelement <32 x i16> %403, i32 22		; visa id: 1065
  %455 = insertelement <8 x i16> %453, i16 %454, i32 6		; visa id: 1065
  %456 = extractelement <32 x i16> %403, i32 23		; visa id: 1065
  %457 = insertelement <8 x i16> %455, i16 %456, i32 7		; visa id: 1065
  %458 = extractelement <32 x i16> %403, i32 24		; visa id: 1065
  %459 = insertelement <8 x i16> undef, i16 %458, i32 0		; visa id: 1065
  %460 = extractelement <32 x i16> %403, i32 25		; visa id: 1065
  %461 = insertelement <8 x i16> %459, i16 %460, i32 1		; visa id: 1065
  %462 = extractelement <32 x i16> %403, i32 26		; visa id: 1065
  %463 = insertelement <8 x i16> %461, i16 %462, i32 2		; visa id: 1065
  %464 = extractelement <32 x i16> %403, i32 27		; visa id: 1065
  %465 = insertelement <8 x i16> %463, i16 %464, i32 3		; visa id: 1065
  %466 = extractelement <32 x i16> %403, i32 28		; visa id: 1065
  %467 = insertelement <8 x i16> %465, i16 %466, i32 4		; visa id: 1065
  %468 = extractelement <32 x i16> %403, i32 29		; visa id: 1065
  %469 = insertelement <8 x i16> %467, i16 %468, i32 5		; visa id: 1065
  %470 = extractelement <32 x i16> %403, i32 30		; visa id: 1065
  %471 = insertelement <8 x i16> %469, i16 %470, i32 6		; visa id: 1065
  %472 = extractelement <32 x i16> %403, i32 31		; visa id: 1065
  %473 = insertelement <8 x i16> %471, i16 %472, i32 7		; visa id: 1065
  %474 = call <8 x float> asm "{\0A.decl DST     v_type=G type=f num_elts=$5 alias=<$0,0>\0A.decl SRC1_UD v_type=G type=UD num_elts=128 alias=<$2,0>\0A.decl SRC2_UD v_type=G type=UD num_elts=$4 alias=<$1,0>\0Adpas.bf.bf.8.$3 (M1, 16) DST.0 DST.0 SRC1_UD.0 SRC2_UD(0,0)\0A}\0A", "=rw,rw,rw,P,P,P,0"(<8 x i16> %425, <16 x i16> %405, i32 8, i32 64, i32 128, <8 x float> %398) #0		; visa id: 1065
  %475 = call <8 x float> asm "{\0A.decl DST     v_type=G type=f num_elts=$5 alias=<$0,0>\0A.decl SRC1_UD v_type=G type=UD num_elts=128 alias=<$2,0>\0A.decl SRC2_UD v_type=G type=UD num_elts=$4 alias=<$1,0>\0Adpas.bf.bf.8.$3 (M1, 16) DST.0 DST.0 SRC1_UD.0 SRC2_UD(0,0)\0A}\0A", "=rw,rw,rw,P,P,P,0"(<8 x i16> %441, <16 x i16> %405, i32 8, i32 64, i32 128, <8 x float> %399) #0		; visa id: 1065
  %476 = call <8 x float> asm "{\0A.decl DST     v_type=G type=f num_elts=$5 alias=<$0,0>\0A.decl SRC1_UD v_type=G type=UD num_elts=128 alias=<$2,0>\0A.decl SRC2_UD v_type=G type=UD num_elts=$4 alias=<$1,0>\0Adpas.bf.bf.8.$3 (M1, 16) DST.0 DST.0 SRC1_UD.0 SRC2_UD(0,0)\0A}\0A", "=rw,rw,rw,P,P,P,0"(<8 x i16> %441, <16 x i16> %406, i32 8, i32 64, i32 128, <8 x float> %400) #0		; visa id: 1065
  %477 = call <8 x float> asm "{\0A.decl DST     v_type=G type=f num_elts=$5 alias=<$0,0>\0A.decl SRC1_UD v_type=G type=UD num_elts=128 alias=<$2,0>\0A.decl SRC2_UD v_type=G type=UD num_elts=$4 alias=<$1,0>\0Adpas.bf.bf.8.$3 (M1, 16) DST.0 DST.0 SRC1_UD.0 SRC2_UD(0,0)\0A}\0A", "=rw,rw,rw,P,P,P,0"(<8 x i16> %425, <16 x i16> %406, i32 8, i32 64, i32 128, <8 x float> %401) #0		; visa id: 1065
  %478 = call <8 x float> asm "{\0A.decl DST     v_type=G type=f num_elts=$5 alias=<$0,0>\0A.decl SRC1_UD v_type=G type=UD num_elts=128 alias=<$2,0>\0A.decl SRC2_UD v_type=G type=UD num_elts=$4 alias=<$1,0>\0Adpas.bf.bf.8.$3 (M1, 16) DST.0 DST.0 SRC1_UD.0 SRC2_UD(0,0)\0A}\0A", "=rw,rw,rw,P,P,P,0"(<8 x i16> %457, <16 x i16> %408, i32 8, i32 64, i32 128, <8 x float> %474) #0		; visa id: 1065
  %479 = call <8 x float> asm "{\0A.decl DST     v_type=G type=f num_elts=$5 alias=<$0,0>\0A.decl SRC1_UD v_type=G type=UD num_elts=128 alias=<$2,0>\0A.decl SRC2_UD v_type=G type=UD num_elts=$4 alias=<$1,0>\0Adpas.bf.bf.8.$3 (M1, 16) DST.0 DST.0 SRC1_UD.0 SRC2_UD(0,0)\0A}\0A", "=rw,rw,rw,P,P,P,0"(<8 x i16> %473, <16 x i16> %408, i32 8, i32 64, i32 128, <8 x float> %475) #0		; visa id: 1065
  %480 = call <8 x float> asm "{\0A.decl DST     v_type=G type=f num_elts=$5 alias=<$0,0>\0A.decl SRC1_UD v_type=G type=UD num_elts=128 alias=<$2,0>\0A.decl SRC2_UD v_type=G type=UD num_elts=$4 alias=<$1,0>\0Adpas.bf.bf.8.$3 (M1, 16) DST.0 DST.0 SRC1_UD.0 SRC2_UD(0,0)\0A}\0A", "=rw,rw,rw,P,P,P,0"(<8 x i16> %473, <16 x i16> %409, i32 8, i32 64, i32 128, <8 x float> %476) #0		; visa id: 1065
  %481 = call <8 x float> asm "{\0A.decl DST     v_type=G type=f num_elts=$5 alias=<$0,0>\0A.decl SRC1_UD v_type=G type=UD num_elts=128 alias=<$2,0>\0A.decl SRC2_UD v_type=G type=UD num_elts=$4 alias=<$1,0>\0Adpas.bf.bf.8.$3 (M1, 16) DST.0 DST.0 SRC1_UD.0 SRC2_UD(0,0)\0A}\0A", "=rw,rw,rw,P,P,P,0"(<8 x i16> %457, <16 x i16> %409, i32 8, i32 64, i32 128, <8 x float> %477) #0		; visa id: 1065
  %482 = add nuw nsw i32 %321, 2, !spirv.Decorations !1217		; visa id: 1065
  %niter199.next.1 = add i32 %niter199, 2		; visa id: 1066
  %niter199.ncmp.1.not = icmp eq i32 %niter199.next.1, %unroll_iter198		; visa id: 1067
  br i1 %niter199.ncmp.1.not, label %._crit_edge170.unr-lcssa, label %.preheader153..preheader153_crit_edge, !llvm.loop !1239, !stats.blockFrequency.digits !1241, !stats.blockFrequency.scale !1204		; visa id: 1068

.preheader153..preheader153_crit_edge:            ; preds = %.preheader153
; BB:
  br label %.preheader153, !stats.blockFrequency.digits !1242, !stats.blockFrequency.scale !1204

._crit_edge170.unr-lcssa:                         ; preds = %.preheader153
; BB82 :
  %.lcssa7211 = phi <8 x float> [ %478, %.preheader153 ]
  %.lcssa7210 = phi <8 x float> [ %479, %.preheader153 ]
  %.lcssa7209 = phi <8 x float> [ %480, %.preheader153 ]
  %.lcssa7208 = phi <8 x float> [ %481, %.preheader153 ]
  %.lcssa7207 = phi i32 [ %482, %.preheader153 ]
  br i1 %lcmp.mod197.not, label %._crit_edge170.unr-lcssa.._crit_edge170_crit_edge, label %._crit_edge170.unr-lcssa..epil.preheader193_crit_edge, !stats.blockFrequency.digits !1228, !stats.blockFrequency.scale !1229		; visa id: 1070

._crit_edge170.unr-lcssa..epil.preheader193_crit_edge: ; preds = %._crit_edge170.unr-lcssa
; BB:
  br label %.epil.preheader193, !stats.blockFrequency.digits !1228, !stats.blockFrequency.scale !1209

.epil.preheader193:                               ; preds = %._crit_edge170.unr-lcssa..epil.preheader193_crit_edge, %.lr.ph169..epil.preheader193_crit_edge
; BB84 :
  %.unr1966697 = phi i32 [ %.lcssa7207, %._crit_edge170.unr-lcssa..epil.preheader193_crit_edge ], [ 0, %.lr.ph169..epil.preheader193_crit_edge ]
  %.sroa.03157.26696 = phi <8 x float> [ %.lcssa7211, %._crit_edge170.unr-lcssa..epil.preheader193_crit_edge ], [ zeroinitializer, %.lr.ph169..epil.preheader193_crit_edge ]
  %.sroa.147.26695 = phi <8 x float> [ %.lcssa7210, %._crit_edge170.unr-lcssa..epil.preheader193_crit_edge ], [ zeroinitializer, %.lr.ph169..epil.preheader193_crit_edge ]
  %.sroa.291.26694 = phi <8 x float> [ %.lcssa7208, %._crit_edge170.unr-lcssa..epil.preheader193_crit_edge ], [ zeroinitializer, %.lr.ph169..epil.preheader193_crit_edge ]
  %.sroa.435.26693 = phi <8 x float> [ %.lcssa7209, %._crit_edge170.unr-lcssa..epil.preheader193_crit_edge ], [ zeroinitializer, %.lr.ph169..epil.preheader193_crit_edge ]
  %483 = shl nsw i32 %.unr1966697, 5, !spirv.Decorations !1210		; visa id: 1072
  call void @llvm.genx.GenISA.LSC2DBlockSetAddrPayloadField.p4i8.i32(i8 addrspace(4)* %Block2D_AddrPayload, i32 5, i32 %483, i1 false)		; visa id: 1073
  call void @llvm.genx.GenISA.LSC2DBlockSetAddrPayloadField.p4i8.i32(i8 addrspace(4)* %Block2D_AddrPayload, i32 6, i32 %115, i1 false)		; visa id: 1074
  %484 = call <32 x i16> asm "lsc_load_block2d.ugm (M1, 1)  $0:d$2.$3x$4x$5nn flat[$1+(0,0)]", "=rw,rw.u,P,P,P,P"(i8 addrspace(4)* %Block2D_AddrPayload, i32 16, i32 2, i32 16, i32 16) #0		; visa id: 1075
  %485 = lshr exact i32 %483, 1		; visa id: 1075
  call void @llvm.genx.GenISA.LSC2DBlockSetAddrPayloadField.p4i8.i32(i8 addrspace(4)* %Block2D_AddrPayload114, i32 5, i32 %485, i1 false)		; visa id: 1076
  call void @llvm.genx.GenISA.LSC2DBlockSetAddrPayloadField.p4i8.i32(i8 addrspace(4)* %Block2D_AddrPayload114, i32 6, i32 %319, i1 false)		; visa id: 1077
  %486 = call <16 x i16> asm "lsc_load_block2d.ugm (M1, 1)  $0:d$2.$3x$4tn flat[$1+(0,0)]", "=rw,rw.u,P,P,P"(i8 addrspace(4)* %Block2D_AddrPayload114, i32 32, i32 8, i32 16) #0		; visa id: 1078
  %487 = add i32 %319, 16		; visa id: 1078
  call void @llvm.genx.GenISA.LSC2DBlockSetAddrPayloadField.p4i8.i32(i8 addrspace(4)* %Block2D_AddrPayload114, i32 5, i32 %485, i1 false)		; visa id: 1079
  call void @llvm.genx.GenISA.LSC2DBlockSetAddrPayloadField.p4i8.i32(i8 addrspace(4)* %Block2D_AddrPayload114, i32 6, i32 %487, i1 false)		; visa id: 1080
  %488 = call <16 x i16> asm "lsc_load_block2d.ugm (M1, 1)  $0:d$2.$3x$4tn flat[$1+(0,0)]", "=rw,rw.u,P,P,P"(i8 addrspace(4)* %Block2D_AddrPayload114, i32 32, i32 8, i32 16) #0		; visa id: 1081
  %489 = or i32 %485, 8		; visa id: 1081
  call void @llvm.genx.GenISA.LSC2DBlockSetAddrPayloadField.p4i8.i32(i8 addrspace(4)* %Block2D_AddrPayload114, i32 5, i32 %489, i1 false)		; visa id: 1082
  call void @llvm.genx.GenISA.LSC2DBlockSetAddrPayloadField.p4i8.i32(i8 addrspace(4)* %Block2D_AddrPayload114, i32 6, i32 %319, i1 false)		; visa id: 1083
  %490 = call <16 x i16> asm "lsc_load_block2d.ugm (M1, 1)  $0:d$2.$3x$4tn flat[$1+(0,0)]", "=rw,rw.u,P,P,P"(i8 addrspace(4)* %Block2D_AddrPayload114, i32 32, i32 8, i32 16) #0		; visa id: 1084
  call void @llvm.genx.GenISA.LSC2DBlockSetAddrPayloadField.p4i8.i32(i8 addrspace(4)* %Block2D_AddrPayload114, i32 5, i32 %489, i1 false)		; visa id: 1084
  call void @llvm.genx.GenISA.LSC2DBlockSetAddrPayloadField.p4i8.i32(i8 addrspace(4)* %Block2D_AddrPayload114, i32 6, i32 %487, i1 false)		; visa id: 1085
  %491 = call <16 x i16> asm "lsc_load_block2d.ugm (M1, 1)  $0:d$2.$3x$4tn flat[$1+(0,0)]", "=rw,rw.u,P,P,P"(i8 addrspace(4)* %Block2D_AddrPayload114, i32 32, i32 8, i32 16) #0		; visa id: 1086
  %492 = extractelement <32 x i16> %484, i32 0		; visa id: 1086
  %493 = insertelement <8 x i16> undef, i16 %492, i32 0		; visa id: 1086
  %494 = extractelement <32 x i16> %484, i32 1		; visa id: 1086
  %495 = insertelement <8 x i16> %493, i16 %494, i32 1		; visa id: 1086
  %496 = extractelement <32 x i16> %484, i32 2		; visa id: 1086
  %497 = insertelement <8 x i16> %495, i16 %496, i32 2		; visa id: 1086
  %498 = extractelement <32 x i16> %484, i32 3		; visa id: 1086
  %499 = insertelement <8 x i16> %497, i16 %498, i32 3		; visa id: 1086
  %500 = extractelement <32 x i16> %484, i32 4		; visa id: 1086
  %501 = insertelement <8 x i16> %499, i16 %500, i32 4		; visa id: 1086
  %502 = extractelement <32 x i16> %484, i32 5		; visa id: 1086
  %503 = insertelement <8 x i16> %501, i16 %502, i32 5		; visa id: 1086
  %504 = extractelement <32 x i16> %484, i32 6		; visa id: 1086
  %505 = insertelement <8 x i16> %503, i16 %504, i32 6		; visa id: 1086
  %506 = extractelement <32 x i16> %484, i32 7		; visa id: 1086
  %507 = insertelement <8 x i16> %505, i16 %506, i32 7		; visa id: 1086
  %508 = extractelement <32 x i16> %484, i32 8		; visa id: 1086
  %509 = insertelement <8 x i16> undef, i16 %508, i32 0		; visa id: 1086
  %510 = extractelement <32 x i16> %484, i32 9		; visa id: 1086
  %511 = insertelement <8 x i16> %509, i16 %510, i32 1		; visa id: 1086
  %512 = extractelement <32 x i16> %484, i32 10		; visa id: 1086
  %513 = insertelement <8 x i16> %511, i16 %512, i32 2		; visa id: 1086
  %514 = extractelement <32 x i16> %484, i32 11		; visa id: 1086
  %515 = insertelement <8 x i16> %513, i16 %514, i32 3		; visa id: 1086
  %516 = extractelement <32 x i16> %484, i32 12		; visa id: 1086
  %517 = insertelement <8 x i16> %515, i16 %516, i32 4		; visa id: 1086
  %518 = extractelement <32 x i16> %484, i32 13		; visa id: 1086
  %519 = insertelement <8 x i16> %517, i16 %518, i32 5		; visa id: 1086
  %520 = extractelement <32 x i16> %484, i32 14		; visa id: 1086
  %521 = insertelement <8 x i16> %519, i16 %520, i32 6		; visa id: 1086
  %522 = extractelement <32 x i16> %484, i32 15		; visa id: 1086
  %523 = insertelement <8 x i16> %521, i16 %522, i32 7		; visa id: 1086
  %524 = extractelement <32 x i16> %484, i32 16		; visa id: 1086
  %525 = insertelement <8 x i16> undef, i16 %524, i32 0		; visa id: 1086
  %526 = extractelement <32 x i16> %484, i32 17		; visa id: 1086
  %527 = insertelement <8 x i16> %525, i16 %526, i32 1		; visa id: 1086
  %528 = extractelement <32 x i16> %484, i32 18		; visa id: 1086
  %529 = insertelement <8 x i16> %527, i16 %528, i32 2		; visa id: 1086
  %530 = extractelement <32 x i16> %484, i32 19		; visa id: 1086
  %531 = insertelement <8 x i16> %529, i16 %530, i32 3		; visa id: 1086
  %532 = extractelement <32 x i16> %484, i32 20		; visa id: 1086
  %533 = insertelement <8 x i16> %531, i16 %532, i32 4		; visa id: 1086
  %534 = extractelement <32 x i16> %484, i32 21		; visa id: 1086
  %535 = insertelement <8 x i16> %533, i16 %534, i32 5		; visa id: 1086
  %536 = extractelement <32 x i16> %484, i32 22		; visa id: 1086
  %537 = insertelement <8 x i16> %535, i16 %536, i32 6		; visa id: 1086
  %538 = extractelement <32 x i16> %484, i32 23		; visa id: 1086
  %539 = insertelement <8 x i16> %537, i16 %538, i32 7		; visa id: 1086
  %540 = extractelement <32 x i16> %484, i32 24		; visa id: 1086
  %541 = insertelement <8 x i16> undef, i16 %540, i32 0		; visa id: 1086
  %542 = extractelement <32 x i16> %484, i32 25		; visa id: 1086
  %543 = insertelement <8 x i16> %541, i16 %542, i32 1		; visa id: 1086
  %544 = extractelement <32 x i16> %484, i32 26		; visa id: 1086
  %545 = insertelement <8 x i16> %543, i16 %544, i32 2		; visa id: 1086
  %546 = extractelement <32 x i16> %484, i32 27		; visa id: 1086
  %547 = insertelement <8 x i16> %545, i16 %546, i32 3		; visa id: 1086
  %548 = extractelement <32 x i16> %484, i32 28		; visa id: 1086
  %549 = insertelement <8 x i16> %547, i16 %548, i32 4		; visa id: 1086
  %550 = extractelement <32 x i16> %484, i32 29		; visa id: 1086
  %551 = insertelement <8 x i16> %549, i16 %550, i32 5		; visa id: 1086
  %552 = extractelement <32 x i16> %484, i32 30		; visa id: 1086
  %553 = insertelement <8 x i16> %551, i16 %552, i32 6		; visa id: 1086
  %554 = extractelement <32 x i16> %484, i32 31		; visa id: 1086
  %555 = insertelement <8 x i16> %553, i16 %554, i32 7		; visa id: 1086
  %556 = call <8 x float> asm "{\0A.decl DST     v_type=G type=f num_elts=$5 alias=<$0,0>\0A.decl SRC1_UD v_type=G type=UD num_elts=128 alias=<$2,0>\0A.decl SRC2_UD v_type=G type=UD num_elts=$4 alias=<$1,0>\0Adpas.bf.bf.8.$3 (M1, 16) DST.0 DST.0 SRC1_UD.0 SRC2_UD(0,0)\0A}\0A", "=rw,rw,rw,P,P,P,0"(<8 x i16> %507, <16 x i16> %486, i32 8, i32 64, i32 128, <8 x float> %.sroa.03157.26696) #0		; visa id: 1086
  %557 = call <8 x float> asm "{\0A.decl DST     v_type=G type=f num_elts=$5 alias=<$0,0>\0A.decl SRC1_UD v_type=G type=UD num_elts=128 alias=<$2,0>\0A.decl SRC2_UD v_type=G type=UD num_elts=$4 alias=<$1,0>\0Adpas.bf.bf.8.$3 (M1, 16) DST.0 DST.0 SRC1_UD.0 SRC2_UD(0,0)\0A}\0A", "=rw,rw,rw,P,P,P,0"(<8 x i16> %523, <16 x i16> %486, i32 8, i32 64, i32 128, <8 x float> %.sroa.147.26695) #0		; visa id: 1086
  %558 = call <8 x float> asm "{\0A.decl DST     v_type=G type=f num_elts=$5 alias=<$0,0>\0A.decl SRC1_UD v_type=G type=UD num_elts=128 alias=<$2,0>\0A.decl SRC2_UD v_type=G type=UD num_elts=$4 alias=<$1,0>\0Adpas.bf.bf.8.$3 (M1, 16) DST.0 DST.0 SRC1_UD.0 SRC2_UD(0,0)\0A}\0A", "=rw,rw,rw,P,P,P,0"(<8 x i16> %523, <16 x i16> %488, i32 8, i32 64, i32 128, <8 x float> %.sroa.435.26693) #0		; visa id: 1086
  %559 = call <8 x float> asm "{\0A.decl DST     v_type=G type=f num_elts=$5 alias=<$0,0>\0A.decl SRC1_UD v_type=G type=UD num_elts=128 alias=<$2,0>\0A.decl SRC2_UD v_type=G type=UD num_elts=$4 alias=<$1,0>\0Adpas.bf.bf.8.$3 (M1, 16) DST.0 DST.0 SRC1_UD.0 SRC2_UD(0,0)\0A}\0A", "=rw,rw,rw,P,P,P,0"(<8 x i16> %507, <16 x i16> %488, i32 8, i32 64, i32 128, <8 x float> %.sroa.291.26694) #0		; visa id: 1086
  %560 = call <8 x float> asm "{\0A.decl DST     v_type=G type=f num_elts=$5 alias=<$0,0>\0A.decl SRC1_UD v_type=G type=UD num_elts=128 alias=<$2,0>\0A.decl SRC2_UD v_type=G type=UD num_elts=$4 alias=<$1,0>\0Adpas.bf.bf.8.$3 (M1, 16) DST.0 DST.0 SRC1_UD.0 SRC2_UD(0,0)\0A}\0A", "=rw,rw,rw,P,P,P,0"(<8 x i16> %539, <16 x i16> %490, i32 8, i32 64, i32 128, <8 x float> %556) #0		; visa id: 1086
  %561 = call <8 x float> asm "{\0A.decl DST     v_type=G type=f num_elts=$5 alias=<$0,0>\0A.decl SRC1_UD v_type=G type=UD num_elts=128 alias=<$2,0>\0A.decl SRC2_UD v_type=G type=UD num_elts=$4 alias=<$1,0>\0Adpas.bf.bf.8.$3 (M1, 16) DST.0 DST.0 SRC1_UD.0 SRC2_UD(0,0)\0A}\0A", "=rw,rw,rw,P,P,P,0"(<8 x i16> %555, <16 x i16> %490, i32 8, i32 64, i32 128, <8 x float> %557) #0		; visa id: 1086
  %562 = call <8 x float> asm "{\0A.decl DST     v_type=G type=f num_elts=$5 alias=<$0,0>\0A.decl SRC1_UD v_type=G type=UD num_elts=128 alias=<$2,0>\0A.decl SRC2_UD v_type=G type=UD num_elts=$4 alias=<$1,0>\0Adpas.bf.bf.8.$3 (M1, 16) DST.0 DST.0 SRC1_UD.0 SRC2_UD(0,0)\0A}\0A", "=rw,rw,rw,P,P,P,0"(<8 x i16> %555, <16 x i16> %491, i32 8, i32 64, i32 128, <8 x float> %558) #0		; visa id: 1086
  %563 = call <8 x float> asm "{\0A.decl DST     v_type=G type=f num_elts=$5 alias=<$0,0>\0A.decl SRC1_UD v_type=G type=UD num_elts=128 alias=<$2,0>\0A.decl SRC2_UD v_type=G type=UD num_elts=$4 alias=<$1,0>\0Adpas.bf.bf.8.$3 (M1, 16) DST.0 DST.0 SRC1_UD.0 SRC2_UD(0,0)\0A}\0A", "=rw,rw,rw,P,P,P,0"(<8 x i16> %539, <16 x i16> %491, i32 8, i32 64, i32 128, <8 x float> %559) #0		; visa id: 1086
  br label %._crit_edge170, !stats.blockFrequency.digits !1243, !stats.blockFrequency.scale !1227		; visa id: 1086

._crit_edge170.unr-lcssa.._crit_edge170_crit_edge: ; preds = %._crit_edge170.unr-lcssa
; BB:
  br label %._crit_edge170, !stats.blockFrequency.digits !1228, !stats.blockFrequency.scale !1209

._crit_edge170:                                   ; preds = %._crit_edge170.unr-lcssa.._crit_edge170_crit_edge, %precompiled_s32divrem_sp.exit7016.._crit_edge170_crit_edge, %.epil.preheader193
; BB86 :
  %.sroa.435.4 = phi <8 x float> [ zeroinitializer, %precompiled_s32divrem_sp.exit7016.._crit_edge170_crit_edge ], [ %562, %.epil.preheader193 ], [ %.lcssa7209, %._crit_edge170.unr-lcssa.._crit_edge170_crit_edge ]
  %.sroa.291.4 = phi <8 x float> [ zeroinitializer, %precompiled_s32divrem_sp.exit7016.._crit_edge170_crit_edge ], [ %563, %.epil.preheader193 ], [ %.lcssa7208, %._crit_edge170.unr-lcssa.._crit_edge170_crit_edge ]
  %.sroa.147.4 = phi <8 x float> [ zeroinitializer, %precompiled_s32divrem_sp.exit7016.._crit_edge170_crit_edge ], [ %561, %.epil.preheader193 ], [ %.lcssa7210, %._crit_edge170.unr-lcssa.._crit_edge170_crit_edge ]
  %.sroa.03157.4 = phi <8 x float> [ zeroinitializer, %precompiled_s32divrem_sp.exit7016.._crit_edge170_crit_edge ], [ %560, %.epil.preheader193 ], [ %.lcssa7211, %._crit_edge170.unr-lcssa.._crit_edge170_crit_edge ]
  %564 = add nsw i32 %319, %117, !spirv.Decorations !1210		; visa id: 1087
  call void @llvm.genx.GenISA.LSC2DBlockSetAddrPayloadField.p4i8.i32(i8 addrspace(4)* %Block2D_AddrPayload120, i32 5, i32 %254, i1 false)		; visa id: 1088
  call void @llvm.genx.GenISA.LSC2DBlockSetAddrPayloadField.p4i8.i32(i8 addrspace(4)* %Block2D_AddrPayload120, i32 6, i32 %564, i1 false)		; visa id: 1089
  call void asm sideeffect "lsc_load_block2d.ugm.ca.ca (M1, 1)  %null:d$1.$2x$3nn flat[$0+(0,0)]", "rw.u,P,P,P"(i8 addrspace(4)* %Block2D_AddrPayload120, i32 16, i32 32, i32 2) #0		; visa id: 1090
  call void @llvm.genx.GenISA.LSC2DBlockSetAddrPayloadField.p4i8.i32(i8 addrspace(4)* %Block2D_AddrPayload120, i32 5, i32 %255, i1 false)		; visa id: 1090
  call void @llvm.genx.GenISA.LSC2DBlockSetAddrPayloadField.p4i8.i32(i8 addrspace(4)* %Block2D_AddrPayload120, i32 6, i32 %564, i1 false)		; visa id: 1091
  call void asm sideeffect "lsc_load_block2d.ugm.ca.ca (M1, 1)  %null:d$1.$2x$3nn flat[$0+(0,0)]", "rw.u,P,P,P"(i8 addrspace(4)* %Block2D_AddrPayload120, i32 16, i32 32, i32 2) #0		; visa id: 1092
  call void @llvm.genx.GenISA.LSC2DBlockSetAddrPayloadField.p4i8.i32(i8 addrspace(4)* %Block2D_AddrPayload120, i32 5, i32 %256, i1 false)		; visa id: 1092
  call void @llvm.genx.GenISA.LSC2DBlockSetAddrPayloadField.p4i8.i32(i8 addrspace(4)* %Block2D_AddrPayload120, i32 6, i32 %564, i1 false)		; visa id: 1093
  call void asm sideeffect "lsc_load_block2d.ugm.ca.ca (M1, 1)  %null:d$1.$2x$3nn flat[$0+(0,0)]", "rw.u,P,P,P"(i8 addrspace(4)* %Block2D_AddrPayload120, i32 16, i32 32, i32 2) #0		; visa id: 1094
  call void @llvm.genx.GenISA.LSC2DBlockSetAddrPayloadField.p4i8.i32(i8 addrspace(4)* %Block2D_AddrPayload120, i32 5, i32 %257, i1 false)		; visa id: 1094
  call void @llvm.genx.GenISA.LSC2DBlockSetAddrPayloadField.p4i8.i32(i8 addrspace(4)* %Block2D_AddrPayload120, i32 6, i32 %564, i1 false)		; visa id: 1095
  call void asm sideeffect "lsc_load_block2d.ugm.ca.ca (M1, 1)  %null:d$1.$2x$3nn flat[$0+(0,0)]", "rw.u,P,P,P"(i8 addrspace(4)* %Block2D_AddrPayload120, i32 16, i32 32, i32 2) #0		; visa id: 1096
  %565 = extractelement <8 x float> %.sroa.03157.4, i32 0		; visa id: 1096
  %566 = extractelement <8 x float> %.sroa.291.4, i32 0		; visa id: 1097
  %567 = fcmp reassoc nsz arcp contract olt float %565, %566, !spirv.Decorations !1244		; visa id: 1098
  %568 = select i1 %567, float %566, float %565		; visa id: 1099
  %569 = extractelement <8 x float> %.sroa.03157.4, i32 1		; visa id: 1100
  %570 = extractelement <8 x float> %.sroa.291.4, i32 1		; visa id: 1101
  %571 = fcmp reassoc nsz arcp contract olt float %569, %570, !spirv.Decorations !1244		; visa id: 1102
  %572 = select i1 %571, float %570, float %569		; visa id: 1103
  %573 = extractelement <8 x float> %.sroa.03157.4, i32 2		; visa id: 1104
  %574 = extractelement <8 x float> %.sroa.291.4, i32 2		; visa id: 1105
  %575 = fcmp reassoc nsz arcp contract olt float %573, %574, !spirv.Decorations !1244		; visa id: 1106
  %576 = select i1 %575, float %574, float %573		; visa id: 1107
  %577 = extractelement <8 x float> %.sroa.03157.4, i32 3		; visa id: 1108
  %578 = extractelement <8 x float> %.sroa.291.4, i32 3		; visa id: 1109
  %579 = fcmp reassoc nsz arcp contract olt float %577, %578, !spirv.Decorations !1244		; visa id: 1110
  %580 = select i1 %579, float %578, float %577		; visa id: 1111
  %581 = extractelement <8 x float> %.sroa.03157.4, i32 4		; visa id: 1112
  %582 = extractelement <8 x float> %.sroa.291.4, i32 4		; visa id: 1113
  %583 = fcmp reassoc nsz arcp contract olt float %581, %582, !spirv.Decorations !1244		; visa id: 1114
  %584 = select i1 %583, float %582, float %581		; visa id: 1115
  %585 = extractelement <8 x float> %.sroa.03157.4, i32 5		; visa id: 1116
  %586 = extractelement <8 x float> %.sroa.291.4, i32 5		; visa id: 1117
  %587 = fcmp reassoc nsz arcp contract olt float %585, %586, !spirv.Decorations !1244		; visa id: 1118
  %588 = select i1 %587, float %586, float %585		; visa id: 1119
  %589 = extractelement <8 x float> %.sroa.03157.4, i32 6		; visa id: 1120
  %590 = extractelement <8 x float> %.sroa.291.4, i32 6		; visa id: 1121
  %591 = fcmp reassoc nsz arcp contract olt float %589, %590, !spirv.Decorations !1244		; visa id: 1122
  %592 = select i1 %591, float %590, float %589		; visa id: 1123
  %593 = extractelement <8 x float> %.sroa.03157.4, i32 7		; visa id: 1124
  %594 = extractelement <8 x float> %.sroa.291.4, i32 7		; visa id: 1125
  %595 = fcmp reassoc nsz arcp contract olt float %593, %594, !spirv.Decorations !1244		; visa id: 1126
  %596 = select i1 %595, float %594, float %593		; visa id: 1127
  %597 = extractelement <8 x float> %.sroa.147.4, i32 0		; visa id: 1128
  %598 = extractelement <8 x float> %.sroa.435.4, i32 0		; visa id: 1129
  %599 = fcmp reassoc nsz arcp contract olt float %597, %598, !spirv.Decorations !1244		; visa id: 1130
  %600 = select i1 %599, float %598, float %597		; visa id: 1131
  %601 = extractelement <8 x float> %.sroa.147.4, i32 1		; visa id: 1132
  %602 = extractelement <8 x float> %.sroa.435.4, i32 1		; visa id: 1133
  %603 = fcmp reassoc nsz arcp contract olt float %601, %602, !spirv.Decorations !1244		; visa id: 1134
  %604 = select i1 %603, float %602, float %601		; visa id: 1135
  %605 = extractelement <8 x float> %.sroa.147.4, i32 2		; visa id: 1136
  %606 = extractelement <8 x float> %.sroa.435.4, i32 2		; visa id: 1137
  %607 = fcmp reassoc nsz arcp contract olt float %605, %606, !spirv.Decorations !1244		; visa id: 1138
  %608 = select i1 %607, float %606, float %605		; visa id: 1139
  %609 = extractelement <8 x float> %.sroa.147.4, i32 3		; visa id: 1140
  %610 = extractelement <8 x float> %.sroa.435.4, i32 3		; visa id: 1141
  %611 = fcmp reassoc nsz arcp contract olt float %609, %610, !spirv.Decorations !1244		; visa id: 1142
  %612 = select i1 %611, float %610, float %609		; visa id: 1143
  %613 = extractelement <8 x float> %.sroa.147.4, i32 4		; visa id: 1144
  %614 = extractelement <8 x float> %.sroa.435.4, i32 4		; visa id: 1145
  %615 = fcmp reassoc nsz arcp contract olt float %613, %614, !spirv.Decorations !1244		; visa id: 1146
  %616 = select i1 %615, float %614, float %613		; visa id: 1147
  %617 = extractelement <8 x float> %.sroa.147.4, i32 5		; visa id: 1148
  %618 = extractelement <8 x float> %.sroa.435.4, i32 5		; visa id: 1149
  %619 = fcmp reassoc nsz arcp contract olt float %617, %618, !spirv.Decorations !1244		; visa id: 1150
  %620 = select i1 %619, float %618, float %617		; visa id: 1151
  %621 = extractelement <8 x float> %.sroa.147.4, i32 6		; visa id: 1152
  %622 = extractelement <8 x float> %.sroa.435.4, i32 6		; visa id: 1153
  %623 = fcmp reassoc nsz arcp contract olt float %621, %622, !spirv.Decorations !1244		; visa id: 1154
  %624 = select i1 %623, float %622, float %621		; visa id: 1155
  %625 = extractelement <8 x float> %.sroa.147.4, i32 7		; visa id: 1156
  %626 = extractelement <8 x float> %.sroa.435.4, i32 7		; visa id: 1157
  %627 = fcmp reassoc nsz arcp contract olt float %625, %626, !spirv.Decorations !1244		; visa id: 1158
  %628 = select i1 %627, float %626, float %625		; visa id: 1159
  %629 = call float asm "{\0A.decl INTERLEAVE_2 v_type=P num_elts=16\0A.decl INTERLEAVE_4 v_type=P num_elts=16\0A.decl INTERLEAVE_8 v_type=P num_elts=16\0A.decl IN0 v_type=G type=UD num_elts=16 alias=<$1,0>\0A.decl IN1 v_type=G type=UD num_elts=16 alias=<$2,0>\0A.decl IN2 v_type=G type=UD num_elts=16 alias=<$3,0>\0A.decl IN3 v_type=G type=UD num_elts=16 alias=<$4,0>\0A.decl IN4 v_type=G type=UD num_elts=16 alias=<$5,0>\0A.decl IN5 v_type=G type=UD num_elts=16 alias=<$6,0>\0A.decl IN6 v_type=G type=UD num_elts=16 alias=<$7,0>\0A.decl IN7 v_type=G type=UD num_elts=16 alias=<$8,0>\0A.decl IN8 v_type=G type=UD num_elts=16 alias=<$9,0>\0A.decl IN9 v_type=G type=UD num_elts=16 alias=<$10,0>\0A.decl IN10 v_type=G type=UD num_elts=16 alias=<$11,0>\0A.decl IN11 v_type=G type=UD num_elts=16 alias=<$12,0>\0A.decl IN12 v_type=G type=UD num_elts=16 alias=<$13,0>\0A.decl IN13 v_type=G type=UD num_elts=16 alias=<$14,0>\0A.decl IN14 v_type=G type=UD num_elts=16 alias=<$15,0>\0A.decl IN15 v_type=G type=UD num_elts=16 alias=<$16,0>\0A.decl RA0 v_type=G type=UD num_elts=32 align=64\0A.decl RA2 v_type=G type=UD num_elts=32 align=64\0A.decl RA4 v_type=G type=UD num_elts=32 align=64\0A.decl RA6 v_type=G type=UD num_elts=32 align=64\0A.decl RA8 v_type=G type=UD num_elts=32 align=64\0A.decl RA10 v_type=G type=UD num_elts=32 align=64\0A.decl RA12 v_type=G type=UD num_elts=32 align=64\0A.decl RA14 v_type=G type=UD num_elts=32 align=64\0A.decl RF0 v_type=G type=F num_elts=16 alias=<RA0,0>\0A.decl RF1 v_type=G type=F num_elts=16 alias=<RA0,64>\0A.decl RF2 v_type=G type=F num_elts=16 alias=<RA2,0>\0A.decl RF3 v_type=G type=F num_elts=16 alias=<RA2,64>\0A.decl RF4 v_type=G type=F num_elts=16 alias=<RA4,0>\0A.decl RF5 v_type=G type=F num_elts=16 alias=<RA4,64>\0A.decl RF6 v_type=G type=F num_elts=16 alias=<RA6,0>\0A.decl RF7 v_type=G type=F num_elts=16 alias=<RA6,64>\0A.decl RF8 v_type=G type=F num_elts=16 alias=<RA8,0>\0A.decl RF9 v_type=G type=F num_elts=16 alias=<RA8,64>\0A.decl RF10 v_type=G type=F num_elts=16 alias=<RA10,0>\0A.decl RF11 v_type=G type=F num_elts=16 alias=<RA10,64>\0A.decl RF12 v_type=G type=F num_elts=16 alias=<RA12,0>\0A.decl RF13 v_type=G type=F num_elts=16 alias=<RA12,64>\0A.decl RF14 v_type=G type=F num_elts=16 alias=<RA14,0>\0A.decl RF15 v_type=G type=F num_elts=16 alias=<RA14,64>\0Asetp (M1_NM,16) INTERLEAVE_2 0x5555:uw\0Asetp (M1_NM,16) INTERLEAVE_4 0x3333:uw\0Asetp (M1_NM,16) INTERLEAVE_8 0x0F0F:uw\0A(!INTERLEAVE_2) sel (M1_NM,16) RA0(0,0)<1>  IN1(0,0)<2;2,0>  IN0(0,0)<1;1,0>\0A (INTERLEAVE_2) sel (M1_NM,16) RA0(1,0)<1>  IN0(0,1)<2;2,0>  IN1(0,0)<1;1,0>\0A(!INTERLEAVE_2) sel (M1_NM,16) RA2(0,0)<1>  IN3(0,0)<2;2,0>  IN2(0,0)<1;1,0>\0A (INTERLEAVE_2) sel (M1_NM,16) RA2(1,0)<1>  IN2(0,1)<2;2,0>  IN3(0,0)<1;1,0>\0A(!INTERLEAVE_2) sel (M1_NM,16) RA4(0,0)<1>  IN5(0,0)<2;2,0>  IN4(0,0)<1;1,0>\0A (INTERLEAVE_2) sel (M1_NM,16) RA4(1,0)<1>  IN4(0,1)<2;2,0>  IN5(0,0)<1;1,0>\0A(!INTERLEAVE_2) sel (M1_NM,16) RA6(0,0)<1>  IN7(0,0)<2;2,0>  IN6(0,0)<1;1,0>\0A (INTERLEAVE_2) sel (M1_NM,16) RA6(1,0)<1>  IN6(0,1)<2;2,0>  IN7(0,0)<1;1,0>\0A(!INTERLEAVE_2) sel (M1_NM,16) RA8(0,0)<1>  IN9(0,0)<2;2,0>  IN8(0,0)<1;1,0>\0A (INTERLEAVE_2) sel (M1_NM,16) RA8(1,0)<1>  IN8(0,1)<2;2,0>  IN9(0,0)<1;1,0>\0A(!INTERLEAVE_2) sel (M1_NM,16) RA10(0,0)<1> IN11(0,0)<2;2,0> IN10(0,0)<1;1,0>\0A (INTERLEAVE_2) sel (M1_NM,16) RA10(1,0)<1> IN10(0,1)<2;2,0> IN11(0,0)<1;1,0>\0A(!INTERLEAVE_2) sel (M1_NM,16) RA12(0,0)<1> IN13(0,0)<2;2,0> IN12(0,0)<1;1,0>\0A (INTERLEAVE_2) sel (M1_NM,16) RA12(1,0)<1> IN12(0,1)<2;2,0> IN13(0,0)<1;1,0>\0A(!INTERLEAVE_2) sel (M1_NM,16) RA14(0,0)<1> IN15(0,0)<2;2,0> IN14(0,0)<1;1,0>\0A (INTERLEAVE_2) sel (M1_NM,16) RA14(1,0)<1> IN14(0,1)<2;2,0> IN15(0,0)<1;1,0>\0Amax (M1_NM,16) RF0(0,0)<1> RF0(0,0)<1;1,0> RF1(0,0)<1;1,0>\0Amax (M1_NM,16) RF3(0,0)<1> RF2(0,0)<1;1,0> RF3(0,0)<1;1,0>\0Amax (M1_NM,16) RF4(0,0)<1> RF4(0,0)<1;1,0> RF5(0,0)<1;1,0>\0Amax (M1_NM,16) RF7(0,0)<1> RF6(0,0)<1;1,0> RF7(0,0)<1;1,0>\0Amax (M1_NM,16) RF8(0,0)<1> RF8(0,0)<1;1,0> RF9(0,0)<1;1,0>\0Amax (M1_NM,16) RF11(0,0)<1> RF10(0,0)<1;1,0> RF11(0,0)<1;1,0>\0Amax (M1_NM,16) RF12(0,0)<1> RF12(0,0)<1;1,0> RF13(0,0)<1;1,0>\0Amax (M1_NM,16) RF15(0,0)<1> RF14(0,0)<1;1,0> RF15(0,0)<1;1,0>\0A(!INTERLEAVE_4) sel (M1_NM,16) RA0(1,0)<1>  RA2(0,14)<1;1,0>  RA0(0,0)<1;1,0>\0A (INTERLEAVE_4) sel (M1_NM,16) RA0(0,0)<1>  RA0(0,2)<1;1,0>   RA2(1,0)<1;1,0>\0A(!INTERLEAVE_4) sel (M1_NM,16) RA4(1,0)<1>  RA6(0,14)<1;1,0>  RA4(0,0)<1;1,0>\0A (INTERLEAVE_4) sel (M1_NM,16) RA4(0,0)<1>  RA4(0,2)<1;1,0>   RA6(1,0)<1;1,0>\0A(!INTERLEAVE_4) sel (M1_NM,16) RA8(1,0)<1>  RA10(0,14)<1;1,0> RA8(0,0)<1;1,0>\0A (INTERLEAVE_4) sel (M1_NM,16) RA8(0,0)<1>  RA8(0,2)<1;1,0>   RA10(1,0)<1;1,0>\0A(!INTERLEAVE_4) sel (M1_NM,16) RA12(1,0)<1> RA14(0,14)<1;1,0> RA12(0,0)<1;1,0>\0A (INTERLEAVE_4) sel (M1_NM,16) RA12(0,0)<1> RA12(0,2)<1;1,0>  RA14(1,0)<1;1,0>\0Amax (M1_NM,16) RF0(0,0)<1>  RF0(0,0)<1;1,0>  RF1(0,0)<1;1,0>\0Amax (M1_NM,16) RF5(0,0)<1>  RF4(0,0)<1;1,0>  RF5(0,0)<1;1,0>\0Amax (M1_NM,16) RF8(0,0)<1>  RF8(0,0)<1;1,0>  RF9(0,0)<1;1,0>\0Amax (M1_NM,16) RF13(0,0)<1> RF12(0,0)<1;1,0> RF13(0,0)<1;1,0>\0A(!INTERLEAVE_8) sel (M1_NM,16) RA0(1,0)<1> RA4(0,12)<1;1,0>  RA0(0,0)<1;1,0>\0A (INTERLEAVE_8) sel (M1_NM,16) RA0(0,0)<1> RA0(0,4)<1;1,0>   RA4(1,0)<1;1,0>\0A(!INTERLEAVE_8) sel (M1_NM,16) RA8(1,0)<1> RA12(0,12)<1;1,0> RA8(0,0)<1;1,0>\0A (INTERLEAVE_8) sel (M1_NM,16) RA8(0,0)<1> RA8(0,4)<1;1,0>   RA12(1,0)<1;1,0>\0Amax (M1_NM,16) RF0(0,0)<1> RF0(0,0)<1;1,0> RF1(0,0)<1;1,0>\0Amax (M1_NM,16) RF8(0,0)<1> RF8(0,0)<1;1,0> RF9(0,0)<1;1,0>\0Amov (M1_NM, 8) RA0(1,0)<1> RA0(0,8)<1;1,0>\0Amov (M1_NM, 8) RA8(1,8)<1> RA8(0,0)<1;1,0>\0Amax (M1_NM,8) $0(0,0)<1> RF0(0,0)<1;1,0> RF1(0,0)<1;1,0>\0Amax (M1_NM,8) $0(0,8)<1> RF8(0,8)<1;1,0> RF9(0,8)<1;1,0>\0A}\0A", "=rw,rw,rw,rw,rw,rw,rw,rw,rw,rw,rw,rw,rw,rw,rw,rw,rw"(float %568, float %572, float %576, float %580, float %584, float %588, float %592, float %596, float %600, float %604, float %608, float %612, float %616, float %620, float %624, float %628) #0		; visa id: 1160
  %630 = fmul reassoc nsz arcp contract float %629, %const_reg_fp32, !spirv.Decorations !1244		; visa id: 1160
  %631 = call float @llvm.maxnum.f32(float %.sroa.0215.1174, float %630)		; visa id: 1161
  %632 = fmul reassoc nsz arcp contract float %565, %const_reg_fp32, !spirv.Decorations !1244
  %simdBroadcast106 = call float @llvm.genx.GenISA.WaveBroadcast.f32(float %631, i32 0, i32 0)
  %633 = fsub reassoc nsz arcp contract float %632, %simdBroadcast106, !spirv.Decorations !1244		; visa id: 1162
  %634 = call float @llvm.exp2.f32(float %633)		; visa id: 1163
  %635 = fmul reassoc nsz arcp contract float %569, %const_reg_fp32, !spirv.Decorations !1244
  %simdBroadcast106.1 = call float @llvm.genx.GenISA.WaveBroadcast.f32(float %631, i32 1, i32 0)
  %636 = fsub reassoc nsz arcp contract float %635, %simdBroadcast106.1, !spirv.Decorations !1244		; visa id: 1164
  %637 = call float @llvm.exp2.f32(float %636)		; visa id: 1165
  %638 = fmul reassoc nsz arcp contract float %573, %const_reg_fp32, !spirv.Decorations !1244
  %simdBroadcast106.2 = call float @llvm.genx.GenISA.WaveBroadcast.f32(float %631, i32 2, i32 0)
  %639 = fsub reassoc nsz arcp contract float %638, %simdBroadcast106.2, !spirv.Decorations !1244		; visa id: 1166
  %640 = call float @llvm.exp2.f32(float %639)		; visa id: 1167
  %641 = fmul reassoc nsz arcp contract float %577, %const_reg_fp32, !spirv.Decorations !1244
  %simdBroadcast106.3 = call float @llvm.genx.GenISA.WaveBroadcast.f32(float %631, i32 3, i32 0)
  %642 = fsub reassoc nsz arcp contract float %641, %simdBroadcast106.3, !spirv.Decorations !1244		; visa id: 1168
  %643 = call float @llvm.exp2.f32(float %642)		; visa id: 1169
  %644 = fmul reassoc nsz arcp contract float %581, %const_reg_fp32, !spirv.Decorations !1244
  %simdBroadcast106.4 = call float @llvm.genx.GenISA.WaveBroadcast.f32(float %631, i32 4, i32 0)
  %645 = fsub reassoc nsz arcp contract float %644, %simdBroadcast106.4, !spirv.Decorations !1244		; visa id: 1170
  %646 = call float @llvm.exp2.f32(float %645)		; visa id: 1171
  %647 = fmul reassoc nsz arcp contract float %585, %const_reg_fp32, !spirv.Decorations !1244
  %simdBroadcast106.5 = call float @llvm.genx.GenISA.WaveBroadcast.f32(float %631, i32 5, i32 0)
  %648 = fsub reassoc nsz arcp contract float %647, %simdBroadcast106.5, !spirv.Decorations !1244		; visa id: 1172
  %649 = call float @llvm.exp2.f32(float %648)		; visa id: 1173
  %650 = fmul reassoc nsz arcp contract float %589, %const_reg_fp32, !spirv.Decorations !1244
  %simdBroadcast106.6 = call float @llvm.genx.GenISA.WaveBroadcast.f32(float %631, i32 6, i32 0)
  %651 = fsub reassoc nsz arcp contract float %650, %simdBroadcast106.6, !spirv.Decorations !1244		; visa id: 1174
  %652 = call float @llvm.exp2.f32(float %651)		; visa id: 1175
  %653 = fmul reassoc nsz arcp contract float %593, %const_reg_fp32, !spirv.Decorations !1244
  %simdBroadcast106.7 = call float @llvm.genx.GenISA.WaveBroadcast.f32(float %631, i32 7, i32 0)
  %654 = fsub reassoc nsz arcp contract float %653, %simdBroadcast106.7, !spirv.Decorations !1244		; visa id: 1176
  %655 = call float @llvm.exp2.f32(float %654)		; visa id: 1177
  %656 = fmul reassoc nsz arcp contract float %597, %const_reg_fp32, !spirv.Decorations !1244
  %simdBroadcast106.8 = call float @llvm.genx.GenISA.WaveBroadcast.f32(float %631, i32 8, i32 0)
  %657 = fsub reassoc nsz arcp contract float %656, %simdBroadcast106.8, !spirv.Decorations !1244		; visa id: 1178
  %658 = call float @llvm.exp2.f32(float %657)		; visa id: 1179
  %659 = fmul reassoc nsz arcp contract float %601, %const_reg_fp32, !spirv.Decorations !1244
  %simdBroadcast106.9 = call float @llvm.genx.GenISA.WaveBroadcast.f32(float %631, i32 9, i32 0)
  %660 = fsub reassoc nsz arcp contract float %659, %simdBroadcast106.9, !spirv.Decorations !1244		; visa id: 1180
  %661 = call float @llvm.exp2.f32(float %660)		; visa id: 1181
  %662 = fmul reassoc nsz arcp contract float %605, %const_reg_fp32, !spirv.Decorations !1244
  %simdBroadcast106.10 = call float @llvm.genx.GenISA.WaveBroadcast.f32(float %631, i32 10, i32 0)
  %663 = fsub reassoc nsz arcp contract float %662, %simdBroadcast106.10, !spirv.Decorations !1244		; visa id: 1182
  %664 = call float @llvm.exp2.f32(float %663)		; visa id: 1183
  %665 = fmul reassoc nsz arcp contract float %609, %const_reg_fp32, !spirv.Decorations !1244
  %simdBroadcast106.11 = call float @llvm.genx.GenISA.WaveBroadcast.f32(float %631, i32 11, i32 0)
  %666 = fsub reassoc nsz arcp contract float %665, %simdBroadcast106.11, !spirv.Decorations !1244		; visa id: 1184
  %667 = call float @llvm.exp2.f32(float %666)		; visa id: 1185
  %668 = fmul reassoc nsz arcp contract float %613, %const_reg_fp32, !spirv.Decorations !1244
  %simdBroadcast106.12 = call float @llvm.genx.GenISA.WaveBroadcast.f32(float %631, i32 12, i32 0)
  %669 = fsub reassoc nsz arcp contract float %668, %simdBroadcast106.12, !spirv.Decorations !1244		; visa id: 1186
  %670 = call float @llvm.exp2.f32(float %669)		; visa id: 1187
  %671 = fmul reassoc nsz arcp contract float %617, %const_reg_fp32, !spirv.Decorations !1244
  %simdBroadcast106.13 = call float @llvm.genx.GenISA.WaveBroadcast.f32(float %631, i32 13, i32 0)
  %672 = fsub reassoc nsz arcp contract float %671, %simdBroadcast106.13, !spirv.Decorations !1244		; visa id: 1188
  %673 = call float @llvm.exp2.f32(float %672)		; visa id: 1189
  %674 = fmul reassoc nsz arcp contract float %621, %const_reg_fp32, !spirv.Decorations !1244
  %simdBroadcast106.14 = call float @llvm.genx.GenISA.WaveBroadcast.f32(float %631, i32 14, i32 0)
  %675 = fsub reassoc nsz arcp contract float %674, %simdBroadcast106.14, !spirv.Decorations !1244		; visa id: 1190
  %676 = call float @llvm.exp2.f32(float %675)		; visa id: 1191
  %677 = fmul reassoc nsz arcp contract float %625, %const_reg_fp32, !spirv.Decorations !1244
  %simdBroadcast106.15 = call float @llvm.genx.GenISA.WaveBroadcast.f32(float %631, i32 15, i32 0)
  %678 = fsub reassoc nsz arcp contract float %677, %simdBroadcast106.15, !spirv.Decorations !1244		; visa id: 1192
  %679 = call float @llvm.exp2.f32(float %678)		; visa id: 1193
  %680 = fmul reassoc nsz arcp contract float %566, %const_reg_fp32, !spirv.Decorations !1244
  %681 = fsub reassoc nsz arcp contract float %680, %simdBroadcast106, !spirv.Decorations !1244		; visa id: 1194
  %682 = call float @llvm.exp2.f32(float %681)		; visa id: 1195
  %683 = fmul reassoc nsz arcp contract float %570, %const_reg_fp32, !spirv.Decorations !1244
  %684 = fsub reassoc nsz arcp contract float %683, %simdBroadcast106.1, !spirv.Decorations !1244		; visa id: 1196
  %685 = call float @llvm.exp2.f32(float %684)		; visa id: 1197
  %686 = fmul reassoc nsz arcp contract float %574, %const_reg_fp32, !spirv.Decorations !1244
  %687 = fsub reassoc nsz arcp contract float %686, %simdBroadcast106.2, !spirv.Decorations !1244		; visa id: 1198
  %688 = call float @llvm.exp2.f32(float %687)		; visa id: 1199
  %689 = fmul reassoc nsz arcp contract float %578, %const_reg_fp32, !spirv.Decorations !1244
  %690 = fsub reassoc nsz arcp contract float %689, %simdBroadcast106.3, !spirv.Decorations !1244		; visa id: 1200
  %691 = call float @llvm.exp2.f32(float %690)		; visa id: 1201
  %692 = fmul reassoc nsz arcp contract float %582, %const_reg_fp32, !spirv.Decorations !1244
  %693 = fsub reassoc nsz arcp contract float %692, %simdBroadcast106.4, !spirv.Decorations !1244		; visa id: 1202
  %694 = call float @llvm.exp2.f32(float %693)		; visa id: 1203
  %695 = fmul reassoc nsz arcp contract float %586, %const_reg_fp32, !spirv.Decorations !1244
  %696 = fsub reassoc nsz arcp contract float %695, %simdBroadcast106.5, !spirv.Decorations !1244		; visa id: 1204
  %697 = call float @llvm.exp2.f32(float %696)		; visa id: 1205
  %698 = fmul reassoc nsz arcp contract float %590, %const_reg_fp32, !spirv.Decorations !1244
  %699 = fsub reassoc nsz arcp contract float %698, %simdBroadcast106.6, !spirv.Decorations !1244		; visa id: 1206
  %700 = call float @llvm.exp2.f32(float %699)		; visa id: 1207
  %701 = fmul reassoc nsz arcp contract float %594, %const_reg_fp32, !spirv.Decorations !1244
  %702 = fsub reassoc nsz arcp contract float %701, %simdBroadcast106.7, !spirv.Decorations !1244		; visa id: 1208
  %703 = call float @llvm.exp2.f32(float %702)		; visa id: 1209
  %704 = fmul reassoc nsz arcp contract float %598, %const_reg_fp32, !spirv.Decorations !1244
  %705 = fsub reassoc nsz arcp contract float %704, %simdBroadcast106.8, !spirv.Decorations !1244		; visa id: 1210
  %706 = call float @llvm.exp2.f32(float %705)		; visa id: 1211
  %707 = fmul reassoc nsz arcp contract float %602, %const_reg_fp32, !spirv.Decorations !1244
  %708 = fsub reassoc nsz arcp contract float %707, %simdBroadcast106.9, !spirv.Decorations !1244		; visa id: 1212
  %709 = call float @llvm.exp2.f32(float %708)		; visa id: 1213
  %710 = fmul reassoc nsz arcp contract float %606, %const_reg_fp32, !spirv.Decorations !1244
  %711 = fsub reassoc nsz arcp contract float %710, %simdBroadcast106.10, !spirv.Decorations !1244		; visa id: 1214
  %712 = call float @llvm.exp2.f32(float %711)		; visa id: 1215
  %713 = fmul reassoc nsz arcp contract float %610, %const_reg_fp32, !spirv.Decorations !1244
  %714 = fsub reassoc nsz arcp contract float %713, %simdBroadcast106.11, !spirv.Decorations !1244		; visa id: 1216
  %715 = call float @llvm.exp2.f32(float %714)		; visa id: 1217
  %716 = fmul reassoc nsz arcp contract float %614, %const_reg_fp32, !spirv.Decorations !1244
  %717 = fsub reassoc nsz arcp contract float %716, %simdBroadcast106.12, !spirv.Decorations !1244		; visa id: 1218
  %718 = call float @llvm.exp2.f32(float %717)		; visa id: 1219
  %719 = fmul reassoc nsz arcp contract float %618, %const_reg_fp32, !spirv.Decorations !1244
  %720 = fsub reassoc nsz arcp contract float %719, %simdBroadcast106.13, !spirv.Decorations !1244		; visa id: 1220
  %721 = call float @llvm.exp2.f32(float %720)		; visa id: 1221
  %722 = fmul reassoc nsz arcp contract float %622, %const_reg_fp32, !spirv.Decorations !1244
  %723 = fsub reassoc nsz arcp contract float %722, %simdBroadcast106.14, !spirv.Decorations !1244		; visa id: 1222
  %724 = call float @llvm.exp2.f32(float %723)		; visa id: 1223
  %725 = fmul reassoc nsz arcp contract float %626, %const_reg_fp32, !spirv.Decorations !1244
  %726 = fsub reassoc nsz arcp contract float %725, %simdBroadcast106.15, !spirv.Decorations !1244		; visa id: 1224
  %727 = call float @llvm.exp2.f32(float %726)		; visa id: 1225
  %728 = icmp eq i32 %259, 0		; visa id: 1226
  br i1 %728, label %._crit_edge170..loopexit.i_crit_edge, label %.loopexit.i.loopexit, !stats.blockFrequency.digits !1219, !stats.blockFrequency.scale !1220		; visa id: 1227

._crit_edge170..loopexit.i_crit_edge:             ; preds = %._crit_edge170
; BB:
  br label %.loopexit.i, !stats.blockFrequency.digits !1237, !stats.blockFrequency.scale !1227

.loopexit.i.loopexit:                             ; preds = %._crit_edge170
; BB88 :
  %729 = fsub reassoc nsz arcp contract float %.sroa.0215.1174, %631, !spirv.Decorations !1244		; visa id: 1229
  %730 = call float @llvm.exp2.f32(float %729)		; visa id: 1230
  %simdBroadcast107 = call float @llvm.genx.GenISA.WaveBroadcast.f32(float %730, i32 0, i32 0)
  %731 = extractelement <8 x float> %.sroa.0.1, i32 0		; visa id: 1231
  %732 = fmul reassoc nsz arcp contract float %731, %simdBroadcast107, !spirv.Decorations !1244		; visa id: 1232
  %.sroa.0.0.vec.insert208 = insertelement <8 x float> poison, float %732, i64 0		; visa id: 1233
  %simdBroadcast107.1 = call float @llvm.genx.GenISA.WaveBroadcast.f32(float %730, i32 1, i32 0)
  %733 = extractelement <8 x float> %.sroa.0.1, i32 1		; visa id: 1234
  %734 = fmul reassoc nsz arcp contract float %733, %simdBroadcast107.1, !spirv.Decorations !1244		; visa id: 1235
  %.sroa.0.4.vec.insert217 = insertelement <8 x float> %.sroa.0.0.vec.insert208, float %734, i64 1		; visa id: 1236
  %simdBroadcast107.2 = call float @llvm.genx.GenISA.WaveBroadcast.f32(float %730, i32 2, i32 0)
  %735 = extractelement <8 x float> %.sroa.0.1, i32 2		; visa id: 1237
  %736 = fmul reassoc nsz arcp contract float %735, %simdBroadcast107.2, !spirv.Decorations !1244		; visa id: 1238
  %.sroa.0.8.vec.insert224 = insertelement <8 x float> %.sroa.0.4.vec.insert217, float %736, i64 2		; visa id: 1239
  %simdBroadcast107.3 = call float @llvm.genx.GenISA.WaveBroadcast.f32(float %730, i32 3, i32 0)
  %737 = extractelement <8 x float> %.sroa.0.1, i32 3		; visa id: 1240
  %738 = fmul reassoc nsz arcp contract float %737, %simdBroadcast107.3, !spirv.Decorations !1244		; visa id: 1241
  %.sroa.0.12.vec.insert231 = insertelement <8 x float> %.sroa.0.8.vec.insert224, float %738, i64 3		; visa id: 1242
  %simdBroadcast107.4 = call float @llvm.genx.GenISA.WaveBroadcast.f32(float %730, i32 4, i32 0)
  %739 = extractelement <8 x float> %.sroa.0.1, i32 4		; visa id: 1243
  %740 = fmul reassoc nsz arcp contract float %739, %simdBroadcast107.4, !spirv.Decorations !1244		; visa id: 1244
  %.sroa.0.16.vec.insert238 = insertelement <8 x float> %.sroa.0.12.vec.insert231, float %740, i64 4		; visa id: 1245
  %simdBroadcast107.5 = call float @llvm.genx.GenISA.WaveBroadcast.f32(float %730, i32 5, i32 0)
  %741 = extractelement <8 x float> %.sroa.0.1, i32 5		; visa id: 1246
  %742 = fmul reassoc nsz arcp contract float %741, %simdBroadcast107.5, !spirv.Decorations !1244		; visa id: 1247
  %.sroa.0.20.vec.insert245 = insertelement <8 x float> %.sroa.0.16.vec.insert238, float %742, i64 5		; visa id: 1248
  %simdBroadcast107.6 = call float @llvm.genx.GenISA.WaveBroadcast.f32(float %730, i32 6, i32 0)
  %743 = extractelement <8 x float> %.sroa.0.1, i32 6		; visa id: 1249
  %744 = fmul reassoc nsz arcp contract float %743, %simdBroadcast107.6, !spirv.Decorations !1244		; visa id: 1250
  %.sroa.0.24.vec.insert252 = insertelement <8 x float> %.sroa.0.20.vec.insert245, float %744, i64 6		; visa id: 1251
  %simdBroadcast107.7 = call float @llvm.genx.GenISA.WaveBroadcast.f32(float %730, i32 7, i32 0)
  %745 = extractelement <8 x float> %.sroa.0.1, i32 7		; visa id: 1252
  %746 = fmul reassoc nsz arcp contract float %745, %simdBroadcast107.7, !spirv.Decorations !1244		; visa id: 1253
  %.sroa.0.28.vec.insert259 = insertelement <8 x float> %.sroa.0.24.vec.insert252, float %746, i64 7		; visa id: 1254
  %simdBroadcast107.8 = call float @llvm.genx.GenISA.WaveBroadcast.f32(float %730, i32 8, i32 0)
  %747 = extractelement <8 x float> %.sroa.52.1, i32 0		; visa id: 1255
  %748 = fmul reassoc nsz arcp contract float %747, %simdBroadcast107.8, !spirv.Decorations !1244		; visa id: 1256
  %.sroa.52.32.vec.insert272 = insertelement <8 x float> poison, float %748, i64 0		; visa id: 1257
  %simdBroadcast107.9 = call float @llvm.genx.GenISA.WaveBroadcast.f32(float %730, i32 9, i32 0)
  %749 = extractelement <8 x float> %.sroa.52.1, i32 1		; visa id: 1258
  %750 = fmul reassoc nsz arcp contract float %749, %simdBroadcast107.9, !spirv.Decorations !1244		; visa id: 1259
  %.sroa.52.36.vec.insert279 = insertelement <8 x float> %.sroa.52.32.vec.insert272, float %750, i64 1		; visa id: 1260
  %simdBroadcast107.10 = call float @llvm.genx.GenISA.WaveBroadcast.f32(float %730, i32 10, i32 0)
  %751 = extractelement <8 x float> %.sroa.52.1, i32 2		; visa id: 1261
  %752 = fmul reassoc nsz arcp contract float %751, %simdBroadcast107.10, !spirv.Decorations !1244		; visa id: 1262
  %.sroa.52.40.vec.insert286 = insertelement <8 x float> %.sroa.52.36.vec.insert279, float %752, i64 2		; visa id: 1263
  %simdBroadcast107.11 = call float @llvm.genx.GenISA.WaveBroadcast.f32(float %730, i32 11, i32 0)
  %753 = extractelement <8 x float> %.sroa.52.1, i32 3		; visa id: 1264
  %754 = fmul reassoc nsz arcp contract float %753, %simdBroadcast107.11, !spirv.Decorations !1244		; visa id: 1265
  %.sroa.52.44.vec.insert293 = insertelement <8 x float> %.sroa.52.40.vec.insert286, float %754, i64 3		; visa id: 1266
  %simdBroadcast107.12 = call float @llvm.genx.GenISA.WaveBroadcast.f32(float %730, i32 12, i32 0)
  %755 = extractelement <8 x float> %.sroa.52.1, i32 4		; visa id: 1267
  %756 = fmul reassoc nsz arcp contract float %755, %simdBroadcast107.12, !spirv.Decorations !1244		; visa id: 1268
  %.sroa.52.48.vec.insert300 = insertelement <8 x float> %.sroa.52.44.vec.insert293, float %756, i64 4		; visa id: 1269
  %simdBroadcast107.13 = call float @llvm.genx.GenISA.WaveBroadcast.f32(float %730, i32 13, i32 0)
  %757 = extractelement <8 x float> %.sroa.52.1, i32 5		; visa id: 1270
  %758 = fmul reassoc nsz arcp contract float %757, %simdBroadcast107.13, !spirv.Decorations !1244		; visa id: 1271
  %.sroa.52.52.vec.insert307 = insertelement <8 x float> %.sroa.52.48.vec.insert300, float %758, i64 5		; visa id: 1272
  %simdBroadcast107.14 = call float @llvm.genx.GenISA.WaveBroadcast.f32(float %730, i32 14, i32 0)
  %759 = extractelement <8 x float> %.sroa.52.1, i32 6		; visa id: 1273
  %760 = fmul reassoc nsz arcp contract float %759, %simdBroadcast107.14, !spirv.Decorations !1244		; visa id: 1274
  %.sroa.52.56.vec.insert314 = insertelement <8 x float> %.sroa.52.52.vec.insert307, float %760, i64 6		; visa id: 1275
  %simdBroadcast107.15 = call float @llvm.genx.GenISA.WaveBroadcast.f32(float %730, i32 15, i32 0)
  %761 = extractelement <8 x float> %.sroa.52.1, i32 7		; visa id: 1276
  %762 = fmul reassoc nsz arcp contract float %761, %simdBroadcast107.15, !spirv.Decorations !1244		; visa id: 1277
  %.sroa.52.60.vec.insert321 = insertelement <8 x float> %.sroa.52.56.vec.insert314, float %762, i64 7		; visa id: 1278
  %763 = extractelement <8 x float> %.sroa.100.1, i32 0		; visa id: 1279
  %764 = fmul reassoc nsz arcp contract float %763, %simdBroadcast107, !spirv.Decorations !1244		; visa id: 1280
  %.sroa.100.64.vec.insert334 = insertelement <8 x float> poison, float %764, i64 0		; visa id: 1281
  %765 = extractelement <8 x float> %.sroa.100.1, i32 1		; visa id: 1282
  %766 = fmul reassoc nsz arcp contract float %765, %simdBroadcast107.1, !spirv.Decorations !1244		; visa id: 1283
  %.sroa.100.68.vec.insert341 = insertelement <8 x float> %.sroa.100.64.vec.insert334, float %766, i64 1		; visa id: 1284
  %767 = extractelement <8 x float> %.sroa.100.1, i32 2		; visa id: 1285
  %768 = fmul reassoc nsz arcp contract float %767, %simdBroadcast107.2, !spirv.Decorations !1244		; visa id: 1286
  %.sroa.100.72.vec.insert348 = insertelement <8 x float> %.sroa.100.68.vec.insert341, float %768, i64 2		; visa id: 1287
  %769 = extractelement <8 x float> %.sroa.100.1, i32 3		; visa id: 1288
  %770 = fmul reassoc nsz arcp contract float %769, %simdBroadcast107.3, !spirv.Decorations !1244		; visa id: 1289
  %.sroa.100.76.vec.insert355 = insertelement <8 x float> %.sroa.100.72.vec.insert348, float %770, i64 3		; visa id: 1290
  %771 = extractelement <8 x float> %.sroa.100.1, i32 4		; visa id: 1291
  %772 = fmul reassoc nsz arcp contract float %771, %simdBroadcast107.4, !spirv.Decorations !1244		; visa id: 1292
  %.sroa.100.80.vec.insert362 = insertelement <8 x float> %.sroa.100.76.vec.insert355, float %772, i64 4		; visa id: 1293
  %773 = extractelement <8 x float> %.sroa.100.1, i32 5		; visa id: 1294
  %774 = fmul reassoc nsz arcp contract float %773, %simdBroadcast107.5, !spirv.Decorations !1244		; visa id: 1295
  %.sroa.100.84.vec.insert369 = insertelement <8 x float> %.sroa.100.80.vec.insert362, float %774, i64 5		; visa id: 1296
  %775 = extractelement <8 x float> %.sroa.100.1, i32 6		; visa id: 1297
  %776 = fmul reassoc nsz arcp contract float %775, %simdBroadcast107.6, !spirv.Decorations !1244		; visa id: 1298
  %.sroa.100.88.vec.insert376 = insertelement <8 x float> %.sroa.100.84.vec.insert369, float %776, i64 6		; visa id: 1299
  %777 = extractelement <8 x float> %.sroa.100.1, i32 7		; visa id: 1300
  %778 = fmul reassoc nsz arcp contract float %777, %simdBroadcast107.7, !spirv.Decorations !1244		; visa id: 1301
  %.sroa.100.92.vec.insert383 = insertelement <8 x float> %.sroa.100.88.vec.insert376, float %778, i64 7		; visa id: 1302
  %779 = extractelement <8 x float> %.sroa.148.1, i32 0		; visa id: 1303
  %780 = fmul reassoc nsz arcp contract float %779, %simdBroadcast107.8, !spirv.Decorations !1244		; visa id: 1304
  %.sroa.148.96.vec.insert396 = insertelement <8 x float> poison, float %780, i64 0		; visa id: 1305
  %781 = extractelement <8 x float> %.sroa.148.1, i32 1		; visa id: 1306
  %782 = fmul reassoc nsz arcp contract float %781, %simdBroadcast107.9, !spirv.Decorations !1244		; visa id: 1307
  %.sroa.148.100.vec.insert403 = insertelement <8 x float> %.sroa.148.96.vec.insert396, float %782, i64 1		; visa id: 1308
  %783 = extractelement <8 x float> %.sroa.148.1, i32 2		; visa id: 1309
  %784 = fmul reassoc nsz arcp contract float %783, %simdBroadcast107.10, !spirv.Decorations !1244		; visa id: 1310
  %.sroa.148.104.vec.insert410 = insertelement <8 x float> %.sroa.148.100.vec.insert403, float %784, i64 2		; visa id: 1311
  %785 = extractelement <8 x float> %.sroa.148.1, i32 3		; visa id: 1312
  %786 = fmul reassoc nsz arcp contract float %785, %simdBroadcast107.11, !spirv.Decorations !1244		; visa id: 1313
  %.sroa.148.108.vec.insert417 = insertelement <8 x float> %.sroa.148.104.vec.insert410, float %786, i64 3		; visa id: 1314
  %787 = extractelement <8 x float> %.sroa.148.1, i32 4		; visa id: 1315
  %788 = fmul reassoc nsz arcp contract float %787, %simdBroadcast107.12, !spirv.Decorations !1244		; visa id: 1316
  %.sroa.148.112.vec.insert424 = insertelement <8 x float> %.sroa.148.108.vec.insert417, float %788, i64 4		; visa id: 1317
  %789 = extractelement <8 x float> %.sroa.148.1, i32 5		; visa id: 1318
  %790 = fmul reassoc nsz arcp contract float %789, %simdBroadcast107.13, !spirv.Decorations !1244		; visa id: 1319
  %.sroa.148.116.vec.insert431 = insertelement <8 x float> %.sroa.148.112.vec.insert424, float %790, i64 5		; visa id: 1320
  %791 = extractelement <8 x float> %.sroa.148.1, i32 6		; visa id: 1321
  %792 = fmul reassoc nsz arcp contract float %791, %simdBroadcast107.14, !spirv.Decorations !1244		; visa id: 1322
  %.sroa.148.120.vec.insert438 = insertelement <8 x float> %.sroa.148.116.vec.insert431, float %792, i64 6		; visa id: 1323
  %793 = extractelement <8 x float> %.sroa.148.1, i32 7		; visa id: 1324
  %794 = fmul reassoc nsz arcp contract float %793, %simdBroadcast107.15, !spirv.Decorations !1244		; visa id: 1325
  %.sroa.148.124.vec.insert445 = insertelement <8 x float> %.sroa.148.120.vec.insert438, float %794, i64 7		; visa id: 1326
  %795 = extractelement <8 x float> %.sroa.196.1, i32 0		; visa id: 1327
  %796 = fmul reassoc nsz arcp contract float %795, %simdBroadcast107, !spirv.Decorations !1244		; visa id: 1328
  %.sroa.196.128.vec.insert458 = insertelement <8 x float> poison, float %796, i64 0		; visa id: 1329
  %797 = extractelement <8 x float> %.sroa.196.1, i32 1		; visa id: 1330
  %798 = fmul reassoc nsz arcp contract float %797, %simdBroadcast107.1, !spirv.Decorations !1244		; visa id: 1331
  %.sroa.196.132.vec.insert465 = insertelement <8 x float> %.sroa.196.128.vec.insert458, float %798, i64 1		; visa id: 1332
  %799 = extractelement <8 x float> %.sroa.196.1, i32 2		; visa id: 1333
  %800 = fmul reassoc nsz arcp contract float %799, %simdBroadcast107.2, !spirv.Decorations !1244		; visa id: 1334
  %.sroa.196.136.vec.insert472 = insertelement <8 x float> %.sroa.196.132.vec.insert465, float %800, i64 2		; visa id: 1335
  %801 = extractelement <8 x float> %.sroa.196.1, i32 3		; visa id: 1336
  %802 = fmul reassoc nsz arcp contract float %801, %simdBroadcast107.3, !spirv.Decorations !1244		; visa id: 1337
  %.sroa.196.140.vec.insert479 = insertelement <8 x float> %.sroa.196.136.vec.insert472, float %802, i64 3		; visa id: 1338
  %803 = extractelement <8 x float> %.sroa.196.1, i32 4		; visa id: 1339
  %804 = fmul reassoc nsz arcp contract float %803, %simdBroadcast107.4, !spirv.Decorations !1244		; visa id: 1340
  %.sroa.196.144.vec.insert486 = insertelement <8 x float> %.sroa.196.140.vec.insert479, float %804, i64 4		; visa id: 1341
  %805 = extractelement <8 x float> %.sroa.196.1, i32 5		; visa id: 1342
  %806 = fmul reassoc nsz arcp contract float %805, %simdBroadcast107.5, !spirv.Decorations !1244		; visa id: 1343
  %.sroa.196.148.vec.insert493 = insertelement <8 x float> %.sroa.196.144.vec.insert486, float %806, i64 5		; visa id: 1344
  %807 = extractelement <8 x float> %.sroa.196.1, i32 6		; visa id: 1345
  %808 = fmul reassoc nsz arcp contract float %807, %simdBroadcast107.6, !spirv.Decorations !1244		; visa id: 1346
  %.sroa.196.152.vec.insert500 = insertelement <8 x float> %.sroa.196.148.vec.insert493, float %808, i64 6		; visa id: 1347
  %809 = extractelement <8 x float> %.sroa.196.1, i32 7		; visa id: 1348
  %810 = fmul reassoc nsz arcp contract float %809, %simdBroadcast107.7, !spirv.Decorations !1244		; visa id: 1349
  %.sroa.196.156.vec.insert507 = insertelement <8 x float> %.sroa.196.152.vec.insert500, float %810, i64 7		; visa id: 1350
  %811 = extractelement <8 x float> %.sroa.244.1, i32 0		; visa id: 1351
  %812 = fmul reassoc nsz arcp contract float %811, %simdBroadcast107.8, !spirv.Decorations !1244		; visa id: 1352
  %.sroa.244.160.vec.insert520 = insertelement <8 x float> poison, float %812, i64 0		; visa id: 1353
  %813 = extractelement <8 x float> %.sroa.244.1, i32 1		; visa id: 1354
  %814 = fmul reassoc nsz arcp contract float %813, %simdBroadcast107.9, !spirv.Decorations !1244		; visa id: 1355
  %.sroa.244.164.vec.insert527 = insertelement <8 x float> %.sroa.244.160.vec.insert520, float %814, i64 1		; visa id: 1356
  %815 = extractelement <8 x float> %.sroa.244.1, i32 2		; visa id: 1357
  %816 = fmul reassoc nsz arcp contract float %815, %simdBroadcast107.10, !spirv.Decorations !1244		; visa id: 1358
  %.sroa.244.168.vec.insert534 = insertelement <8 x float> %.sroa.244.164.vec.insert527, float %816, i64 2		; visa id: 1359
  %817 = extractelement <8 x float> %.sroa.244.1, i32 3		; visa id: 1360
  %818 = fmul reassoc nsz arcp contract float %817, %simdBroadcast107.11, !spirv.Decorations !1244		; visa id: 1361
  %.sroa.244.172.vec.insert541 = insertelement <8 x float> %.sroa.244.168.vec.insert534, float %818, i64 3		; visa id: 1362
  %819 = extractelement <8 x float> %.sroa.244.1, i32 4		; visa id: 1363
  %820 = fmul reassoc nsz arcp contract float %819, %simdBroadcast107.12, !spirv.Decorations !1244		; visa id: 1364
  %.sroa.244.176.vec.insert548 = insertelement <8 x float> %.sroa.244.172.vec.insert541, float %820, i64 4		; visa id: 1365
  %821 = extractelement <8 x float> %.sroa.244.1, i32 5		; visa id: 1366
  %822 = fmul reassoc nsz arcp contract float %821, %simdBroadcast107.13, !spirv.Decorations !1244		; visa id: 1367
  %.sroa.244.180.vec.insert555 = insertelement <8 x float> %.sroa.244.176.vec.insert548, float %822, i64 5		; visa id: 1368
  %823 = extractelement <8 x float> %.sroa.244.1, i32 6		; visa id: 1369
  %824 = fmul reassoc nsz arcp contract float %823, %simdBroadcast107.14, !spirv.Decorations !1244		; visa id: 1370
  %.sroa.244.184.vec.insert562 = insertelement <8 x float> %.sroa.244.180.vec.insert555, float %824, i64 6		; visa id: 1371
  %825 = extractelement <8 x float> %.sroa.244.1, i32 7		; visa id: 1372
  %826 = fmul reassoc nsz arcp contract float %825, %simdBroadcast107.15, !spirv.Decorations !1244		; visa id: 1373
  %.sroa.244.188.vec.insert569 = insertelement <8 x float> %.sroa.244.184.vec.insert562, float %826, i64 7		; visa id: 1374
  %827 = extractelement <8 x float> %.sroa.292.1, i32 0		; visa id: 1375
  %828 = fmul reassoc nsz arcp contract float %827, %simdBroadcast107, !spirv.Decorations !1244		; visa id: 1376
  %.sroa.292.192.vec.insert582 = insertelement <8 x float> poison, float %828, i64 0		; visa id: 1377
  %829 = extractelement <8 x float> %.sroa.292.1, i32 1		; visa id: 1378
  %830 = fmul reassoc nsz arcp contract float %829, %simdBroadcast107.1, !spirv.Decorations !1244		; visa id: 1379
  %.sroa.292.196.vec.insert589 = insertelement <8 x float> %.sroa.292.192.vec.insert582, float %830, i64 1		; visa id: 1380
  %831 = extractelement <8 x float> %.sroa.292.1, i32 2		; visa id: 1381
  %832 = fmul reassoc nsz arcp contract float %831, %simdBroadcast107.2, !spirv.Decorations !1244		; visa id: 1382
  %.sroa.292.200.vec.insert596 = insertelement <8 x float> %.sroa.292.196.vec.insert589, float %832, i64 2		; visa id: 1383
  %833 = extractelement <8 x float> %.sroa.292.1, i32 3		; visa id: 1384
  %834 = fmul reassoc nsz arcp contract float %833, %simdBroadcast107.3, !spirv.Decorations !1244		; visa id: 1385
  %.sroa.292.204.vec.insert603 = insertelement <8 x float> %.sroa.292.200.vec.insert596, float %834, i64 3		; visa id: 1386
  %835 = extractelement <8 x float> %.sroa.292.1, i32 4		; visa id: 1387
  %836 = fmul reassoc nsz arcp contract float %835, %simdBroadcast107.4, !spirv.Decorations !1244		; visa id: 1388
  %.sroa.292.208.vec.insert610 = insertelement <8 x float> %.sroa.292.204.vec.insert603, float %836, i64 4		; visa id: 1389
  %837 = extractelement <8 x float> %.sroa.292.1, i32 5		; visa id: 1390
  %838 = fmul reassoc nsz arcp contract float %837, %simdBroadcast107.5, !spirv.Decorations !1244		; visa id: 1391
  %.sroa.292.212.vec.insert617 = insertelement <8 x float> %.sroa.292.208.vec.insert610, float %838, i64 5		; visa id: 1392
  %839 = extractelement <8 x float> %.sroa.292.1, i32 6		; visa id: 1393
  %840 = fmul reassoc nsz arcp contract float %839, %simdBroadcast107.6, !spirv.Decorations !1244		; visa id: 1394
  %.sroa.292.216.vec.insert624 = insertelement <8 x float> %.sroa.292.212.vec.insert617, float %840, i64 6		; visa id: 1395
  %841 = extractelement <8 x float> %.sroa.292.1, i32 7		; visa id: 1396
  %842 = fmul reassoc nsz arcp contract float %841, %simdBroadcast107.7, !spirv.Decorations !1244		; visa id: 1397
  %.sroa.292.220.vec.insert631 = insertelement <8 x float> %.sroa.292.216.vec.insert624, float %842, i64 7		; visa id: 1398
  %843 = extractelement <8 x float> %.sroa.340.1, i32 0		; visa id: 1399
  %844 = fmul reassoc nsz arcp contract float %843, %simdBroadcast107.8, !spirv.Decorations !1244		; visa id: 1400
  %.sroa.340.224.vec.insert644 = insertelement <8 x float> poison, float %844, i64 0		; visa id: 1401
  %845 = extractelement <8 x float> %.sroa.340.1, i32 1		; visa id: 1402
  %846 = fmul reassoc nsz arcp contract float %845, %simdBroadcast107.9, !spirv.Decorations !1244		; visa id: 1403
  %.sroa.340.228.vec.insert651 = insertelement <8 x float> %.sroa.340.224.vec.insert644, float %846, i64 1		; visa id: 1404
  %847 = extractelement <8 x float> %.sroa.340.1, i32 2		; visa id: 1405
  %848 = fmul reassoc nsz arcp contract float %847, %simdBroadcast107.10, !spirv.Decorations !1244		; visa id: 1406
  %.sroa.340.232.vec.insert658 = insertelement <8 x float> %.sroa.340.228.vec.insert651, float %848, i64 2		; visa id: 1407
  %849 = extractelement <8 x float> %.sroa.340.1, i32 3		; visa id: 1408
  %850 = fmul reassoc nsz arcp contract float %849, %simdBroadcast107.11, !spirv.Decorations !1244		; visa id: 1409
  %.sroa.340.236.vec.insert665 = insertelement <8 x float> %.sroa.340.232.vec.insert658, float %850, i64 3		; visa id: 1410
  %851 = extractelement <8 x float> %.sroa.340.1, i32 4		; visa id: 1411
  %852 = fmul reassoc nsz arcp contract float %851, %simdBroadcast107.12, !spirv.Decorations !1244		; visa id: 1412
  %.sroa.340.240.vec.insert672 = insertelement <8 x float> %.sroa.340.236.vec.insert665, float %852, i64 4		; visa id: 1413
  %853 = extractelement <8 x float> %.sroa.340.1, i32 5		; visa id: 1414
  %854 = fmul reassoc nsz arcp contract float %853, %simdBroadcast107.13, !spirv.Decorations !1244		; visa id: 1415
  %.sroa.340.244.vec.insert679 = insertelement <8 x float> %.sroa.340.240.vec.insert672, float %854, i64 5		; visa id: 1416
  %855 = extractelement <8 x float> %.sroa.340.1, i32 6		; visa id: 1417
  %856 = fmul reassoc nsz arcp contract float %855, %simdBroadcast107.14, !spirv.Decorations !1244		; visa id: 1418
  %.sroa.340.248.vec.insert686 = insertelement <8 x float> %.sroa.340.244.vec.insert679, float %856, i64 6		; visa id: 1419
  %857 = extractelement <8 x float> %.sroa.340.1, i32 7		; visa id: 1420
  %858 = fmul reassoc nsz arcp contract float %857, %simdBroadcast107.15, !spirv.Decorations !1244		; visa id: 1421
  %.sroa.340.252.vec.insert693 = insertelement <8 x float> %.sroa.340.248.vec.insert686, float %858, i64 7		; visa id: 1422
  %859 = extractelement <8 x float> %.sroa.388.1, i32 0		; visa id: 1423
  %860 = fmul reassoc nsz arcp contract float %859, %simdBroadcast107, !spirv.Decorations !1244		; visa id: 1424
  %.sroa.388.256.vec.insert706 = insertelement <8 x float> poison, float %860, i64 0		; visa id: 1425
  %861 = extractelement <8 x float> %.sroa.388.1, i32 1		; visa id: 1426
  %862 = fmul reassoc nsz arcp contract float %861, %simdBroadcast107.1, !spirv.Decorations !1244		; visa id: 1427
  %.sroa.388.260.vec.insert713 = insertelement <8 x float> %.sroa.388.256.vec.insert706, float %862, i64 1		; visa id: 1428
  %863 = extractelement <8 x float> %.sroa.388.1, i32 2		; visa id: 1429
  %864 = fmul reassoc nsz arcp contract float %863, %simdBroadcast107.2, !spirv.Decorations !1244		; visa id: 1430
  %.sroa.388.264.vec.insert720 = insertelement <8 x float> %.sroa.388.260.vec.insert713, float %864, i64 2		; visa id: 1431
  %865 = extractelement <8 x float> %.sroa.388.1, i32 3		; visa id: 1432
  %866 = fmul reassoc nsz arcp contract float %865, %simdBroadcast107.3, !spirv.Decorations !1244		; visa id: 1433
  %.sroa.388.268.vec.insert727 = insertelement <8 x float> %.sroa.388.264.vec.insert720, float %866, i64 3		; visa id: 1434
  %867 = extractelement <8 x float> %.sroa.388.1, i32 4		; visa id: 1435
  %868 = fmul reassoc nsz arcp contract float %867, %simdBroadcast107.4, !spirv.Decorations !1244		; visa id: 1436
  %.sroa.388.272.vec.insert734 = insertelement <8 x float> %.sroa.388.268.vec.insert727, float %868, i64 4		; visa id: 1437
  %869 = extractelement <8 x float> %.sroa.388.1, i32 5		; visa id: 1438
  %870 = fmul reassoc nsz arcp contract float %869, %simdBroadcast107.5, !spirv.Decorations !1244		; visa id: 1439
  %.sroa.388.276.vec.insert741 = insertelement <8 x float> %.sroa.388.272.vec.insert734, float %870, i64 5		; visa id: 1440
  %871 = extractelement <8 x float> %.sroa.388.1, i32 6		; visa id: 1441
  %872 = fmul reassoc nsz arcp contract float %871, %simdBroadcast107.6, !spirv.Decorations !1244		; visa id: 1442
  %.sroa.388.280.vec.insert748 = insertelement <8 x float> %.sroa.388.276.vec.insert741, float %872, i64 6		; visa id: 1443
  %873 = extractelement <8 x float> %.sroa.388.1, i32 7		; visa id: 1444
  %874 = fmul reassoc nsz arcp contract float %873, %simdBroadcast107.7, !spirv.Decorations !1244		; visa id: 1445
  %.sroa.388.284.vec.insert755 = insertelement <8 x float> %.sroa.388.280.vec.insert748, float %874, i64 7		; visa id: 1446
  %875 = extractelement <8 x float> %.sroa.436.1, i32 0		; visa id: 1447
  %876 = fmul reassoc nsz arcp contract float %875, %simdBroadcast107.8, !spirv.Decorations !1244		; visa id: 1448
  %.sroa.436.288.vec.insert768 = insertelement <8 x float> poison, float %876, i64 0		; visa id: 1449
  %877 = extractelement <8 x float> %.sroa.436.1, i32 1		; visa id: 1450
  %878 = fmul reassoc nsz arcp contract float %877, %simdBroadcast107.9, !spirv.Decorations !1244		; visa id: 1451
  %.sroa.436.292.vec.insert775 = insertelement <8 x float> %.sroa.436.288.vec.insert768, float %878, i64 1		; visa id: 1452
  %879 = extractelement <8 x float> %.sroa.436.1, i32 2		; visa id: 1453
  %880 = fmul reassoc nsz arcp contract float %879, %simdBroadcast107.10, !spirv.Decorations !1244		; visa id: 1454
  %.sroa.436.296.vec.insert782 = insertelement <8 x float> %.sroa.436.292.vec.insert775, float %880, i64 2		; visa id: 1455
  %881 = extractelement <8 x float> %.sroa.436.1, i32 3		; visa id: 1456
  %882 = fmul reassoc nsz arcp contract float %881, %simdBroadcast107.11, !spirv.Decorations !1244		; visa id: 1457
  %.sroa.436.300.vec.insert789 = insertelement <8 x float> %.sroa.436.296.vec.insert782, float %882, i64 3		; visa id: 1458
  %883 = extractelement <8 x float> %.sroa.436.1, i32 4		; visa id: 1459
  %884 = fmul reassoc nsz arcp contract float %883, %simdBroadcast107.12, !spirv.Decorations !1244		; visa id: 1460
  %.sroa.436.304.vec.insert796 = insertelement <8 x float> %.sroa.436.300.vec.insert789, float %884, i64 4		; visa id: 1461
  %885 = extractelement <8 x float> %.sroa.436.1, i32 5		; visa id: 1462
  %886 = fmul reassoc nsz arcp contract float %885, %simdBroadcast107.13, !spirv.Decorations !1244		; visa id: 1463
  %.sroa.436.308.vec.insert803 = insertelement <8 x float> %.sroa.436.304.vec.insert796, float %886, i64 5		; visa id: 1464
  %887 = extractelement <8 x float> %.sroa.436.1, i32 6		; visa id: 1465
  %888 = fmul reassoc nsz arcp contract float %887, %simdBroadcast107.14, !spirv.Decorations !1244		; visa id: 1466
  %.sroa.436.312.vec.insert810 = insertelement <8 x float> %.sroa.436.308.vec.insert803, float %888, i64 6		; visa id: 1467
  %889 = extractelement <8 x float> %.sroa.436.1, i32 7		; visa id: 1468
  %890 = fmul reassoc nsz arcp contract float %889, %simdBroadcast107.15, !spirv.Decorations !1244		; visa id: 1469
  %.sroa.436.316.vec.insert817 = insertelement <8 x float> %.sroa.436.312.vec.insert810, float %890, i64 7		; visa id: 1470
  %891 = extractelement <8 x float> %.sroa.484.1, i32 0		; visa id: 1471
  %892 = fmul reassoc nsz arcp contract float %891, %simdBroadcast107, !spirv.Decorations !1244		; visa id: 1472
  %.sroa.484.320.vec.insert830 = insertelement <8 x float> poison, float %892, i64 0		; visa id: 1473
  %893 = extractelement <8 x float> %.sroa.484.1, i32 1		; visa id: 1474
  %894 = fmul reassoc nsz arcp contract float %893, %simdBroadcast107.1, !spirv.Decorations !1244		; visa id: 1475
  %.sroa.484.324.vec.insert837 = insertelement <8 x float> %.sroa.484.320.vec.insert830, float %894, i64 1		; visa id: 1476
  %895 = extractelement <8 x float> %.sroa.484.1, i32 2		; visa id: 1477
  %896 = fmul reassoc nsz arcp contract float %895, %simdBroadcast107.2, !spirv.Decorations !1244		; visa id: 1478
  %.sroa.484.328.vec.insert844 = insertelement <8 x float> %.sroa.484.324.vec.insert837, float %896, i64 2		; visa id: 1479
  %897 = extractelement <8 x float> %.sroa.484.1, i32 3		; visa id: 1480
  %898 = fmul reassoc nsz arcp contract float %897, %simdBroadcast107.3, !spirv.Decorations !1244		; visa id: 1481
  %.sroa.484.332.vec.insert851 = insertelement <8 x float> %.sroa.484.328.vec.insert844, float %898, i64 3		; visa id: 1482
  %899 = extractelement <8 x float> %.sroa.484.1, i32 4		; visa id: 1483
  %900 = fmul reassoc nsz arcp contract float %899, %simdBroadcast107.4, !spirv.Decorations !1244		; visa id: 1484
  %.sroa.484.336.vec.insert858 = insertelement <8 x float> %.sroa.484.332.vec.insert851, float %900, i64 4		; visa id: 1485
  %901 = extractelement <8 x float> %.sroa.484.1, i32 5		; visa id: 1486
  %902 = fmul reassoc nsz arcp contract float %901, %simdBroadcast107.5, !spirv.Decorations !1244		; visa id: 1487
  %.sroa.484.340.vec.insert865 = insertelement <8 x float> %.sroa.484.336.vec.insert858, float %902, i64 5		; visa id: 1488
  %903 = extractelement <8 x float> %.sroa.484.1, i32 6		; visa id: 1489
  %904 = fmul reassoc nsz arcp contract float %903, %simdBroadcast107.6, !spirv.Decorations !1244		; visa id: 1490
  %.sroa.484.344.vec.insert872 = insertelement <8 x float> %.sroa.484.340.vec.insert865, float %904, i64 6		; visa id: 1491
  %905 = extractelement <8 x float> %.sroa.484.1, i32 7		; visa id: 1492
  %906 = fmul reassoc nsz arcp contract float %905, %simdBroadcast107.7, !spirv.Decorations !1244		; visa id: 1493
  %.sroa.484.348.vec.insert879 = insertelement <8 x float> %.sroa.484.344.vec.insert872, float %906, i64 7		; visa id: 1494
  %907 = extractelement <8 x float> %.sroa.532.1, i32 0		; visa id: 1495
  %908 = fmul reassoc nsz arcp contract float %907, %simdBroadcast107.8, !spirv.Decorations !1244		; visa id: 1496
  %.sroa.532.352.vec.insert892 = insertelement <8 x float> poison, float %908, i64 0		; visa id: 1497
  %909 = extractelement <8 x float> %.sroa.532.1, i32 1		; visa id: 1498
  %910 = fmul reassoc nsz arcp contract float %909, %simdBroadcast107.9, !spirv.Decorations !1244		; visa id: 1499
  %.sroa.532.356.vec.insert899 = insertelement <8 x float> %.sroa.532.352.vec.insert892, float %910, i64 1		; visa id: 1500
  %911 = extractelement <8 x float> %.sroa.532.1, i32 2		; visa id: 1501
  %912 = fmul reassoc nsz arcp contract float %911, %simdBroadcast107.10, !spirv.Decorations !1244		; visa id: 1502
  %.sroa.532.360.vec.insert906 = insertelement <8 x float> %.sroa.532.356.vec.insert899, float %912, i64 2		; visa id: 1503
  %913 = extractelement <8 x float> %.sroa.532.1, i32 3		; visa id: 1504
  %914 = fmul reassoc nsz arcp contract float %913, %simdBroadcast107.11, !spirv.Decorations !1244		; visa id: 1505
  %.sroa.532.364.vec.insert913 = insertelement <8 x float> %.sroa.532.360.vec.insert906, float %914, i64 3		; visa id: 1506
  %915 = extractelement <8 x float> %.sroa.532.1, i32 4		; visa id: 1507
  %916 = fmul reassoc nsz arcp contract float %915, %simdBroadcast107.12, !spirv.Decorations !1244		; visa id: 1508
  %.sroa.532.368.vec.insert920 = insertelement <8 x float> %.sroa.532.364.vec.insert913, float %916, i64 4		; visa id: 1509
  %917 = extractelement <8 x float> %.sroa.532.1, i32 5		; visa id: 1510
  %918 = fmul reassoc nsz arcp contract float %917, %simdBroadcast107.13, !spirv.Decorations !1244		; visa id: 1511
  %.sroa.532.372.vec.insert927 = insertelement <8 x float> %.sroa.532.368.vec.insert920, float %918, i64 5		; visa id: 1512
  %919 = extractelement <8 x float> %.sroa.532.1, i32 6		; visa id: 1513
  %920 = fmul reassoc nsz arcp contract float %919, %simdBroadcast107.14, !spirv.Decorations !1244		; visa id: 1514
  %.sroa.532.376.vec.insert934 = insertelement <8 x float> %.sroa.532.372.vec.insert927, float %920, i64 6		; visa id: 1515
  %921 = extractelement <8 x float> %.sroa.532.1, i32 7		; visa id: 1516
  %922 = fmul reassoc nsz arcp contract float %921, %simdBroadcast107.15, !spirv.Decorations !1244		; visa id: 1517
  %.sroa.532.380.vec.insert941 = insertelement <8 x float> %.sroa.532.376.vec.insert934, float %922, i64 7		; visa id: 1518
  %923 = extractelement <8 x float> %.sroa.580.1, i32 0		; visa id: 1519
  %924 = fmul reassoc nsz arcp contract float %923, %simdBroadcast107, !spirv.Decorations !1244		; visa id: 1520
  %.sroa.580.384.vec.insert954 = insertelement <8 x float> poison, float %924, i64 0		; visa id: 1521
  %925 = extractelement <8 x float> %.sroa.580.1, i32 1		; visa id: 1522
  %926 = fmul reassoc nsz arcp contract float %925, %simdBroadcast107.1, !spirv.Decorations !1244		; visa id: 1523
  %.sroa.580.388.vec.insert961 = insertelement <8 x float> %.sroa.580.384.vec.insert954, float %926, i64 1		; visa id: 1524
  %927 = extractelement <8 x float> %.sroa.580.1, i32 2		; visa id: 1525
  %928 = fmul reassoc nsz arcp contract float %927, %simdBroadcast107.2, !spirv.Decorations !1244		; visa id: 1526
  %.sroa.580.392.vec.insert968 = insertelement <8 x float> %.sroa.580.388.vec.insert961, float %928, i64 2		; visa id: 1527
  %929 = extractelement <8 x float> %.sroa.580.1, i32 3		; visa id: 1528
  %930 = fmul reassoc nsz arcp contract float %929, %simdBroadcast107.3, !spirv.Decorations !1244		; visa id: 1529
  %.sroa.580.396.vec.insert975 = insertelement <8 x float> %.sroa.580.392.vec.insert968, float %930, i64 3		; visa id: 1530
  %931 = extractelement <8 x float> %.sroa.580.1, i32 4		; visa id: 1531
  %932 = fmul reassoc nsz arcp contract float %931, %simdBroadcast107.4, !spirv.Decorations !1244		; visa id: 1532
  %.sroa.580.400.vec.insert982 = insertelement <8 x float> %.sroa.580.396.vec.insert975, float %932, i64 4		; visa id: 1533
  %933 = extractelement <8 x float> %.sroa.580.1, i32 5		; visa id: 1534
  %934 = fmul reassoc nsz arcp contract float %933, %simdBroadcast107.5, !spirv.Decorations !1244		; visa id: 1535
  %.sroa.580.404.vec.insert989 = insertelement <8 x float> %.sroa.580.400.vec.insert982, float %934, i64 5		; visa id: 1536
  %935 = extractelement <8 x float> %.sroa.580.1, i32 6		; visa id: 1537
  %936 = fmul reassoc nsz arcp contract float %935, %simdBroadcast107.6, !spirv.Decorations !1244		; visa id: 1538
  %.sroa.580.408.vec.insert996 = insertelement <8 x float> %.sroa.580.404.vec.insert989, float %936, i64 6		; visa id: 1539
  %937 = extractelement <8 x float> %.sroa.580.1, i32 7		; visa id: 1540
  %938 = fmul reassoc nsz arcp contract float %937, %simdBroadcast107.7, !spirv.Decorations !1244		; visa id: 1541
  %.sroa.580.412.vec.insert1003 = insertelement <8 x float> %.sroa.580.408.vec.insert996, float %938, i64 7		; visa id: 1542
  %939 = extractelement <8 x float> %.sroa.628.1, i32 0		; visa id: 1543
  %940 = fmul reassoc nsz arcp contract float %939, %simdBroadcast107.8, !spirv.Decorations !1244		; visa id: 1544
  %.sroa.628.416.vec.insert1016 = insertelement <8 x float> poison, float %940, i64 0		; visa id: 1545
  %941 = extractelement <8 x float> %.sroa.628.1, i32 1		; visa id: 1546
  %942 = fmul reassoc nsz arcp contract float %941, %simdBroadcast107.9, !spirv.Decorations !1244		; visa id: 1547
  %.sroa.628.420.vec.insert1023 = insertelement <8 x float> %.sroa.628.416.vec.insert1016, float %942, i64 1		; visa id: 1548
  %943 = extractelement <8 x float> %.sroa.628.1, i32 2		; visa id: 1549
  %944 = fmul reassoc nsz arcp contract float %943, %simdBroadcast107.10, !spirv.Decorations !1244		; visa id: 1550
  %.sroa.628.424.vec.insert1030 = insertelement <8 x float> %.sroa.628.420.vec.insert1023, float %944, i64 2		; visa id: 1551
  %945 = extractelement <8 x float> %.sroa.628.1, i32 3		; visa id: 1552
  %946 = fmul reassoc nsz arcp contract float %945, %simdBroadcast107.11, !spirv.Decorations !1244		; visa id: 1553
  %.sroa.628.428.vec.insert1037 = insertelement <8 x float> %.sroa.628.424.vec.insert1030, float %946, i64 3		; visa id: 1554
  %947 = extractelement <8 x float> %.sroa.628.1, i32 4		; visa id: 1555
  %948 = fmul reassoc nsz arcp contract float %947, %simdBroadcast107.12, !spirv.Decorations !1244		; visa id: 1556
  %.sroa.628.432.vec.insert1044 = insertelement <8 x float> %.sroa.628.428.vec.insert1037, float %948, i64 4		; visa id: 1557
  %949 = extractelement <8 x float> %.sroa.628.1, i32 5		; visa id: 1558
  %950 = fmul reassoc nsz arcp contract float %949, %simdBroadcast107.13, !spirv.Decorations !1244		; visa id: 1559
  %.sroa.628.436.vec.insert1051 = insertelement <8 x float> %.sroa.628.432.vec.insert1044, float %950, i64 5		; visa id: 1560
  %951 = extractelement <8 x float> %.sroa.628.1, i32 6		; visa id: 1561
  %952 = fmul reassoc nsz arcp contract float %951, %simdBroadcast107.14, !spirv.Decorations !1244		; visa id: 1562
  %.sroa.628.440.vec.insert1058 = insertelement <8 x float> %.sroa.628.436.vec.insert1051, float %952, i64 6		; visa id: 1563
  %953 = extractelement <8 x float> %.sroa.628.1, i32 7		; visa id: 1564
  %954 = fmul reassoc nsz arcp contract float %953, %simdBroadcast107.15, !spirv.Decorations !1244		; visa id: 1565
  %.sroa.628.444.vec.insert1065 = insertelement <8 x float> %.sroa.628.440.vec.insert1058, float %954, i64 7		; visa id: 1566
  %955 = extractelement <8 x float> %.sroa.676.1, i32 0		; visa id: 1567
  %956 = fmul reassoc nsz arcp contract float %955, %simdBroadcast107, !spirv.Decorations !1244		; visa id: 1568
  %.sroa.676.448.vec.insert1078 = insertelement <8 x float> poison, float %956, i64 0		; visa id: 1569
  %957 = extractelement <8 x float> %.sroa.676.1, i32 1		; visa id: 1570
  %958 = fmul reassoc nsz arcp contract float %957, %simdBroadcast107.1, !spirv.Decorations !1244		; visa id: 1571
  %.sroa.676.452.vec.insert1085 = insertelement <8 x float> %.sroa.676.448.vec.insert1078, float %958, i64 1		; visa id: 1572
  %959 = extractelement <8 x float> %.sroa.676.1, i32 2		; visa id: 1573
  %960 = fmul reassoc nsz arcp contract float %959, %simdBroadcast107.2, !spirv.Decorations !1244		; visa id: 1574
  %.sroa.676.456.vec.insert1092 = insertelement <8 x float> %.sroa.676.452.vec.insert1085, float %960, i64 2		; visa id: 1575
  %961 = extractelement <8 x float> %.sroa.676.1, i32 3		; visa id: 1576
  %962 = fmul reassoc nsz arcp contract float %961, %simdBroadcast107.3, !spirv.Decorations !1244		; visa id: 1577
  %.sroa.676.460.vec.insert1099 = insertelement <8 x float> %.sroa.676.456.vec.insert1092, float %962, i64 3		; visa id: 1578
  %963 = extractelement <8 x float> %.sroa.676.1, i32 4		; visa id: 1579
  %964 = fmul reassoc nsz arcp contract float %963, %simdBroadcast107.4, !spirv.Decorations !1244		; visa id: 1580
  %.sroa.676.464.vec.insert1106 = insertelement <8 x float> %.sroa.676.460.vec.insert1099, float %964, i64 4		; visa id: 1581
  %965 = extractelement <8 x float> %.sroa.676.1, i32 5		; visa id: 1582
  %966 = fmul reassoc nsz arcp contract float %965, %simdBroadcast107.5, !spirv.Decorations !1244		; visa id: 1583
  %.sroa.676.468.vec.insert1113 = insertelement <8 x float> %.sroa.676.464.vec.insert1106, float %966, i64 5		; visa id: 1584
  %967 = extractelement <8 x float> %.sroa.676.1, i32 6		; visa id: 1585
  %968 = fmul reassoc nsz arcp contract float %967, %simdBroadcast107.6, !spirv.Decorations !1244		; visa id: 1586
  %.sroa.676.472.vec.insert1120 = insertelement <8 x float> %.sroa.676.468.vec.insert1113, float %968, i64 6		; visa id: 1587
  %969 = extractelement <8 x float> %.sroa.676.1, i32 7		; visa id: 1588
  %970 = fmul reassoc nsz arcp contract float %969, %simdBroadcast107.7, !spirv.Decorations !1244		; visa id: 1589
  %.sroa.676.476.vec.insert1127 = insertelement <8 x float> %.sroa.676.472.vec.insert1120, float %970, i64 7		; visa id: 1590
  %971 = extractelement <8 x float> %.sroa.724.1, i32 0		; visa id: 1591
  %972 = fmul reassoc nsz arcp contract float %971, %simdBroadcast107.8, !spirv.Decorations !1244		; visa id: 1592
  %.sroa.724.480.vec.insert1140 = insertelement <8 x float> poison, float %972, i64 0		; visa id: 1593
  %973 = extractelement <8 x float> %.sroa.724.1, i32 1		; visa id: 1594
  %974 = fmul reassoc nsz arcp contract float %973, %simdBroadcast107.9, !spirv.Decorations !1244		; visa id: 1595
  %.sroa.724.484.vec.insert1147 = insertelement <8 x float> %.sroa.724.480.vec.insert1140, float %974, i64 1		; visa id: 1596
  %975 = extractelement <8 x float> %.sroa.724.1, i32 2		; visa id: 1597
  %976 = fmul reassoc nsz arcp contract float %975, %simdBroadcast107.10, !spirv.Decorations !1244		; visa id: 1598
  %.sroa.724.488.vec.insert1154 = insertelement <8 x float> %.sroa.724.484.vec.insert1147, float %976, i64 2		; visa id: 1599
  %977 = extractelement <8 x float> %.sroa.724.1, i32 3		; visa id: 1600
  %978 = fmul reassoc nsz arcp contract float %977, %simdBroadcast107.11, !spirv.Decorations !1244		; visa id: 1601
  %.sroa.724.492.vec.insert1161 = insertelement <8 x float> %.sroa.724.488.vec.insert1154, float %978, i64 3		; visa id: 1602
  %979 = extractelement <8 x float> %.sroa.724.1, i32 4		; visa id: 1603
  %980 = fmul reassoc nsz arcp contract float %979, %simdBroadcast107.12, !spirv.Decorations !1244		; visa id: 1604
  %.sroa.724.496.vec.insert1168 = insertelement <8 x float> %.sroa.724.492.vec.insert1161, float %980, i64 4		; visa id: 1605
  %981 = extractelement <8 x float> %.sroa.724.1, i32 5		; visa id: 1606
  %982 = fmul reassoc nsz arcp contract float %981, %simdBroadcast107.13, !spirv.Decorations !1244		; visa id: 1607
  %.sroa.724.500.vec.insert1175 = insertelement <8 x float> %.sroa.724.496.vec.insert1168, float %982, i64 5		; visa id: 1608
  %983 = extractelement <8 x float> %.sroa.724.1, i32 6		; visa id: 1609
  %984 = fmul reassoc nsz arcp contract float %983, %simdBroadcast107.14, !spirv.Decorations !1244		; visa id: 1610
  %.sroa.724.504.vec.insert1182 = insertelement <8 x float> %.sroa.724.500.vec.insert1175, float %984, i64 6		; visa id: 1611
  %985 = extractelement <8 x float> %.sroa.724.1, i32 7		; visa id: 1612
  %986 = fmul reassoc nsz arcp contract float %985, %simdBroadcast107.15, !spirv.Decorations !1244		; visa id: 1613
  %.sroa.724.508.vec.insert1189 = insertelement <8 x float> %.sroa.724.504.vec.insert1182, float %986, i64 7		; visa id: 1614
  %987 = fmul reassoc nsz arcp contract float %.sroa.0206.1173, %730, !spirv.Decorations !1244		; visa id: 1615
  br label %.loopexit.i, !stats.blockFrequency.digits !1238, !stats.blockFrequency.scale !1227		; visa id: 1744

.loopexit.i:                                      ; preds = %._crit_edge170..loopexit.i_crit_edge, %.loopexit.i.loopexit
; BB89 :
  %.sroa.724.2 = phi <8 x float> [ %.sroa.724.508.vec.insert1189, %.loopexit.i.loopexit ], [ %.sroa.724.1, %._crit_edge170..loopexit.i_crit_edge ]
  %.sroa.676.2 = phi <8 x float> [ %.sroa.676.476.vec.insert1127, %.loopexit.i.loopexit ], [ %.sroa.676.1, %._crit_edge170..loopexit.i_crit_edge ]
  %.sroa.628.2 = phi <8 x float> [ %.sroa.628.444.vec.insert1065, %.loopexit.i.loopexit ], [ %.sroa.628.1, %._crit_edge170..loopexit.i_crit_edge ]
  %.sroa.580.2 = phi <8 x float> [ %.sroa.580.412.vec.insert1003, %.loopexit.i.loopexit ], [ %.sroa.580.1, %._crit_edge170..loopexit.i_crit_edge ]
  %.sroa.532.2 = phi <8 x float> [ %.sroa.532.380.vec.insert941, %.loopexit.i.loopexit ], [ %.sroa.532.1, %._crit_edge170..loopexit.i_crit_edge ]
  %.sroa.484.2 = phi <8 x float> [ %.sroa.484.348.vec.insert879, %.loopexit.i.loopexit ], [ %.sroa.484.1, %._crit_edge170..loopexit.i_crit_edge ]
  %.sroa.436.2 = phi <8 x float> [ %.sroa.436.316.vec.insert817, %.loopexit.i.loopexit ], [ %.sroa.436.1, %._crit_edge170..loopexit.i_crit_edge ]
  %.sroa.388.2 = phi <8 x float> [ %.sroa.388.284.vec.insert755, %.loopexit.i.loopexit ], [ %.sroa.388.1, %._crit_edge170..loopexit.i_crit_edge ]
  %.sroa.340.2 = phi <8 x float> [ %.sroa.340.252.vec.insert693, %.loopexit.i.loopexit ], [ %.sroa.340.1, %._crit_edge170..loopexit.i_crit_edge ]
  %.sroa.292.2 = phi <8 x float> [ %.sroa.292.220.vec.insert631, %.loopexit.i.loopexit ], [ %.sroa.292.1, %._crit_edge170..loopexit.i_crit_edge ]
  %.sroa.244.2 = phi <8 x float> [ %.sroa.244.188.vec.insert569, %.loopexit.i.loopexit ], [ %.sroa.244.1, %._crit_edge170..loopexit.i_crit_edge ]
  %.sroa.196.2 = phi <8 x float> [ %.sroa.196.156.vec.insert507, %.loopexit.i.loopexit ], [ %.sroa.196.1, %._crit_edge170..loopexit.i_crit_edge ]
  %.sroa.148.2 = phi <8 x float> [ %.sroa.148.124.vec.insert445, %.loopexit.i.loopexit ], [ %.sroa.148.1, %._crit_edge170..loopexit.i_crit_edge ]
  %.sroa.100.2 = phi <8 x float> [ %.sroa.100.92.vec.insert383, %.loopexit.i.loopexit ], [ %.sroa.100.1, %._crit_edge170..loopexit.i_crit_edge ]
  %.sroa.52.2 = phi <8 x float> [ %.sroa.52.60.vec.insert321, %.loopexit.i.loopexit ], [ %.sroa.52.1, %._crit_edge170..loopexit.i_crit_edge ]
  %.sroa.0.2 = phi <8 x float> [ %.sroa.0.28.vec.insert259, %.loopexit.i.loopexit ], [ %.sroa.0.1, %._crit_edge170..loopexit.i_crit_edge ]
  %.sroa.0206.2 = phi float [ %987, %.loopexit.i.loopexit ], [ %.sroa.0206.1173, %._crit_edge170..loopexit.i_crit_edge ]
  %988 = fadd reassoc nsz arcp contract float %634, %682, !spirv.Decorations !1244		; visa id: 1745
  %989 = fadd reassoc nsz arcp contract float %637, %685, !spirv.Decorations !1244		; visa id: 1746
  %990 = fadd reassoc nsz arcp contract float %640, %688, !spirv.Decorations !1244		; visa id: 1747
  %991 = fadd reassoc nsz arcp contract float %643, %691, !spirv.Decorations !1244		; visa id: 1748
  %992 = fadd reassoc nsz arcp contract float %646, %694, !spirv.Decorations !1244		; visa id: 1749
  %993 = fadd reassoc nsz arcp contract float %649, %697, !spirv.Decorations !1244		; visa id: 1750
  %994 = fadd reassoc nsz arcp contract float %652, %700, !spirv.Decorations !1244		; visa id: 1751
  %995 = fadd reassoc nsz arcp contract float %655, %703, !spirv.Decorations !1244		; visa id: 1752
  %996 = fadd reassoc nsz arcp contract float %658, %706, !spirv.Decorations !1244		; visa id: 1753
  %997 = fadd reassoc nsz arcp contract float %661, %709, !spirv.Decorations !1244		; visa id: 1754
  %998 = fadd reassoc nsz arcp contract float %664, %712, !spirv.Decorations !1244		; visa id: 1755
  %999 = fadd reassoc nsz arcp contract float %667, %715, !spirv.Decorations !1244		; visa id: 1756
  %1000 = fadd reassoc nsz arcp contract float %670, %718, !spirv.Decorations !1244		; visa id: 1757
  %1001 = fadd reassoc nsz arcp contract float %673, %721, !spirv.Decorations !1244		; visa id: 1758
  %1002 = fadd reassoc nsz arcp contract float %676, %724, !spirv.Decorations !1244		; visa id: 1759
  %1003 = fadd reassoc nsz arcp contract float %679, %727, !spirv.Decorations !1244		; visa id: 1760
  %1004 = call float asm "{\0A.decl INTERLEAVE_2 v_type=P num_elts=16\0A.decl INTERLEAVE_4 v_type=P num_elts=16\0A.decl INTERLEAVE_8 v_type=P num_elts=16\0A.decl IN0 v_type=G type=UD num_elts=16 alias=<$1,0>\0A.decl IN1 v_type=G type=UD num_elts=16 alias=<$2,0>\0A.decl IN2 v_type=G type=UD num_elts=16 alias=<$3,0>\0A.decl IN3 v_type=G type=UD num_elts=16 alias=<$4,0>\0A.decl IN4 v_type=G type=UD num_elts=16 alias=<$5,0>\0A.decl IN5 v_type=G type=UD num_elts=16 alias=<$6,0>\0A.decl IN6 v_type=G type=UD num_elts=16 alias=<$7,0>\0A.decl IN7 v_type=G type=UD num_elts=16 alias=<$8,0>\0A.decl IN8 v_type=G type=UD num_elts=16 alias=<$9,0>\0A.decl IN9 v_type=G type=UD num_elts=16 alias=<$10,0>\0A.decl IN10 v_type=G type=UD num_elts=16 alias=<$11,0>\0A.decl IN11 v_type=G type=UD num_elts=16 alias=<$12,0>\0A.decl IN12 v_type=G type=UD num_elts=16 alias=<$13,0>\0A.decl IN13 v_type=G type=UD num_elts=16 alias=<$14,0>\0A.decl IN14 v_type=G type=UD num_elts=16 alias=<$15,0>\0A.decl IN15 v_type=G type=UD num_elts=16 alias=<$16,0>\0A.decl RA0 v_type=G type=UD num_elts=32 align=64\0A.decl RA2 v_type=G type=UD num_elts=32 align=64\0A.decl RA4 v_type=G type=UD num_elts=32 align=64\0A.decl RA6 v_type=G type=UD num_elts=32 align=64\0A.decl RA8 v_type=G type=UD num_elts=32 align=64\0A.decl RA10 v_type=G type=UD num_elts=32 align=64\0A.decl RA12 v_type=G type=UD num_elts=32 align=64\0A.decl RA14 v_type=G type=UD num_elts=32 align=64\0A.decl RF0 v_type=G type=F num_elts=16 alias=<RA0,0>\0A.decl RF1 v_type=G type=F num_elts=16 alias=<RA0,64>\0A.decl RF2 v_type=G type=F num_elts=16 alias=<RA2,0>\0A.decl RF3 v_type=G type=F num_elts=16 alias=<RA2,64>\0A.decl RF4 v_type=G type=F num_elts=16 alias=<RA4,0>\0A.decl RF5 v_type=G type=F num_elts=16 alias=<RA4,64>\0A.decl RF6 v_type=G type=F num_elts=16 alias=<RA6,0>\0A.decl RF7 v_type=G type=F num_elts=16 alias=<RA6,64>\0A.decl RF8 v_type=G type=F num_elts=16 alias=<RA8,0>\0A.decl RF9 v_type=G type=F num_elts=16 alias=<RA8,64>\0A.decl RF10 v_type=G type=F num_elts=16 alias=<RA10,0>\0A.decl RF11 v_type=G type=F num_elts=16 alias=<RA10,64>\0A.decl RF12 v_type=G type=F num_elts=16 alias=<RA12,0>\0A.decl RF13 v_type=G type=F num_elts=16 alias=<RA12,64>\0A.decl RF14 v_type=G type=F num_elts=16 alias=<RA14,0>\0A.decl RF15 v_type=G type=F num_elts=16 alias=<RA14,64>\0Asetp (M1_NM,16) INTERLEAVE_2 0x5555:uw\0Asetp (M1_NM,16) INTERLEAVE_4 0x3333:uw\0Asetp (M1_NM,16) INTERLEAVE_8 0x0F0F:uw\0A(!INTERLEAVE_2) sel (M1_NM,16) RA0(0,0)<1>  IN1(0,0)<2;2,0>  IN0(0,0)<1;1,0>\0A (INTERLEAVE_2) sel (M1_NM,16) RA0(1,0)<1>  IN0(0,1)<2;2,0>  IN1(0,0)<1;1,0>\0A(!INTERLEAVE_2) sel (M1_NM,16) RA2(0,0)<1>  IN3(0,0)<2;2,0>  IN2(0,0)<1;1,0>\0A (INTERLEAVE_2) sel (M1_NM,16) RA2(1,0)<1>  IN2(0,1)<2;2,0>  IN3(0,0)<1;1,0>\0A(!INTERLEAVE_2) sel (M1_NM,16) RA4(0,0)<1>  IN5(0,0)<2;2,0>  IN4(0,0)<1;1,0>\0A (INTERLEAVE_2) sel (M1_NM,16) RA4(1,0)<1>  IN4(0,1)<2;2,0>  IN5(0,0)<1;1,0>\0A(!INTERLEAVE_2) sel (M1_NM,16) RA6(0,0)<1>  IN7(0,0)<2;2,0>  IN6(0,0)<1;1,0>\0A (INTERLEAVE_2) sel (M1_NM,16) RA6(1,0)<1>  IN6(0,1)<2;2,0>  IN7(0,0)<1;1,0>\0A(!INTERLEAVE_2) sel (M1_NM,16) RA8(0,0)<1>  IN9(0,0)<2;2,0>  IN8(0,0)<1;1,0>\0A (INTERLEAVE_2) sel (M1_NM,16) RA8(1,0)<1>  IN8(0,1)<2;2,0>  IN9(0,0)<1;1,0>\0A(!INTERLEAVE_2) sel (M1_NM,16) RA10(0,0)<1> IN11(0,0)<2;2,0> IN10(0,0)<1;1,0>\0A (INTERLEAVE_2) sel (M1_NM,16) RA10(1,0)<1> IN10(0,1)<2;2,0> IN11(0,0)<1;1,0>\0A(!INTERLEAVE_2) sel (M1_NM,16) RA12(0,0)<1> IN13(0,0)<2;2,0> IN12(0,0)<1;1,0>\0A (INTERLEAVE_2) sel (M1_NM,16) RA12(1,0)<1> IN12(0,1)<2;2,0> IN13(0,0)<1;1,0>\0A(!INTERLEAVE_2) sel (M1_NM,16) RA14(0,0)<1> IN15(0,0)<2;2,0> IN14(0,0)<1;1,0>\0A (INTERLEAVE_2) sel (M1_NM,16) RA14(1,0)<1> IN14(0,1)<2;2,0> IN15(0,0)<1;1,0>\0Aadd (M1_NM,16) RF0(0,0)<1> RF0(0,0)<1;1,0> RF1(0,0)<1;1,0>\0Aadd (M1_NM,16) RF3(0,0)<1> RF2(0,0)<1;1,0> RF3(0,0)<1;1,0>\0Aadd (M1_NM,16) RF4(0,0)<1> RF4(0,0)<1;1,0> RF5(0,0)<1;1,0>\0Aadd (M1_NM,16) RF7(0,0)<1> RF6(0,0)<1;1,0> RF7(0,0)<1;1,0>\0Aadd (M1_NM,16) RF8(0,0)<1> RF8(0,0)<1;1,0> RF9(0,0)<1;1,0>\0Aadd (M1_NM,16) RF11(0,0)<1> RF10(0,0)<1;1,0> RF11(0,0)<1;1,0>\0Aadd (M1_NM,16) RF12(0,0)<1> RF12(0,0)<1;1,0> RF13(0,0)<1;1,0>\0Aadd (M1_NM,16) RF15(0,0)<1> RF14(0,0)<1;1,0> RF15(0,0)<1;1,0>\0A(!INTERLEAVE_4) sel (M1_NM,16) RA0(1,0)<1>  RA2(0,14)<1;1,0>  RA0(0,0)<1;1,0>\0A (INTERLEAVE_4) sel (M1_NM,16) RA0(0,0)<1>  RA0(0,2)<1;1,0>   RA2(1,0)<1;1,0>\0A(!INTERLEAVE_4) sel (M1_NM,16) RA4(1,0)<1>  RA6(0,14)<1;1,0>  RA4(0,0)<1;1,0>\0A (INTERLEAVE_4) sel (M1_NM,16) RA4(0,0)<1>  RA4(0,2)<1;1,0>   RA6(1,0)<1;1,0>\0A(!INTERLEAVE_4) sel (M1_NM,16) RA8(1,0)<1>  RA10(0,14)<1;1,0> RA8(0,0)<1;1,0>\0A (INTERLEAVE_4) sel (M1_NM,16) RA8(0,0)<1>  RA8(0,2)<1;1,0>   RA10(1,0)<1;1,0>\0A(!INTERLEAVE_4) sel (M1_NM,16) RA12(1,0)<1> RA14(0,14)<1;1,0> RA12(0,0)<1;1,0>\0A (INTERLEAVE_4) sel (M1_NM,16) RA12(0,0)<1> RA12(0,2)<1;1,0>  RA14(1,0)<1;1,0>\0Aadd (M1_NM,16) RF0(0,0)<1>  RF0(0,0)<1;1,0>  RF1(0,0)<1;1,0>\0Aadd (M1_NM,16) RF5(0,0)<1>  RF4(0,0)<1;1,0>  RF5(0,0)<1;1,0>\0Aadd (M1_NM,16) RF8(0,0)<1>  RF8(0,0)<1;1,0>  RF9(0,0)<1;1,0>\0Aadd (M1_NM,16) RF13(0,0)<1> RF12(0,0)<1;1,0> RF13(0,0)<1;1,0>\0A(!INTERLEAVE_8) sel (M1_NM,16) RA0(1,0)<1> RA4(0,12)<1;1,0>  RA0(0,0)<1;1,0>\0A (INTERLEAVE_8) sel (M1_NM,16) RA0(0,0)<1> RA0(0,4)<1;1,0>   RA4(1,0)<1;1,0>\0A(!INTERLEAVE_8) sel (M1_NM,16) RA8(1,0)<1> RA12(0,12)<1;1,0> RA8(0,0)<1;1,0>\0A (INTERLEAVE_8) sel (M1_NM,16) RA8(0,0)<1> RA8(0,4)<1;1,0>   RA12(1,0)<1;1,0>\0Aadd (M1_NM,16) RF0(0,0)<1> RF0(0,0)<1;1,0> RF1(0,0)<1;1,0>\0Aadd (M1_NM,16) RF8(0,0)<1> RF8(0,0)<1;1,0> RF9(0,0)<1;1,0>\0Amov (M1_NM, 8) RA0(1,0)<1> RA0(0,8)<1;1,0>\0Amov (M1_NM, 8) RA8(1,8)<1> RA8(0,0)<1;1,0>\0Aadd (M1_NM,8) $0(0,0)<1> RF0(0,0)<1;1,0> RF1(0,0)<1;1,0>\0Aadd (M1_NM,8) $0(0,8)<1> RF8(0,8)<1;1,0> RF9(0,8)<1;1,0>\0A}\0A", "=rw,rw,rw,rw,rw,rw,rw,rw,rw,rw,rw,rw,rw,rw,rw,rw,rw"(float %988, float %989, float %990, float %991, float %992, float %993, float %994, float %995, float %996, float %997, float %998, float %999, float %1000, float %1001, float %1002, float %1003) #0		; visa id: 1761
  %bf_cvt = call i16 @llvm.genx.GenISA.ftobf.i16.f32(float %634, i32 0)		; visa id: 1761
  %.sroa.03024.0.vec.insert3042 = insertelement <8 x i16> poison, i16 %bf_cvt, i64 0		; visa id: 1762
  %bf_cvt.1 = call i16 @llvm.genx.GenISA.ftobf.i16.f32(float %637, i32 0)		; visa id: 1763
  %.sroa.03024.2.vec.insert3045 = insertelement <8 x i16> %.sroa.03024.0.vec.insert3042, i16 %bf_cvt.1, i64 1		; visa id: 1764
  %bf_cvt.2 = call i16 @llvm.genx.GenISA.ftobf.i16.f32(float %640, i32 0)		; visa id: 1765
  %.sroa.03024.4.vec.insert3047 = insertelement <8 x i16> %.sroa.03024.2.vec.insert3045, i16 %bf_cvt.2, i64 2		; visa id: 1766
  %bf_cvt.3 = call i16 @llvm.genx.GenISA.ftobf.i16.f32(float %643, i32 0)		; visa id: 1767
  %.sroa.03024.6.vec.insert3049 = insertelement <8 x i16> %.sroa.03024.4.vec.insert3047, i16 %bf_cvt.3, i64 3		; visa id: 1768
  %bf_cvt.4 = call i16 @llvm.genx.GenISA.ftobf.i16.f32(float %646, i32 0)		; visa id: 1769
  %.sroa.03024.8.vec.insert3051 = insertelement <8 x i16> %.sroa.03024.6.vec.insert3049, i16 %bf_cvt.4, i64 4		; visa id: 1770
  %bf_cvt.5 = call i16 @llvm.genx.GenISA.ftobf.i16.f32(float %649, i32 0)		; visa id: 1771
  %.sroa.03024.10.vec.insert3053 = insertelement <8 x i16> %.sroa.03024.8.vec.insert3051, i16 %bf_cvt.5, i64 5		; visa id: 1772
  %bf_cvt.6 = call i16 @llvm.genx.GenISA.ftobf.i16.f32(float %652, i32 0)		; visa id: 1773
  %.sroa.03024.12.vec.insert3055 = insertelement <8 x i16> %.sroa.03024.10.vec.insert3053, i16 %bf_cvt.6, i64 6		; visa id: 1774
  %bf_cvt.7 = call i16 @llvm.genx.GenISA.ftobf.i16.f32(float %655, i32 0)		; visa id: 1775
  %.sroa.03024.14.vec.insert3057 = insertelement <8 x i16> %.sroa.03024.12.vec.insert3055, i16 %bf_cvt.7, i64 7		; visa id: 1776
  %bf_cvt.8 = call i16 @llvm.genx.GenISA.ftobf.i16.f32(float %658, i32 0)		; visa id: 1777
  %.sroa.35.16.vec.insert3076 = insertelement <8 x i16> poison, i16 %bf_cvt.8, i64 0		; visa id: 1778
  %bf_cvt.9 = call i16 @llvm.genx.GenISA.ftobf.i16.f32(float %661, i32 0)		; visa id: 1779
  %.sroa.35.18.vec.insert3078 = insertelement <8 x i16> %.sroa.35.16.vec.insert3076, i16 %bf_cvt.9, i64 1		; visa id: 1780
  %bf_cvt.10 = call i16 @llvm.genx.GenISA.ftobf.i16.f32(float %664, i32 0)		; visa id: 1781
  %.sroa.35.20.vec.insert3080 = insertelement <8 x i16> %.sroa.35.18.vec.insert3078, i16 %bf_cvt.10, i64 2		; visa id: 1782
  %bf_cvt.11 = call i16 @llvm.genx.GenISA.ftobf.i16.f32(float %667, i32 0)		; visa id: 1783
  %.sroa.35.22.vec.insert3082 = insertelement <8 x i16> %.sroa.35.20.vec.insert3080, i16 %bf_cvt.11, i64 3		; visa id: 1784
  %bf_cvt.12 = call i16 @llvm.genx.GenISA.ftobf.i16.f32(float %670, i32 0)		; visa id: 1785
  %.sroa.35.24.vec.insert3084 = insertelement <8 x i16> %.sroa.35.22.vec.insert3082, i16 %bf_cvt.12, i64 4		; visa id: 1786
  %bf_cvt.13 = call i16 @llvm.genx.GenISA.ftobf.i16.f32(float %673, i32 0)		; visa id: 1787
  %.sroa.35.26.vec.insert3086 = insertelement <8 x i16> %.sroa.35.24.vec.insert3084, i16 %bf_cvt.13, i64 5		; visa id: 1788
  %bf_cvt.14 = call i16 @llvm.genx.GenISA.ftobf.i16.f32(float %676, i32 0)		; visa id: 1789
  %.sroa.35.28.vec.insert3088 = insertelement <8 x i16> %.sroa.35.26.vec.insert3086, i16 %bf_cvt.14, i64 6		; visa id: 1790
  %bf_cvt.15 = call i16 @llvm.genx.GenISA.ftobf.i16.f32(float %679, i32 0)		; visa id: 1791
  %.sroa.35.30.vec.insert3090 = insertelement <8 x i16> %.sroa.35.28.vec.insert3088, i16 %bf_cvt.15, i64 7		; visa id: 1792
  %bf_cvt.16 = call i16 @llvm.genx.GenISA.ftobf.i16.f32(float %682, i32 0)		; visa id: 1793
  %.sroa.67.32.vec.insert3109 = insertelement <8 x i16> poison, i16 %bf_cvt.16, i64 0		; visa id: 1794
  %bf_cvt.17 = call i16 @llvm.genx.GenISA.ftobf.i16.f32(float %685, i32 0)		; visa id: 1795
  %.sroa.67.34.vec.insert3111 = insertelement <8 x i16> %.sroa.67.32.vec.insert3109, i16 %bf_cvt.17, i64 1		; visa id: 1796
  %bf_cvt.18 = call i16 @llvm.genx.GenISA.ftobf.i16.f32(float %688, i32 0)		; visa id: 1797
  %.sroa.67.36.vec.insert3113 = insertelement <8 x i16> %.sroa.67.34.vec.insert3111, i16 %bf_cvt.18, i64 2		; visa id: 1798
  %bf_cvt.19 = call i16 @llvm.genx.GenISA.ftobf.i16.f32(float %691, i32 0)		; visa id: 1799
  %.sroa.67.38.vec.insert3115 = insertelement <8 x i16> %.sroa.67.36.vec.insert3113, i16 %bf_cvt.19, i64 3		; visa id: 1800
  %bf_cvt.20 = call i16 @llvm.genx.GenISA.ftobf.i16.f32(float %694, i32 0)		; visa id: 1801
  %.sroa.67.40.vec.insert3117 = insertelement <8 x i16> %.sroa.67.38.vec.insert3115, i16 %bf_cvt.20, i64 4		; visa id: 1802
  %bf_cvt.21 = call i16 @llvm.genx.GenISA.ftobf.i16.f32(float %697, i32 0)		; visa id: 1803
  %.sroa.67.42.vec.insert3119 = insertelement <8 x i16> %.sroa.67.40.vec.insert3117, i16 %bf_cvt.21, i64 5		; visa id: 1804
  %bf_cvt.22 = call i16 @llvm.genx.GenISA.ftobf.i16.f32(float %700, i32 0)		; visa id: 1805
  %.sroa.67.44.vec.insert3121 = insertelement <8 x i16> %.sroa.67.42.vec.insert3119, i16 %bf_cvt.22, i64 6		; visa id: 1806
  %bf_cvt.23 = call i16 @llvm.genx.GenISA.ftobf.i16.f32(float %703, i32 0)		; visa id: 1807
  %.sroa.67.46.vec.insert3123 = insertelement <8 x i16> %.sroa.67.44.vec.insert3121, i16 %bf_cvt.23, i64 7		; visa id: 1808
  %bf_cvt.24 = call i16 @llvm.genx.GenISA.ftobf.i16.f32(float %706, i32 0)		; visa id: 1809
  %.sroa.99.48.vec.insert3142 = insertelement <8 x i16> poison, i16 %bf_cvt.24, i64 0		; visa id: 1810
  %bf_cvt.25 = call i16 @llvm.genx.GenISA.ftobf.i16.f32(float %709, i32 0)		; visa id: 1811
  %.sroa.99.50.vec.insert3144 = insertelement <8 x i16> %.sroa.99.48.vec.insert3142, i16 %bf_cvt.25, i64 1		; visa id: 1812
  %bf_cvt.26 = call i16 @llvm.genx.GenISA.ftobf.i16.f32(float %712, i32 0)		; visa id: 1813
  %.sroa.99.52.vec.insert3146 = insertelement <8 x i16> %.sroa.99.50.vec.insert3144, i16 %bf_cvt.26, i64 2		; visa id: 1814
  %bf_cvt.27 = call i16 @llvm.genx.GenISA.ftobf.i16.f32(float %715, i32 0)		; visa id: 1815
  %.sroa.99.54.vec.insert3148 = insertelement <8 x i16> %.sroa.99.52.vec.insert3146, i16 %bf_cvt.27, i64 3		; visa id: 1816
  %bf_cvt.28 = call i16 @llvm.genx.GenISA.ftobf.i16.f32(float %718, i32 0)		; visa id: 1817
  %.sroa.99.56.vec.insert3150 = insertelement <8 x i16> %.sroa.99.54.vec.insert3148, i16 %bf_cvt.28, i64 4		; visa id: 1818
  %bf_cvt.29 = call i16 @llvm.genx.GenISA.ftobf.i16.f32(float %721, i32 0)		; visa id: 1819
  %.sroa.99.58.vec.insert3152 = insertelement <8 x i16> %.sroa.99.56.vec.insert3150, i16 %bf_cvt.29, i64 5		; visa id: 1820
  %bf_cvt.30 = call i16 @llvm.genx.GenISA.ftobf.i16.f32(float %724, i32 0)		; visa id: 1821
  %.sroa.99.60.vec.insert3154 = insertelement <8 x i16> %.sroa.99.58.vec.insert3152, i16 %bf_cvt.30, i64 6		; visa id: 1822
  %bf_cvt.31 = call i16 @llvm.genx.GenISA.ftobf.i16.f32(float %727, i32 0)		; visa id: 1823
  %.sroa.99.62.vec.insert3156 = insertelement <8 x i16> %.sroa.99.60.vec.insert3154, i16 %bf_cvt.31, i64 7		; visa id: 1824
  call void @llvm.genx.GenISA.LSC2DBlockSetAddrPayloadField.p4i8.i32(i8 addrspace(4)* %Block2D_AddrPayload115, i32 5, i32 %254, i1 false)		; visa id: 1825
  call void @llvm.genx.GenISA.LSC2DBlockSetAddrPayloadField.p4i8.i32(i8 addrspace(4)* %Block2D_AddrPayload115, i32 6, i32 %319, i1 false)		; visa id: 1826
  %1005 = call <32 x i16> asm "lsc_load_block2d.ugm (M1, 1)  $0:d$2.$3x$4x$5nt flat[$1+(0,0)]", "=rw,rw.u,P,P,P,P"(i8 addrspace(4)* %Block2D_AddrPayload115, i32 16, i32 2, i32 16, i32 16) #0		; visa id: 1827
  %1006 = add i32 %319, 16		; visa id: 1827
  call void @llvm.genx.GenISA.LSC2DBlockSetAddrPayloadField.p4i8.i32(i8 addrspace(4)* %Block2D_AddrPayload115, i32 5, i32 %254, i1 false)		; visa id: 1828
  call void @llvm.genx.GenISA.LSC2DBlockSetAddrPayloadField.p4i8.i32(i8 addrspace(4)* %Block2D_AddrPayload115, i32 6, i32 %1006, i1 false)		; visa id: 1829
  %1007 = call <32 x i16> asm "lsc_load_block2d.ugm (M1, 1)  $0:d$2.$3x$4x$5nt flat[$1+(0,0)]", "=rw,rw.u,P,P,P,P"(i8 addrspace(4)* %Block2D_AddrPayload115, i32 16, i32 2, i32 16, i32 16) #0		; visa id: 1830
  %1008 = extractelement <32 x i16> %1005, i32 0		; visa id: 1830
  %1009 = insertelement <16 x i16> undef, i16 %1008, i32 0		; visa id: 1830
  %1010 = extractelement <32 x i16> %1005, i32 1		; visa id: 1830
  %1011 = insertelement <16 x i16> %1009, i16 %1010, i32 1		; visa id: 1830
  %1012 = extractelement <32 x i16> %1005, i32 2		; visa id: 1830
  %1013 = insertelement <16 x i16> %1011, i16 %1012, i32 2		; visa id: 1830
  %1014 = extractelement <32 x i16> %1005, i32 3		; visa id: 1830
  %1015 = insertelement <16 x i16> %1013, i16 %1014, i32 3		; visa id: 1830
  %1016 = extractelement <32 x i16> %1005, i32 4		; visa id: 1830
  %1017 = insertelement <16 x i16> %1015, i16 %1016, i32 4		; visa id: 1830
  %1018 = extractelement <32 x i16> %1005, i32 5		; visa id: 1830
  %1019 = insertelement <16 x i16> %1017, i16 %1018, i32 5		; visa id: 1830
  %1020 = extractelement <32 x i16> %1005, i32 6		; visa id: 1830
  %1021 = insertelement <16 x i16> %1019, i16 %1020, i32 6		; visa id: 1830
  %1022 = extractelement <32 x i16> %1005, i32 7		; visa id: 1830
  %1023 = insertelement <16 x i16> %1021, i16 %1022, i32 7		; visa id: 1830
  %1024 = extractelement <32 x i16> %1005, i32 8		; visa id: 1830
  %1025 = insertelement <16 x i16> %1023, i16 %1024, i32 8		; visa id: 1830
  %1026 = extractelement <32 x i16> %1005, i32 9		; visa id: 1830
  %1027 = insertelement <16 x i16> %1025, i16 %1026, i32 9		; visa id: 1830
  %1028 = extractelement <32 x i16> %1005, i32 10		; visa id: 1830
  %1029 = insertelement <16 x i16> %1027, i16 %1028, i32 10		; visa id: 1830
  %1030 = extractelement <32 x i16> %1005, i32 11		; visa id: 1830
  %1031 = insertelement <16 x i16> %1029, i16 %1030, i32 11		; visa id: 1830
  %1032 = extractelement <32 x i16> %1005, i32 12		; visa id: 1830
  %1033 = insertelement <16 x i16> %1031, i16 %1032, i32 12		; visa id: 1830
  %1034 = extractelement <32 x i16> %1005, i32 13		; visa id: 1830
  %1035 = insertelement <16 x i16> %1033, i16 %1034, i32 13		; visa id: 1830
  %1036 = extractelement <32 x i16> %1005, i32 14		; visa id: 1830
  %1037 = insertelement <16 x i16> %1035, i16 %1036, i32 14		; visa id: 1830
  %1038 = extractelement <32 x i16> %1005, i32 15		; visa id: 1830
  %1039 = insertelement <16 x i16> %1037, i16 %1038, i32 15		; visa id: 1830
  %1040 = extractelement <32 x i16> %1005, i32 16		; visa id: 1830
  %1041 = insertelement <16 x i16> undef, i16 %1040, i32 0		; visa id: 1830
  %1042 = extractelement <32 x i16> %1005, i32 17		; visa id: 1830
  %1043 = insertelement <16 x i16> %1041, i16 %1042, i32 1		; visa id: 1830
  %1044 = extractelement <32 x i16> %1005, i32 18		; visa id: 1830
  %1045 = insertelement <16 x i16> %1043, i16 %1044, i32 2		; visa id: 1830
  %1046 = extractelement <32 x i16> %1005, i32 19		; visa id: 1830
  %1047 = insertelement <16 x i16> %1045, i16 %1046, i32 3		; visa id: 1830
  %1048 = extractelement <32 x i16> %1005, i32 20		; visa id: 1830
  %1049 = insertelement <16 x i16> %1047, i16 %1048, i32 4		; visa id: 1830
  %1050 = extractelement <32 x i16> %1005, i32 21		; visa id: 1830
  %1051 = insertelement <16 x i16> %1049, i16 %1050, i32 5		; visa id: 1830
  %1052 = extractelement <32 x i16> %1005, i32 22		; visa id: 1830
  %1053 = insertelement <16 x i16> %1051, i16 %1052, i32 6		; visa id: 1830
  %1054 = extractelement <32 x i16> %1005, i32 23		; visa id: 1830
  %1055 = insertelement <16 x i16> %1053, i16 %1054, i32 7		; visa id: 1830
  %1056 = extractelement <32 x i16> %1005, i32 24		; visa id: 1830
  %1057 = insertelement <16 x i16> %1055, i16 %1056, i32 8		; visa id: 1830
  %1058 = extractelement <32 x i16> %1005, i32 25		; visa id: 1830
  %1059 = insertelement <16 x i16> %1057, i16 %1058, i32 9		; visa id: 1830
  %1060 = extractelement <32 x i16> %1005, i32 26		; visa id: 1830
  %1061 = insertelement <16 x i16> %1059, i16 %1060, i32 10		; visa id: 1830
  %1062 = extractelement <32 x i16> %1005, i32 27		; visa id: 1830
  %1063 = insertelement <16 x i16> %1061, i16 %1062, i32 11		; visa id: 1830
  %1064 = extractelement <32 x i16> %1005, i32 28		; visa id: 1830
  %1065 = insertelement <16 x i16> %1063, i16 %1064, i32 12		; visa id: 1830
  %1066 = extractelement <32 x i16> %1005, i32 29		; visa id: 1830
  %1067 = insertelement <16 x i16> %1065, i16 %1066, i32 13		; visa id: 1830
  %1068 = extractelement <32 x i16> %1005, i32 30		; visa id: 1830
  %1069 = insertelement <16 x i16> %1067, i16 %1068, i32 14		; visa id: 1830
  %1070 = extractelement <32 x i16> %1005, i32 31		; visa id: 1830
  %1071 = insertelement <16 x i16> %1069, i16 %1070, i32 15		; visa id: 1830
  %1072 = extractelement <32 x i16> %1007, i32 0		; visa id: 1830
  %1073 = insertelement <16 x i16> undef, i16 %1072, i32 0		; visa id: 1830
  %1074 = extractelement <32 x i16> %1007, i32 1		; visa id: 1830
  %1075 = insertelement <16 x i16> %1073, i16 %1074, i32 1		; visa id: 1830
  %1076 = extractelement <32 x i16> %1007, i32 2		; visa id: 1830
  %1077 = insertelement <16 x i16> %1075, i16 %1076, i32 2		; visa id: 1830
  %1078 = extractelement <32 x i16> %1007, i32 3		; visa id: 1830
  %1079 = insertelement <16 x i16> %1077, i16 %1078, i32 3		; visa id: 1830
  %1080 = extractelement <32 x i16> %1007, i32 4		; visa id: 1830
  %1081 = insertelement <16 x i16> %1079, i16 %1080, i32 4		; visa id: 1830
  %1082 = extractelement <32 x i16> %1007, i32 5		; visa id: 1830
  %1083 = insertelement <16 x i16> %1081, i16 %1082, i32 5		; visa id: 1830
  %1084 = extractelement <32 x i16> %1007, i32 6		; visa id: 1830
  %1085 = insertelement <16 x i16> %1083, i16 %1084, i32 6		; visa id: 1830
  %1086 = extractelement <32 x i16> %1007, i32 7		; visa id: 1830
  %1087 = insertelement <16 x i16> %1085, i16 %1086, i32 7		; visa id: 1830
  %1088 = extractelement <32 x i16> %1007, i32 8		; visa id: 1830
  %1089 = insertelement <16 x i16> %1087, i16 %1088, i32 8		; visa id: 1830
  %1090 = extractelement <32 x i16> %1007, i32 9		; visa id: 1830
  %1091 = insertelement <16 x i16> %1089, i16 %1090, i32 9		; visa id: 1830
  %1092 = extractelement <32 x i16> %1007, i32 10		; visa id: 1830
  %1093 = insertelement <16 x i16> %1091, i16 %1092, i32 10		; visa id: 1830
  %1094 = extractelement <32 x i16> %1007, i32 11		; visa id: 1830
  %1095 = insertelement <16 x i16> %1093, i16 %1094, i32 11		; visa id: 1830
  %1096 = extractelement <32 x i16> %1007, i32 12		; visa id: 1830
  %1097 = insertelement <16 x i16> %1095, i16 %1096, i32 12		; visa id: 1830
  %1098 = extractelement <32 x i16> %1007, i32 13		; visa id: 1830
  %1099 = insertelement <16 x i16> %1097, i16 %1098, i32 13		; visa id: 1830
  %1100 = extractelement <32 x i16> %1007, i32 14		; visa id: 1830
  %1101 = insertelement <16 x i16> %1099, i16 %1100, i32 14		; visa id: 1830
  %1102 = extractelement <32 x i16> %1007, i32 15		; visa id: 1830
  %1103 = insertelement <16 x i16> %1101, i16 %1102, i32 15		; visa id: 1830
  %1104 = extractelement <32 x i16> %1007, i32 16		; visa id: 1830
  %1105 = insertelement <16 x i16> undef, i16 %1104, i32 0		; visa id: 1830
  %1106 = extractelement <32 x i16> %1007, i32 17		; visa id: 1830
  %1107 = insertelement <16 x i16> %1105, i16 %1106, i32 1		; visa id: 1830
  %1108 = extractelement <32 x i16> %1007, i32 18		; visa id: 1830
  %1109 = insertelement <16 x i16> %1107, i16 %1108, i32 2		; visa id: 1830
  %1110 = extractelement <32 x i16> %1007, i32 19		; visa id: 1830
  %1111 = insertelement <16 x i16> %1109, i16 %1110, i32 3		; visa id: 1830
  %1112 = extractelement <32 x i16> %1007, i32 20		; visa id: 1830
  %1113 = insertelement <16 x i16> %1111, i16 %1112, i32 4		; visa id: 1830
  %1114 = extractelement <32 x i16> %1007, i32 21		; visa id: 1830
  %1115 = insertelement <16 x i16> %1113, i16 %1114, i32 5		; visa id: 1830
  %1116 = extractelement <32 x i16> %1007, i32 22		; visa id: 1830
  %1117 = insertelement <16 x i16> %1115, i16 %1116, i32 6		; visa id: 1830
  %1118 = extractelement <32 x i16> %1007, i32 23		; visa id: 1830
  %1119 = insertelement <16 x i16> %1117, i16 %1118, i32 7		; visa id: 1830
  %1120 = extractelement <32 x i16> %1007, i32 24		; visa id: 1830
  %1121 = insertelement <16 x i16> %1119, i16 %1120, i32 8		; visa id: 1830
  %1122 = extractelement <32 x i16> %1007, i32 25		; visa id: 1830
  %1123 = insertelement <16 x i16> %1121, i16 %1122, i32 9		; visa id: 1830
  %1124 = extractelement <32 x i16> %1007, i32 26		; visa id: 1830
  %1125 = insertelement <16 x i16> %1123, i16 %1124, i32 10		; visa id: 1830
  %1126 = extractelement <32 x i16> %1007, i32 27		; visa id: 1830
  %1127 = insertelement <16 x i16> %1125, i16 %1126, i32 11		; visa id: 1830
  %1128 = extractelement <32 x i16> %1007, i32 28		; visa id: 1830
  %1129 = insertelement <16 x i16> %1127, i16 %1128, i32 12		; visa id: 1830
  %1130 = extractelement <32 x i16> %1007, i32 29		; visa id: 1830
  %1131 = insertelement <16 x i16> %1129, i16 %1130, i32 13		; visa id: 1830
  %1132 = extractelement <32 x i16> %1007, i32 30		; visa id: 1830
  %1133 = insertelement <16 x i16> %1131, i16 %1132, i32 14		; visa id: 1830
  %1134 = extractelement <32 x i16> %1007, i32 31		; visa id: 1830
  %1135 = insertelement <16 x i16> %1133, i16 %1134, i32 15		; visa id: 1830
  %1136 = call <8 x float> asm "{\0A.decl DST     v_type=G type=f num_elts=$5 alias=<$0,0>\0A.decl SRC1_UD v_type=G type=UD num_elts=128 alias=<$2,0>\0A.decl SRC2_UD v_type=G type=UD num_elts=$4 alias=<$1,0>\0Adpas.bf.bf.8.$3 (M1, 16) DST.0 DST.0 SRC1_UD.0 SRC2_UD(0,0)\0A}\0A", "=rw,rw,rw,P,P,P,0"(<8 x i16> %.sroa.03024.14.vec.insert3057, <16 x i16> %1039, i32 8, i32 64, i32 128, <8 x float> %.sroa.0.2) #0		; visa id: 1830
  %1137 = call <8 x float> asm "{\0A.decl DST     v_type=G type=f num_elts=$5 alias=<$0,0>\0A.decl SRC1_UD v_type=G type=UD num_elts=128 alias=<$2,0>\0A.decl SRC2_UD v_type=G type=UD num_elts=$4 alias=<$1,0>\0Adpas.bf.bf.8.$3 (M1, 16) DST.0 DST.0 SRC1_UD.0 SRC2_UD(0,0)\0A}\0A", "=rw,rw,rw,P,P,P,0"(<8 x i16> %.sroa.35.30.vec.insert3090, <16 x i16> %1039, i32 8, i32 64, i32 128, <8 x float> %.sroa.52.2) #0		; visa id: 1830
  %1138 = call <8 x float> asm "{\0A.decl DST     v_type=G type=f num_elts=$5 alias=<$0,0>\0A.decl SRC1_UD v_type=G type=UD num_elts=128 alias=<$2,0>\0A.decl SRC2_UD v_type=G type=UD num_elts=$4 alias=<$1,0>\0Adpas.bf.bf.8.$3 (M1, 16) DST.0 DST.0 SRC1_UD.0 SRC2_UD(0,0)\0A}\0A", "=rw,rw,rw,P,P,P,0"(<8 x i16> %.sroa.35.30.vec.insert3090, <16 x i16> %1071, i32 8, i32 64, i32 128, <8 x float> %.sroa.148.2) #0		; visa id: 1830
  %1139 = call <8 x float> asm "{\0A.decl DST     v_type=G type=f num_elts=$5 alias=<$0,0>\0A.decl SRC1_UD v_type=G type=UD num_elts=128 alias=<$2,0>\0A.decl SRC2_UD v_type=G type=UD num_elts=$4 alias=<$1,0>\0Adpas.bf.bf.8.$3 (M1, 16) DST.0 DST.0 SRC1_UD.0 SRC2_UD(0,0)\0A}\0A", "=rw,rw,rw,P,P,P,0"(<8 x i16> %.sroa.03024.14.vec.insert3057, <16 x i16> %1071, i32 8, i32 64, i32 128, <8 x float> %.sroa.100.2) #0		; visa id: 1830
  %1140 = call <8 x float> asm "{\0A.decl DST     v_type=G type=f num_elts=$5 alias=<$0,0>\0A.decl SRC1_UD v_type=G type=UD num_elts=128 alias=<$2,0>\0A.decl SRC2_UD v_type=G type=UD num_elts=$4 alias=<$1,0>\0Adpas.bf.bf.8.$3 (M1, 16) DST.0 DST.0 SRC1_UD.0 SRC2_UD(0,0)\0A}\0A", "=rw,rw,rw,P,P,P,0"(<8 x i16> %.sroa.67.46.vec.insert3123, <16 x i16> %1103, i32 8, i32 64, i32 128, <8 x float> %1136) #0		; visa id: 1830
  %1141 = call <8 x float> asm "{\0A.decl DST     v_type=G type=f num_elts=$5 alias=<$0,0>\0A.decl SRC1_UD v_type=G type=UD num_elts=128 alias=<$2,0>\0A.decl SRC2_UD v_type=G type=UD num_elts=$4 alias=<$1,0>\0Adpas.bf.bf.8.$3 (M1, 16) DST.0 DST.0 SRC1_UD.0 SRC2_UD(0,0)\0A}\0A", "=rw,rw,rw,P,P,P,0"(<8 x i16> %.sroa.99.62.vec.insert3156, <16 x i16> %1103, i32 8, i32 64, i32 128, <8 x float> %1137) #0		; visa id: 1830
  %1142 = call <8 x float> asm "{\0A.decl DST     v_type=G type=f num_elts=$5 alias=<$0,0>\0A.decl SRC1_UD v_type=G type=UD num_elts=128 alias=<$2,0>\0A.decl SRC2_UD v_type=G type=UD num_elts=$4 alias=<$1,0>\0Adpas.bf.bf.8.$3 (M1, 16) DST.0 DST.0 SRC1_UD.0 SRC2_UD(0,0)\0A}\0A", "=rw,rw,rw,P,P,P,0"(<8 x i16> %.sroa.99.62.vec.insert3156, <16 x i16> %1135, i32 8, i32 64, i32 128, <8 x float> %1138) #0		; visa id: 1830
  %1143 = call <8 x float> asm "{\0A.decl DST     v_type=G type=f num_elts=$5 alias=<$0,0>\0A.decl SRC1_UD v_type=G type=UD num_elts=128 alias=<$2,0>\0A.decl SRC2_UD v_type=G type=UD num_elts=$4 alias=<$1,0>\0Adpas.bf.bf.8.$3 (M1, 16) DST.0 DST.0 SRC1_UD.0 SRC2_UD(0,0)\0A}\0A", "=rw,rw,rw,P,P,P,0"(<8 x i16> %.sroa.67.46.vec.insert3123, <16 x i16> %1135, i32 8, i32 64, i32 128, <8 x float> %1139) #0		; visa id: 1830
  call void @llvm.genx.GenISA.LSC2DBlockSetAddrPayloadField.p4i8.i32(i8 addrspace(4)* %Block2D_AddrPayload115, i32 5, i32 %255, i1 false)		; visa id: 1830
  call void @llvm.genx.GenISA.LSC2DBlockSetAddrPayloadField.p4i8.i32(i8 addrspace(4)* %Block2D_AddrPayload115, i32 6, i32 %319, i1 false)		; visa id: 1831
  %1144 = call <32 x i16> asm "lsc_load_block2d.ugm (M1, 1)  $0:d$2.$3x$4x$5nt flat[$1+(0,0)]", "=rw,rw.u,P,P,P,P"(i8 addrspace(4)* %Block2D_AddrPayload115, i32 16, i32 2, i32 16, i32 16) #0		; visa id: 1832
  call void @llvm.genx.GenISA.LSC2DBlockSetAddrPayloadField.p4i8.i32(i8 addrspace(4)* %Block2D_AddrPayload115, i32 5, i32 %255, i1 false)		; visa id: 1832
  call void @llvm.genx.GenISA.LSC2DBlockSetAddrPayloadField.p4i8.i32(i8 addrspace(4)* %Block2D_AddrPayload115, i32 6, i32 %1006, i1 false)		; visa id: 1833
  %1145 = call <32 x i16> asm "lsc_load_block2d.ugm (M1, 1)  $0:d$2.$3x$4x$5nt flat[$1+(0,0)]", "=rw,rw.u,P,P,P,P"(i8 addrspace(4)* %Block2D_AddrPayload115, i32 16, i32 2, i32 16, i32 16) #0		; visa id: 1834
  %1146 = extractelement <32 x i16> %1144, i32 0		; visa id: 1834
  %1147 = insertelement <16 x i16> undef, i16 %1146, i32 0		; visa id: 1834
  %1148 = extractelement <32 x i16> %1144, i32 1		; visa id: 1834
  %1149 = insertelement <16 x i16> %1147, i16 %1148, i32 1		; visa id: 1834
  %1150 = extractelement <32 x i16> %1144, i32 2		; visa id: 1834
  %1151 = insertelement <16 x i16> %1149, i16 %1150, i32 2		; visa id: 1834
  %1152 = extractelement <32 x i16> %1144, i32 3		; visa id: 1834
  %1153 = insertelement <16 x i16> %1151, i16 %1152, i32 3		; visa id: 1834
  %1154 = extractelement <32 x i16> %1144, i32 4		; visa id: 1834
  %1155 = insertelement <16 x i16> %1153, i16 %1154, i32 4		; visa id: 1834
  %1156 = extractelement <32 x i16> %1144, i32 5		; visa id: 1834
  %1157 = insertelement <16 x i16> %1155, i16 %1156, i32 5		; visa id: 1834
  %1158 = extractelement <32 x i16> %1144, i32 6		; visa id: 1834
  %1159 = insertelement <16 x i16> %1157, i16 %1158, i32 6		; visa id: 1834
  %1160 = extractelement <32 x i16> %1144, i32 7		; visa id: 1834
  %1161 = insertelement <16 x i16> %1159, i16 %1160, i32 7		; visa id: 1834
  %1162 = extractelement <32 x i16> %1144, i32 8		; visa id: 1834
  %1163 = insertelement <16 x i16> %1161, i16 %1162, i32 8		; visa id: 1834
  %1164 = extractelement <32 x i16> %1144, i32 9		; visa id: 1834
  %1165 = insertelement <16 x i16> %1163, i16 %1164, i32 9		; visa id: 1834
  %1166 = extractelement <32 x i16> %1144, i32 10		; visa id: 1834
  %1167 = insertelement <16 x i16> %1165, i16 %1166, i32 10		; visa id: 1834
  %1168 = extractelement <32 x i16> %1144, i32 11		; visa id: 1834
  %1169 = insertelement <16 x i16> %1167, i16 %1168, i32 11		; visa id: 1834
  %1170 = extractelement <32 x i16> %1144, i32 12		; visa id: 1834
  %1171 = insertelement <16 x i16> %1169, i16 %1170, i32 12		; visa id: 1834
  %1172 = extractelement <32 x i16> %1144, i32 13		; visa id: 1834
  %1173 = insertelement <16 x i16> %1171, i16 %1172, i32 13		; visa id: 1834
  %1174 = extractelement <32 x i16> %1144, i32 14		; visa id: 1834
  %1175 = insertelement <16 x i16> %1173, i16 %1174, i32 14		; visa id: 1834
  %1176 = extractelement <32 x i16> %1144, i32 15		; visa id: 1834
  %1177 = insertelement <16 x i16> %1175, i16 %1176, i32 15		; visa id: 1834
  %1178 = extractelement <32 x i16> %1144, i32 16		; visa id: 1834
  %1179 = insertelement <16 x i16> undef, i16 %1178, i32 0		; visa id: 1834
  %1180 = extractelement <32 x i16> %1144, i32 17		; visa id: 1834
  %1181 = insertelement <16 x i16> %1179, i16 %1180, i32 1		; visa id: 1834
  %1182 = extractelement <32 x i16> %1144, i32 18		; visa id: 1834
  %1183 = insertelement <16 x i16> %1181, i16 %1182, i32 2		; visa id: 1834
  %1184 = extractelement <32 x i16> %1144, i32 19		; visa id: 1834
  %1185 = insertelement <16 x i16> %1183, i16 %1184, i32 3		; visa id: 1834
  %1186 = extractelement <32 x i16> %1144, i32 20		; visa id: 1834
  %1187 = insertelement <16 x i16> %1185, i16 %1186, i32 4		; visa id: 1834
  %1188 = extractelement <32 x i16> %1144, i32 21		; visa id: 1834
  %1189 = insertelement <16 x i16> %1187, i16 %1188, i32 5		; visa id: 1834
  %1190 = extractelement <32 x i16> %1144, i32 22		; visa id: 1834
  %1191 = insertelement <16 x i16> %1189, i16 %1190, i32 6		; visa id: 1834
  %1192 = extractelement <32 x i16> %1144, i32 23		; visa id: 1834
  %1193 = insertelement <16 x i16> %1191, i16 %1192, i32 7		; visa id: 1834
  %1194 = extractelement <32 x i16> %1144, i32 24		; visa id: 1834
  %1195 = insertelement <16 x i16> %1193, i16 %1194, i32 8		; visa id: 1834
  %1196 = extractelement <32 x i16> %1144, i32 25		; visa id: 1834
  %1197 = insertelement <16 x i16> %1195, i16 %1196, i32 9		; visa id: 1834
  %1198 = extractelement <32 x i16> %1144, i32 26		; visa id: 1834
  %1199 = insertelement <16 x i16> %1197, i16 %1198, i32 10		; visa id: 1834
  %1200 = extractelement <32 x i16> %1144, i32 27		; visa id: 1834
  %1201 = insertelement <16 x i16> %1199, i16 %1200, i32 11		; visa id: 1834
  %1202 = extractelement <32 x i16> %1144, i32 28		; visa id: 1834
  %1203 = insertelement <16 x i16> %1201, i16 %1202, i32 12		; visa id: 1834
  %1204 = extractelement <32 x i16> %1144, i32 29		; visa id: 1834
  %1205 = insertelement <16 x i16> %1203, i16 %1204, i32 13		; visa id: 1834
  %1206 = extractelement <32 x i16> %1144, i32 30		; visa id: 1834
  %1207 = insertelement <16 x i16> %1205, i16 %1206, i32 14		; visa id: 1834
  %1208 = extractelement <32 x i16> %1144, i32 31		; visa id: 1834
  %1209 = insertelement <16 x i16> %1207, i16 %1208, i32 15		; visa id: 1834
  %1210 = extractelement <32 x i16> %1145, i32 0		; visa id: 1834
  %1211 = insertelement <16 x i16> undef, i16 %1210, i32 0		; visa id: 1834
  %1212 = extractelement <32 x i16> %1145, i32 1		; visa id: 1834
  %1213 = insertelement <16 x i16> %1211, i16 %1212, i32 1		; visa id: 1834
  %1214 = extractelement <32 x i16> %1145, i32 2		; visa id: 1834
  %1215 = insertelement <16 x i16> %1213, i16 %1214, i32 2		; visa id: 1834
  %1216 = extractelement <32 x i16> %1145, i32 3		; visa id: 1834
  %1217 = insertelement <16 x i16> %1215, i16 %1216, i32 3		; visa id: 1834
  %1218 = extractelement <32 x i16> %1145, i32 4		; visa id: 1834
  %1219 = insertelement <16 x i16> %1217, i16 %1218, i32 4		; visa id: 1834
  %1220 = extractelement <32 x i16> %1145, i32 5		; visa id: 1834
  %1221 = insertelement <16 x i16> %1219, i16 %1220, i32 5		; visa id: 1834
  %1222 = extractelement <32 x i16> %1145, i32 6		; visa id: 1834
  %1223 = insertelement <16 x i16> %1221, i16 %1222, i32 6		; visa id: 1834
  %1224 = extractelement <32 x i16> %1145, i32 7		; visa id: 1834
  %1225 = insertelement <16 x i16> %1223, i16 %1224, i32 7		; visa id: 1834
  %1226 = extractelement <32 x i16> %1145, i32 8		; visa id: 1834
  %1227 = insertelement <16 x i16> %1225, i16 %1226, i32 8		; visa id: 1834
  %1228 = extractelement <32 x i16> %1145, i32 9		; visa id: 1834
  %1229 = insertelement <16 x i16> %1227, i16 %1228, i32 9		; visa id: 1834
  %1230 = extractelement <32 x i16> %1145, i32 10		; visa id: 1834
  %1231 = insertelement <16 x i16> %1229, i16 %1230, i32 10		; visa id: 1834
  %1232 = extractelement <32 x i16> %1145, i32 11		; visa id: 1834
  %1233 = insertelement <16 x i16> %1231, i16 %1232, i32 11		; visa id: 1834
  %1234 = extractelement <32 x i16> %1145, i32 12		; visa id: 1834
  %1235 = insertelement <16 x i16> %1233, i16 %1234, i32 12		; visa id: 1834
  %1236 = extractelement <32 x i16> %1145, i32 13		; visa id: 1834
  %1237 = insertelement <16 x i16> %1235, i16 %1236, i32 13		; visa id: 1834
  %1238 = extractelement <32 x i16> %1145, i32 14		; visa id: 1834
  %1239 = insertelement <16 x i16> %1237, i16 %1238, i32 14		; visa id: 1834
  %1240 = extractelement <32 x i16> %1145, i32 15		; visa id: 1834
  %1241 = insertelement <16 x i16> %1239, i16 %1240, i32 15		; visa id: 1834
  %1242 = extractelement <32 x i16> %1145, i32 16		; visa id: 1834
  %1243 = insertelement <16 x i16> undef, i16 %1242, i32 0		; visa id: 1834
  %1244 = extractelement <32 x i16> %1145, i32 17		; visa id: 1834
  %1245 = insertelement <16 x i16> %1243, i16 %1244, i32 1		; visa id: 1834
  %1246 = extractelement <32 x i16> %1145, i32 18		; visa id: 1834
  %1247 = insertelement <16 x i16> %1245, i16 %1246, i32 2		; visa id: 1834
  %1248 = extractelement <32 x i16> %1145, i32 19		; visa id: 1834
  %1249 = insertelement <16 x i16> %1247, i16 %1248, i32 3		; visa id: 1834
  %1250 = extractelement <32 x i16> %1145, i32 20		; visa id: 1834
  %1251 = insertelement <16 x i16> %1249, i16 %1250, i32 4		; visa id: 1834
  %1252 = extractelement <32 x i16> %1145, i32 21		; visa id: 1834
  %1253 = insertelement <16 x i16> %1251, i16 %1252, i32 5		; visa id: 1834
  %1254 = extractelement <32 x i16> %1145, i32 22		; visa id: 1834
  %1255 = insertelement <16 x i16> %1253, i16 %1254, i32 6		; visa id: 1834
  %1256 = extractelement <32 x i16> %1145, i32 23		; visa id: 1834
  %1257 = insertelement <16 x i16> %1255, i16 %1256, i32 7		; visa id: 1834
  %1258 = extractelement <32 x i16> %1145, i32 24		; visa id: 1834
  %1259 = insertelement <16 x i16> %1257, i16 %1258, i32 8		; visa id: 1834
  %1260 = extractelement <32 x i16> %1145, i32 25		; visa id: 1834
  %1261 = insertelement <16 x i16> %1259, i16 %1260, i32 9		; visa id: 1834
  %1262 = extractelement <32 x i16> %1145, i32 26		; visa id: 1834
  %1263 = insertelement <16 x i16> %1261, i16 %1262, i32 10		; visa id: 1834
  %1264 = extractelement <32 x i16> %1145, i32 27		; visa id: 1834
  %1265 = insertelement <16 x i16> %1263, i16 %1264, i32 11		; visa id: 1834
  %1266 = extractelement <32 x i16> %1145, i32 28		; visa id: 1834
  %1267 = insertelement <16 x i16> %1265, i16 %1266, i32 12		; visa id: 1834
  %1268 = extractelement <32 x i16> %1145, i32 29		; visa id: 1834
  %1269 = insertelement <16 x i16> %1267, i16 %1268, i32 13		; visa id: 1834
  %1270 = extractelement <32 x i16> %1145, i32 30		; visa id: 1834
  %1271 = insertelement <16 x i16> %1269, i16 %1270, i32 14		; visa id: 1834
  %1272 = extractelement <32 x i16> %1145, i32 31		; visa id: 1834
  %1273 = insertelement <16 x i16> %1271, i16 %1272, i32 15		; visa id: 1834
  %1274 = call <8 x float> asm "{\0A.decl DST     v_type=G type=f num_elts=$5 alias=<$0,0>\0A.decl SRC1_UD v_type=G type=UD num_elts=128 alias=<$2,0>\0A.decl SRC2_UD v_type=G type=UD num_elts=$4 alias=<$1,0>\0Adpas.bf.bf.8.$3 (M1, 16) DST.0 DST.0 SRC1_UD.0 SRC2_UD(0,0)\0A}\0A", "=rw,rw,rw,P,P,P,0"(<8 x i16> %.sroa.03024.14.vec.insert3057, <16 x i16> %1177, i32 8, i32 64, i32 128, <8 x float> %.sroa.196.2) #0		; visa id: 1834
  %1275 = call <8 x float> asm "{\0A.decl DST     v_type=G type=f num_elts=$5 alias=<$0,0>\0A.decl SRC1_UD v_type=G type=UD num_elts=128 alias=<$2,0>\0A.decl SRC2_UD v_type=G type=UD num_elts=$4 alias=<$1,0>\0Adpas.bf.bf.8.$3 (M1, 16) DST.0 DST.0 SRC1_UD.0 SRC2_UD(0,0)\0A}\0A", "=rw,rw,rw,P,P,P,0"(<8 x i16> %.sroa.35.30.vec.insert3090, <16 x i16> %1177, i32 8, i32 64, i32 128, <8 x float> %.sroa.244.2) #0		; visa id: 1834
  %1276 = call <8 x float> asm "{\0A.decl DST     v_type=G type=f num_elts=$5 alias=<$0,0>\0A.decl SRC1_UD v_type=G type=UD num_elts=128 alias=<$2,0>\0A.decl SRC2_UD v_type=G type=UD num_elts=$4 alias=<$1,0>\0Adpas.bf.bf.8.$3 (M1, 16) DST.0 DST.0 SRC1_UD.0 SRC2_UD(0,0)\0A}\0A", "=rw,rw,rw,P,P,P,0"(<8 x i16> %.sroa.35.30.vec.insert3090, <16 x i16> %1209, i32 8, i32 64, i32 128, <8 x float> %.sroa.340.2) #0		; visa id: 1834
  %1277 = call <8 x float> asm "{\0A.decl DST     v_type=G type=f num_elts=$5 alias=<$0,0>\0A.decl SRC1_UD v_type=G type=UD num_elts=128 alias=<$2,0>\0A.decl SRC2_UD v_type=G type=UD num_elts=$4 alias=<$1,0>\0Adpas.bf.bf.8.$3 (M1, 16) DST.0 DST.0 SRC1_UD.0 SRC2_UD(0,0)\0A}\0A", "=rw,rw,rw,P,P,P,0"(<8 x i16> %.sroa.03024.14.vec.insert3057, <16 x i16> %1209, i32 8, i32 64, i32 128, <8 x float> %.sroa.292.2) #0		; visa id: 1834
  %1278 = call <8 x float> asm "{\0A.decl DST     v_type=G type=f num_elts=$5 alias=<$0,0>\0A.decl SRC1_UD v_type=G type=UD num_elts=128 alias=<$2,0>\0A.decl SRC2_UD v_type=G type=UD num_elts=$4 alias=<$1,0>\0Adpas.bf.bf.8.$3 (M1, 16) DST.0 DST.0 SRC1_UD.0 SRC2_UD(0,0)\0A}\0A", "=rw,rw,rw,P,P,P,0"(<8 x i16> %.sroa.67.46.vec.insert3123, <16 x i16> %1241, i32 8, i32 64, i32 128, <8 x float> %1274) #0		; visa id: 1834
  %1279 = call <8 x float> asm "{\0A.decl DST     v_type=G type=f num_elts=$5 alias=<$0,0>\0A.decl SRC1_UD v_type=G type=UD num_elts=128 alias=<$2,0>\0A.decl SRC2_UD v_type=G type=UD num_elts=$4 alias=<$1,0>\0Adpas.bf.bf.8.$3 (M1, 16) DST.0 DST.0 SRC1_UD.0 SRC2_UD(0,0)\0A}\0A", "=rw,rw,rw,P,P,P,0"(<8 x i16> %.sroa.99.62.vec.insert3156, <16 x i16> %1241, i32 8, i32 64, i32 128, <8 x float> %1275) #0		; visa id: 1834
  %1280 = call <8 x float> asm "{\0A.decl DST     v_type=G type=f num_elts=$5 alias=<$0,0>\0A.decl SRC1_UD v_type=G type=UD num_elts=128 alias=<$2,0>\0A.decl SRC2_UD v_type=G type=UD num_elts=$4 alias=<$1,0>\0Adpas.bf.bf.8.$3 (M1, 16) DST.0 DST.0 SRC1_UD.0 SRC2_UD(0,0)\0A}\0A", "=rw,rw,rw,P,P,P,0"(<8 x i16> %.sroa.99.62.vec.insert3156, <16 x i16> %1273, i32 8, i32 64, i32 128, <8 x float> %1276) #0		; visa id: 1834
  %1281 = call <8 x float> asm "{\0A.decl DST     v_type=G type=f num_elts=$5 alias=<$0,0>\0A.decl SRC1_UD v_type=G type=UD num_elts=128 alias=<$2,0>\0A.decl SRC2_UD v_type=G type=UD num_elts=$4 alias=<$1,0>\0Adpas.bf.bf.8.$3 (M1, 16) DST.0 DST.0 SRC1_UD.0 SRC2_UD(0,0)\0A}\0A", "=rw,rw,rw,P,P,P,0"(<8 x i16> %.sroa.67.46.vec.insert3123, <16 x i16> %1273, i32 8, i32 64, i32 128, <8 x float> %1277) #0		; visa id: 1834
  call void @llvm.genx.GenISA.LSC2DBlockSetAddrPayloadField.p4i8.i32(i8 addrspace(4)* %Block2D_AddrPayload115, i32 5, i32 %256, i1 false)		; visa id: 1834
  call void @llvm.genx.GenISA.LSC2DBlockSetAddrPayloadField.p4i8.i32(i8 addrspace(4)* %Block2D_AddrPayload115, i32 6, i32 %319, i1 false)		; visa id: 1835
  %1282 = call <32 x i16> asm "lsc_load_block2d.ugm (M1, 1)  $0:d$2.$3x$4x$5nt flat[$1+(0,0)]", "=rw,rw.u,P,P,P,P"(i8 addrspace(4)* %Block2D_AddrPayload115, i32 16, i32 2, i32 16, i32 16) #0		; visa id: 1836
  call void @llvm.genx.GenISA.LSC2DBlockSetAddrPayloadField.p4i8.i32(i8 addrspace(4)* %Block2D_AddrPayload115, i32 5, i32 %256, i1 false)		; visa id: 1836
  call void @llvm.genx.GenISA.LSC2DBlockSetAddrPayloadField.p4i8.i32(i8 addrspace(4)* %Block2D_AddrPayload115, i32 6, i32 %1006, i1 false)		; visa id: 1837
  %1283 = call <32 x i16> asm "lsc_load_block2d.ugm (M1, 1)  $0:d$2.$3x$4x$5nt flat[$1+(0,0)]", "=rw,rw.u,P,P,P,P"(i8 addrspace(4)* %Block2D_AddrPayload115, i32 16, i32 2, i32 16, i32 16) #0		; visa id: 1838
  %1284 = extractelement <32 x i16> %1282, i32 0		; visa id: 1838
  %1285 = insertelement <16 x i16> undef, i16 %1284, i32 0		; visa id: 1838
  %1286 = extractelement <32 x i16> %1282, i32 1		; visa id: 1838
  %1287 = insertelement <16 x i16> %1285, i16 %1286, i32 1		; visa id: 1838
  %1288 = extractelement <32 x i16> %1282, i32 2		; visa id: 1838
  %1289 = insertelement <16 x i16> %1287, i16 %1288, i32 2		; visa id: 1838
  %1290 = extractelement <32 x i16> %1282, i32 3		; visa id: 1838
  %1291 = insertelement <16 x i16> %1289, i16 %1290, i32 3		; visa id: 1838
  %1292 = extractelement <32 x i16> %1282, i32 4		; visa id: 1838
  %1293 = insertelement <16 x i16> %1291, i16 %1292, i32 4		; visa id: 1838
  %1294 = extractelement <32 x i16> %1282, i32 5		; visa id: 1838
  %1295 = insertelement <16 x i16> %1293, i16 %1294, i32 5		; visa id: 1838
  %1296 = extractelement <32 x i16> %1282, i32 6		; visa id: 1838
  %1297 = insertelement <16 x i16> %1295, i16 %1296, i32 6		; visa id: 1838
  %1298 = extractelement <32 x i16> %1282, i32 7		; visa id: 1838
  %1299 = insertelement <16 x i16> %1297, i16 %1298, i32 7		; visa id: 1838
  %1300 = extractelement <32 x i16> %1282, i32 8		; visa id: 1838
  %1301 = insertelement <16 x i16> %1299, i16 %1300, i32 8		; visa id: 1838
  %1302 = extractelement <32 x i16> %1282, i32 9		; visa id: 1838
  %1303 = insertelement <16 x i16> %1301, i16 %1302, i32 9		; visa id: 1838
  %1304 = extractelement <32 x i16> %1282, i32 10		; visa id: 1838
  %1305 = insertelement <16 x i16> %1303, i16 %1304, i32 10		; visa id: 1838
  %1306 = extractelement <32 x i16> %1282, i32 11		; visa id: 1838
  %1307 = insertelement <16 x i16> %1305, i16 %1306, i32 11		; visa id: 1838
  %1308 = extractelement <32 x i16> %1282, i32 12		; visa id: 1838
  %1309 = insertelement <16 x i16> %1307, i16 %1308, i32 12		; visa id: 1838
  %1310 = extractelement <32 x i16> %1282, i32 13		; visa id: 1838
  %1311 = insertelement <16 x i16> %1309, i16 %1310, i32 13		; visa id: 1838
  %1312 = extractelement <32 x i16> %1282, i32 14		; visa id: 1838
  %1313 = insertelement <16 x i16> %1311, i16 %1312, i32 14		; visa id: 1838
  %1314 = extractelement <32 x i16> %1282, i32 15		; visa id: 1838
  %1315 = insertelement <16 x i16> %1313, i16 %1314, i32 15		; visa id: 1838
  %1316 = extractelement <32 x i16> %1282, i32 16		; visa id: 1838
  %1317 = insertelement <16 x i16> undef, i16 %1316, i32 0		; visa id: 1838
  %1318 = extractelement <32 x i16> %1282, i32 17		; visa id: 1838
  %1319 = insertelement <16 x i16> %1317, i16 %1318, i32 1		; visa id: 1838
  %1320 = extractelement <32 x i16> %1282, i32 18		; visa id: 1838
  %1321 = insertelement <16 x i16> %1319, i16 %1320, i32 2		; visa id: 1838
  %1322 = extractelement <32 x i16> %1282, i32 19		; visa id: 1838
  %1323 = insertelement <16 x i16> %1321, i16 %1322, i32 3		; visa id: 1838
  %1324 = extractelement <32 x i16> %1282, i32 20		; visa id: 1838
  %1325 = insertelement <16 x i16> %1323, i16 %1324, i32 4		; visa id: 1838
  %1326 = extractelement <32 x i16> %1282, i32 21		; visa id: 1838
  %1327 = insertelement <16 x i16> %1325, i16 %1326, i32 5		; visa id: 1838
  %1328 = extractelement <32 x i16> %1282, i32 22		; visa id: 1838
  %1329 = insertelement <16 x i16> %1327, i16 %1328, i32 6		; visa id: 1838
  %1330 = extractelement <32 x i16> %1282, i32 23		; visa id: 1838
  %1331 = insertelement <16 x i16> %1329, i16 %1330, i32 7		; visa id: 1838
  %1332 = extractelement <32 x i16> %1282, i32 24		; visa id: 1838
  %1333 = insertelement <16 x i16> %1331, i16 %1332, i32 8		; visa id: 1838
  %1334 = extractelement <32 x i16> %1282, i32 25		; visa id: 1838
  %1335 = insertelement <16 x i16> %1333, i16 %1334, i32 9		; visa id: 1838
  %1336 = extractelement <32 x i16> %1282, i32 26		; visa id: 1838
  %1337 = insertelement <16 x i16> %1335, i16 %1336, i32 10		; visa id: 1838
  %1338 = extractelement <32 x i16> %1282, i32 27		; visa id: 1838
  %1339 = insertelement <16 x i16> %1337, i16 %1338, i32 11		; visa id: 1838
  %1340 = extractelement <32 x i16> %1282, i32 28		; visa id: 1838
  %1341 = insertelement <16 x i16> %1339, i16 %1340, i32 12		; visa id: 1838
  %1342 = extractelement <32 x i16> %1282, i32 29		; visa id: 1838
  %1343 = insertelement <16 x i16> %1341, i16 %1342, i32 13		; visa id: 1838
  %1344 = extractelement <32 x i16> %1282, i32 30		; visa id: 1838
  %1345 = insertelement <16 x i16> %1343, i16 %1344, i32 14		; visa id: 1838
  %1346 = extractelement <32 x i16> %1282, i32 31		; visa id: 1838
  %1347 = insertelement <16 x i16> %1345, i16 %1346, i32 15		; visa id: 1838
  %1348 = extractelement <32 x i16> %1283, i32 0		; visa id: 1838
  %1349 = insertelement <16 x i16> undef, i16 %1348, i32 0		; visa id: 1838
  %1350 = extractelement <32 x i16> %1283, i32 1		; visa id: 1838
  %1351 = insertelement <16 x i16> %1349, i16 %1350, i32 1		; visa id: 1838
  %1352 = extractelement <32 x i16> %1283, i32 2		; visa id: 1838
  %1353 = insertelement <16 x i16> %1351, i16 %1352, i32 2		; visa id: 1838
  %1354 = extractelement <32 x i16> %1283, i32 3		; visa id: 1838
  %1355 = insertelement <16 x i16> %1353, i16 %1354, i32 3		; visa id: 1838
  %1356 = extractelement <32 x i16> %1283, i32 4		; visa id: 1838
  %1357 = insertelement <16 x i16> %1355, i16 %1356, i32 4		; visa id: 1838
  %1358 = extractelement <32 x i16> %1283, i32 5		; visa id: 1838
  %1359 = insertelement <16 x i16> %1357, i16 %1358, i32 5		; visa id: 1838
  %1360 = extractelement <32 x i16> %1283, i32 6		; visa id: 1838
  %1361 = insertelement <16 x i16> %1359, i16 %1360, i32 6		; visa id: 1838
  %1362 = extractelement <32 x i16> %1283, i32 7		; visa id: 1838
  %1363 = insertelement <16 x i16> %1361, i16 %1362, i32 7		; visa id: 1838
  %1364 = extractelement <32 x i16> %1283, i32 8		; visa id: 1838
  %1365 = insertelement <16 x i16> %1363, i16 %1364, i32 8		; visa id: 1838
  %1366 = extractelement <32 x i16> %1283, i32 9		; visa id: 1838
  %1367 = insertelement <16 x i16> %1365, i16 %1366, i32 9		; visa id: 1838
  %1368 = extractelement <32 x i16> %1283, i32 10		; visa id: 1838
  %1369 = insertelement <16 x i16> %1367, i16 %1368, i32 10		; visa id: 1838
  %1370 = extractelement <32 x i16> %1283, i32 11		; visa id: 1838
  %1371 = insertelement <16 x i16> %1369, i16 %1370, i32 11		; visa id: 1838
  %1372 = extractelement <32 x i16> %1283, i32 12		; visa id: 1838
  %1373 = insertelement <16 x i16> %1371, i16 %1372, i32 12		; visa id: 1838
  %1374 = extractelement <32 x i16> %1283, i32 13		; visa id: 1838
  %1375 = insertelement <16 x i16> %1373, i16 %1374, i32 13		; visa id: 1838
  %1376 = extractelement <32 x i16> %1283, i32 14		; visa id: 1838
  %1377 = insertelement <16 x i16> %1375, i16 %1376, i32 14		; visa id: 1838
  %1378 = extractelement <32 x i16> %1283, i32 15		; visa id: 1838
  %1379 = insertelement <16 x i16> %1377, i16 %1378, i32 15		; visa id: 1838
  %1380 = extractelement <32 x i16> %1283, i32 16		; visa id: 1838
  %1381 = insertelement <16 x i16> undef, i16 %1380, i32 0		; visa id: 1838
  %1382 = extractelement <32 x i16> %1283, i32 17		; visa id: 1838
  %1383 = insertelement <16 x i16> %1381, i16 %1382, i32 1		; visa id: 1838
  %1384 = extractelement <32 x i16> %1283, i32 18		; visa id: 1838
  %1385 = insertelement <16 x i16> %1383, i16 %1384, i32 2		; visa id: 1838
  %1386 = extractelement <32 x i16> %1283, i32 19		; visa id: 1838
  %1387 = insertelement <16 x i16> %1385, i16 %1386, i32 3		; visa id: 1838
  %1388 = extractelement <32 x i16> %1283, i32 20		; visa id: 1838
  %1389 = insertelement <16 x i16> %1387, i16 %1388, i32 4		; visa id: 1838
  %1390 = extractelement <32 x i16> %1283, i32 21		; visa id: 1838
  %1391 = insertelement <16 x i16> %1389, i16 %1390, i32 5		; visa id: 1838
  %1392 = extractelement <32 x i16> %1283, i32 22		; visa id: 1838
  %1393 = insertelement <16 x i16> %1391, i16 %1392, i32 6		; visa id: 1838
  %1394 = extractelement <32 x i16> %1283, i32 23		; visa id: 1838
  %1395 = insertelement <16 x i16> %1393, i16 %1394, i32 7		; visa id: 1838
  %1396 = extractelement <32 x i16> %1283, i32 24		; visa id: 1838
  %1397 = insertelement <16 x i16> %1395, i16 %1396, i32 8		; visa id: 1838
  %1398 = extractelement <32 x i16> %1283, i32 25		; visa id: 1838
  %1399 = insertelement <16 x i16> %1397, i16 %1398, i32 9		; visa id: 1838
  %1400 = extractelement <32 x i16> %1283, i32 26		; visa id: 1838
  %1401 = insertelement <16 x i16> %1399, i16 %1400, i32 10		; visa id: 1838
  %1402 = extractelement <32 x i16> %1283, i32 27		; visa id: 1838
  %1403 = insertelement <16 x i16> %1401, i16 %1402, i32 11		; visa id: 1838
  %1404 = extractelement <32 x i16> %1283, i32 28		; visa id: 1838
  %1405 = insertelement <16 x i16> %1403, i16 %1404, i32 12		; visa id: 1838
  %1406 = extractelement <32 x i16> %1283, i32 29		; visa id: 1838
  %1407 = insertelement <16 x i16> %1405, i16 %1406, i32 13		; visa id: 1838
  %1408 = extractelement <32 x i16> %1283, i32 30		; visa id: 1838
  %1409 = insertelement <16 x i16> %1407, i16 %1408, i32 14		; visa id: 1838
  %1410 = extractelement <32 x i16> %1283, i32 31		; visa id: 1838
  %1411 = insertelement <16 x i16> %1409, i16 %1410, i32 15		; visa id: 1838
  %1412 = call <8 x float> asm "{\0A.decl DST     v_type=G type=f num_elts=$5 alias=<$0,0>\0A.decl SRC1_UD v_type=G type=UD num_elts=128 alias=<$2,0>\0A.decl SRC2_UD v_type=G type=UD num_elts=$4 alias=<$1,0>\0Adpas.bf.bf.8.$3 (M1, 16) DST.0 DST.0 SRC1_UD.0 SRC2_UD(0,0)\0A}\0A", "=rw,rw,rw,P,P,P,0"(<8 x i16> %.sroa.03024.14.vec.insert3057, <16 x i16> %1315, i32 8, i32 64, i32 128, <8 x float> %.sroa.388.2) #0		; visa id: 1838
  %1413 = call <8 x float> asm "{\0A.decl DST     v_type=G type=f num_elts=$5 alias=<$0,0>\0A.decl SRC1_UD v_type=G type=UD num_elts=128 alias=<$2,0>\0A.decl SRC2_UD v_type=G type=UD num_elts=$4 alias=<$1,0>\0Adpas.bf.bf.8.$3 (M1, 16) DST.0 DST.0 SRC1_UD.0 SRC2_UD(0,0)\0A}\0A", "=rw,rw,rw,P,P,P,0"(<8 x i16> %.sroa.35.30.vec.insert3090, <16 x i16> %1315, i32 8, i32 64, i32 128, <8 x float> %.sroa.436.2) #0		; visa id: 1838
  %1414 = call <8 x float> asm "{\0A.decl DST     v_type=G type=f num_elts=$5 alias=<$0,0>\0A.decl SRC1_UD v_type=G type=UD num_elts=128 alias=<$2,0>\0A.decl SRC2_UD v_type=G type=UD num_elts=$4 alias=<$1,0>\0Adpas.bf.bf.8.$3 (M1, 16) DST.0 DST.0 SRC1_UD.0 SRC2_UD(0,0)\0A}\0A", "=rw,rw,rw,P,P,P,0"(<8 x i16> %.sroa.35.30.vec.insert3090, <16 x i16> %1347, i32 8, i32 64, i32 128, <8 x float> %.sroa.532.2) #0		; visa id: 1838
  %1415 = call <8 x float> asm "{\0A.decl DST     v_type=G type=f num_elts=$5 alias=<$0,0>\0A.decl SRC1_UD v_type=G type=UD num_elts=128 alias=<$2,0>\0A.decl SRC2_UD v_type=G type=UD num_elts=$4 alias=<$1,0>\0Adpas.bf.bf.8.$3 (M1, 16) DST.0 DST.0 SRC1_UD.0 SRC2_UD(0,0)\0A}\0A", "=rw,rw,rw,P,P,P,0"(<8 x i16> %.sroa.03024.14.vec.insert3057, <16 x i16> %1347, i32 8, i32 64, i32 128, <8 x float> %.sroa.484.2) #0		; visa id: 1838
  %1416 = call <8 x float> asm "{\0A.decl DST     v_type=G type=f num_elts=$5 alias=<$0,0>\0A.decl SRC1_UD v_type=G type=UD num_elts=128 alias=<$2,0>\0A.decl SRC2_UD v_type=G type=UD num_elts=$4 alias=<$1,0>\0Adpas.bf.bf.8.$3 (M1, 16) DST.0 DST.0 SRC1_UD.0 SRC2_UD(0,0)\0A}\0A", "=rw,rw,rw,P,P,P,0"(<8 x i16> %.sroa.67.46.vec.insert3123, <16 x i16> %1379, i32 8, i32 64, i32 128, <8 x float> %1412) #0		; visa id: 1838
  %1417 = call <8 x float> asm "{\0A.decl DST     v_type=G type=f num_elts=$5 alias=<$0,0>\0A.decl SRC1_UD v_type=G type=UD num_elts=128 alias=<$2,0>\0A.decl SRC2_UD v_type=G type=UD num_elts=$4 alias=<$1,0>\0Adpas.bf.bf.8.$3 (M1, 16) DST.0 DST.0 SRC1_UD.0 SRC2_UD(0,0)\0A}\0A", "=rw,rw,rw,P,P,P,0"(<8 x i16> %.sroa.99.62.vec.insert3156, <16 x i16> %1379, i32 8, i32 64, i32 128, <8 x float> %1413) #0		; visa id: 1838
  %1418 = call <8 x float> asm "{\0A.decl DST     v_type=G type=f num_elts=$5 alias=<$0,0>\0A.decl SRC1_UD v_type=G type=UD num_elts=128 alias=<$2,0>\0A.decl SRC2_UD v_type=G type=UD num_elts=$4 alias=<$1,0>\0Adpas.bf.bf.8.$3 (M1, 16) DST.0 DST.0 SRC1_UD.0 SRC2_UD(0,0)\0A}\0A", "=rw,rw,rw,P,P,P,0"(<8 x i16> %.sroa.99.62.vec.insert3156, <16 x i16> %1411, i32 8, i32 64, i32 128, <8 x float> %1414) #0		; visa id: 1838
  %1419 = call <8 x float> asm "{\0A.decl DST     v_type=G type=f num_elts=$5 alias=<$0,0>\0A.decl SRC1_UD v_type=G type=UD num_elts=128 alias=<$2,0>\0A.decl SRC2_UD v_type=G type=UD num_elts=$4 alias=<$1,0>\0Adpas.bf.bf.8.$3 (M1, 16) DST.0 DST.0 SRC1_UD.0 SRC2_UD(0,0)\0A}\0A", "=rw,rw,rw,P,P,P,0"(<8 x i16> %.sroa.67.46.vec.insert3123, <16 x i16> %1411, i32 8, i32 64, i32 128, <8 x float> %1415) #0		; visa id: 1838
  call void @llvm.genx.GenISA.LSC2DBlockSetAddrPayloadField.p4i8.i32(i8 addrspace(4)* %Block2D_AddrPayload115, i32 5, i32 %257, i1 false)		; visa id: 1838
  call void @llvm.genx.GenISA.LSC2DBlockSetAddrPayloadField.p4i8.i32(i8 addrspace(4)* %Block2D_AddrPayload115, i32 6, i32 %319, i1 false)		; visa id: 1839
  %1420 = call <32 x i16> asm "lsc_load_block2d.ugm (M1, 1)  $0:d$2.$3x$4x$5nt flat[$1+(0,0)]", "=rw,rw.u,P,P,P,P"(i8 addrspace(4)* %Block2D_AddrPayload115, i32 16, i32 2, i32 16, i32 16) #0		; visa id: 1840
  call void @llvm.genx.GenISA.LSC2DBlockSetAddrPayloadField.p4i8.i32(i8 addrspace(4)* %Block2D_AddrPayload115, i32 5, i32 %257, i1 false)		; visa id: 1840
  call void @llvm.genx.GenISA.LSC2DBlockSetAddrPayloadField.p4i8.i32(i8 addrspace(4)* %Block2D_AddrPayload115, i32 6, i32 %1006, i1 false)		; visa id: 1841
  %1421 = call <32 x i16> asm "lsc_load_block2d.ugm (M1, 1)  $0:d$2.$3x$4x$5nt flat[$1+(0,0)]", "=rw,rw.u,P,P,P,P"(i8 addrspace(4)* %Block2D_AddrPayload115, i32 16, i32 2, i32 16, i32 16) #0		; visa id: 1842
  %1422 = extractelement <32 x i16> %1420, i32 0		; visa id: 1842
  %1423 = insertelement <16 x i16> undef, i16 %1422, i32 0		; visa id: 1842
  %1424 = extractelement <32 x i16> %1420, i32 1		; visa id: 1842
  %1425 = insertelement <16 x i16> %1423, i16 %1424, i32 1		; visa id: 1842
  %1426 = extractelement <32 x i16> %1420, i32 2		; visa id: 1842
  %1427 = insertelement <16 x i16> %1425, i16 %1426, i32 2		; visa id: 1842
  %1428 = extractelement <32 x i16> %1420, i32 3		; visa id: 1842
  %1429 = insertelement <16 x i16> %1427, i16 %1428, i32 3		; visa id: 1842
  %1430 = extractelement <32 x i16> %1420, i32 4		; visa id: 1842
  %1431 = insertelement <16 x i16> %1429, i16 %1430, i32 4		; visa id: 1842
  %1432 = extractelement <32 x i16> %1420, i32 5		; visa id: 1842
  %1433 = insertelement <16 x i16> %1431, i16 %1432, i32 5		; visa id: 1842
  %1434 = extractelement <32 x i16> %1420, i32 6		; visa id: 1842
  %1435 = insertelement <16 x i16> %1433, i16 %1434, i32 6		; visa id: 1842
  %1436 = extractelement <32 x i16> %1420, i32 7		; visa id: 1842
  %1437 = insertelement <16 x i16> %1435, i16 %1436, i32 7		; visa id: 1842
  %1438 = extractelement <32 x i16> %1420, i32 8		; visa id: 1842
  %1439 = insertelement <16 x i16> %1437, i16 %1438, i32 8		; visa id: 1842
  %1440 = extractelement <32 x i16> %1420, i32 9		; visa id: 1842
  %1441 = insertelement <16 x i16> %1439, i16 %1440, i32 9		; visa id: 1842
  %1442 = extractelement <32 x i16> %1420, i32 10		; visa id: 1842
  %1443 = insertelement <16 x i16> %1441, i16 %1442, i32 10		; visa id: 1842
  %1444 = extractelement <32 x i16> %1420, i32 11		; visa id: 1842
  %1445 = insertelement <16 x i16> %1443, i16 %1444, i32 11		; visa id: 1842
  %1446 = extractelement <32 x i16> %1420, i32 12		; visa id: 1842
  %1447 = insertelement <16 x i16> %1445, i16 %1446, i32 12		; visa id: 1842
  %1448 = extractelement <32 x i16> %1420, i32 13		; visa id: 1842
  %1449 = insertelement <16 x i16> %1447, i16 %1448, i32 13		; visa id: 1842
  %1450 = extractelement <32 x i16> %1420, i32 14		; visa id: 1842
  %1451 = insertelement <16 x i16> %1449, i16 %1450, i32 14		; visa id: 1842
  %1452 = extractelement <32 x i16> %1420, i32 15		; visa id: 1842
  %1453 = insertelement <16 x i16> %1451, i16 %1452, i32 15		; visa id: 1842
  %1454 = extractelement <32 x i16> %1420, i32 16		; visa id: 1842
  %1455 = insertelement <16 x i16> undef, i16 %1454, i32 0		; visa id: 1842
  %1456 = extractelement <32 x i16> %1420, i32 17		; visa id: 1842
  %1457 = insertelement <16 x i16> %1455, i16 %1456, i32 1		; visa id: 1842
  %1458 = extractelement <32 x i16> %1420, i32 18		; visa id: 1842
  %1459 = insertelement <16 x i16> %1457, i16 %1458, i32 2		; visa id: 1842
  %1460 = extractelement <32 x i16> %1420, i32 19		; visa id: 1842
  %1461 = insertelement <16 x i16> %1459, i16 %1460, i32 3		; visa id: 1842
  %1462 = extractelement <32 x i16> %1420, i32 20		; visa id: 1842
  %1463 = insertelement <16 x i16> %1461, i16 %1462, i32 4		; visa id: 1842
  %1464 = extractelement <32 x i16> %1420, i32 21		; visa id: 1842
  %1465 = insertelement <16 x i16> %1463, i16 %1464, i32 5		; visa id: 1842
  %1466 = extractelement <32 x i16> %1420, i32 22		; visa id: 1842
  %1467 = insertelement <16 x i16> %1465, i16 %1466, i32 6		; visa id: 1842
  %1468 = extractelement <32 x i16> %1420, i32 23		; visa id: 1842
  %1469 = insertelement <16 x i16> %1467, i16 %1468, i32 7		; visa id: 1842
  %1470 = extractelement <32 x i16> %1420, i32 24		; visa id: 1842
  %1471 = insertelement <16 x i16> %1469, i16 %1470, i32 8		; visa id: 1842
  %1472 = extractelement <32 x i16> %1420, i32 25		; visa id: 1842
  %1473 = insertelement <16 x i16> %1471, i16 %1472, i32 9		; visa id: 1842
  %1474 = extractelement <32 x i16> %1420, i32 26		; visa id: 1842
  %1475 = insertelement <16 x i16> %1473, i16 %1474, i32 10		; visa id: 1842
  %1476 = extractelement <32 x i16> %1420, i32 27		; visa id: 1842
  %1477 = insertelement <16 x i16> %1475, i16 %1476, i32 11		; visa id: 1842
  %1478 = extractelement <32 x i16> %1420, i32 28		; visa id: 1842
  %1479 = insertelement <16 x i16> %1477, i16 %1478, i32 12		; visa id: 1842
  %1480 = extractelement <32 x i16> %1420, i32 29		; visa id: 1842
  %1481 = insertelement <16 x i16> %1479, i16 %1480, i32 13		; visa id: 1842
  %1482 = extractelement <32 x i16> %1420, i32 30		; visa id: 1842
  %1483 = insertelement <16 x i16> %1481, i16 %1482, i32 14		; visa id: 1842
  %1484 = extractelement <32 x i16> %1420, i32 31		; visa id: 1842
  %1485 = insertelement <16 x i16> %1483, i16 %1484, i32 15		; visa id: 1842
  %1486 = extractelement <32 x i16> %1421, i32 0		; visa id: 1842
  %1487 = insertelement <16 x i16> undef, i16 %1486, i32 0		; visa id: 1842
  %1488 = extractelement <32 x i16> %1421, i32 1		; visa id: 1842
  %1489 = insertelement <16 x i16> %1487, i16 %1488, i32 1		; visa id: 1842
  %1490 = extractelement <32 x i16> %1421, i32 2		; visa id: 1842
  %1491 = insertelement <16 x i16> %1489, i16 %1490, i32 2		; visa id: 1842
  %1492 = extractelement <32 x i16> %1421, i32 3		; visa id: 1842
  %1493 = insertelement <16 x i16> %1491, i16 %1492, i32 3		; visa id: 1842
  %1494 = extractelement <32 x i16> %1421, i32 4		; visa id: 1842
  %1495 = insertelement <16 x i16> %1493, i16 %1494, i32 4		; visa id: 1842
  %1496 = extractelement <32 x i16> %1421, i32 5		; visa id: 1842
  %1497 = insertelement <16 x i16> %1495, i16 %1496, i32 5		; visa id: 1842
  %1498 = extractelement <32 x i16> %1421, i32 6		; visa id: 1842
  %1499 = insertelement <16 x i16> %1497, i16 %1498, i32 6		; visa id: 1842
  %1500 = extractelement <32 x i16> %1421, i32 7		; visa id: 1842
  %1501 = insertelement <16 x i16> %1499, i16 %1500, i32 7		; visa id: 1842
  %1502 = extractelement <32 x i16> %1421, i32 8		; visa id: 1842
  %1503 = insertelement <16 x i16> %1501, i16 %1502, i32 8		; visa id: 1842
  %1504 = extractelement <32 x i16> %1421, i32 9		; visa id: 1842
  %1505 = insertelement <16 x i16> %1503, i16 %1504, i32 9		; visa id: 1842
  %1506 = extractelement <32 x i16> %1421, i32 10		; visa id: 1842
  %1507 = insertelement <16 x i16> %1505, i16 %1506, i32 10		; visa id: 1842
  %1508 = extractelement <32 x i16> %1421, i32 11		; visa id: 1842
  %1509 = insertelement <16 x i16> %1507, i16 %1508, i32 11		; visa id: 1842
  %1510 = extractelement <32 x i16> %1421, i32 12		; visa id: 1842
  %1511 = insertelement <16 x i16> %1509, i16 %1510, i32 12		; visa id: 1842
  %1512 = extractelement <32 x i16> %1421, i32 13		; visa id: 1842
  %1513 = insertelement <16 x i16> %1511, i16 %1512, i32 13		; visa id: 1842
  %1514 = extractelement <32 x i16> %1421, i32 14		; visa id: 1842
  %1515 = insertelement <16 x i16> %1513, i16 %1514, i32 14		; visa id: 1842
  %1516 = extractelement <32 x i16> %1421, i32 15		; visa id: 1842
  %1517 = insertelement <16 x i16> %1515, i16 %1516, i32 15		; visa id: 1842
  %1518 = extractelement <32 x i16> %1421, i32 16		; visa id: 1842
  %1519 = insertelement <16 x i16> undef, i16 %1518, i32 0		; visa id: 1842
  %1520 = extractelement <32 x i16> %1421, i32 17		; visa id: 1842
  %1521 = insertelement <16 x i16> %1519, i16 %1520, i32 1		; visa id: 1842
  %1522 = extractelement <32 x i16> %1421, i32 18		; visa id: 1842
  %1523 = insertelement <16 x i16> %1521, i16 %1522, i32 2		; visa id: 1842
  %1524 = extractelement <32 x i16> %1421, i32 19		; visa id: 1842
  %1525 = insertelement <16 x i16> %1523, i16 %1524, i32 3		; visa id: 1842
  %1526 = extractelement <32 x i16> %1421, i32 20		; visa id: 1842
  %1527 = insertelement <16 x i16> %1525, i16 %1526, i32 4		; visa id: 1842
  %1528 = extractelement <32 x i16> %1421, i32 21		; visa id: 1842
  %1529 = insertelement <16 x i16> %1527, i16 %1528, i32 5		; visa id: 1842
  %1530 = extractelement <32 x i16> %1421, i32 22		; visa id: 1842
  %1531 = insertelement <16 x i16> %1529, i16 %1530, i32 6		; visa id: 1842
  %1532 = extractelement <32 x i16> %1421, i32 23		; visa id: 1842
  %1533 = insertelement <16 x i16> %1531, i16 %1532, i32 7		; visa id: 1842
  %1534 = extractelement <32 x i16> %1421, i32 24		; visa id: 1842
  %1535 = insertelement <16 x i16> %1533, i16 %1534, i32 8		; visa id: 1842
  %1536 = extractelement <32 x i16> %1421, i32 25		; visa id: 1842
  %1537 = insertelement <16 x i16> %1535, i16 %1536, i32 9		; visa id: 1842
  %1538 = extractelement <32 x i16> %1421, i32 26		; visa id: 1842
  %1539 = insertelement <16 x i16> %1537, i16 %1538, i32 10		; visa id: 1842
  %1540 = extractelement <32 x i16> %1421, i32 27		; visa id: 1842
  %1541 = insertelement <16 x i16> %1539, i16 %1540, i32 11		; visa id: 1842
  %1542 = extractelement <32 x i16> %1421, i32 28		; visa id: 1842
  %1543 = insertelement <16 x i16> %1541, i16 %1542, i32 12		; visa id: 1842
  %1544 = extractelement <32 x i16> %1421, i32 29		; visa id: 1842
