; ------------------------------------------------
; OCL_asm02a05bd857049a6b_simd16_entry_0008.visa.ll
; LLVM major version: 16
; ------------------------------------------------
; Function Attrs: convergent nounwind
define spir_kernel void @_ZTSN7cutlass4fmha6kernel15XeFMHAFwdKernelINS1_16FMHAProblemShapeILb1EEENS0_10collective15FMHAFwdMainloopINS0_9XeDefaultILi2EEELb0ELb0ELb0EN4cute8TiledMMAINS9_8MMA_AtomIJNS9_10XE_DPAS_TTILi8EfNS_10bfloat16_tESD_fEEEEENS9_6LayoutINS9_5tupleIJNS9_1CILi16EEENSI_ILi1EEESK_EEENSH_IJSK_NSI_ILi0EEESM_EEEEEKNSH_IJNSG_INSH_IJNSI_ILi8EEESJ_NSI_ILi2EEEEEENSH_IJSK_SJ_SP_EEEEENSG_INSI_ILi32EEESK_EESV_EEEEESY_Li4ENS9_6TensorINS9_10ViewEngineINS9_8gmem_ptrIPSD_EEEENSG_INSH_IJiiiiEEENSH_IJiSK_iiEEEEEEES18_NSZ_IS14_NSG_IS15_NSH_IJSK_iiiEEEEEEES18_S1B_vvvvvEENS5_15FMHAFwdEpilogueIS1C_NSH_IJNSI_ILi256EEENSI_ILi128EEEEEENSZ_INS10_INS11_IPfEEEES17_EEvEENS1_29XeFHMAIndividualTileSchedulerEEE(%"class.std::__generated_tuple.8943"* byval(%"class.std::__generated_tuple.8943") align 8 %0, i8 addrspace(3)* noalias align 1 %1, <8 x i32> %r0, <3 x i32> %globalOffset, i16 %localIdX, i16 %localIdY, i16 %localIdZ, i8 addrspace(2)* %constBase, i8* %privateBase, i32 %const_reg_dword, i32 %const_reg_dword1, i32 %const_reg_dword2, i32 %const_reg_dword3, i64 %const_reg_qword, i32 %const_reg_dword4, i64 %const_reg_qword5, i32 %const_reg_dword6, i64 %const_reg_qword7, i32 %const_reg_dword8, i32 %const_reg_dword9, i64 %const_reg_qword10, i32 %const_reg_dword11, i32 %const_reg_dword12, i32 %const_reg_dword13, i8 %const_reg_byte, i8 %const_reg_byte14, i8 %const_reg_byte15, i8 %const_reg_byte16, i64 %const_reg_qword17, i32 %const_reg_dword18, i32 %const_reg_dword19, i32 %const_reg_dword20, i8 %const_reg_byte21, i8 %const_reg_byte22, i8 %const_reg_byte23, i8 %const_reg_byte24, i64 %const_reg_qword25, i32 %const_reg_dword26, i32 %const_reg_dword27, i32 %const_reg_dword28, i8 %const_reg_byte29, i8 %const_reg_byte30, i8 %const_reg_byte31, i8 %const_reg_byte32, i64 %const_reg_qword33, i32 %const_reg_dword34, i32 %const_reg_dword35, i32 %const_reg_dword36, i8 %const_reg_byte37, i8 %const_reg_byte38, i8 %const_reg_byte39, i8 %const_reg_byte40, i64 %const_reg_qword41, i32 %const_reg_dword42, i32 %const_reg_dword43, i32 %const_reg_dword44, i8 %const_reg_byte45, i8 %const_reg_byte46, i8 %const_reg_byte47, i8 %const_reg_byte48, i64 %const_reg_qword49, i32 %const_reg_dword50, i32 %const_reg_dword51, i32 %const_reg_dword52, i8 %const_reg_byte53, i8 %const_reg_byte54, i8 %const_reg_byte55, i8 %const_reg_byte56, float %const_reg_fp32, i64 %const_reg_qword57, i32 %const_reg_dword58, i64 %const_reg_qword59, i8 %const_reg_byte60, i8 %const_reg_byte61, i8 %const_reg_byte62, i8 %const_reg_byte63, i32 %const_reg_dword64, i32 %const_reg_dword65, i32 %const_reg_dword66, i32 %const_reg_dword67, i32 %const_reg_dword68, i32 %const_reg_dword69, i8 %const_reg_byte70, i8 %const_reg_byte71, i8 %const_reg_byte72, i8 %const_reg_byte73, i32 %bindlessOffset) #1 {
; BB0 :
  %3 = extractelement <8 x i32> %r0, i32 6		; visa id: 2
  %4 = extractelement <8 x i32> %r0, i32 7		; visa id: 2
  %5 = call { i32, i32 } @llvm.genx.GenISA.mul.pair(i32 %4, i32 0, i32 %const_reg_dword68, i32 0)
  %6 = extractvalue { i32, i32 } %5, 1		; visa id: 2
  %7 = lshr i32 %6, %const_reg_dword69		; visa id: 7
  %8 = icmp eq i32 %const_reg_dword67, 1
  %9 = select i1 %8, i32 %4, i32 %7		; visa id: 8
  %10 = zext i32 %9 to i64		; visa id: 10
  %11 = shl nuw nsw i64 %10, 2		; visa id: 11
  %12 = add i64 %11, %const_reg_qword		; visa id: 12
  %13 = inttoptr i64 %12 to <2 x i32> addrspace(4)*		; visa id: 13
  %14 = addrspacecast <2 x i32> addrspace(4)* %13 to <2 x i32> addrspace(1)*		; visa id: 13
  %15 = load <2 x i32>, <2 x i32> addrspace(1)* %14, align 4		; visa id: 14
  %16 = extractelement <2 x i32> %15, i32 1		; visa id: 15
  %17 = extractelement <2 x i32> %15, i32 0		; visa id: 15
  %18 = sub nsw i32 %16, %17, !spirv.Decorations !1203		; visa id: 15
  %19 = shl i32 %3, 8		; visa id: 16
  %20 = icmp ult i32 %19, %18		; visa id: 17
  br i1 %20, label %21, label %.._crit_edge_crit_edge, !stats.blockFrequency.digits !1205, !stats.blockFrequency.scale !1206		; visa id: 18

.._crit_edge_crit_edge:                           ; preds = %2
; BB:
  br label %._crit_edge, !stats.blockFrequency.digits !1207, !stats.blockFrequency.scale !1208

21:                                               ; preds = %2
; BB2 :
  %22 = add i64 %11, %const_reg_qword7		; visa id: 20
  %23 = inttoptr i64 %22 to <2 x i32> addrspace(4)*		; visa id: 21
  %24 = addrspacecast <2 x i32> addrspace(4)* %23 to <2 x i32> addrspace(1)*		; visa id: 21
  %25 = load <2 x i32>, <2 x i32> addrspace(1)* %24, align 4		; visa id: 22
  %26 = add i64 %11, %const_reg_qword5		; visa id: 23
  %27 = inttoptr i64 %26 to <2 x i32> addrspace(4)*		; visa id: 24
  %28 = addrspacecast <2 x i32> addrspace(4)* %27 to <2 x i32> addrspace(1)*		; visa id: 24
  %29 = load <2 x i32>, <2 x i32> addrspace(1)* %28, align 4		; visa id: 25
  %30 = extractelement <2 x i32> %25, i32 1		; visa id: 26
  %31 = extractelement <2 x i32> %25, i32 0		; visa id: 26
  %32 = sub nsw i32 %30, %31, !spirv.Decorations !1203		; visa id: 26
  %33 = extractelement <2 x i32> %29, i32 1		; visa id: 27
  %34 = extractelement <2 x i32> %29, i32 0		; visa id: 27
  %35 = sub nsw i32 %33, %34, !spirv.Decorations !1203		; visa id: 27
  %tobool.i = icmp eq i32 %const_reg_dword2, 0		; visa id: 28
  br i1 %tobool.i, label %if.then.i, label %if.end.i, !stats.blockFrequency.digits !1207, !stats.blockFrequency.scale !1208		; visa id: 29

if.then.i:                                        ; preds = %21
; BB3 :
  br label %precompiled_s32divrem_sp.exit, !stats.blockFrequency.digits !1209, !stats.blockFrequency.scale !1210		; visa id: 32

if.end.i:                                         ; preds = %21
; BB4 :
  %shr.i = ashr i32 %const_reg_dword2, 31		; visa id: 34
  %shr1.i = ashr i32 %const_reg_dword1, 31		; visa id: 35
  %add.i = add nsw i32 %shr.i, %const_reg_dword2		; visa id: 36
  %xor.i = xor i32 %add.i, %shr.i		; visa id: 37
  %add2.i = add nsw i32 %shr1.i, %const_reg_dword1		; visa id: 38
  %xor3.i = xor i32 %add2.i, %shr1.i		; visa id: 39
  %36 = call float @llvm.genx.GenISA.uitof.rtz.f32.i32(i32 %xor.i)		; visa id: 40
  %conv.i = fptoui float %36 to i32		; visa id: 42
  %sub.i = sub i32 %xor.i, %conv.i		; visa id: 43
  %37 = call float @llvm.genx.GenISA.uitof.rtz.f32.i32(i32 %xor3.i)		; visa id: 44
  %div.i = fdiv float 1.000000e+00, %36, !fpmath !1211		; visa id: 45
  %38 = call float @llvm.genx.GenISA.fma.rtz.f32.f32.f32.f32(float %div.i, float 0xBE98000000000000, float %div.i)		; visa id: 46
  %39 = call float @llvm.genx.GenISA.mul.rtz.f32.f32.f32(float %37, float %38)		; visa id: 47
  %conv6.i = fptoui float %37 to i32		; visa id: 48
  %sub7.i = sub i32 %xor3.i, %conv6.i		; visa id: 49
  %conv11.i = fptoui float %39 to i32		; visa id: 50
  %40 = call float @llvm.genx.GenISA.uitof.rtz.f32.i32(i32 %sub.i)		; visa id: 51
  %41 = call float @llvm.genx.GenISA.uitof.rtz.f32.i32(i32 %sub7.i)		; visa id: 52
  %42 = call float @llvm.genx.GenISA.uitof.rtz.f32.i32(i32 %conv11.i)		; visa id: 53
  %43 = fsub float 0.000000e+00, %36		; visa id: 54
  %44 = call float @llvm.genx.GenISA.fma.rtz.f32.f32.f32.f32(float %43, float %42, float %37)		; visa id: 55
  %45 = fsub float 0.000000e+00, %40		; visa id: 56
  %46 = call float @llvm.genx.GenISA.fma.rtz.f32.f32.f32.f32(float %45, float %42, float %41)		; visa id: 57
  %47 = call float @llvm.genx.GenISA.add.rtz.f32.f32.f32(float %44, float %46)		; visa id: 58
  %48 = call float @llvm.genx.GenISA.mul.rtz.f32.f32.f32(float %38, float %47)		; visa id: 59
  %conv19.i = fptoui float %48 to i32		; visa id: 61
  %add20.i = add i32 %conv19.i, %conv11.i		; visa id: 62
  %xor21.i = xor i32 %shr.i, %shr1.i		; visa id: 63
  %mul.i = mul i32 %add20.i, %xor.i		; visa id: 64
  %sub22.i = sub i32 %xor3.i, %mul.i		; visa id: 65
  %cmp.i = icmp uge i32 %sub22.i, %xor.i
  %49 = sext i1 %cmp.i to i32		; visa id: 66
  %50 = sub i32 0, %49
  %add24.i = add i32 %add20.i, %xor21.i
  %add29.i = add i32 %add24.i, %50		; visa id: 67
  %xor30.i = xor i32 %add29.i, %xor21.i		; visa id: 68
  br label %precompiled_s32divrem_sp.exit, !stats.blockFrequency.digits !1212, !stats.blockFrequency.scale !1213		; visa id: 69

precompiled_s32divrem_sp.exit:                    ; preds = %if.then.i, %if.end.i
; BB5 :
  %retval.0.i = phi i32 [ %xor30.i, %if.end.i ], [ -1, %if.then.i ]
  %51 = mul nsw i32 %9, %const_reg_dword67, !spirv.Decorations !1203		; visa id: 70
  %52 = sub nsw i32 %4, %51, !spirv.Decorations !1203		; visa id: 71
  %tobool.i3227 = icmp eq i32 %retval.0.i, 0		; visa id: 72
  br i1 %tobool.i3227, label %if.then.i3228, label %if.end.i3258, !stats.blockFrequency.digits !1207, !stats.blockFrequency.scale !1208		; visa id: 73

if.then.i3228:                                    ; preds = %precompiled_s32divrem_sp.exit
; BB6 :
  br label %precompiled_s32divrem_sp.exit3260, !stats.blockFrequency.digits !1209, !stats.blockFrequency.scale !1210		; visa id: 76

if.end.i3258:                                     ; preds = %precompiled_s32divrem_sp.exit
; BB7 :
  %shr.i3229 = ashr i32 %retval.0.i, 31		; visa id: 78
  %shr1.i3230 = ashr i32 %52, 31		; visa id: 79
  %add.i3231 = add nsw i32 %shr.i3229, %retval.0.i		; visa id: 80
  %xor.i3232 = xor i32 %add.i3231, %shr.i3229		; visa id: 81
  %add2.i3233 = add nsw i32 %shr1.i3230, %52		; visa id: 82
  %xor3.i3234 = xor i32 %add2.i3233, %shr1.i3230		; visa id: 83
  %53 = call float @llvm.genx.GenISA.uitof.rtz.f32.i32(i32 %xor.i3232)		; visa id: 84
  %conv.i3235 = fptoui float %53 to i32		; visa id: 86
  %sub.i3236 = sub i32 %xor.i3232, %conv.i3235		; visa id: 87
  %54 = call float @llvm.genx.GenISA.uitof.rtz.f32.i32(i32 %xor3.i3234)		; visa id: 88
  %div.i3239 = fdiv float 1.000000e+00, %53, !fpmath !1211		; visa id: 89
  %55 = call float @llvm.genx.GenISA.fma.rtz.f32.f32.f32.f32(float %div.i3239, float 0xBE98000000000000, float %div.i3239)		; visa id: 90
  %56 = call float @llvm.genx.GenISA.mul.rtz.f32.f32.f32(float %54, float %55)		; visa id: 91
  %conv6.i3237 = fptoui float %54 to i32		; visa id: 92
  %sub7.i3238 = sub i32 %xor3.i3234, %conv6.i3237		; visa id: 93
  %conv11.i3240 = fptoui float %56 to i32		; visa id: 94
  %57 = call float @llvm.genx.GenISA.uitof.rtz.f32.i32(i32 %sub.i3236)		; visa id: 95
  %58 = call float @llvm.genx.GenISA.uitof.rtz.f32.i32(i32 %sub7.i3238)		; visa id: 96
  %59 = call float @llvm.genx.GenISA.uitof.rtz.f32.i32(i32 %conv11.i3240)		; visa id: 97
  %60 = fsub float 0.000000e+00, %53		; visa id: 98
  %61 = call float @llvm.genx.GenISA.fma.rtz.f32.f32.f32.f32(float %60, float %59, float %54)		; visa id: 99
  %62 = fsub float 0.000000e+00, %57		; visa id: 100
  %63 = call float @llvm.genx.GenISA.fma.rtz.f32.f32.f32.f32(float %62, float %59, float %58)		; visa id: 101
  %64 = call float @llvm.genx.GenISA.add.rtz.f32.f32.f32(float %61, float %63)		; visa id: 102
  %65 = call float @llvm.genx.GenISA.mul.rtz.f32.f32.f32(float %55, float %64)		; visa id: 103
  %conv19.i3243 = fptoui float %65 to i32		; visa id: 105
  %add20.i3244 = add i32 %conv19.i3243, %conv11.i3240		; visa id: 106
  %xor21.i3245 = xor i32 %shr.i3229, %shr1.i3230		; visa id: 107
  %mul.i3246 = mul i32 %add20.i3244, %xor.i3232		; visa id: 108
  %sub22.i3247 = sub i32 %xor3.i3234, %mul.i3246		; visa id: 109
  %cmp.i3248 = icmp uge i32 %sub22.i3247, %xor.i3232
  %66 = sext i1 %cmp.i3248 to i32		; visa id: 110
  %67 = sub i32 0, %66
  %add24.i3255 = add i32 %add20.i3244, %xor21.i3245
  %add29.i3256 = add i32 %add24.i3255, %67		; visa id: 111
  %xor30.i3257 = xor i32 %add29.i3256, %xor21.i3245		; visa id: 112
  br label %precompiled_s32divrem_sp.exit3260, !stats.blockFrequency.digits !1212, !stats.blockFrequency.scale !1213		; visa id: 113

precompiled_s32divrem_sp.exit3260:                ; preds = %if.then.i3228, %if.end.i3258
; BB8 :
  %retval.0.i3259 = phi i32 [ %xor30.i3257, %if.end.i3258 ], [ -1, %if.then.i3228 ]
  %68 = add nsw i32 %35, %32, !spirv.Decorations !1203		; visa id: 114
  %is-neg = icmp slt i32 %68, -31		; visa id: 115
  br i1 %is-neg, label %cond-add, label %precompiled_s32divrem_sp.exit3260.cond-add-join_crit_edge, !stats.blockFrequency.digits !1207, !stats.blockFrequency.scale !1208		; visa id: 116

precompiled_s32divrem_sp.exit3260.cond-add-join_crit_edge: ; preds = %precompiled_s32divrem_sp.exit3260
; BB9 :
  %69 = add nsw i32 %68, 31, !spirv.Decorations !1203		; visa id: 118
  br label %cond-add-join, !stats.blockFrequency.digits !1214, !stats.blockFrequency.scale !1213		; visa id: 119

cond-add:                                         ; preds = %precompiled_s32divrem_sp.exit3260
; BB10 :
  %70 = add i32 %68, 62		; visa id: 121
  br label %cond-add-join, !stats.blockFrequency.digits !1214, !stats.blockFrequency.scale !1213		; visa id: 122

cond-add-join:                                    ; preds = %precompiled_s32divrem_sp.exit3260.cond-add-join_crit_edge, %cond-add
; BB11 :
  %71 = phi i32 [ %69, %precompiled_s32divrem_sp.exit3260.cond-add-join_crit_edge ], [ %70, %cond-add ]
  %72 = bitcast i64 %const_reg_qword7 to <2 x i32>		; visa id: 123
  %73 = extractelement <2 x i32> %72, i32 0		; visa id: 124
  %74 = extractelement <2 x i32> %72, i32 1		; visa id: 124
  %qot = ashr i32 %71, 5		; visa id: 124
  %75 = mul nsw i32 %const_reg_dword1, %const_reg_dword8, !spirv.Decorations !1203		; visa id: 125
  %76 = mul nsw i32 %75, %17, !spirv.Decorations !1203		; visa id: 126
  %77 = mul nsw i32 %const_reg_dword2, %const_reg_dword8, !spirv.Decorations !1203		; visa id: 127
  %78 = mul nsw i32 %77, %34, !spirv.Decorations !1203		; visa id: 128
  %79 = mul nsw i32 %const_reg_dword2, %const_reg_dword9, !spirv.Decorations !1203		; visa id: 129
  %80 = mul nsw i32 %79, %34, !spirv.Decorations !1203		; visa id: 130
  %81 = icmp eq i32 %74, 0
  %82 = icmp eq i32 %73, 0		; visa id: 131
  %83 = and i1 %81, %82		; visa id: 132
  %84 = mul nsw i32 %77, %31, !spirv.Decorations !1203		; visa id: 134
  %85 = mul nsw i32 %79, %31, !spirv.Decorations !1203		; visa id: 135
  %86 = sext i32 %76 to i64		; visa id: 136
  %87 = shl nsw i64 %86, 1		; visa id: 137
  %88 = add i64 %87, %const_reg_qword10		; visa id: 138
  %89 = sext i32 %78 to i64		; visa id: 139
  %90 = shl nsw i64 %89, 1		; visa id: 140
  %91 = add i64 %90, %const_reg_qword17		; visa id: 141
  %92 = sext i32 %80 to i64		; visa id: 142
  %93 = shl nsw i64 %92, 1		; visa id: 143
  %94 = add i64 %93, %const_reg_qword25		; visa id: 144
  %95 = sext i32 %84 to i64		; visa id: 145
  %.op = shl nsw i64 %95, 1		; visa id: 146
  %96 = bitcast i64 %.op to <2 x i32>		; visa id: 147
  %97 = extractelement <2 x i32> %96, i32 0		; visa id: 148
  %98 = extractelement <2 x i32> %96, i32 1		; visa id: 148
  %99 = select i1 %83, i32 0, i32 %97		; visa id: 148
  %100 = select i1 %83, i32 0, i32 %98		; visa id: 149
  %101 = insertelement <2 x i32> undef, i32 %99, i32 0		; visa id: 150
  %102 = insertelement <2 x i32> %101, i32 %100, i32 1		; visa id: 151
  %103 = bitcast <2 x i32> %102 to i64		; visa id: 152
  %104 = add i64 %103, %const_reg_qword41		; visa id: 154
  %105 = sext i32 %85 to i64		; visa id: 155
  %.op3268 = shl nsw i64 %105, 1		; visa id: 156
  %106 = bitcast i64 %.op3268 to <2 x i32>		; visa id: 157
  %107 = extractelement <2 x i32> %106, i32 0		; visa id: 158
  %108 = extractelement <2 x i32> %106, i32 1		; visa id: 158
  %109 = select i1 %83, i32 0, i32 %107		; visa id: 158
  %110 = select i1 %83, i32 0, i32 %108		; visa id: 159
  %111 = insertelement <2 x i32> undef, i32 %109, i32 0		; visa id: 160
  %112 = insertelement <2 x i32> %111, i32 %110, i32 1		; visa id: 161
  %113 = bitcast <2 x i32> %112 to i64		; visa id: 162
  %114 = add i64 %113, %const_reg_qword49		; visa id: 164
  %115 = mul nsw i32 %18, %const_reg_dword8, !spirv.Decorations !1203		; visa id: 165
  %116 = icmp slt i32 %const_reg_dword1, 2		; visa id: 166
  %117 = select i1 %116, i32 0, i32 %115		; visa id: 167
  %118 = mul nsw i32 %35, %const_reg_dword8, !spirv.Decorations !1203		; visa id: 168
  %119 = mul nsw i32 %35, %const_reg_dword9, !spirv.Decorations !1203		; visa id: 169
  %120 = icmp slt i32 %const_reg_dword2, 2		; visa id: 170
  %121 = select i1 %120, i32 0, i32 %119		; visa id: 171
  %122 = select i1 %120, i32 0, i32 %118		; visa id: 172
  %123 = mul nsw i32 %32, %const_reg_dword8, !spirv.Decorations !1203		; visa id: 173
  %124 = mul nsw i32 %32, %const_reg_dword9, !spirv.Decorations !1203		; visa id: 174
  %125 = select i1 %120, i32 0, i32 %124		; visa id: 175
  %126 = select i1 %120, i32 0, i32 %123		; visa id: 176
  %127 = mul nsw i32 %52, %117, !spirv.Decorations !1203		; visa id: 177
  %128 = sext i32 %127 to i64		; visa id: 178
  %129 = shl nsw i64 %128, 1		; visa id: 179
  %130 = add i64 %88, %129		; visa id: 180
  %131 = mul nsw i32 %retval.0.i3259, %122, !spirv.Decorations !1203		; visa id: 181
  %132 = sext i32 %131 to i64		; visa id: 182
  %133 = shl nsw i64 %132, 1		; visa id: 183
  %134 = add i64 %91, %133		; visa id: 184
  %135 = mul nsw i32 %retval.0.i3259, %121, !spirv.Decorations !1203		; visa id: 185
  %136 = sext i32 %135 to i64		; visa id: 186
  %137 = shl nsw i64 %136, 1		; visa id: 187
  %138 = add i64 %94, %137		; visa id: 188
  %139 = mul nsw i32 %retval.0.i3259, %126, !spirv.Decorations !1203		; visa id: 189
  %140 = sext i32 %139 to i64		; visa id: 190
  %141 = shl nsw i64 %140, 1		; visa id: 191
  %142 = add i64 %104, %141		; visa id: 192
  %143 = mul nsw i32 %retval.0.i3259, %125, !spirv.Decorations !1203		; visa id: 193
  %144 = sext i32 %143 to i64		; visa id: 194
  %145 = shl nsw i64 %144, 1		; visa id: 195
  %146 = add i64 %114, %145		; visa id: 196
  %is-neg3218 = icmp slt i32 %const_reg_dword8, -31		; visa id: 197
  br i1 %is-neg3218, label %cond-add3219, label %cond-add-join.cond-add-join3220_crit_edge, !stats.blockFrequency.digits !1207, !stats.blockFrequency.scale !1208		; visa id: 198

cond-add-join.cond-add-join3220_crit_edge:        ; preds = %cond-add-join
; BB12 :
  %147 = add nsw i32 %const_reg_dword8, 31, !spirv.Decorations !1203		; visa id: 200
  br label %cond-add-join3220, !stats.blockFrequency.digits !1214, !stats.blockFrequency.scale !1213		; visa id: 201

cond-add3219:                                     ; preds = %cond-add-join
; BB13 :
  %148 = add i32 %const_reg_dword8, 62		; visa id: 203
  br label %cond-add-join3220, !stats.blockFrequency.digits !1214, !stats.blockFrequency.scale !1213		; visa id: 204

cond-add-join3220:                                ; preds = %cond-add-join.cond-add-join3220_crit_edge, %cond-add3219
; BB14 :
  %149 = phi i32 [ %147, %cond-add-join.cond-add-join3220_crit_edge ], [ %148, %cond-add3219 ]
  %150 = extractelement <8 x i32> %r0, i32 1		; visa id: 205
  %qot3221 = ashr i32 %149, 5		; visa id: 205
  %151 = shl i32 %150, 7		; visa id: 206
  %152 = shl nsw i32 %const_reg_dword8, 1, !spirv.Decorations !1203		; visa id: 207
  %153 = add i32 %152, -1		; visa id: 208
  %154 = add i32 %18, -1		; visa id: 209
  %Block2D_AddrPayload = call i8 addrspace(4)* @llvm.genx.GenISA.LSC2DBlockCreateAddrPayload.p4i8(i64 %130, i32 %153, i32 %154, i32 %153, i32 0, i32 0, i32 16, i32 16, i32 2)		; visa id: 210
  %155 = add i32 %35, -1		; visa id: 217
  %Block2D_AddrPayload112 = call i8 addrspace(4)* @llvm.genx.GenISA.LSC2DBlockCreateAddrPayload.p4i8(i64 %134, i32 %153, i32 %155, i32 %153, i32 0, i32 0, i32 8, i32 16, i32 1)		; visa id: 218
  %156 = shl nsw i32 %const_reg_dword9, 1, !spirv.Decorations !1203		; visa id: 225
  %157 = add i32 %156, -1		; visa id: 226
  %Block2D_AddrPayload113 = call i8 addrspace(4)* @llvm.genx.GenISA.LSC2DBlockCreateAddrPayload.p4i8(i64 %138, i32 %157, i32 %155, i32 %157, i32 0, i32 0, i32 16, i32 16, i32 2)		; visa id: 227
  %158 = add i32 %32, -1		; visa id: 234
  %Block2D_AddrPayload114 = call i8 addrspace(4)* @llvm.genx.GenISA.LSC2DBlockCreateAddrPayload.p4i8(i64 %142, i32 %153, i32 %158, i32 %153, i32 0, i32 0, i32 8, i32 16, i32 1)		; visa id: 235
  %Block2D_AddrPayload115 = call i8 addrspace(4)* @llvm.genx.GenISA.LSC2DBlockCreateAddrPayload.p4i8(i64 %146, i32 %157, i32 %158, i32 %157, i32 0, i32 0, i32 16, i32 16, i32 2)		; visa id: 242
  %159 = zext i16 %localIdX to i32		; visa id: 249
  %160 = and i32 %159, 65520		; visa id: 250
  %161 = add i32 %19, %160		; visa id: 251
  %Block2D_AddrPayload116 = call i8 addrspace(4)* @llvm.genx.GenISA.LSC2DBlockCreateAddrPayload.p4i8(i64 %130, i32 %153, i32 %154, i32 %153, i32 0, i32 0, i32 32, i32 16, i32 1)		; visa id: 252
  %Block2D_AddrPayload117 = call i8 addrspace(4)* @llvm.genx.GenISA.LSC2DBlockCreateAddrPayload.p4i8(i64 %134, i32 %153, i32 %155, i32 %153, i32 0, i32 0, i32 32, i32 2, i32 1)		; visa id: 259
  %Block2D_AddrPayload118 = call i8 addrspace(4)* @llvm.genx.GenISA.LSC2DBlockCreateAddrPayload.p4i8(i64 %138, i32 %157, i32 %155, i32 %157, i32 0, i32 0, i32 32, i32 2, i32 1)		; visa id: 266
  %Block2D_AddrPayload119 = call i8 addrspace(4)* @llvm.genx.GenISA.LSC2DBlockCreateAddrPayload.p4i8(i64 %142, i32 %153, i32 %158, i32 %153, i32 0, i32 0, i32 32, i32 2, i32 1)		; visa id: 273
  %Block2D_AddrPayload120 = call i8 addrspace(4)* @llvm.genx.GenISA.LSC2DBlockCreateAddrPayload.p4i8(i64 %146, i32 %157, i32 %158, i32 %157, i32 0, i32 0, i32 32, i32 2, i32 1)		; visa id: 280
  %162 = lshr i32 %159, 3		; visa id: 287
  %163 = and i32 %162, 8190		; visa id: 288
  %is-neg3222 = icmp slt i32 %32, -31		; visa id: 289
  br i1 %is-neg3222, label %cond-add3223, label %cond-add-join3220.cond-add-join3224_crit_edge, !stats.blockFrequency.digits !1207, !stats.blockFrequency.scale !1208		; visa id: 290

cond-add-join3220.cond-add-join3224_crit_edge:    ; preds = %cond-add-join3220
; BB15 :
  %164 = add nsw i32 %32, 31, !spirv.Decorations !1203		; visa id: 292
  br label %cond-add-join3224, !stats.blockFrequency.digits !1214, !stats.blockFrequency.scale !1213		; visa id: 293

cond-add3223:                                     ; preds = %cond-add-join3220
; BB16 :
  %165 = add i32 %32, 62		; visa id: 295
  br label %cond-add-join3224, !stats.blockFrequency.digits !1214, !stats.blockFrequency.scale !1213		; visa id: 296

cond-add-join3224:                                ; preds = %cond-add-join3220.cond-add-join3224_crit_edge, %cond-add3223
; BB17 :
  %166 = phi i32 [ %164, %cond-add-join3220.cond-add-join3224_crit_edge ], [ %165, %cond-add3223 ]
  %qot3225 = ashr i32 %166, 5		; visa id: 297
  %167 = icmp sgt i32 %const_reg_dword8, 0		; visa id: 298
  br i1 %167, label %.lr.ph148.preheader, label %cond-add-join3224..preheader_crit_edge, !stats.blockFrequency.digits !1207, !stats.blockFrequency.scale !1208		; visa id: 299

cond-add-join3224..preheader_crit_edge:           ; preds = %cond-add-join3224
; BB:
  br label %.preheader, !stats.blockFrequency.digits !1209, !stats.blockFrequency.scale !1210

.lr.ph148.preheader:                              ; preds = %cond-add-join3224
; BB19 :
  br label %.lr.ph148, !stats.blockFrequency.digits !1212, !stats.blockFrequency.scale !1213		; visa id: 302

.lr.ph148:                                        ; preds = %.lr.ph148..lr.ph148_crit_edge, %.lr.ph148.preheader
; BB20 :
  %168 = phi i32 [ %170, %.lr.ph148..lr.ph148_crit_edge ], [ 0, %.lr.ph148.preheader ]
  %169 = shl nsw i32 %168, 5, !spirv.Decorations !1203		; visa id: 303
  call void @llvm.genx.GenISA.LSC2DBlockSetAddrPayloadField.p4i8.i32(i8 addrspace(4)* %Block2D_AddrPayload116, i32 5, i32 %169, i1 false)		; visa id: 304
  call void @llvm.genx.GenISA.LSC2DBlockSetAddrPayloadField.p4i8.i32(i8 addrspace(4)* %Block2D_AddrPayload116, i32 6, i32 %161, i1 false)		; visa id: 305
  call void asm sideeffect "lsc_load_block2d.ugm.ca.ca (M1, 1)  %null:d$1.$2x$3nn flat[$0+(0,0)]", "rw.u,P,P,P"(i8 addrspace(4)* %Block2D_AddrPayload116, i32 16, i32 32, i32 16) #0		; visa id: 306
  %170 = add nuw nsw i32 %168, 1, !spirv.Decorations !1215		; visa id: 306
  %171 = icmp slt i32 %170, %qot3221		; visa id: 307
  br i1 %171, label %.lr.ph148..lr.ph148_crit_edge, label %.preheader1.preheader, !stats.blockFrequency.digits !1217, !stats.blockFrequency.scale !1218		; visa id: 308

.lr.ph148..lr.ph148_crit_edge:                    ; preds = %.lr.ph148
; BB:
  br label %.lr.ph148, !stats.blockFrequency.digits !1219, !stats.blockFrequency.scale !1218

.preheader1.preheader:                            ; preds = %.lr.ph148
; BB22 :
  br i1 true, label %.lr.ph146, label %.preheader1.preheader..preheader_crit_edge, !stats.blockFrequency.digits !1212, !stats.blockFrequency.scale !1213		; visa id: 310

.preheader1.preheader..preheader_crit_edge:       ; preds = %.preheader1.preheader
; BB:
  br label %.preheader, !stats.blockFrequency.digits !1220, !stats.blockFrequency.scale !1210

.lr.ph146:                                        ; preds = %.preheader1.preheader
; BB24 :
  %172 = icmp sgt i32 %32, 0		; visa id: 313
  %173 = and i32 %166, -32		; visa id: 314
  %174 = sub i32 %163, %173		; visa id: 315
  %175 = icmp sgt i32 %32, 32		; visa id: 316
  %176 = sub i32 32, %173
  %177 = add nuw nsw i32 %163, %176		; visa id: 317
  %178 = add nuw nsw i32 %163, 32		; visa id: 318
  br label %179, !stats.blockFrequency.digits !1220, !stats.blockFrequency.scale !1210		; visa id: 320

179:                                              ; preds = %.preheader1._crit_edge, %.lr.ph146
; BB25 :
  %180 = phi i32 [ 0, %.lr.ph146 ], [ %187, %.preheader1._crit_edge ]
  %181 = shl nsw i32 %180, 5, !spirv.Decorations !1203		; visa id: 321
  br i1 %172, label %183, label %182, !stats.blockFrequency.digits !1220, !stats.blockFrequency.scale !1206		; visa id: 322

182:                                              ; preds = %179
; BB26 :
  call void @llvm.genx.GenISA.LSC2DBlockSetAddrPayloadField.p4i8.i32(i8 addrspace(4)* %Block2D_AddrPayload117, i32 5, i32 %181, i1 false)		; visa id: 324
  call void @llvm.genx.GenISA.LSC2DBlockSetAddrPayloadField.p4i8.i32(i8 addrspace(4)* %Block2D_AddrPayload117, i32 6, i32 %174, i1 false)		; visa id: 325
  call void asm sideeffect "lsc_load_block2d.ugm.ca.ca (M1, 1)  %null:d$1.$2x$3nn flat[$0+(0,0)]", "rw.u,P,P,P"(i8 addrspace(4)* %Block2D_AddrPayload117, i32 16, i32 32, i32 2) #0		; visa id: 326
  br label %184, !stats.blockFrequency.digits !1214, !stats.blockFrequency.scale !1221		; visa id: 326

183:                                              ; preds = %179
; BB27 :
  call void @llvm.genx.GenISA.LSC2DBlockSetAddrPayloadField.p4i8.i32(i8 addrspace(4)* %Block2D_AddrPayload119, i32 5, i32 %181, i1 false)		; visa id: 328
  call void @llvm.genx.GenISA.LSC2DBlockSetAddrPayloadField.p4i8.i32(i8 addrspace(4)* %Block2D_AddrPayload119, i32 6, i32 %163, i1 false)		; visa id: 329
  call void asm sideeffect "lsc_load_block2d.ugm.ca.ca (M1, 1)  %null:d$1.$2x$3nn flat[$0+(0,0)]", "rw.u,P,P,P"(i8 addrspace(4)* %Block2D_AddrPayload119, i32 16, i32 32, i32 2) #0		; visa id: 330
  br label %184, !stats.blockFrequency.digits !1222, !stats.blockFrequency.scale !1221		; visa id: 330

184:                                              ; preds = %182, %183
; BB28 :
  br i1 %175, label %186, label %185, !stats.blockFrequency.digits !1220, !stats.blockFrequency.scale !1206		; visa id: 331

185:                                              ; preds = %184
; BB29 :
  call void @llvm.genx.GenISA.LSC2DBlockSetAddrPayloadField.p4i8.i32(i8 addrspace(4)* %Block2D_AddrPayload117, i32 5, i32 %181, i1 false)		; visa id: 333
  call void @llvm.genx.GenISA.LSC2DBlockSetAddrPayloadField.p4i8.i32(i8 addrspace(4)* %Block2D_AddrPayload117, i32 6, i32 %177, i1 false)		; visa id: 334
  call void asm sideeffect "lsc_load_block2d.ugm.ca.ca (M1, 1)  %null:d$1.$2x$3nn flat[$0+(0,0)]", "rw.u,P,P,P"(i8 addrspace(4)* %Block2D_AddrPayload117, i32 16, i32 32, i32 2) #0		; visa id: 335
  br label %.preheader1, !stats.blockFrequency.digits !1220, !stats.blockFrequency.scale !1221		; visa id: 335

186:                                              ; preds = %184
; BB30 :
  call void @llvm.genx.GenISA.LSC2DBlockSetAddrPayloadField.p4i8.i32(i8 addrspace(4)* %Block2D_AddrPayload119, i32 5, i32 %181, i1 false)		; visa id: 337
  call void @llvm.genx.GenISA.LSC2DBlockSetAddrPayloadField.p4i8.i32(i8 addrspace(4)* %Block2D_AddrPayload119, i32 6, i32 %178, i1 false)		; visa id: 338
  call void asm sideeffect "lsc_load_block2d.ugm.ca.ca (M1, 1)  %null:d$1.$2x$3nn flat[$0+(0,0)]", "rw.u,P,P,P"(i8 addrspace(4)* %Block2D_AddrPayload119, i32 16, i32 32, i32 2) #0		; visa id: 339
  br label %.preheader1, !stats.blockFrequency.digits !1220, !stats.blockFrequency.scale !1221		; visa id: 339

.preheader1:                                      ; preds = %186, %185
; BB31 :
  %187 = add nuw nsw i32 %180, 1, !spirv.Decorations !1215		; visa id: 340
  %188 = icmp slt i32 %187, %qot3221		; visa id: 341
  br i1 %188, label %.preheader1._crit_edge, label %.preheader.loopexit, !stats.blockFrequency.digits !1220, !stats.blockFrequency.scale !1206		; visa id: 342

.preheader.loopexit:                              ; preds = %.preheader1
; BB:
  br label %.preheader, !stats.blockFrequency.digits !1220, !stats.blockFrequency.scale !1210

.preheader1._crit_edge:                           ; preds = %.preheader1
; BB:
  br label %179, !stats.blockFrequency.digits !1223, !stats.blockFrequency.scale !1206

.preheader:                                       ; preds = %.preheader1.preheader..preheader_crit_edge, %cond-add-join3224..preheader_crit_edge, %.preheader.loopexit
; BB34 :
  %189 = mul nsw i32 %const_reg_dword1, %const_reg_dword9, !spirv.Decorations !1203		; visa id: 344
  %190 = mul nsw i32 %189, %17, !spirv.Decorations !1203		; visa id: 345
  %191 = mul nsw i32 %18, %const_reg_dword9, !spirv.Decorations !1203		; visa id: 346
  %192 = sext i32 %190 to i64		; visa id: 347
  %193 = shl nsw i64 %192, 2		; visa id: 348
  %194 = add i64 %193, %const_reg_qword33		; visa id: 349
  %195 = select i1 %116, i32 0, i32 %191		; visa id: 350
  %196 = call i32 @llvm.smax.i32(i32 %qot3225, i32 0)		; visa id: 351
  %197 = icmp slt i32 %196, %qot		; visa id: 352
  br i1 %197, label %.preheader137.lr.ph, label %.preheader.._crit_edge145_crit_edge, !stats.blockFrequency.digits !1207, !stats.blockFrequency.scale !1208		; visa id: 353

.preheader.._crit_edge145_crit_edge:              ; preds = %.preheader
; BB35 :
  br label %._crit_edge145, !stats.blockFrequency.digits !1214, !stats.blockFrequency.scale !1213		; visa id: 484

.preheader137.lr.ph:                              ; preds = %.preheader
; BB36 :
  %198 = and i32 %68, 31
  %199 = add nsw i32 %qot, -1		; visa id: 486
  %200 = shl nuw nsw i32 %196, 5		; visa id: 487
  %smax = call i32 @llvm.smax.i32(i32 %qot3221, i32 1)		; visa id: 488
  %xtraiter = and i32 %smax, 1
  %201 = icmp slt i32 %const_reg_dword8, 33		; visa id: 489
  %unroll_iter = and i32 %smax, 2147483646		; visa id: 490
  %lcmp.mod.not = icmp eq i32 %xtraiter, 0		; visa id: 491
  %202 = and i32 %151, 268435328		; visa id: 493
  %203 = or i32 %202, 32		; visa id: 494
  %204 = or i32 %202, 64		; visa id: 495
  %205 = or i32 %202, 96		; visa id: 496
  %.not.not = icmp ne i32 %198, 0
  br label %.preheader137, !stats.blockFrequency.digits !1214, !stats.blockFrequency.scale !1213		; visa id: 627

.preheader137:                                    ; preds = %_ZZN7cutlass4fmha10collective15FMHAFwdMainloopINS0_9XeDefaultILi2EEELb0ELb0ELb0EN4cute8TiledMMAINS5_8MMA_AtomIJNS5_10XE_DPAS_TTILi8EfNS_10bfloat16_tES9_fEEEEENS5_6LayoutINS5_5tupleIJNS5_1CILi16EEENSE_ILi1EEESG_EEENSD_IJSG_NSE_ILi0EEESI_EEEEEKNSD_IJNSC_INSD_IJNSE_ILi8EEESF_NSE_ILi2EEEEEENSD_IJSG_SF_SL_EEEEENSC_INSE_ILi32EEESG_EESR_EEEEESU_Li4ENS5_6TensorINS5_10ViewEngineINS5_8gmem_ptrIPS9_EEEENSC_INSD_IJiiiiEEENSD_IJiSG_iiEEEEEEES14_NSV_IS10_NSC_IS11_NSD_IJSG_iiiEEEEEEES14_S17_vvvvvEclINSD_IJjjEEEEEvRKNSV_IS10_NSC_INSD_IJiiEEENSD_IJiSG_EEEEEEES1G_RKNSV_IS10_NSC_IS1B_NSD_IJSG_iEEEEEEERNS5_14SubgroupTensorINS5_11ArrayEngineIfLm128EEENSC_INSD_IJSL_SM_SM_NSE_ILi4EEEEEENSD_IJSG_SL_SF_SQ_EEEEENSC_INSD_IJSF_NSD_IJSL_NSD_IJSM_SM_EEES1P_EEEEEENSD_IJNS5_11ScaledBasisISG_JLi1EEEENSD_IJNS1W_ISG_JLi0EEEENSD_IJNS1W_ISL_JLi0EEEENS1W_ISF_JLi1EEEEEEENS1W_ISQ_JLi1EEEEEEEEEEEEEERNSV_INS1N_IfLm1EEENSC_ISG_SI_EEEES2B_T_iiiiiiiiiS1G_S1L_ENKUlS2C_iRT0_RT1_RT2_RT3_RT4_RT5_E_clISt17integral_constantIbLb0EENS5_9TiledCopyINS5_9Copy_Atom..preheader137_crit_edge, %.preheader137.lr.ph
; BB37 :
  %.sroa.424.0 = phi <8 x float> [ zeroinitializer, %.preheader137.lr.ph ], [ %1513, %_ZZN7cutlass4fmha10collective15FMHAFwdMainloopINS0_9XeDefaultILi2EEELb0ELb0ELb0EN4cute8TiledMMAINS5_8MMA_AtomIJNS5_10XE_DPAS_TTILi8EfNS_10bfloat16_tES9_fEEEEENS5_6LayoutINS5_5tupleIJNS5_1CILi16EEENSE_ILi1EEESG_EEENSD_IJSG_NSE_ILi0EEESI_EEEEEKNSD_IJNSC_INSD_IJNSE_ILi8EEESF_NSE_ILi2EEEEEENSD_IJSG_SF_SL_EEEEENSC_INSE_ILi32EEESG_EESR_EEEEESU_Li4ENS5_6TensorINS5_10ViewEngineINS5_8gmem_ptrIPS9_EEEENSC_INSD_IJiiiiEEENSD_IJiSG_iiEEEEEEES14_NSV_IS10_NSC_IS11_NSD_IJSG_iiiEEEEEEES14_S17_vvvvvEclINSD_IJjjEEEEEvRKNSV_IS10_NSC_INSD_IJiiEEENSD_IJiSG_EEEEEEES1G_RKNSV_IS10_NSC_IS1B_NSD_IJSG_iEEEEEEERNS5_14SubgroupTensorINS5_11ArrayEngineIfLm128EEENSC_INSD_IJSL_SM_SM_NSE_ILi4EEEEEENSD_IJSG_SL_SF_SQ_EEEEENSC_INSD_IJSF_NSD_IJSL_NSD_IJSM_SM_EEES1P_EEEEEENSD_IJNS5_11ScaledBasisISG_JLi1EEEENSD_IJNS1W_ISG_JLi0EEEENSD_IJNS1W_ISL_JLi0EEEENS1W_ISF_JLi1EEEEEEENS1W_ISQ_JLi1EEEEEEEEEEEEEERNSV_INS1N_IfLm1EEENSC_ISG_SI_EEEES2B_T_iiiiiiiiiS1G_S1L_ENKUlS2C_iRT0_RT1_RT2_RT3_RT4_RT5_E_clISt17integral_constantIbLb0EENS5_9TiledCopyINS5_9Copy_Atom..preheader137_crit_edge ]
  %.sroa.396.0 = phi <8 x float> [ zeroinitializer, %.preheader137.lr.ph ], [ %1514, %_ZZN7cutlass4fmha10collective15FMHAFwdMainloopINS0_9XeDefaultILi2EEELb0ELb0ELb0EN4cute8TiledMMAINS5_8MMA_AtomIJNS5_10XE_DPAS_TTILi8EfNS_10bfloat16_tES9_fEEEEENS5_6LayoutINS5_5tupleIJNS5_1CILi16EEENSE_ILi1EEESG_EEENSD_IJSG_NSE_ILi0EEESI_EEEEEKNSD_IJNSC_INSD_IJNSE_ILi8EEESF_NSE_ILi2EEEEEENSD_IJSG_SF_SL_EEEEENSC_INSE_ILi32EEESG_EESR_EEEEESU_Li4ENS5_6TensorINS5_10ViewEngineINS5_8gmem_ptrIPS9_EEEENSC_INSD_IJiiiiEEENSD_IJiSG_iiEEEEEEES14_NSV_IS10_NSC_IS11_NSD_IJSG_iiiEEEEEEES14_S17_vvvvvEclINSD_IJjjEEEEEvRKNSV_IS10_NSC_INSD_IJiiEEENSD_IJiSG_EEEEEEES1G_RKNSV_IS10_NSC_IS1B_NSD_IJSG_iEEEEEEERNS5_14SubgroupTensorINS5_11ArrayEngineIfLm128EEENSC_INSD_IJSL_SM_SM_NSE_ILi4EEEEEENSD_IJSG_SL_SF_SQ_EEEEENSC_INSD_IJSF_NSD_IJSL_NSD_IJSM_SM_EEES1P_EEEEEENSD_IJNS5_11ScaledBasisISG_JLi1EEEENSD_IJNS1W_ISG_JLi0EEEENSD_IJNS1W_ISL_JLi0EEEENS1W_ISF_JLi1EEEEEEENS1W_ISQ_JLi1EEEEEEEEEEEEEERNSV_INS1N_IfLm1EEENSC_ISG_SI_EEEES2B_T_iiiiiiiiiS1G_S1L_ENKUlS2C_iRT0_RT1_RT2_RT3_RT4_RT5_E_clISt17integral_constantIbLb0EENS5_9TiledCopyINS5_9Copy_Atom..preheader137_crit_edge ]
  %.sroa.368.0 = phi <8 x float> [ zeroinitializer, %.preheader137.lr.ph ], [ %1512, %_ZZN7cutlass4fmha10collective15FMHAFwdMainloopINS0_9XeDefaultILi2EEELb0ELb0ELb0EN4cute8TiledMMAINS5_8MMA_AtomIJNS5_10XE_DPAS_TTILi8EfNS_10bfloat16_tES9_fEEEEENS5_6LayoutINS5_5tupleIJNS5_1CILi16EEENSE_ILi1EEESG_EEENSD_IJSG_NSE_ILi0EEESI_EEEEEKNSD_IJNSC_INSD_IJNSE_ILi8EEESF_NSE_ILi2EEEEEENSD_IJSG_SF_SL_EEEEENSC_INSE_ILi32EEESG_EESR_EEEEESU_Li4ENS5_6TensorINS5_10ViewEngineINS5_8gmem_ptrIPS9_EEEENSC_INSD_IJiiiiEEENSD_IJiSG_iiEEEEEEES14_NSV_IS10_NSC_IS11_NSD_IJSG_iiiEEEEEEES14_S17_vvvvvEclINSD_IJjjEEEEEvRKNSV_IS10_NSC_INSD_IJiiEEENSD_IJiSG_EEEEEEES1G_RKNSV_IS10_NSC_IS1B_NSD_IJSG_iEEEEEEERNS5_14SubgroupTensorINS5_11ArrayEngineIfLm128EEENSC_INSD_IJSL_SM_SM_NSE_ILi4EEEEEENSD_IJSG_SL_SF_SQ_EEEEENSC_INSD_IJSF_NSD_IJSL_NSD_IJSM_SM_EEES1P_EEEEEENSD_IJNS5_11ScaledBasisISG_JLi1EEEENSD_IJNS1W_ISG_JLi0EEEENSD_IJNS1W_ISL_JLi0EEEENS1W_ISF_JLi1EEEEEEENS1W_ISQ_JLi1EEEEEEEEEEEEEERNSV_INS1N_IfLm1EEENSC_ISG_SI_EEEES2B_T_iiiiiiiiiS1G_S1L_ENKUlS2C_iRT0_RT1_RT2_RT3_RT4_RT5_E_clISt17integral_constantIbLb0EENS5_9TiledCopyINS5_9Copy_Atom..preheader137_crit_edge ]
  %.sroa.340.0 = phi <8 x float> [ zeroinitializer, %.preheader137.lr.ph ], [ %1511, %_ZZN7cutlass4fmha10collective15FMHAFwdMainloopINS0_9XeDefaultILi2EEELb0ELb0ELb0EN4cute8TiledMMAINS5_8MMA_AtomIJNS5_10XE_DPAS_TTILi8EfNS_10bfloat16_tES9_fEEEEENS5_6LayoutINS5_5tupleIJNS5_1CILi16EEENSE_ILi1EEESG_EEENSD_IJSG_NSE_ILi0EEESI_EEEEEKNSD_IJNSC_INSD_IJNSE_ILi8EEESF_NSE_ILi2EEEEEENSD_IJSG_SF_SL_EEEEENSC_INSE_ILi32EEESG_EESR_EEEEESU_Li4ENS5_6TensorINS5_10ViewEngineINS5_8gmem_ptrIPS9_EEEENSC_INSD_IJiiiiEEENSD_IJiSG_iiEEEEEEES14_NSV_IS10_NSC_IS11_NSD_IJSG_iiiEEEEEEES14_S17_vvvvvEclINSD_IJjjEEEEEvRKNSV_IS10_NSC_INSD_IJiiEEENSD_IJiSG_EEEEEEES1G_RKNSV_IS10_NSC_IS1B_NSD_IJSG_iEEEEEEERNS5_14SubgroupTensorINS5_11ArrayEngineIfLm128EEENSC_INSD_IJSL_SM_SM_NSE_ILi4EEEEEENSD_IJSG_SL_SF_SQ_EEEEENSC_INSD_IJSF_NSD_IJSL_NSD_IJSM_SM_EEES1P_EEEEEENSD_IJNS5_11ScaledBasisISG_JLi1EEEENSD_IJNS1W_ISG_JLi0EEEENSD_IJNS1W_ISL_JLi0EEEENS1W_ISF_JLi1EEEEEEENS1W_ISQ_JLi1EEEEEEEEEEEEEERNSV_INS1N_IfLm1EEENSC_ISG_SI_EEEES2B_T_iiiiiiiiiS1G_S1L_ENKUlS2C_iRT0_RT1_RT2_RT3_RT4_RT5_E_clISt17integral_constantIbLb0EENS5_9TiledCopyINS5_9Copy_Atom..preheader137_crit_edge ]
  %.sroa.312.0 = phi <8 x float> [ zeroinitializer, %.preheader137.lr.ph ], [ %1375, %_ZZN7cutlass4fmha10collective15FMHAFwdMainloopINS0_9XeDefaultILi2EEELb0ELb0ELb0EN4cute8TiledMMAINS5_8MMA_AtomIJNS5_10XE_DPAS_TTILi8EfNS_10bfloat16_tES9_fEEEEENS5_6LayoutINS5_5tupleIJNS5_1CILi16EEENSE_ILi1EEESG_EEENSD_IJSG_NSE_ILi0EEESI_EEEEEKNSD_IJNSC_INSD_IJNSE_ILi8EEESF_NSE_ILi2EEEEEENSD_IJSG_SF_SL_EEEEENSC_INSE_ILi32EEESG_EESR_EEEEESU_Li4ENS5_6TensorINS5_10ViewEngineINS5_8gmem_ptrIPS9_EEEENSC_INSD_IJiiiiEEENSD_IJiSG_iiEEEEEEES14_NSV_IS10_NSC_IS11_NSD_IJSG_iiiEEEEEEES14_S17_vvvvvEclINSD_IJjjEEEEEvRKNSV_IS10_NSC_INSD_IJiiEEENSD_IJiSG_EEEEEEES1G_RKNSV_IS10_NSC_IS1B_NSD_IJSG_iEEEEEEERNS5_14SubgroupTensorINS5_11ArrayEngineIfLm128EEENSC_INSD_IJSL_SM_SM_NSE_ILi4EEEEEENSD_IJSG_SL_SF_SQ_EEEEENSC_INSD_IJSF_NSD_IJSL_NSD_IJSM_SM_EEES1P_EEEEEENSD_IJNS5_11ScaledBasisISG_JLi1EEEENSD_IJNS1W_ISG_JLi0EEEENSD_IJNS1W_ISL_JLi0EEEENS1W_ISF_JLi1EEEEEEENS1W_ISQ_JLi1EEEEEEEEEEEEEERNSV_INS1N_IfLm1EEENSC_ISG_SI_EEEES2B_T_iiiiiiiiiS1G_S1L_ENKUlS2C_iRT0_RT1_RT2_RT3_RT4_RT5_E_clISt17integral_constantIbLb0EENS5_9TiledCopyINS5_9Copy_Atom..preheader137_crit_edge ]
  %.sroa.284.0 = phi <8 x float> [ zeroinitializer, %.preheader137.lr.ph ], [ %1376, %_ZZN7cutlass4fmha10collective15FMHAFwdMainloopINS0_9XeDefaultILi2EEELb0ELb0ELb0EN4cute8TiledMMAINS5_8MMA_AtomIJNS5_10XE_DPAS_TTILi8EfNS_10bfloat16_tES9_fEEEEENS5_6LayoutINS5_5tupleIJNS5_1CILi16EEENSE_ILi1EEESG_EEENSD_IJSG_NSE_ILi0EEESI_EEEEEKNSD_IJNSC_INSD_IJNSE_ILi8EEESF_NSE_ILi2EEEEEENSD_IJSG_SF_SL_EEEEENSC_INSE_ILi32EEESG_EESR_EEEEESU_Li4ENS5_6TensorINS5_10ViewEngineINS5_8gmem_ptrIPS9_EEEENSC_INSD_IJiiiiEEENSD_IJiSG_iiEEEEEEES14_NSV_IS10_NSC_IS11_NSD_IJSG_iiiEEEEEEES14_S17_vvvvvEclINSD_IJjjEEEEEvRKNSV_IS10_NSC_INSD_IJiiEEENSD_IJiSG_EEEEEEES1G_RKNSV_IS10_NSC_IS1B_NSD_IJSG_iEEEEEEERNS5_14SubgroupTensorINS5_11ArrayEngineIfLm128EEENSC_INSD_IJSL_SM_SM_NSE_ILi4EEEEEENSD_IJSG_SL_SF_SQ_EEEEENSC_INSD_IJSF_NSD_IJSL_NSD_IJSM_SM_EEES1P_EEEEEENSD_IJNS5_11ScaledBasisISG_JLi1EEEENSD_IJNS1W_ISG_JLi0EEEENSD_IJNS1W_ISL_JLi0EEEENS1W_ISF_JLi1EEEEEEENS1W_ISQ_JLi1EEEEEEEEEEEEEERNSV_INS1N_IfLm1EEENSC_ISG_SI_EEEES2B_T_iiiiiiiiiS1G_S1L_ENKUlS2C_iRT0_RT1_RT2_RT3_RT4_RT5_E_clISt17integral_constantIbLb0EENS5_9TiledCopyINS5_9Copy_Atom..preheader137_crit_edge ]
  %.sroa.256.0 = phi <8 x float> [ zeroinitializer, %.preheader137.lr.ph ], [ %1374, %_ZZN7cutlass4fmha10collective15FMHAFwdMainloopINS0_9XeDefaultILi2EEELb0ELb0ELb0EN4cute8TiledMMAINS5_8MMA_AtomIJNS5_10XE_DPAS_TTILi8EfNS_10bfloat16_tES9_fEEEEENS5_6LayoutINS5_5tupleIJNS5_1CILi16EEENSE_ILi1EEESG_EEENSD_IJSG_NSE_ILi0EEESI_EEEEEKNSD_IJNSC_INSD_IJNSE_ILi8EEESF_NSE_ILi2EEEEEENSD_IJSG_SF_SL_EEEEENSC_INSE_ILi32EEESG_EESR_EEEEESU_Li4ENS5_6TensorINS5_10ViewEngineINS5_8gmem_ptrIPS9_EEEENSC_INSD_IJiiiiEEENSD_IJiSG_iiEEEEEEES14_NSV_IS10_NSC_IS11_NSD_IJSG_iiiEEEEEEES14_S17_vvvvvEclINSD_IJjjEEEEEvRKNSV_IS10_NSC_INSD_IJiiEEENSD_IJiSG_EEEEEEES1G_RKNSV_IS10_NSC_IS1B_NSD_IJSG_iEEEEEEERNS5_14SubgroupTensorINS5_11ArrayEngineIfLm128EEENSC_INSD_IJSL_SM_SM_NSE_ILi4EEEEEENSD_IJSG_SL_SF_SQ_EEEEENSC_INSD_IJSF_NSD_IJSL_NSD_IJSM_SM_EEES1P_EEEEEENSD_IJNS5_11ScaledBasisISG_JLi1EEEENSD_IJNS1W_ISG_JLi0EEEENSD_IJNS1W_ISL_JLi0EEEENS1W_ISF_JLi1EEEEEEENS1W_ISQ_JLi1EEEEEEEEEEEEEERNSV_INS1N_IfLm1EEENSC_ISG_SI_EEEES2B_T_iiiiiiiiiS1G_S1L_ENKUlS2C_iRT0_RT1_RT2_RT3_RT4_RT5_E_clISt17integral_constantIbLb0EENS5_9TiledCopyINS5_9Copy_Atom..preheader137_crit_edge ]
  %.sroa.228.0 = phi <8 x float> [ zeroinitializer, %.preheader137.lr.ph ], [ %1373, %_ZZN7cutlass4fmha10collective15FMHAFwdMainloopINS0_9XeDefaultILi2EEELb0ELb0ELb0EN4cute8TiledMMAINS5_8MMA_AtomIJNS5_10XE_DPAS_TTILi8EfNS_10bfloat16_tES9_fEEEEENS5_6LayoutINS5_5tupleIJNS5_1CILi16EEENSE_ILi1EEESG_EEENSD_IJSG_NSE_ILi0EEESI_EEEEEKNSD_IJNSC_INSD_IJNSE_ILi8EEESF_NSE_ILi2EEEEEENSD_IJSG_SF_SL_EEEEENSC_INSE_ILi32EEESG_EESR_EEEEESU_Li4ENS5_6TensorINS5_10ViewEngineINS5_8gmem_ptrIPS9_EEEENSC_INSD_IJiiiiEEENSD_IJiSG_iiEEEEEEES14_NSV_IS10_NSC_IS11_NSD_IJSG_iiiEEEEEEES14_S17_vvvvvEclINSD_IJjjEEEEEvRKNSV_IS10_NSC_INSD_IJiiEEENSD_IJiSG_EEEEEEES1G_RKNSV_IS10_NSC_IS1B_NSD_IJSG_iEEEEEEERNS5_14SubgroupTensorINS5_11ArrayEngineIfLm128EEENSC_INSD_IJSL_SM_SM_NSE_ILi4EEEEEENSD_IJSG_SL_SF_SQ_EEEEENSC_INSD_IJSF_NSD_IJSL_NSD_IJSM_SM_EEES1P_EEEEEENSD_IJNS5_11ScaledBasisISG_JLi1EEEENSD_IJNS1W_ISG_JLi0EEEENSD_IJNS1W_ISL_JLi0EEEENS1W_ISF_JLi1EEEEEEENS1W_ISQ_JLi1EEEEEEEEEEEEEERNSV_INS1N_IfLm1EEENSC_ISG_SI_EEEES2B_T_iiiiiiiiiS1G_S1L_ENKUlS2C_iRT0_RT1_RT2_RT3_RT4_RT5_E_clISt17integral_constantIbLb0EENS5_9TiledCopyINS5_9Copy_Atom..preheader137_crit_edge ]
  %.sroa.200.0 = phi <8 x float> [ zeroinitializer, %.preheader137.lr.ph ], [ %1237, %_ZZN7cutlass4fmha10collective15FMHAFwdMainloopINS0_9XeDefaultILi2EEELb0ELb0ELb0EN4cute8TiledMMAINS5_8MMA_AtomIJNS5_10XE_DPAS_TTILi8EfNS_10bfloat16_tES9_fEEEEENS5_6LayoutINS5_5tupleIJNS5_1CILi16EEENSE_ILi1EEESG_EEENSD_IJSG_NSE_ILi0EEESI_EEEEEKNSD_IJNSC_INSD_IJNSE_ILi8EEESF_NSE_ILi2EEEEEENSD_IJSG_SF_SL_EEEEENSC_INSE_ILi32EEESG_EESR_EEEEESU_Li4ENS5_6TensorINS5_10ViewEngineINS5_8gmem_ptrIPS9_EEEENSC_INSD_IJiiiiEEENSD_IJiSG_iiEEEEEEES14_NSV_IS10_NSC_IS11_NSD_IJSG_iiiEEEEEEES14_S17_vvvvvEclINSD_IJjjEEEEEvRKNSV_IS10_NSC_INSD_IJiiEEENSD_IJiSG_EEEEEEES1G_RKNSV_IS10_NSC_IS1B_NSD_IJSG_iEEEEEEERNS5_14SubgroupTensorINS5_11ArrayEngineIfLm128EEENSC_INSD_IJSL_SM_SM_NSE_ILi4EEEEEENSD_IJSG_SL_SF_SQ_EEEEENSC_INSD_IJSF_NSD_IJSL_NSD_IJSM_SM_EEES1P_EEEEEENSD_IJNS5_11ScaledBasisISG_JLi1EEEENSD_IJNS1W_ISG_JLi0EEEENSD_IJNS1W_ISL_JLi0EEEENS1W_ISF_JLi1EEEEEEENS1W_ISQ_JLi1EEEEEEEEEEEEEERNSV_INS1N_IfLm1EEENSC_ISG_SI_EEEES2B_T_iiiiiiiiiS1G_S1L_ENKUlS2C_iRT0_RT1_RT2_RT3_RT4_RT5_E_clISt17integral_constantIbLb0EENS5_9TiledCopyINS5_9Copy_Atom..preheader137_crit_edge ]
  %.sroa.172.0 = phi <8 x float> [ zeroinitializer, %.preheader137.lr.ph ], [ %1238, %_ZZN7cutlass4fmha10collective15FMHAFwdMainloopINS0_9XeDefaultILi2EEELb0ELb0ELb0EN4cute8TiledMMAINS5_8MMA_AtomIJNS5_10XE_DPAS_TTILi8EfNS_10bfloat16_tES9_fEEEEENS5_6LayoutINS5_5tupleIJNS5_1CILi16EEENSE_ILi1EEESG_EEENSD_IJSG_NSE_ILi0EEESI_EEEEEKNSD_IJNSC_INSD_IJNSE_ILi8EEESF_NSE_ILi2EEEEEENSD_IJSG_SF_SL_EEEEENSC_INSE_ILi32EEESG_EESR_EEEEESU_Li4ENS5_6TensorINS5_10ViewEngineINS5_8gmem_ptrIPS9_EEEENSC_INSD_IJiiiiEEENSD_IJiSG_iiEEEEEEES14_NSV_IS10_NSC_IS11_NSD_IJSG_iiiEEEEEEES14_S17_vvvvvEclINSD_IJjjEEEEEvRKNSV_IS10_NSC_INSD_IJiiEEENSD_IJiSG_EEEEEEES1G_RKNSV_IS10_NSC_IS1B_NSD_IJSG_iEEEEEEERNS5_14SubgroupTensorINS5_11ArrayEngineIfLm128EEENSC_INSD_IJSL_SM_SM_NSE_ILi4EEEEEENSD_IJSG_SL_SF_SQ_EEEEENSC_INSD_IJSF_NSD_IJSL_NSD_IJSM_SM_EEES1P_EEEEEENSD_IJNS5_11ScaledBasisISG_JLi1EEEENSD_IJNS1W_ISG_JLi0EEEENSD_IJNS1W_ISL_JLi0EEEENS1W_ISF_JLi1EEEEEEENS1W_ISQ_JLi1EEEEEEEEEEEEEERNSV_INS1N_IfLm1EEENSC_ISG_SI_EEEES2B_T_iiiiiiiiiS1G_S1L_ENKUlS2C_iRT0_RT1_RT2_RT3_RT4_RT5_E_clISt17integral_constantIbLb0EENS5_9TiledCopyINS5_9Copy_Atom..preheader137_crit_edge ]
  %.sroa.144.0 = phi <8 x float> [ zeroinitializer, %.preheader137.lr.ph ], [ %1236, %_ZZN7cutlass4fmha10collective15FMHAFwdMainloopINS0_9XeDefaultILi2EEELb0ELb0ELb0EN4cute8TiledMMAINS5_8MMA_AtomIJNS5_10XE_DPAS_TTILi8EfNS_10bfloat16_tES9_fEEEEENS5_6LayoutINS5_5tupleIJNS5_1CILi16EEENSE_ILi1EEESG_EEENSD_IJSG_NSE_ILi0EEESI_EEEEEKNSD_IJNSC_INSD_IJNSE_ILi8EEESF_NSE_ILi2EEEEEENSD_IJSG_SF_SL_EEEEENSC_INSE_ILi32EEESG_EESR_EEEEESU_Li4ENS5_6TensorINS5_10ViewEngineINS5_8gmem_ptrIPS9_EEEENSC_INSD_IJiiiiEEENSD_IJiSG_iiEEEEEEES14_NSV_IS10_NSC_IS11_NSD_IJSG_iiiEEEEEEES14_S17_vvvvvEclINSD_IJjjEEEEEvRKNSV_IS10_NSC_INSD_IJiiEEENSD_IJiSG_EEEEEEES1G_RKNSV_IS10_NSC_IS1B_NSD_IJSG_iEEEEEEERNS5_14SubgroupTensorINS5_11ArrayEngineIfLm128EEENSC_INSD_IJSL_SM_SM_NSE_ILi4EEEEEENSD_IJSG_SL_SF_SQ_EEEEENSC_INSD_IJSF_NSD_IJSL_NSD_IJSM_SM_EEES1P_EEEEEENSD_IJNS5_11ScaledBasisISG_JLi1EEEENSD_IJNS1W_ISG_JLi0EEEENSD_IJNS1W_ISL_JLi0EEEENS1W_ISF_JLi1EEEEEEENS1W_ISQ_JLi1EEEEEEEEEEEEEERNSV_INS1N_IfLm1EEENSC_ISG_SI_EEEES2B_T_iiiiiiiiiS1G_S1L_ENKUlS2C_iRT0_RT1_RT2_RT3_RT4_RT5_E_clISt17integral_constantIbLb0EENS5_9TiledCopyINS5_9Copy_Atom..preheader137_crit_edge ]
  %.sroa.116.0 = phi <8 x float> [ zeroinitializer, %.preheader137.lr.ph ], [ %1235, %_ZZN7cutlass4fmha10collective15FMHAFwdMainloopINS0_9XeDefaultILi2EEELb0ELb0ELb0EN4cute8TiledMMAINS5_8MMA_AtomIJNS5_10XE_DPAS_TTILi8EfNS_10bfloat16_tES9_fEEEEENS5_6LayoutINS5_5tupleIJNS5_1CILi16EEENSE_ILi1EEESG_EEENSD_IJSG_NSE_ILi0EEESI_EEEEEKNSD_IJNSC_INSD_IJNSE_ILi8EEESF_NSE_ILi2EEEEEENSD_IJSG_SF_SL_EEEEENSC_INSE_ILi32EEESG_EESR_EEEEESU_Li4ENS5_6TensorINS5_10ViewEngineINS5_8gmem_ptrIPS9_EEEENSC_INSD_IJiiiiEEENSD_IJiSG_iiEEEEEEES14_NSV_IS10_NSC_IS11_NSD_IJSG_iiiEEEEEEES14_S17_vvvvvEclINSD_IJjjEEEEEvRKNSV_IS10_NSC_INSD_IJiiEEENSD_IJiSG_EEEEEEES1G_RKNSV_IS10_NSC_IS1B_NSD_IJSG_iEEEEEEERNS5_14SubgroupTensorINS5_11ArrayEngineIfLm128EEENSC_INSD_IJSL_SM_SM_NSE_ILi4EEEEEENSD_IJSG_SL_SF_SQ_EEEEENSC_INSD_IJSF_NSD_IJSL_NSD_IJSM_SM_EEES1P_EEEEEENSD_IJNS5_11ScaledBasisISG_JLi1EEEENSD_IJNS1W_ISG_JLi0EEEENSD_IJNS1W_ISL_JLi0EEEENS1W_ISF_JLi1EEEEEEENS1W_ISQ_JLi1EEEEEEEEEEEEEERNSV_INS1N_IfLm1EEENSC_ISG_SI_EEEES2B_T_iiiiiiiiiS1G_S1L_ENKUlS2C_iRT0_RT1_RT2_RT3_RT4_RT5_E_clISt17integral_constantIbLb0EENS5_9TiledCopyINS5_9Copy_Atom..preheader137_crit_edge ]
  %.sroa.88.0 = phi <8 x float> [ zeroinitializer, %.preheader137.lr.ph ], [ %1099, %_ZZN7cutlass4fmha10collective15FMHAFwdMainloopINS0_9XeDefaultILi2EEELb0ELb0ELb0EN4cute8TiledMMAINS5_8MMA_AtomIJNS5_10XE_DPAS_TTILi8EfNS_10bfloat16_tES9_fEEEEENS5_6LayoutINS5_5tupleIJNS5_1CILi16EEENSE_ILi1EEESG_EEENSD_IJSG_NSE_ILi0EEESI_EEEEEKNSD_IJNSC_INSD_IJNSE_ILi8EEESF_NSE_ILi2EEEEEENSD_IJSG_SF_SL_EEEEENSC_INSE_ILi32EEESG_EESR_EEEEESU_Li4ENS5_6TensorINS5_10ViewEngineINS5_8gmem_ptrIPS9_EEEENSC_INSD_IJiiiiEEENSD_IJiSG_iiEEEEEEES14_NSV_IS10_NSC_IS11_NSD_IJSG_iiiEEEEEEES14_S17_vvvvvEclINSD_IJjjEEEEEvRKNSV_IS10_NSC_INSD_IJiiEEENSD_IJiSG_EEEEEEES1G_RKNSV_IS10_NSC_IS1B_NSD_IJSG_iEEEEEEERNS5_14SubgroupTensorINS5_11ArrayEngineIfLm128EEENSC_INSD_IJSL_SM_SM_NSE_ILi4EEEEEENSD_IJSG_SL_SF_SQ_EEEEENSC_INSD_IJSF_NSD_IJSL_NSD_IJSM_SM_EEES1P_EEEEEENSD_IJNS5_11ScaledBasisISG_JLi1EEEENSD_IJNS1W_ISG_JLi0EEEENSD_IJNS1W_ISL_JLi0EEEENS1W_ISF_JLi1EEEEEEENS1W_ISQ_JLi1EEEEEEEEEEEEEERNSV_INS1N_IfLm1EEENSC_ISG_SI_EEEES2B_T_iiiiiiiiiS1G_S1L_ENKUlS2C_iRT0_RT1_RT2_RT3_RT4_RT5_E_clISt17integral_constantIbLb0EENS5_9TiledCopyINS5_9Copy_Atom..preheader137_crit_edge ]
  %.sroa.60.0 = phi <8 x float> [ zeroinitializer, %.preheader137.lr.ph ], [ %1100, %_ZZN7cutlass4fmha10collective15FMHAFwdMainloopINS0_9XeDefaultILi2EEELb0ELb0ELb0EN4cute8TiledMMAINS5_8MMA_AtomIJNS5_10XE_DPAS_TTILi8EfNS_10bfloat16_tES9_fEEEEENS5_6LayoutINS5_5tupleIJNS5_1CILi16EEENSE_ILi1EEESG_EEENSD_IJSG_NSE_ILi0EEESI_EEEEEKNSD_IJNSC_INSD_IJNSE_ILi8EEESF_NSE_ILi2EEEEEENSD_IJSG_SF_SL_EEEEENSC_INSE_ILi32EEESG_EESR_EEEEESU_Li4ENS5_6TensorINS5_10ViewEngineINS5_8gmem_ptrIPS9_EEEENSC_INSD_IJiiiiEEENSD_IJiSG_iiEEEEEEES14_NSV_IS10_NSC_IS11_NSD_IJSG_iiiEEEEEEES14_S17_vvvvvEclINSD_IJjjEEEEEvRKNSV_IS10_NSC_INSD_IJiiEEENSD_IJiSG_EEEEEEES1G_RKNSV_IS10_NSC_IS1B_NSD_IJSG_iEEEEEEERNS5_14SubgroupTensorINS5_11ArrayEngineIfLm128EEENSC_INSD_IJSL_SM_SM_NSE_ILi4EEEEEENSD_IJSG_SL_SF_SQ_EEEEENSC_INSD_IJSF_NSD_IJSL_NSD_IJSM_SM_EEES1P_EEEEEENSD_IJNS5_11ScaledBasisISG_JLi1EEEENSD_IJNS1W_ISG_JLi0EEEENSD_IJNS1W_ISL_JLi0EEEENS1W_ISF_JLi1EEEEEEENS1W_ISQ_JLi1EEEEEEEEEEEEEERNSV_INS1N_IfLm1EEENSC_ISG_SI_EEEES2B_T_iiiiiiiiiS1G_S1L_ENKUlS2C_iRT0_RT1_RT2_RT3_RT4_RT5_E_clISt17integral_constantIbLb0EENS5_9TiledCopyINS5_9Copy_Atom..preheader137_crit_edge ]
  %.sroa.32.0 = phi <8 x float> [ zeroinitializer, %.preheader137.lr.ph ], [ %1098, %_ZZN7cutlass4fmha10collective15FMHAFwdMainloopINS0_9XeDefaultILi2EEELb0ELb0ELb0EN4cute8TiledMMAINS5_8MMA_AtomIJNS5_10XE_DPAS_TTILi8EfNS_10bfloat16_tES9_fEEEEENS5_6LayoutINS5_5tupleIJNS5_1CILi16EEENSE_ILi1EEESG_EEENSD_IJSG_NSE_ILi0EEESI_EEEEEKNSD_IJNSC_INSD_IJNSE_ILi8EEESF_NSE_ILi2EEEEEENSD_IJSG_SF_SL_EEEEENSC_INSE_ILi32EEESG_EESR_EEEEESU_Li4ENS5_6TensorINS5_10ViewEngineINS5_8gmem_ptrIPS9_EEEENSC_INSD_IJiiiiEEENSD_IJiSG_iiEEEEEEES14_NSV_IS10_NSC_IS11_NSD_IJSG_iiiEEEEEEES14_S17_vvvvvEclINSD_IJjjEEEEEvRKNSV_IS10_NSC_INSD_IJiiEEENSD_IJiSG_EEEEEEES1G_RKNSV_IS10_NSC_IS1B_NSD_IJSG_iEEEEEEERNS5_14SubgroupTensorINS5_11ArrayEngineIfLm128EEENSC_INSD_IJSL_SM_SM_NSE_ILi4EEEEEENSD_IJSG_SL_SF_SQ_EEEEENSC_INSD_IJSF_NSD_IJSL_NSD_IJSM_SM_EEES1P_EEEEEENSD_IJNS5_11ScaledBasisISG_JLi1EEEENSD_IJNS1W_ISG_JLi0EEEENSD_IJNS1W_ISL_JLi0EEEENS1W_ISF_JLi1EEEEEEENS1W_ISQ_JLi1EEEEEEEEEEEEEERNSV_INS1N_IfLm1EEENSC_ISG_SI_EEEES2B_T_iiiiiiiiiS1G_S1L_ENKUlS2C_iRT0_RT1_RT2_RT3_RT4_RT5_E_clISt17integral_constantIbLb0EENS5_9TiledCopyINS5_9Copy_Atom..preheader137_crit_edge ]
  %.sroa.0.0 = phi <8 x float> [ zeroinitializer, %.preheader137.lr.ph ], [ %1097, %_ZZN7cutlass4fmha10collective15FMHAFwdMainloopINS0_9XeDefaultILi2EEELb0ELb0ELb0EN4cute8TiledMMAINS5_8MMA_AtomIJNS5_10XE_DPAS_TTILi8EfNS_10bfloat16_tES9_fEEEEENS5_6LayoutINS5_5tupleIJNS5_1CILi16EEENSE_ILi1EEESG_EEENSD_IJSG_NSE_ILi0EEESI_EEEEEKNSD_IJNSC_INSD_IJNSE_ILi8EEESF_NSE_ILi2EEEEEENSD_IJSG_SF_SL_EEEEENSC_INSE_ILi32EEESG_EESR_EEEEESU_Li4ENS5_6TensorINS5_10ViewEngineINS5_8gmem_ptrIPS9_EEEENSC_INSD_IJiiiiEEENSD_IJiSG_iiEEEEEEES14_NSV_IS10_NSC_IS11_NSD_IJSG_iiiEEEEEEES14_S17_vvvvvEclINSD_IJjjEEEEEvRKNSV_IS10_NSC_INSD_IJiiEEENSD_IJiSG_EEEEEEES1G_RKNSV_IS10_NSC_IS1B_NSD_IJSG_iEEEEEEERNS5_14SubgroupTensorINS5_11ArrayEngineIfLm128EEENSC_INSD_IJSL_SM_SM_NSE_ILi4EEEEEENSD_IJSG_SL_SF_SQ_EEEEENSC_INSD_IJSF_NSD_IJSL_NSD_IJSM_SM_EEES1P_EEEEEENSD_IJNS5_11ScaledBasisISG_JLi1EEEENSD_IJNS1W_ISG_JLi0EEEENSD_IJNS1W_ISL_JLi0EEEENS1W_ISF_JLi1EEEEEEENS1W_ISQ_JLi1EEEEEEEEEEEEEERNSV_INS1N_IfLm1EEENSC_ISG_SI_EEEES2B_T_iiiiiiiiiS1G_S1L_ENKUlS2C_iRT0_RT1_RT2_RT3_RT4_RT5_E_clISt17integral_constantIbLb0EENS5_9TiledCopyINS5_9Copy_Atom..preheader137_crit_edge ]
  %indvars.iv = phi i32 [ %200, %.preheader137.lr.ph ], [ %indvars.iv.next, %_ZZN7cutlass4fmha10collective15FMHAFwdMainloopINS0_9XeDefaultILi2EEELb0ELb0ELb0EN4cute8TiledMMAINS5_8MMA_AtomIJNS5_10XE_DPAS_TTILi8EfNS_10bfloat16_tES9_fEEEEENS5_6LayoutINS5_5tupleIJNS5_1CILi16EEENSE_ILi1EEESG_EEENSD_IJSG_NSE_ILi0EEESI_EEEEEKNSD_IJNSC_INSD_IJNSE_ILi8EEESF_NSE_ILi2EEEEEENSD_IJSG_SF_SL_EEEEENSC_INSE_ILi32EEESG_EESR_EEEEESU_Li4ENS5_6TensorINS5_10ViewEngineINS5_8gmem_ptrIPS9_EEEENSC_INSD_IJiiiiEEENSD_IJiSG_iiEEEEEEES14_NSV_IS10_NSC_IS11_NSD_IJSG_iiiEEEEEEES14_S17_vvvvvEclINSD_IJjjEEEEEvRKNSV_IS10_NSC_INSD_IJiiEEENSD_IJiSG_EEEEEEES1G_RKNSV_IS10_NSC_IS1B_NSD_IJSG_iEEEEEEERNS5_14SubgroupTensorINS5_11ArrayEngineIfLm128EEENSC_INSD_IJSL_SM_SM_NSE_ILi4EEEEEENSD_IJSG_SL_SF_SQ_EEEEENSC_INSD_IJSF_NSD_IJSL_NSD_IJSM_SM_EEES1P_EEEEEENSD_IJNS5_11ScaledBasisISG_JLi1EEEENSD_IJNS1W_ISG_JLi0EEEENSD_IJNS1W_ISL_JLi0EEEENS1W_ISF_JLi1EEEEEEENS1W_ISQ_JLi1EEEEEEEEEEEEEERNSV_INS1N_IfLm1EEENSC_ISG_SI_EEEES2B_T_iiiiiiiiiS1G_S1L_ENKUlS2C_iRT0_RT1_RT2_RT3_RT4_RT5_E_clISt17integral_constantIbLb0EENS5_9TiledCopyINS5_9Copy_Atom..preheader137_crit_edge ]
  %206 = phi i32 [ %196, %.preheader137.lr.ph ], [ %1525, %_ZZN7cutlass4fmha10collective15FMHAFwdMainloopINS0_9XeDefaultILi2EEELb0ELb0ELb0EN4cute8TiledMMAINS5_8MMA_AtomIJNS5_10XE_DPAS_TTILi8EfNS_10bfloat16_tES9_fEEEEENS5_6LayoutINS5_5tupleIJNS5_1CILi16EEENSE_ILi1EEESG_EEENSD_IJSG_NSE_ILi0EEESI_EEEEEKNSD_IJNSC_INSD_IJNSE_ILi8EEESF_NSE_ILi2EEEEEENSD_IJSG_SF_SL_EEEEENSC_INSE_ILi32EEESG_EESR_EEEEESU_Li4ENS5_6TensorINS5_10ViewEngineINS5_8gmem_ptrIPS9_EEEENSC_INSD_IJiiiiEEENSD_IJiSG_iiEEEEEEES14_NSV_IS10_NSC_IS11_NSD_IJSG_iiiEEEEEEES14_S17_vvvvvEclINSD_IJjjEEEEEvRKNSV_IS10_NSC_INSD_IJiiEEENSD_IJiSG_EEEEEEES1G_RKNSV_IS10_NSC_IS1B_NSD_IJSG_iEEEEEEERNS5_14SubgroupTensorINS5_11ArrayEngineIfLm128EEENSC_INSD_IJSL_SM_SM_NSE_ILi4EEEEEENSD_IJSG_SL_SF_SQ_EEEEENSC_INSD_IJSF_NSD_IJSL_NSD_IJSM_SM_EEES1P_EEEEEENSD_IJNS5_11ScaledBasisISG_JLi1EEEENSD_IJNS1W_ISG_JLi0EEEENSD_IJNS1W_ISL_JLi0EEEENS1W_ISF_JLi1EEEEEEENS1W_ISQ_JLi1EEEEEEEEEEEEEERNSV_INS1N_IfLm1EEENSC_ISG_SI_EEEES2B_T_iiiiiiiiiS1G_S1L_ENKUlS2C_iRT0_RT1_RT2_RT3_RT4_RT5_E_clISt17integral_constantIbLb0EENS5_9TiledCopyINS5_9Copy_Atom..preheader137_crit_edge ]
  %.sroa.0121.1144 = phi float [ 0xC7EFFFFFE0000000, %.preheader137.lr.ph ], [ %588, %_ZZN7cutlass4fmha10collective15FMHAFwdMainloopINS0_9XeDefaultILi2EEELb0ELb0ELb0EN4cute8TiledMMAINS5_8MMA_AtomIJNS5_10XE_DPAS_TTILi8EfNS_10bfloat16_tES9_fEEEEENS5_6LayoutINS5_5tupleIJNS5_1CILi16EEENSE_ILi1EEESG_EEENSD_IJSG_NSE_ILi0EEESI_EEEEEKNSD_IJNSC_INSD_IJNSE_ILi8EEESF_NSE_ILi2EEEEEENSD_IJSG_SF_SL_EEEEENSC_INSE_ILi32EEESG_EESR_EEEEESU_Li4ENS5_6TensorINS5_10ViewEngineINS5_8gmem_ptrIPS9_EEEENSC_INSD_IJiiiiEEENSD_IJiSG_iiEEEEEEES14_NSV_IS10_NSC_IS11_NSD_IJSG_iiiEEEEEEES14_S17_vvvvvEclINSD_IJjjEEEEEvRKNSV_IS10_NSC_INSD_IJiiEEENSD_IJiSG_EEEEEEES1G_RKNSV_IS10_NSC_IS1B_NSD_IJSG_iEEEEEEERNS5_14SubgroupTensorINS5_11ArrayEngineIfLm128EEENSC_INSD_IJSL_SM_SM_NSE_ILi4EEEEEENSD_IJSG_SL_SF_SQ_EEEEENSC_INSD_IJSF_NSD_IJSL_NSD_IJSM_SM_EEES1P_EEEEEENSD_IJNS5_11ScaledBasisISG_JLi1EEEENSD_IJNS1W_ISG_JLi0EEEENSD_IJNS1W_ISL_JLi0EEEENS1W_ISF_JLi1EEEEEEENS1W_ISQ_JLi1EEEEEEEEEEEEEERNSV_INS1N_IfLm1EEENSC_ISG_SI_EEEES2B_T_iiiiiiiiiS1G_S1L_ENKUlS2C_iRT0_RT1_RT2_RT3_RT4_RT5_E_clISt17integral_constantIbLb0EENS5_9TiledCopyINS5_9Copy_Atom..preheader137_crit_edge ]
  %.sroa.0114.1143 = phi float [ 0.000000e+00, %.preheader137.lr.ph ], [ %1515, %_ZZN7cutlass4fmha10collective15FMHAFwdMainloopINS0_9XeDefaultILi2EEELb0ELb0ELb0EN4cute8TiledMMAINS5_8MMA_AtomIJNS5_10XE_DPAS_TTILi8EfNS_10bfloat16_tES9_fEEEEENS5_6LayoutINS5_5tupleIJNS5_1CILi16EEENSE_ILi1EEESG_EEENSD_IJSG_NSE_ILi0EEESI_EEEEEKNSD_IJNSC_INSD_IJNSE_ILi8EEESF_NSE_ILi2EEEEEENSD_IJSG_SF_SL_EEEEENSC_INSE_ILi32EEESG_EESR_EEEEESU_Li4ENS5_6TensorINS5_10ViewEngineINS5_8gmem_ptrIPS9_EEEENSC_INSD_IJiiiiEEENSD_IJiSG_iiEEEEEEES14_NSV_IS10_NSC_IS11_NSD_IJSG_iiiEEEEEEES14_S17_vvvvvEclINSD_IJjjEEEEEvRKNSV_IS10_NSC_INSD_IJiiEEENSD_IJiSG_EEEEEEES1G_RKNSV_IS10_NSC_IS1B_NSD_IJSG_iEEEEEEERNS5_14SubgroupTensorINS5_11ArrayEngineIfLm128EEENSC_INSD_IJSL_SM_SM_NSE_ILi4EEEEEENSD_IJSG_SL_SF_SQ_EEEEENSC_INSD_IJSF_NSD_IJSL_NSD_IJSM_SM_EEES1P_EEEEEENSD_IJNS5_11ScaledBasisISG_JLi1EEEENSD_IJNS1W_ISG_JLi0EEEENSD_IJNS1W_ISL_JLi0EEEENS1W_ISF_JLi1EEEEEEENS1W_ISQ_JLi1EEEEEEEEEEEEEERNSV_INS1N_IfLm1EEENSC_ISG_SI_EEEES2B_T_iiiiiiiiiS1G_S1L_ENKUlS2C_iRT0_RT1_RT2_RT3_RT4_RT5_E_clISt17integral_constantIbLb0EENS5_9TiledCopyINS5_9Copy_Atom..preheader137_crit_edge ]
  %207 = sub nsw i32 %206, %qot3225, !spirv.Decorations !1203		; visa id: 628
  %208 = shl nsw i32 %207, 5, !spirv.Decorations !1203		; visa id: 629
  br i1 %167, label %.lr.ph, label %.preheader137.._crit_edge140_crit_edge, !stats.blockFrequency.digits !1224, !stats.blockFrequency.scale !1218		; visa id: 630

.preheader137.._crit_edge140_crit_edge:           ; preds = %.preheader137
; BB38 :
  br label %._crit_edge140, !stats.blockFrequency.digits !1225, !stats.blockFrequency.scale !1226		; visa id: 664

.lr.ph:                                           ; preds = %.preheader137
; BB39 :
  br i1 %201, label %.lr.ph..epil.preheader_crit_edge, label %.lr.ph.new, !stats.blockFrequency.digits !1220, !stats.blockFrequency.scale !1206		; visa id: 666

.lr.ph..epil.preheader_crit_edge:                 ; preds = %.lr.ph
; BB40 :
  br label %.epil.preheader, !stats.blockFrequency.digits !1220, !stats.blockFrequency.scale !1221		; visa id: 701

.lr.ph.new:                                       ; preds = %.lr.ph
; BB41 :
  %209 = add i32 %208, 16		; visa id: 703
  br label %.preheader133, !stats.blockFrequency.digits !1220, !stats.blockFrequency.scale !1221		; visa id: 738

.preheader133:                                    ; preds = %.preheader133..preheader133_crit_edge, %.lr.ph.new
; BB42 :
  %.sroa.231.4 = phi <8 x float> [ zeroinitializer, %.lr.ph.new ], [ %369, %.preheader133..preheader133_crit_edge ]
  %.sroa.155.4 = phi <8 x float> [ zeroinitializer, %.lr.ph.new ], [ %370, %.preheader133..preheader133_crit_edge ]
  %.sroa.79.4 = phi <8 x float> [ zeroinitializer, %.lr.ph.new ], [ %368, %.preheader133..preheader133_crit_edge ]
  %.sroa.01431.4 = phi <8 x float> [ zeroinitializer, %.lr.ph.new ], [ %367, %.preheader133..preheader133_crit_edge ]
  %210 = phi i32 [ 0, %.lr.ph.new ], [ %371, %.preheader133..preheader133_crit_edge ]
  %niter = phi i32 [ 0, %.lr.ph.new ], [ %niter.next.1, %.preheader133..preheader133_crit_edge ]
  %211 = shl i32 %210, 5, !spirv.Decorations !1203		; visa id: 739
  call void @llvm.genx.GenISA.LSC2DBlockSetAddrPayloadField.p4i8.i32(i8 addrspace(4)* %Block2D_AddrPayload, i32 5, i32 %211, i1 false)		; visa id: 740
  call void @llvm.genx.GenISA.LSC2DBlockSetAddrPayloadField.p4i8.i32(i8 addrspace(4)* %Block2D_AddrPayload, i32 6, i32 %161, i1 false)		; visa id: 741
  %212 = call <32 x i16> asm "lsc_load_block2d.ugm (M1, 1)  $0:d$2.$3x$4x$5nn flat[$1+(0,0)]", "=rw,rw.u,P,P,P,P"(i8 addrspace(4)* %Block2D_AddrPayload, i32 16, i32 2, i32 16, i32 16) #0		; visa id: 742
  %213 = lshr exact i32 %211, 1		; visa id: 742
  call void @llvm.genx.GenISA.LSC2DBlockSetAddrPayloadField.p4i8.i32(i8 addrspace(4)* %Block2D_AddrPayload112, i32 5, i32 %213, i1 false)		; visa id: 743
  call void @llvm.genx.GenISA.LSC2DBlockSetAddrPayloadField.p4i8.i32(i8 addrspace(4)* %Block2D_AddrPayload112, i32 6, i32 %208, i1 false)		; visa id: 744
  %214 = call <16 x i16> asm "lsc_load_block2d.ugm (M1, 1)  $0:d$2.$3x$4tn flat[$1+(0,0)]", "=rw,rw.u,P,P,P"(i8 addrspace(4)* %Block2D_AddrPayload112, i32 32, i32 8, i32 16) #0		; visa id: 745
  call void @llvm.genx.GenISA.LSC2DBlockSetAddrPayloadField.p4i8.i32(i8 addrspace(4)* %Block2D_AddrPayload112, i32 5, i32 %213, i1 false)		; visa id: 745
  call void @llvm.genx.GenISA.LSC2DBlockSetAddrPayloadField.p4i8.i32(i8 addrspace(4)* %Block2D_AddrPayload112, i32 6, i32 %209, i1 false)		; visa id: 746
  %215 = call <16 x i16> asm "lsc_load_block2d.ugm (M1, 1)  $0:d$2.$3x$4tn flat[$1+(0,0)]", "=rw,rw.u,P,P,P"(i8 addrspace(4)* %Block2D_AddrPayload112, i32 32, i32 8, i32 16) #0		; visa id: 747
  %216 = or i32 %213, 8		; visa id: 747
  call void @llvm.genx.GenISA.LSC2DBlockSetAddrPayloadField.p4i8.i32(i8 addrspace(4)* %Block2D_AddrPayload112, i32 5, i32 %216, i1 false)		; visa id: 748
  call void @llvm.genx.GenISA.LSC2DBlockSetAddrPayloadField.p4i8.i32(i8 addrspace(4)* %Block2D_AddrPayload112, i32 6, i32 %208, i1 false)		; visa id: 749
  %217 = call <16 x i16> asm "lsc_load_block2d.ugm (M1, 1)  $0:d$2.$3x$4tn flat[$1+(0,0)]", "=rw,rw.u,P,P,P"(i8 addrspace(4)* %Block2D_AddrPayload112, i32 32, i32 8, i32 16) #0		; visa id: 750
  call void @llvm.genx.GenISA.LSC2DBlockSetAddrPayloadField.p4i8.i32(i8 addrspace(4)* %Block2D_AddrPayload112, i32 5, i32 %216, i1 false)		; visa id: 750
  call void @llvm.genx.GenISA.LSC2DBlockSetAddrPayloadField.p4i8.i32(i8 addrspace(4)* %Block2D_AddrPayload112, i32 6, i32 %209, i1 false)		; visa id: 751
  %218 = call <16 x i16> asm "lsc_load_block2d.ugm (M1, 1)  $0:d$2.$3x$4tn flat[$1+(0,0)]", "=rw,rw.u,P,P,P"(i8 addrspace(4)* %Block2D_AddrPayload112, i32 32, i32 8, i32 16) #0		; visa id: 752
  %219 = extractelement <32 x i16> %212, i32 0		; visa id: 752
  %220 = insertelement <8 x i16> undef, i16 %219, i32 0		; visa id: 752
  %221 = extractelement <32 x i16> %212, i32 1		; visa id: 752
  %222 = insertelement <8 x i16> %220, i16 %221, i32 1		; visa id: 752
  %223 = extractelement <32 x i16> %212, i32 2		; visa id: 752
  %224 = insertelement <8 x i16> %222, i16 %223, i32 2		; visa id: 752
  %225 = extractelement <32 x i16> %212, i32 3		; visa id: 752
  %226 = insertelement <8 x i16> %224, i16 %225, i32 3		; visa id: 752
  %227 = extractelement <32 x i16> %212, i32 4		; visa id: 752
  %228 = insertelement <8 x i16> %226, i16 %227, i32 4		; visa id: 752
  %229 = extractelement <32 x i16> %212, i32 5		; visa id: 752
  %230 = insertelement <8 x i16> %228, i16 %229, i32 5		; visa id: 752
  %231 = extractelement <32 x i16> %212, i32 6		; visa id: 752
  %232 = insertelement <8 x i16> %230, i16 %231, i32 6		; visa id: 752
  %233 = extractelement <32 x i16> %212, i32 7		; visa id: 752
  %234 = insertelement <8 x i16> %232, i16 %233, i32 7		; visa id: 752
  %235 = extractelement <32 x i16> %212, i32 8		; visa id: 752
  %236 = insertelement <8 x i16> undef, i16 %235, i32 0		; visa id: 752
  %237 = extractelement <32 x i16> %212, i32 9		; visa id: 752
  %238 = insertelement <8 x i16> %236, i16 %237, i32 1		; visa id: 752
  %239 = extractelement <32 x i16> %212, i32 10		; visa id: 752
  %240 = insertelement <8 x i16> %238, i16 %239, i32 2		; visa id: 752
  %241 = extractelement <32 x i16> %212, i32 11		; visa id: 752
  %242 = insertelement <8 x i16> %240, i16 %241, i32 3		; visa id: 752
  %243 = extractelement <32 x i16> %212, i32 12		; visa id: 752
  %244 = insertelement <8 x i16> %242, i16 %243, i32 4		; visa id: 752
  %245 = extractelement <32 x i16> %212, i32 13		; visa id: 752
  %246 = insertelement <8 x i16> %244, i16 %245, i32 5		; visa id: 752
  %247 = extractelement <32 x i16> %212, i32 14		; visa id: 752
  %248 = insertelement <8 x i16> %246, i16 %247, i32 6		; visa id: 752
  %249 = extractelement <32 x i16> %212, i32 15		; visa id: 752
  %250 = insertelement <8 x i16> %248, i16 %249, i32 7		; visa id: 752
  %251 = extractelement <32 x i16> %212, i32 16		; visa id: 752
  %252 = insertelement <8 x i16> undef, i16 %251, i32 0		; visa id: 752
  %253 = extractelement <32 x i16> %212, i32 17		; visa id: 752
  %254 = insertelement <8 x i16> %252, i16 %253, i32 1		; visa id: 752
  %255 = extractelement <32 x i16> %212, i32 18		; visa id: 752
  %256 = insertelement <8 x i16> %254, i16 %255, i32 2		; visa id: 752
  %257 = extractelement <32 x i16> %212, i32 19		; visa id: 752
  %258 = insertelement <8 x i16> %256, i16 %257, i32 3		; visa id: 752
  %259 = extractelement <32 x i16> %212, i32 20		; visa id: 752
  %260 = insertelement <8 x i16> %258, i16 %259, i32 4		; visa id: 752
  %261 = extractelement <32 x i16> %212, i32 21		; visa id: 752
  %262 = insertelement <8 x i16> %260, i16 %261, i32 5		; visa id: 752
  %263 = extractelement <32 x i16> %212, i32 22		; visa id: 752
  %264 = insertelement <8 x i16> %262, i16 %263, i32 6		; visa id: 752
  %265 = extractelement <32 x i16> %212, i32 23		; visa id: 752
  %266 = insertelement <8 x i16> %264, i16 %265, i32 7		; visa id: 752
  %267 = extractelement <32 x i16> %212, i32 24		; visa id: 752
  %268 = insertelement <8 x i16> undef, i16 %267, i32 0		; visa id: 752
  %269 = extractelement <32 x i16> %212, i32 25		; visa id: 752
  %270 = insertelement <8 x i16> %268, i16 %269, i32 1		; visa id: 752
  %271 = extractelement <32 x i16> %212, i32 26		; visa id: 752
  %272 = insertelement <8 x i16> %270, i16 %271, i32 2		; visa id: 752
  %273 = extractelement <32 x i16> %212, i32 27		; visa id: 752
  %274 = insertelement <8 x i16> %272, i16 %273, i32 3		; visa id: 752
  %275 = extractelement <32 x i16> %212, i32 28		; visa id: 752
  %276 = insertelement <8 x i16> %274, i16 %275, i32 4		; visa id: 752
  %277 = extractelement <32 x i16> %212, i32 29		; visa id: 752
  %278 = insertelement <8 x i16> %276, i16 %277, i32 5		; visa id: 752
  %279 = extractelement <32 x i16> %212, i32 30		; visa id: 752
  %280 = insertelement <8 x i16> %278, i16 %279, i32 6		; visa id: 752
  %281 = extractelement <32 x i16> %212, i32 31		; visa id: 752
  %282 = insertelement <8 x i16> %280, i16 %281, i32 7		; visa id: 752
  %283 = call <8 x float> asm "{\0A.decl DST     v_type=G type=f num_elts=$5 alias=<$0,0>\0A.decl SRC1_UD v_type=G type=UD num_elts=128 alias=<$2,0>\0A.decl SRC2_UD v_type=G type=UD num_elts=$4 alias=<$1,0>\0Adpas.bf.bf.8.$3 (M1, 16) DST.0 DST.0 SRC1_UD.0 SRC2_UD(0,0)\0A}\0A", "=rw,rw,rw,P,P,P,0"(<8 x i16> %234, <16 x i16> %214, i32 8, i32 64, i32 128, <8 x float> %.sroa.01431.4) #0		; visa id: 752
  %284 = call <8 x float> asm "{\0A.decl DST     v_type=G type=f num_elts=$5 alias=<$0,0>\0A.decl SRC1_UD v_type=G type=UD num_elts=128 alias=<$2,0>\0A.decl SRC2_UD v_type=G type=UD num_elts=$4 alias=<$1,0>\0Adpas.bf.bf.8.$3 (M1, 16) DST.0 DST.0 SRC1_UD.0 SRC2_UD(0,0)\0A}\0A", "=rw,rw,rw,P,P,P,0"(<8 x i16> %250, <16 x i16> %214, i32 8, i32 64, i32 128, <8 x float> %.sroa.79.4) #0		; visa id: 752
  %285 = call <8 x float> asm "{\0A.decl DST     v_type=G type=f num_elts=$5 alias=<$0,0>\0A.decl SRC1_UD v_type=G type=UD num_elts=128 alias=<$2,0>\0A.decl SRC2_UD v_type=G type=UD num_elts=$4 alias=<$1,0>\0Adpas.bf.bf.8.$3 (M1, 16) DST.0 DST.0 SRC1_UD.0 SRC2_UD(0,0)\0A}\0A", "=rw,rw,rw,P,P,P,0"(<8 x i16> %250, <16 x i16> %215, i32 8, i32 64, i32 128, <8 x float> %.sroa.231.4) #0		; visa id: 752
  %286 = call <8 x float> asm "{\0A.decl DST     v_type=G type=f num_elts=$5 alias=<$0,0>\0A.decl SRC1_UD v_type=G type=UD num_elts=128 alias=<$2,0>\0A.decl SRC2_UD v_type=G type=UD num_elts=$4 alias=<$1,0>\0Adpas.bf.bf.8.$3 (M1, 16) DST.0 DST.0 SRC1_UD.0 SRC2_UD(0,0)\0A}\0A", "=rw,rw,rw,P,P,P,0"(<8 x i16> %234, <16 x i16> %215, i32 8, i32 64, i32 128, <8 x float> %.sroa.155.4) #0		; visa id: 752
  %287 = call <8 x float> asm "{\0A.decl DST     v_type=G type=f num_elts=$5 alias=<$0,0>\0A.decl SRC1_UD v_type=G type=UD num_elts=128 alias=<$2,0>\0A.decl SRC2_UD v_type=G type=UD num_elts=$4 alias=<$1,0>\0Adpas.bf.bf.8.$3 (M1, 16) DST.0 DST.0 SRC1_UD.0 SRC2_UD(0,0)\0A}\0A", "=rw,rw,rw,P,P,P,0"(<8 x i16> %266, <16 x i16> %217, i32 8, i32 64, i32 128, <8 x float> %283) #0		; visa id: 752
  %288 = call <8 x float> asm "{\0A.decl DST     v_type=G type=f num_elts=$5 alias=<$0,0>\0A.decl SRC1_UD v_type=G type=UD num_elts=128 alias=<$2,0>\0A.decl SRC2_UD v_type=G type=UD num_elts=$4 alias=<$1,0>\0Adpas.bf.bf.8.$3 (M1, 16) DST.0 DST.0 SRC1_UD.0 SRC2_UD(0,0)\0A}\0A", "=rw,rw,rw,P,P,P,0"(<8 x i16> %282, <16 x i16> %217, i32 8, i32 64, i32 128, <8 x float> %284) #0		; visa id: 752
  %289 = call <8 x float> asm "{\0A.decl DST     v_type=G type=f num_elts=$5 alias=<$0,0>\0A.decl SRC1_UD v_type=G type=UD num_elts=128 alias=<$2,0>\0A.decl SRC2_UD v_type=G type=UD num_elts=$4 alias=<$1,0>\0Adpas.bf.bf.8.$3 (M1, 16) DST.0 DST.0 SRC1_UD.0 SRC2_UD(0,0)\0A}\0A", "=rw,rw,rw,P,P,P,0"(<8 x i16> %282, <16 x i16> %218, i32 8, i32 64, i32 128, <8 x float> %285) #0		; visa id: 752
  %290 = call <8 x float> asm "{\0A.decl DST     v_type=G type=f num_elts=$5 alias=<$0,0>\0A.decl SRC1_UD v_type=G type=UD num_elts=128 alias=<$2,0>\0A.decl SRC2_UD v_type=G type=UD num_elts=$4 alias=<$1,0>\0Adpas.bf.bf.8.$3 (M1, 16) DST.0 DST.0 SRC1_UD.0 SRC2_UD(0,0)\0A}\0A", "=rw,rw,rw,P,P,P,0"(<8 x i16> %266, <16 x i16> %218, i32 8, i32 64, i32 128, <8 x float> %286) #0		; visa id: 752
  %291 = or i32 %211, 32		; visa id: 752
  call void @llvm.genx.GenISA.LSC2DBlockSetAddrPayloadField.p4i8.i32(i8 addrspace(4)* %Block2D_AddrPayload, i32 5, i32 %291, i1 false)		; visa id: 753
  call void @llvm.genx.GenISA.LSC2DBlockSetAddrPayloadField.p4i8.i32(i8 addrspace(4)* %Block2D_AddrPayload, i32 6, i32 %161, i1 false)		; visa id: 754
  %292 = call <32 x i16> asm "lsc_load_block2d.ugm (M1, 1)  $0:d$2.$3x$4x$5nn flat[$1+(0,0)]", "=rw,rw.u,P,P,P,P"(i8 addrspace(4)* %Block2D_AddrPayload, i32 16, i32 2, i32 16, i32 16) #0		; visa id: 755
  %293 = lshr exact i32 %291, 1		; visa id: 755
  call void @llvm.genx.GenISA.LSC2DBlockSetAddrPayloadField.p4i8.i32(i8 addrspace(4)* %Block2D_AddrPayload112, i32 5, i32 %293, i1 false)		; visa id: 756
  call void @llvm.genx.GenISA.LSC2DBlockSetAddrPayloadField.p4i8.i32(i8 addrspace(4)* %Block2D_AddrPayload112, i32 6, i32 %208, i1 false)		; visa id: 757
  %294 = call <16 x i16> asm "lsc_load_block2d.ugm (M1, 1)  $0:d$2.$3x$4tn flat[$1+(0,0)]", "=rw,rw.u,P,P,P"(i8 addrspace(4)* %Block2D_AddrPayload112, i32 32, i32 8, i32 16) #0		; visa id: 758
  call void @llvm.genx.GenISA.LSC2DBlockSetAddrPayloadField.p4i8.i32(i8 addrspace(4)* %Block2D_AddrPayload112, i32 5, i32 %293, i1 false)		; visa id: 758
  call void @llvm.genx.GenISA.LSC2DBlockSetAddrPayloadField.p4i8.i32(i8 addrspace(4)* %Block2D_AddrPayload112, i32 6, i32 %209, i1 false)		; visa id: 759
  %295 = call <16 x i16> asm "lsc_load_block2d.ugm (M1, 1)  $0:d$2.$3x$4tn flat[$1+(0,0)]", "=rw,rw.u,P,P,P"(i8 addrspace(4)* %Block2D_AddrPayload112, i32 32, i32 8, i32 16) #0		; visa id: 760
  %296 = or i32 %293, 8		; visa id: 760
  call void @llvm.genx.GenISA.LSC2DBlockSetAddrPayloadField.p4i8.i32(i8 addrspace(4)* %Block2D_AddrPayload112, i32 5, i32 %296, i1 false)		; visa id: 761
  call void @llvm.genx.GenISA.LSC2DBlockSetAddrPayloadField.p4i8.i32(i8 addrspace(4)* %Block2D_AddrPayload112, i32 6, i32 %208, i1 false)		; visa id: 762
  %297 = call <16 x i16> asm "lsc_load_block2d.ugm (M1, 1)  $0:d$2.$3x$4tn flat[$1+(0,0)]", "=rw,rw.u,P,P,P"(i8 addrspace(4)* %Block2D_AddrPayload112, i32 32, i32 8, i32 16) #0		; visa id: 763
  call void @llvm.genx.GenISA.LSC2DBlockSetAddrPayloadField.p4i8.i32(i8 addrspace(4)* %Block2D_AddrPayload112, i32 5, i32 %296, i1 false)		; visa id: 763
  call void @llvm.genx.GenISA.LSC2DBlockSetAddrPayloadField.p4i8.i32(i8 addrspace(4)* %Block2D_AddrPayload112, i32 6, i32 %209, i1 false)		; visa id: 764
  %298 = call <16 x i16> asm "lsc_load_block2d.ugm (M1, 1)  $0:d$2.$3x$4tn flat[$1+(0,0)]", "=rw,rw.u,P,P,P"(i8 addrspace(4)* %Block2D_AddrPayload112, i32 32, i32 8, i32 16) #0		; visa id: 765
  %299 = extractelement <32 x i16> %292, i32 0		; visa id: 765
  %300 = insertelement <8 x i16> undef, i16 %299, i32 0		; visa id: 765
  %301 = extractelement <32 x i16> %292, i32 1		; visa id: 765
  %302 = insertelement <8 x i16> %300, i16 %301, i32 1		; visa id: 765
  %303 = extractelement <32 x i16> %292, i32 2		; visa id: 765
  %304 = insertelement <8 x i16> %302, i16 %303, i32 2		; visa id: 765
  %305 = extractelement <32 x i16> %292, i32 3		; visa id: 765
  %306 = insertelement <8 x i16> %304, i16 %305, i32 3		; visa id: 765
  %307 = extractelement <32 x i16> %292, i32 4		; visa id: 765
  %308 = insertelement <8 x i16> %306, i16 %307, i32 4		; visa id: 765
  %309 = extractelement <32 x i16> %292, i32 5		; visa id: 765
  %310 = insertelement <8 x i16> %308, i16 %309, i32 5		; visa id: 765
  %311 = extractelement <32 x i16> %292, i32 6		; visa id: 765
  %312 = insertelement <8 x i16> %310, i16 %311, i32 6		; visa id: 765
  %313 = extractelement <32 x i16> %292, i32 7		; visa id: 765
  %314 = insertelement <8 x i16> %312, i16 %313, i32 7		; visa id: 765
  %315 = extractelement <32 x i16> %292, i32 8		; visa id: 765
  %316 = insertelement <8 x i16> undef, i16 %315, i32 0		; visa id: 765
  %317 = extractelement <32 x i16> %292, i32 9		; visa id: 765
  %318 = insertelement <8 x i16> %316, i16 %317, i32 1		; visa id: 765
  %319 = extractelement <32 x i16> %292, i32 10		; visa id: 765
  %320 = insertelement <8 x i16> %318, i16 %319, i32 2		; visa id: 765
  %321 = extractelement <32 x i16> %292, i32 11		; visa id: 765
  %322 = insertelement <8 x i16> %320, i16 %321, i32 3		; visa id: 765
  %323 = extractelement <32 x i16> %292, i32 12		; visa id: 765
  %324 = insertelement <8 x i16> %322, i16 %323, i32 4		; visa id: 765
  %325 = extractelement <32 x i16> %292, i32 13		; visa id: 765
  %326 = insertelement <8 x i16> %324, i16 %325, i32 5		; visa id: 765
  %327 = extractelement <32 x i16> %292, i32 14		; visa id: 765
  %328 = insertelement <8 x i16> %326, i16 %327, i32 6		; visa id: 765
  %329 = extractelement <32 x i16> %292, i32 15		; visa id: 765
  %330 = insertelement <8 x i16> %328, i16 %329, i32 7		; visa id: 765
  %331 = extractelement <32 x i16> %292, i32 16		; visa id: 765
  %332 = insertelement <8 x i16> undef, i16 %331, i32 0		; visa id: 765
  %333 = extractelement <32 x i16> %292, i32 17		; visa id: 765
  %334 = insertelement <8 x i16> %332, i16 %333, i32 1		; visa id: 765
  %335 = extractelement <32 x i16> %292, i32 18		; visa id: 765
  %336 = insertelement <8 x i16> %334, i16 %335, i32 2		; visa id: 765
  %337 = extractelement <32 x i16> %292, i32 19		; visa id: 765
  %338 = insertelement <8 x i16> %336, i16 %337, i32 3		; visa id: 765
  %339 = extractelement <32 x i16> %292, i32 20		; visa id: 765
  %340 = insertelement <8 x i16> %338, i16 %339, i32 4		; visa id: 765
  %341 = extractelement <32 x i16> %292, i32 21		; visa id: 765
  %342 = insertelement <8 x i16> %340, i16 %341, i32 5		; visa id: 765
  %343 = extractelement <32 x i16> %292, i32 22		; visa id: 765
  %344 = insertelement <8 x i16> %342, i16 %343, i32 6		; visa id: 765
  %345 = extractelement <32 x i16> %292, i32 23		; visa id: 765
  %346 = insertelement <8 x i16> %344, i16 %345, i32 7		; visa id: 765
  %347 = extractelement <32 x i16> %292, i32 24		; visa id: 765
  %348 = insertelement <8 x i16> undef, i16 %347, i32 0		; visa id: 765
  %349 = extractelement <32 x i16> %292, i32 25		; visa id: 765
  %350 = insertelement <8 x i16> %348, i16 %349, i32 1		; visa id: 765
  %351 = extractelement <32 x i16> %292, i32 26		; visa id: 765
  %352 = insertelement <8 x i16> %350, i16 %351, i32 2		; visa id: 765
  %353 = extractelement <32 x i16> %292, i32 27		; visa id: 765
  %354 = insertelement <8 x i16> %352, i16 %353, i32 3		; visa id: 765
  %355 = extractelement <32 x i16> %292, i32 28		; visa id: 765
  %356 = insertelement <8 x i16> %354, i16 %355, i32 4		; visa id: 765
  %357 = extractelement <32 x i16> %292, i32 29		; visa id: 765
  %358 = insertelement <8 x i16> %356, i16 %357, i32 5		; visa id: 765
  %359 = extractelement <32 x i16> %292, i32 30		; visa id: 765
  %360 = insertelement <8 x i16> %358, i16 %359, i32 6		; visa id: 765
  %361 = extractelement <32 x i16> %292, i32 31		; visa id: 765
  %362 = insertelement <8 x i16> %360, i16 %361, i32 7		; visa id: 765
  %363 = call <8 x float> asm "{\0A.decl DST     v_type=G type=f num_elts=$5 alias=<$0,0>\0A.decl SRC1_UD v_type=G type=UD num_elts=128 alias=<$2,0>\0A.decl SRC2_UD v_type=G type=UD num_elts=$4 alias=<$1,0>\0Adpas.bf.bf.8.$3 (M1, 16) DST.0 DST.0 SRC1_UD.0 SRC2_UD(0,0)\0A}\0A", "=rw,rw,rw,P,P,P,0"(<8 x i16> %314, <16 x i16> %294, i32 8, i32 64, i32 128, <8 x float> %287) #0		; visa id: 765
  %364 = call <8 x float> asm "{\0A.decl DST     v_type=G type=f num_elts=$5 alias=<$0,0>\0A.decl SRC1_UD v_type=G type=UD num_elts=128 alias=<$2,0>\0A.decl SRC2_UD v_type=G type=UD num_elts=$4 alias=<$1,0>\0Adpas.bf.bf.8.$3 (M1, 16) DST.0 DST.0 SRC1_UD.0 SRC2_UD(0,0)\0A}\0A", "=rw,rw,rw,P,P,P,0"(<8 x i16> %330, <16 x i16> %294, i32 8, i32 64, i32 128, <8 x float> %288) #0		; visa id: 765
  %365 = call <8 x float> asm "{\0A.decl DST     v_type=G type=f num_elts=$5 alias=<$0,0>\0A.decl SRC1_UD v_type=G type=UD num_elts=128 alias=<$2,0>\0A.decl SRC2_UD v_type=G type=UD num_elts=$4 alias=<$1,0>\0Adpas.bf.bf.8.$3 (M1, 16) DST.0 DST.0 SRC1_UD.0 SRC2_UD(0,0)\0A}\0A", "=rw,rw,rw,P,P,P,0"(<8 x i16> %330, <16 x i16> %295, i32 8, i32 64, i32 128, <8 x float> %289) #0		; visa id: 765
  %366 = call <8 x float> asm "{\0A.decl DST     v_type=G type=f num_elts=$5 alias=<$0,0>\0A.decl SRC1_UD v_type=G type=UD num_elts=128 alias=<$2,0>\0A.decl SRC2_UD v_type=G type=UD num_elts=$4 alias=<$1,0>\0Adpas.bf.bf.8.$3 (M1, 16) DST.0 DST.0 SRC1_UD.0 SRC2_UD(0,0)\0A}\0A", "=rw,rw,rw,P,P,P,0"(<8 x i16> %314, <16 x i16> %295, i32 8, i32 64, i32 128, <8 x float> %290) #0		; visa id: 765
  %367 = call <8 x float> asm "{\0A.decl DST     v_type=G type=f num_elts=$5 alias=<$0,0>\0A.decl SRC1_UD v_type=G type=UD num_elts=128 alias=<$2,0>\0A.decl SRC2_UD v_type=G type=UD num_elts=$4 alias=<$1,0>\0Adpas.bf.bf.8.$3 (M1, 16) DST.0 DST.0 SRC1_UD.0 SRC2_UD(0,0)\0A}\0A", "=rw,rw,rw,P,P,P,0"(<8 x i16> %346, <16 x i16> %297, i32 8, i32 64, i32 128, <8 x float> %363) #0		; visa id: 765
  %368 = call <8 x float> asm "{\0A.decl DST     v_type=G type=f num_elts=$5 alias=<$0,0>\0A.decl SRC1_UD v_type=G type=UD num_elts=128 alias=<$2,0>\0A.decl SRC2_UD v_type=G type=UD num_elts=$4 alias=<$1,0>\0Adpas.bf.bf.8.$3 (M1, 16) DST.0 DST.0 SRC1_UD.0 SRC2_UD(0,0)\0A}\0A", "=rw,rw,rw,P,P,P,0"(<8 x i16> %362, <16 x i16> %297, i32 8, i32 64, i32 128, <8 x float> %364) #0		; visa id: 765
  %369 = call <8 x float> asm "{\0A.decl DST     v_type=G type=f num_elts=$5 alias=<$0,0>\0A.decl SRC1_UD v_type=G type=UD num_elts=128 alias=<$2,0>\0A.decl SRC2_UD v_type=G type=UD num_elts=$4 alias=<$1,0>\0Adpas.bf.bf.8.$3 (M1, 16) DST.0 DST.0 SRC1_UD.0 SRC2_UD(0,0)\0A}\0A", "=rw,rw,rw,P,P,P,0"(<8 x i16> %362, <16 x i16> %298, i32 8, i32 64, i32 128, <8 x float> %365) #0		; visa id: 765
  %370 = call <8 x float> asm "{\0A.decl DST     v_type=G type=f num_elts=$5 alias=<$0,0>\0A.decl SRC1_UD v_type=G type=UD num_elts=128 alias=<$2,0>\0A.decl SRC2_UD v_type=G type=UD num_elts=$4 alias=<$1,0>\0Adpas.bf.bf.8.$3 (M1, 16) DST.0 DST.0 SRC1_UD.0 SRC2_UD(0,0)\0A}\0A", "=rw,rw,rw,P,P,P,0"(<8 x i16> %346, <16 x i16> %298, i32 8, i32 64, i32 128, <8 x float> %366) #0		; visa id: 765
  %371 = add nuw nsw i32 %210, 2, !spirv.Decorations !1215		; visa id: 765
  %niter.next.1 = add i32 %niter, 2		; visa id: 766
  %niter.ncmp.1.not = icmp eq i32 %niter.next.1, %unroll_iter		; visa id: 767
  br i1 %niter.ncmp.1.not, label %._crit_edge140.unr-lcssa, label %.preheader133..preheader133_crit_edge, !llvm.loop !1227, !stats.blockFrequency.digits !1229, !stats.blockFrequency.scale !1230		; visa id: 768

.preheader133..preheader133_crit_edge:            ; preds = %.preheader133
; BB:
  br label %.preheader133, !stats.blockFrequency.digits !1231, !stats.blockFrequency.scale !1230

._crit_edge140.unr-lcssa:                         ; preds = %.preheader133
; BB44 :
  %.lcssa3294 = phi <8 x float> [ %367, %.preheader133 ]
  %.lcssa3293 = phi <8 x float> [ %368, %.preheader133 ]
  %.lcssa3292 = phi <8 x float> [ %369, %.preheader133 ]
  %.lcssa3291 = phi <8 x float> [ %370, %.preheader133 ]
  %.lcssa = phi i32 [ %371, %.preheader133 ]
  br i1 %lcmp.mod.not, label %._crit_edge140.unr-lcssa.._crit_edge140_crit_edge, label %._crit_edge140.unr-lcssa..epil.preheader_crit_edge, !stats.blockFrequency.digits !1220, !stats.blockFrequency.scale !1221		; visa id: 770

._crit_edge140.unr-lcssa..epil.preheader_crit_edge: ; preds = %._crit_edge140.unr-lcssa
; BB:
  br label %.epil.preheader, !stats.blockFrequency.digits !1220, !stats.blockFrequency.scale !1232

.epil.preheader:                                  ; preds = %._crit_edge140.unr-lcssa..epil.preheader_crit_edge, %.lr.ph..epil.preheader_crit_edge
; BB46 :
  %.unr3217 = phi i32 [ %.lcssa, %._crit_edge140.unr-lcssa..epil.preheader_crit_edge ], [ 0, %.lr.ph..epil.preheader_crit_edge ]
  %.sroa.01431.13216 = phi <8 x float> [ %.lcssa3294, %._crit_edge140.unr-lcssa..epil.preheader_crit_edge ], [ zeroinitializer, %.lr.ph..epil.preheader_crit_edge ]
  %.sroa.79.13215 = phi <8 x float> [ %.lcssa3293, %._crit_edge140.unr-lcssa..epil.preheader_crit_edge ], [ zeroinitializer, %.lr.ph..epil.preheader_crit_edge ]
  %.sroa.155.13214 = phi <8 x float> [ %.lcssa3291, %._crit_edge140.unr-lcssa..epil.preheader_crit_edge ], [ zeroinitializer, %.lr.ph..epil.preheader_crit_edge ]
  %.sroa.231.13213 = phi <8 x float> [ %.lcssa3292, %._crit_edge140.unr-lcssa..epil.preheader_crit_edge ], [ zeroinitializer, %.lr.ph..epil.preheader_crit_edge ]
  %372 = shl nsw i32 %.unr3217, 5, !spirv.Decorations !1203		; visa id: 772
  call void @llvm.genx.GenISA.LSC2DBlockSetAddrPayloadField.p4i8.i32(i8 addrspace(4)* %Block2D_AddrPayload, i32 5, i32 %372, i1 false)		; visa id: 773
  call void @llvm.genx.GenISA.LSC2DBlockSetAddrPayloadField.p4i8.i32(i8 addrspace(4)* %Block2D_AddrPayload, i32 6, i32 %161, i1 false)		; visa id: 774
  %373 = call <32 x i16> asm "lsc_load_block2d.ugm (M1, 1)  $0:d$2.$3x$4x$5nn flat[$1+(0,0)]", "=rw,rw.u,P,P,P,P"(i8 addrspace(4)* %Block2D_AddrPayload, i32 16, i32 2, i32 16, i32 16) #0		; visa id: 775
  %374 = lshr exact i32 %372, 1		; visa id: 775
  call void @llvm.genx.GenISA.LSC2DBlockSetAddrPayloadField.p4i8.i32(i8 addrspace(4)* %Block2D_AddrPayload112, i32 5, i32 %374, i1 false)		; visa id: 776
  call void @llvm.genx.GenISA.LSC2DBlockSetAddrPayloadField.p4i8.i32(i8 addrspace(4)* %Block2D_AddrPayload112, i32 6, i32 %208, i1 false)		; visa id: 777
  %375 = call <16 x i16> asm "lsc_load_block2d.ugm (M1, 1)  $0:d$2.$3x$4tn flat[$1+(0,0)]", "=rw,rw.u,P,P,P"(i8 addrspace(4)* %Block2D_AddrPayload112, i32 32, i32 8, i32 16) #0		; visa id: 778
  %376 = add i32 %208, 16		; visa id: 778
  call void @llvm.genx.GenISA.LSC2DBlockSetAddrPayloadField.p4i8.i32(i8 addrspace(4)* %Block2D_AddrPayload112, i32 5, i32 %374, i1 false)		; visa id: 779
  call void @llvm.genx.GenISA.LSC2DBlockSetAddrPayloadField.p4i8.i32(i8 addrspace(4)* %Block2D_AddrPayload112, i32 6, i32 %376, i1 false)		; visa id: 780
  %377 = call <16 x i16> asm "lsc_load_block2d.ugm (M1, 1)  $0:d$2.$3x$4tn flat[$1+(0,0)]", "=rw,rw.u,P,P,P"(i8 addrspace(4)* %Block2D_AddrPayload112, i32 32, i32 8, i32 16) #0		; visa id: 781
  %378 = or i32 %374, 8		; visa id: 781
  call void @llvm.genx.GenISA.LSC2DBlockSetAddrPayloadField.p4i8.i32(i8 addrspace(4)* %Block2D_AddrPayload112, i32 5, i32 %378, i1 false)		; visa id: 782
  call void @llvm.genx.GenISA.LSC2DBlockSetAddrPayloadField.p4i8.i32(i8 addrspace(4)* %Block2D_AddrPayload112, i32 6, i32 %208, i1 false)		; visa id: 783
  %379 = call <16 x i16> asm "lsc_load_block2d.ugm (M1, 1)  $0:d$2.$3x$4tn flat[$1+(0,0)]", "=rw,rw.u,P,P,P"(i8 addrspace(4)* %Block2D_AddrPayload112, i32 32, i32 8, i32 16) #0		; visa id: 784
  call void @llvm.genx.GenISA.LSC2DBlockSetAddrPayloadField.p4i8.i32(i8 addrspace(4)* %Block2D_AddrPayload112, i32 5, i32 %378, i1 false)		; visa id: 784
  call void @llvm.genx.GenISA.LSC2DBlockSetAddrPayloadField.p4i8.i32(i8 addrspace(4)* %Block2D_AddrPayload112, i32 6, i32 %376, i1 false)		; visa id: 785
  %380 = call <16 x i16> asm "lsc_load_block2d.ugm (M1, 1)  $0:d$2.$3x$4tn flat[$1+(0,0)]", "=rw,rw.u,P,P,P"(i8 addrspace(4)* %Block2D_AddrPayload112, i32 32, i32 8, i32 16) #0		; visa id: 786
  %381 = extractelement <32 x i16> %373, i32 0		; visa id: 786
  %382 = insertelement <8 x i16> undef, i16 %381, i32 0		; visa id: 786
  %383 = extractelement <32 x i16> %373, i32 1		; visa id: 786
  %384 = insertelement <8 x i16> %382, i16 %383, i32 1		; visa id: 786
  %385 = extractelement <32 x i16> %373, i32 2		; visa id: 786
  %386 = insertelement <8 x i16> %384, i16 %385, i32 2		; visa id: 786
  %387 = extractelement <32 x i16> %373, i32 3		; visa id: 786
  %388 = insertelement <8 x i16> %386, i16 %387, i32 3		; visa id: 786
  %389 = extractelement <32 x i16> %373, i32 4		; visa id: 786
  %390 = insertelement <8 x i16> %388, i16 %389, i32 4		; visa id: 786
  %391 = extractelement <32 x i16> %373, i32 5		; visa id: 786
  %392 = insertelement <8 x i16> %390, i16 %391, i32 5		; visa id: 786
  %393 = extractelement <32 x i16> %373, i32 6		; visa id: 786
  %394 = insertelement <8 x i16> %392, i16 %393, i32 6		; visa id: 786
  %395 = extractelement <32 x i16> %373, i32 7		; visa id: 786
  %396 = insertelement <8 x i16> %394, i16 %395, i32 7		; visa id: 786
  %397 = extractelement <32 x i16> %373, i32 8		; visa id: 786
  %398 = insertelement <8 x i16> undef, i16 %397, i32 0		; visa id: 786
  %399 = extractelement <32 x i16> %373, i32 9		; visa id: 786
  %400 = insertelement <8 x i16> %398, i16 %399, i32 1		; visa id: 786
  %401 = extractelement <32 x i16> %373, i32 10		; visa id: 786
  %402 = insertelement <8 x i16> %400, i16 %401, i32 2		; visa id: 786
  %403 = extractelement <32 x i16> %373, i32 11		; visa id: 786
  %404 = insertelement <8 x i16> %402, i16 %403, i32 3		; visa id: 786
  %405 = extractelement <32 x i16> %373, i32 12		; visa id: 786
  %406 = insertelement <8 x i16> %404, i16 %405, i32 4		; visa id: 786
  %407 = extractelement <32 x i16> %373, i32 13		; visa id: 786
  %408 = insertelement <8 x i16> %406, i16 %407, i32 5		; visa id: 786
  %409 = extractelement <32 x i16> %373, i32 14		; visa id: 786
  %410 = insertelement <8 x i16> %408, i16 %409, i32 6		; visa id: 786
  %411 = extractelement <32 x i16> %373, i32 15		; visa id: 786
  %412 = insertelement <8 x i16> %410, i16 %411, i32 7		; visa id: 786
  %413 = extractelement <32 x i16> %373, i32 16		; visa id: 786
  %414 = insertelement <8 x i16> undef, i16 %413, i32 0		; visa id: 786
  %415 = extractelement <32 x i16> %373, i32 17		; visa id: 786
  %416 = insertelement <8 x i16> %414, i16 %415, i32 1		; visa id: 786
  %417 = extractelement <32 x i16> %373, i32 18		; visa id: 786
  %418 = insertelement <8 x i16> %416, i16 %417, i32 2		; visa id: 786
  %419 = extractelement <32 x i16> %373, i32 19		; visa id: 786
  %420 = insertelement <8 x i16> %418, i16 %419, i32 3		; visa id: 786
  %421 = extractelement <32 x i16> %373, i32 20		; visa id: 786
  %422 = insertelement <8 x i16> %420, i16 %421, i32 4		; visa id: 786
  %423 = extractelement <32 x i16> %373, i32 21		; visa id: 786
  %424 = insertelement <8 x i16> %422, i16 %423, i32 5		; visa id: 786
  %425 = extractelement <32 x i16> %373, i32 22		; visa id: 786
  %426 = insertelement <8 x i16> %424, i16 %425, i32 6		; visa id: 786
  %427 = extractelement <32 x i16> %373, i32 23		; visa id: 786
  %428 = insertelement <8 x i16> %426, i16 %427, i32 7		; visa id: 786
  %429 = extractelement <32 x i16> %373, i32 24		; visa id: 786
  %430 = insertelement <8 x i16> undef, i16 %429, i32 0		; visa id: 786
  %431 = extractelement <32 x i16> %373, i32 25		; visa id: 786
  %432 = insertelement <8 x i16> %430, i16 %431, i32 1		; visa id: 786
  %433 = extractelement <32 x i16> %373, i32 26		; visa id: 786
  %434 = insertelement <8 x i16> %432, i16 %433, i32 2		; visa id: 786
  %435 = extractelement <32 x i16> %373, i32 27		; visa id: 786
  %436 = insertelement <8 x i16> %434, i16 %435, i32 3		; visa id: 786
  %437 = extractelement <32 x i16> %373, i32 28		; visa id: 786
  %438 = insertelement <8 x i16> %436, i16 %437, i32 4		; visa id: 786
  %439 = extractelement <32 x i16> %373, i32 29		; visa id: 786
  %440 = insertelement <8 x i16> %438, i16 %439, i32 5		; visa id: 786
  %441 = extractelement <32 x i16> %373, i32 30		; visa id: 786
  %442 = insertelement <8 x i16> %440, i16 %441, i32 6		; visa id: 786
  %443 = extractelement <32 x i16> %373, i32 31		; visa id: 786
  %444 = insertelement <8 x i16> %442, i16 %443, i32 7		; visa id: 786
  %445 = call <8 x float> asm "{\0A.decl DST     v_type=G type=f num_elts=$5 alias=<$0,0>\0A.decl SRC1_UD v_type=G type=UD num_elts=128 alias=<$2,0>\0A.decl SRC2_UD v_type=G type=UD num_elts=$4 alias=<$1,0>\0Adpas.bf.bf.8.$3 (M1, 16) DST.0 DST.0 SRC1_UD.0 SRC2_UD(0,0)\0A}\0A", "=rw,rw,rw,P,P,P,0"(<8 x i16> %396, <16 x i16> %375, i32 8, i32 64, i32 128, <8 x float> %.sroa.01431.13216) #0		; visa id: 786
  %446 = call <8 x float> asm "{\0A.decl DST     v_type=G type=f num_elts=$5 alias=<$0,0>\0A.decl SRC1_UD v_type=G type=UD num_elts=128 alias=<$2,0>\0A.decl SRC2_UD v_type=G type=UD num_elts=$4 alias=<$1,0>\0Adpas.bf.bf.8.$3 (M1, 16) DST.0 DST.0 SRC1_UD.0 SRC2_UD(0,0)\0A}\0A", "=rw,rw,rw,P,P,P,0"(<8 x i16> %412, <16 x i16> %375, i32 8, i32 64, i32 128, <8 x float> %.sroa.79.13215) #0		; visa id: 786
  %447 = call <8 x float> asm "{\0A.decl DST     v_type=G type=f num_elts=$5 alias=<$0,0>\0A.decl SRC1_UD v_type=G type=UD num_elts=128 alias=<$2,0>\0A.decl SRC2_UD v_type=G type=UD num_elts=$4 alias=<$1,0>\0Adpas.bf.bf.8.$3 (M1, 16) DST.0 DST.0 SRC1_UD.0 SRC2_UD(0,0)\0A}\0A", "=rw,rw,rw,P,P,P,0"(<8 x i16> %412, <16 x i16> %377, i32 8, i32 64, i32 128, <8 x float> %.sroa.231.13213) #0		; visa id: 786
  %448 = call <8 x float> asm "{\0A.decl DST     v_type=G type=f num_elts=$5 alias=<$0,0>\0A.decl SRC1_UD v_type=G type=UD num_elts=128 alias=<$2,0>\0A.decl SRC2_UD v_type=G type=UD num_elts=$4 alias=<$1,0>\0Adpas.bf.bf.8.$3 (M1, 16) DST.0 DST.0 SRC1_UD.0 SRC2_UD(0,0)\0A}\0A", "=rw,rw,rw,P,P,P,0"(<8 x i16> %396, <16 x i16> %377, i32 8, i32 64, i32 128, <8 x float> %.sroa.155.13214) #0		; visa id: 786
  %449 = call <8 x float> asm "{\0A.decl DST     v_type=G type=f num_elts=$5 alias=<$0,0>\0A.decl SRC1_UD v_type=G type=UD num_elts=128 alias=<$2,0>\0A.decl SRC2_UD v_type=G type=UD num_elts=$4 alias=<$1,0>\0Adpas.bf.bf.8.$3 (M1, 16) DST.0 DST.0 SRC1_UD.0 SRC2_UD(0,0)\0A}\0A", "=rw,rw,rw,P,P,P,0"(<8 x i16> %428, <16 x i16> %379, i32 8, i32 64, i32 128, <8 x float> %445) #0		; visa id: 786
  %450 = call <8 x float> asm "{\0A.decl DST     v_type=G type=f num_elts=$5 alias=<$0,0>\0A.decl SRC1_UD v_type=G type=UD num_elts=128 alias=<$2,0>\0A.decl SRC2_UD v_type=G type=UD num_elts=$4 alias=<$1,0>\0Adpas.bf.bf.8.$3 (M1, 16) DST.0 DST.0 SRC1_UD.0 SRC2_UD(0,0)\0A}\0A", "=rw,rw,rw,P,P,P,0"(<8 x i16> %444, <16 x i16> %379, i32 8, i32 64, i32 128, <8 x float> %446) #0		; visa id: 786
  %451 = call <8 x float> asm "{\0A.decl DST     v_type=G type=f num_elts=$5 alias=<$0,0>\0A.decl SRC1_UD v_type=G type=UD num_elts=128 alias=<$2,0>\0A.decl SRC2_UD v_type=G type=UD num_elts=$4 alias=<$1,0>\0Adpas.bf.bf.8.$3 (M1, 16) DST.0 DST.0 SRC1_UD.0 SRC2_UD(0,0)\0A}\0A", "=rw,rw,rw,P,P,P,0"(<8 x i16> %444, <16 x i16> %380, i32 8, i32 64, i32 128, <8 x float> %447) #0		; visa id: 786
  %452 = call <8 x float> asm "{\0A.decl DST     v_type=G type=f num_elts=$5 alias=<$0,0>\0A.decl SRC1_UD v_type=G type=UD num_elts=128 alias=<$2,0>\0A.decl SRC2_UD v_type=G type=UD num_elts=$4 alias=<$1,0>\0Adpas.bf.bf.8.$3 (M1, 16) DST.0 DST.0 SRC1_UD.0 SRC2_UD(0,0)\0A}\0A", "=rw,rw,rw,P,P,P,0"(<8 x i16> %428, <16 x i16> %380, i32 8, i32 64, i32 128, <8 x float> %448) #0		; visa id: 786
  br label %._crit_edge140, !stats.blockFrequency.digits !1214, !stats.blockFrequency.scale !1206		; visa id: 786

._crit_edge140.unr-lcssa.._crit_edge140_crit_edge: ; preds = %._crit_edge140.unr-lcssa
; BB:
  br label %._crit_edge140, !stats.blockFrequency.digits !1220, !stats.blockFrequency.scale !1232

._crit_edge140:                                   ; preds = %._crit_edge140.unr-lcssa.._crit_edge140_crit_edge, %.preheader137.._crit_edge140_crit_edge, %.epil.preheader
; BB48 :
  %.sroa.231.3 = phi <8 x float> [ zeroinitializer, %.preheader137.._crit_edge140_crit_edge ], [ %451, %.epil.preheader ], [ %.lcssa3292, %._crit_edge140.unr-lcssa.._crit_edge140_crit_edge ]
  %.sroa.155.3 = phi <8 x float> [ zeroinitializer, %.preheader137.._crit_edge140_crit_edge ], [ %452, %.epil.preheader ], [ %.lcssa3291, %._crit_edge140.unr-lcssa.._crit_edge140_crit_edge ]
  %.sroa.79.3 = phi <8 x float> [ zeroinitializer, %.preheader137.._crit_edge140_crit_edge ], [ %450, %.epil.preheader ], [ %.lcssa3293, %._crit_edge140.unr-lcssa.._crit_edge140_crit_edge ]
  %.sroa.01431.3 = phi <8 x float> [ zeroinitializer, %.preheader137.._crit_edge140_crit_edge ], [ %449, %.epil.preheader ], [ %.lcssa3294, %._crit_edge140.unr-lcssa.._crit_edge140_crit_edge ]
  %453 = add nsw i32 %208, %163, !spirv.Decorations !1203		; visa id: 787
  call void @llvm.genx.GenISA.LSC2DBlockSetAddrPayloadField.p4i8.i32(i8 addrspace(4)* %Block2D_AddrPayload118, i32 5, i32 %202, i1 false)		; visa id: 788
  call void @llvm.genx.GenISA.LSC2DBlockSetAddrPayloadField.p4i8.i32(i8 addrspace(4)* %Block2D_AddrPayload118, i32 6, i32 %453, i1 false)		; visa id: 789
  call void asm sideeffect "lsc_load_block2d.ugm.ca.ca (M1, 1)  %null:d$1.$2x$3nn flat[$0+(0,0)]", "rw.u,P,P,P"(i8 addrspace(4)* %Block2D_AddrPayload118, i32 16, i32 32, i32 2) #0		; visa id: 790
  call void @llvm.genx.GenISA.LSC2DBlockSetAddrPayloadField.p4i8.i32(i8 addrspace(4)* %Block2D_AddrPayload118, i32 5, i32 %203, i1 false)		; visa id: 790
  call void @llvm.genx.GenISA.LSC2DBlockSetAddrPayloadField.p4i8.i32(i8 addrspace(4)* %Block2D_AddrPayload118, i32 6, i32 %453, i1 false)		; visa id: 791
  call void asm sideeffect "lsc_load_block2d.ugm.ca.ca (M1, 1)  %null:d$1.$2x$3nn flat[$0+(0,0)]", "rw.u,P,P,P"(i8 addrspace(4)* %Block2D_AddrPayload118, i32 16, i32 32, i32 2) #0		; visa id: 792
  call void @llvm.genx.GenISA.LSC2DBlockSetAddrPayloadField.p4i8.i32(i8 addrspace(4)* %Block2D_AddrPayload118, i32 5, i32 %204, i1 false)		; visa id: 792
  call void @llvm.genx.GenISA.LSC2DBlockSetAddrPayloadField.p4i8.i32(i8 addrspace(4)* %Block2D_AddrPayload118, i32 6, i32 %453, i1 false)		; visa id: 793
  call void asm sideeffect "lsc_load_block2d.ugm.ca.ca (M1, 1)  %null:d$1.$2x$3nn flat[$0+(0,0)]", "rw.u,P,P,P"(i8 addrspace(4)* %Block2D_AddrPayload118, i32 16, i32 32, i32 2) #0		; visa id: 794
  call void @llvm.genx.GenISA.LSC2DBlockSetAddrPayloadField.p4i8.i32(i8 addrspace(4)* %Block2D_AddrPayload118, i32 5, i32 %205, i1 false)		; visa id: 794
  call void @llvm.genx.GenISA.LSC2DBlockSetAddrPayloadField.p4i8.i32(i8 addrspace(4)* %Block2D_AddrPayload118, i32 6, i32 %453, i1 false)		; visa id: 795
  call void asm sideeffect "lsc_load_block2d.ugm.ca.ca (M1, 1)  %null:d$1.$2x$3nn flat[$0+(0,0)]", "rw.u,P,P,P"(i8 addrspace(4)* %Block2D_AddrPayload118, i32 16, i32 32, i32 2) #0		; visa id: 796
  %454 = icmp eq i32 %206, %199		; visa id: 796
  %455 = and i1 %.not.not, %454		; visa id: 797
  br i1 %455, label %.preheader135, label %._crit_edge140..loopexit1.i_crit_edge, !stats.blockFrequency.digits !1224, !stats.blockFrequency.scale !1218		; visa id: 800

._crit_edge140..loopexit1.i_crit_edge:            ; preds = %._crit_edge140
; BB:
  br label %.loopexit1.i, !stats.blockFrequency.digits !1205, !stats.blockFrequency.scale !1226

.preheader135:                                    ; preds = %._crit_edge140
; BB50 :
  %simdLaneId16 = call i16 @llvm.genx.GenISA.simdLaneId()		; visa id: 802
  %simdLaneId = zext i16 %simdLaneId16 to i32		; visa id: 804
  %456 = or i32 %indvars.iv, %simdLaneId		; visa id: 805
  %457 = icmp slt i32 %456, %68		; visa id: 806
  %spec.select.le = select i1 %457, float 0x7FFFFFFFE0000000, float 0xFFF0000000000000		; visa id: 807
  %458 = extractelement <8 x float> %.sroa.01431.3, i32 0		; visa id: 808
  %459 = call float @llvm.minnum.f32(float %458, float %spec.select.le)		; visa id: 809
  %.sroa.01431.0.vec.insert1448 = insertelement <8 x float> poison, float %459, i64 0		; visa id: 810
  %460 = extractelement <8 x float> %.sroa.01431.3, i32 1		; visa id: 811
  %461 = call float @llvm.minnum.f32(float %460, float %spec.select.le)		; visa id: 812
  %.sroa.01431.4.vec.insert1454 = insertelement <8 x float> %.sroa.01431.0.vec.insert1448, float %461, i64 1		; visa id: 813
  %462 = extractelement <8 x float> %.sroa.01431.3, i32 2		; visa id: 814
  %463 = call float @llvm.minnum.f32(float %462, float %spec.select.le)		; visa id: 815
  %.sroa.01431.8.vec.insert1467 = insertelement <8 x float> %.sroa.01431.4.vec.insert1454, float %463, i64 2		; visa id: 816
  %464 = extractelement <8 x float> %.sroa.01431.3, i32 3		; visa id: 817
  %465 = call float @llvm.minnum.f32(float %464, float %spec.select.le)		; visa id: 818
  %.sroa.01431.12.vec.insert1480 = insertelement <8 x float> %.sroa.01431.8.vec.insert1467, float %465, i64 3		; visa id: 819
  %466 = extractelement <8 x float> %.sroa.01431.3, i32 4		; visa id: 820
  %467 = call float @llvm.minnum.f32(float %466, float %spec.select.le)		; visa id: 821
  %.sroa.01431.16.vec.insert1493 = insertelement <8 x float> %.sroa.01431.12.vec.insert1480, float %467, i64 4		; visa id: 822
  %468 = extractelement <8 x float> %.sroa.01431.3, i32 5		; visa id: 823
  %469 = call float @llvm.minnum.f32(float %468, float %spec.select.le)		; visa id: 824
  %.sroa.01431.20.vec.insert1506 = insertelement <8 x float> %.sroa.01431.16.vec.insert1493, float %469, i64 5		; visa id: 825
  %470 = extractelement <8 x float> %.sroa.01431.3, i32 6		; visa id: 826
  %471 = call float @llvm.minnum.f32(float %470, float %spec.select.le)		; visa id: 827
  %.sroa.01431.24.vec.insert1519 = insertelement <8 x float> %.sroa.01431.20.vec.insert1506, float %471, i64 6		; visa id: 828
  %472 = extractelement <8 x float> %.sroa.01431.3, i32 7		; visa id: 829
  %473 = call float @llvm.minnum.f32(float %472, float %spec.select.le)		; visa id: 830
  %.sroa.01431.28.vec.insert1532 = insertelement <8 x float> %.sroa.01431.24.vec.insert1519, float %473, i64 7		; visa id: 831
  %474 = extractelement <8 x float> %.sroa.79.3, i32 0		; visa id: 832
  %475 = call float @llvm.minnum.f32(float %474, float %spec.select.le)		; visa id: 833
  %.sroa.79.32.vec.insert1552 = insertelement <8 x float> poison, float %475, i64 0		; visa id: 834
  %476 = extractelement <8 x float> %.sroa.79.3, i32 1		; visa id: 835
  %477 = call float @llvm.minnum.f32(float %476, float %spec.select.le)		; visa id: 836
  %.sroa.79.36.vec.insert1565 = insertelement <8 x float> %.sroa.79.32.vec.insert1552, float %477, i64 1		; visa id: 837
  %478 = extractelement <8 x float> %.sroa.79.3, i32 2		; visa id: 838
  %479 = call float @llvm.minnum.f32(float %478, float %spec.select.le)		; visa id: 839
  %.sroa.79.40.vec.insert1578 = insertelement <8 x float> %.sroa.79.36.vec.insert1565, float %479, i64 2		; visa id: 840
  %480 = extractelement <8 x float> %.sroa.79.3, i32 3		; visa id: 841
  %481 = call float @llvm.minnum.f32(float %480, float %spec.select.le)		; visa id: 842
  %.sroa.79.44.vec.insert1591 = insertelement <8 x float> %.sroa.79.40.vec.insert1578, float %481, i64 3		; visa id: 843
  %482 = extractelement <8 x float> %.sroa.79.3, i32 4		; visa id: 844
  %483 = call float @llvm.minnum.f32(float %482, float %spec.select.le)		; visa id: 845
  %.sroa.79.48.vec.insert1604 = insertelement <8 x float> %.sroa.79.44.vec.insert1591, float %483, i64 4		; visa id: 846
  %484 = extractelement <8 x float> %.sroa.79.3, i32 5		; visa id: 847
  %485 = call float @llvm.minnum.f32(float %484, float %spec.select.le)		; visa id: 848
  %.sroa.79.52.vec.insert1617 = insertelement <8 x float> %.sroa.79.48.vec.insert1604, float %485, i64 5		; visa id: 849
  %486 = extractelement <8 x float> %.sroa.79.3, i32 6		; visa id: 850
  %487 = call float @llvm.minnum.f32(float %486, float %spec.select.le)		; visa id: 851
  %.sroa.79.56.vec.insert1630 = insertelement <8 x float> %.sroa.79.52.vec.insert1617, float %487, i64 6		; visa id: 852
  %488 = extractelement <8 x float> %.sroa.79.3, i32 7		; visa id: 853
  %489 = call float @llvm.minnum.f32(float %488, float %spec.select.le)		; visa id: 854
  %.sroa.79.60.vec.insert1643 = insertelement <8 x float> %.sroa.79.56.vec.insert1630, float %489, i64 7		; visa id: 855
  %490 = extractelement <8 x float> %.sroa.155.3, i32 0		; visa id: 856
  %491 = call float @llvm.minnum.f32(float %490, float %spec.select.le)		; visa id: 857
  %.sroa.155.64.vec.insert1667 = insertelement <8 x float> poison, float %491, i64 0		; visa id: 858
  %492 = extractelement <8 x float> %.sroa.155.3, i32 1		; visa id: 859
  %493 = call float @llvm.minnum.f32(float %492, float %spec.select.le)		; visa id: 860
  %.sroa.155.68.vec.insert1676 = insertelement <8 x float> %.sroa.155.64.vec.insert1667, float %493, i64 1		; visa id: 861
  %494 = extractelement <8 x float> %.sroa.155.3, i32 2		; visa id: 862
  %495 = call float @llvm.minnum.f32(float %494, float %spec.select.le)		; visa id: 863
  %.sroa.155.72.vec.insert1689 = insertelement <8 x float> %.sroa.155.68.vec.insert1676, float %495, i64 2		; visa id: 864
  %496 = extractelement <8 x float> %.sroa.155.3, i32 3		; visa id: 865
  %497 = call float @llvm.minnum.f32(float %496, float %spec.select.le)		; visa id: 866
  %.sroa.155.76.vec.insert1702 = insertelement <8 x float> %.sroa.155.72.vec.insert1689, float %497, i64 3		; visa id: 867
  %498 = extractelement <8 x float> %.sroa.155.3, i32 4		; visa id: 868
  %499 = call float @llvm.minnum.f32(float %498, float %spec.select.le)		; visa id: 869
  %.sroa.155.80.vec.insert1715 = insertelement <8 x float> %.sroa.155.76.vec.insert1702, float %499, i64 4		; visa id: 870
  %500 = extractelement <8 x float> %.sroa.155.3, i32 5		; visa id: 871
  %501 = call float @llvm.minnum.f32(float %500, float %spec.select.le)		; visa id: 872
  %.sroa.155.84.vec.insert1728 = insertelement <8 x float> %.sroa.155.80.vec.insert1715, float %501, i64 5		; visa id: 873
  %502 = extractelement <8 x float> %.sroa.155.3, i32 6		; visa id: 874
  %503 = call float @llvm.minnum.f32(float %502, float %spec.select.le)		; visa id: 875
  %.sroa.155.88.vec.insert1741 = insertelement <8 x float> %.sroa.155.84.vec.insert1728, float %503, i64 6		; visa id: 876
  %504 = extractelement <8 x float> %.sroa.155.3, i32 7		; visa id: 877
  %505 = call float @llvm.minnum.f32(float %504, float %spec.select.le)		; visa id: 878
  %.sroa.155.92.vec.insert1754 = insertelement <8 x float> %.sroa.155.88.vec.insert1741, float %505, i64 7		; visa id: 879
  %506 = extractelement <8 x float> %.sroa.231.3, i32 0		; visa id: 880
  %507 = call float @llvm.minnum.f32(float %506, float %spec.select.le)		; visa id: 881
  %.sroa.231.96.vec.insert1774 = insertelement <8 x float> poison, float %507, i64 0		; visa id: 882
  %508 = extractelement <8 x float> %.sroa.231.3, i32 1		; visa id: 883
  %509 = call float @llvm.minnum.f32(float %508, float %spec.select.le)		; visa id: 884
  %.sroa.231.100.vec.insert1787 = insertelement <8 x float> %.sroa.231.96.vec.insert1774, float %509, i64 1		; visa id: 885
  %510 = extractelement <8 x float> %.sroa.231.3, i32 2		; visa id: 886
  %511 = call float @llvm.minnum.f32(float %510, float %spec.select.le)		; visa id: 887
  %.sroa.231.104.vec.insert1800 = insertelement <8 x float> %.sroa.231.100.vec.insert1787, float %511, i64 2		; visa id: 888
  %512 = extractelement <8 x float> %.sroa.231.3, i32 3		; visa id: 889
  %513 = call float @llvm.minnum.f32(float %512, float %spec.select.le)		; visa id: 890
  %.sroa.231.108.vec.insert1813 = insertelement <8 x float> %.sroa.231.104.vec.insert1800, float %513, i64 3		; visa id: 891
  %514 = extractelement <8 x float> %.sroa.231.3, i32 4		; visa id: 892
  %515 = call float @llvm.minnum.f32(float %514, float %spec.select.le)		; visa id: 893
  %.sroa.231.112.vec.insert1826 = insertelement <8 x float> %.sroa.231.108.vec.insert1813, float %515, i64 4		; visa id: 894
  %516 = extractelement <8 x float> %.sroa.231.3, i32 5		; visa id: 895
  %517 = call float @llvm.minnum.f32(float %516, float %spec.select.le)		; visa id: 896
  %.sroa.231.116.vec.insert1839 = insertelement <8 x float> %.sroa.231.112.vec.insert1826, float %517, i64 5		; visa id: 897
  %518 = extractelement <8 x float> %.sroa.231.3, i32 6		; visa id: 898
  %519 = call float @llvm.minnum.f32(float %518, float %spec.select.le)		; visa id: 899
  %.sroa.231.120.vec.insert1852 = insertelement <8 x float> %.sroa.231.116.vec.insert1839, float %519, i64 6		; visa id: 900
  %520 = extractelement <8 x float> %.sroa.231.3, i32 7		; visa id: 901
  %521 = call float @llvm.minnum.f32(float %520, float %spec.select.le)		; visa id: 902
  %.sroa.231.124.vec.insert1865 = insertelement <8 x float> %.sroa.231.120.vec.insert1852, float %521, i64 7		; visa id: 903
  br label %.loopexit1.i, !stats.blockFrequency.digits !1205, !stats.blockFrequency.scale !1226		; visa id: 936

.loopexit1.i:                                     ; preds = %._crit_edge140..loopexit1.i_crit_edge, %.preheader135
; BB51 :
  %.sroa.231.5 = phi <8 x float> [ %.sroa.231.124.vec.insert1865, %.preheader135 ], [ %.sroa.231.3, %._crit_edge140..loopexit1.i_crit_edge ]
  %.sroa.155.5 = phi <8 x float> [ %.sroa.155.92.vec.insert1754, %.preheader135 ], [ %.sroa.155.3, %._crit_edge140..loopexit1.i_crit_edge ]
  %.sroa.79.5 = phi <8 x float> [ %.sroa.79.60.vec.insert1643, %.preheader135 ], [ %.sroa.79.3, %._crit_edge140..loopexit1.i_crit_edge ]
  %.sroa.01431.5 = phi <8 x float> [ %.sroa.01431.28.vec.insert1532, %.preheader135 ], [ %.sroa.01431.3, %._crit_edge140..loopexit1.i_crit_edge ]
  %522 = extractelement <8 x float> %.sroa.01431.5, i32 0		; visa id: 937
  %523 = extractelement <8 x float> %.sroa.155.5, i32 0		; visa id: 938
  %524 = fcmp reassoc nsz arcp contract olt float %522, %523, !spirv.Decorations !1233		; visa id: 939
  %525 = select i1 %524, float %523, float %522		; visa id: 940
  %526 = extractelement <8 x float> %.sroa.01431.5, i32 1		; visa id: 941
  %527 = extractelement <8 x float> %.sroa.155.5, i32 1		; visa id: 942
  %528 = fcmp reassoc nsz arcp contract olt float %526, %527, !spirv.Decorations !1233		; visa id: 943
  %529 = select i1 %528, float %527, float %526		; visa id: 944
  %530 = extractelement <8 x float> %.sroa.01431.5, i32 2		; visa id: 945
  %531 = extractelement <8 x float> %.sroa.155.5, i32 2		; visa id: 946
  %532 = fcmp reassoc nsz arcp contract olt float %530, %531, !spirv.Decorations !1233		; visa id: 947
  %533 = select i1 %532, float %531, float %530		; visa id: 948
  %534 = extractelement <8 x float> %.sroa.01431.5, i32 3		; visa id: 949
  %535 = extractelement <8 x float> %.sroa.155.5, i32 3		; visa id: 950
  %536 = fcmp reassoc nsz arcp contract olt float %534, %535, !spirv.Decorations !1233		; visa id: 951
  %537 = select i1 %536, float %535, float %534		; visa id: 952
  %538 = extractelement <8 x float> %.sroa.01431.5, i32 4		; visa id: 953
  %539 = extractelement <8 x float> %.sroa.155.5, i32 4		; visa id: 954
  %540 = fcmp reassoc nsz arcp contract olt float %538, %539, !spirv.Decorations !1233		; visa id: 955
  %541 = select i1 %540, float %539, float %538		; visa id: 956
  %542 = extractelement <8 x float> %.sroa.01431.5, i32 5		; visa id: 957
  %543 = extractelement <8 x float> %.sroa.155.5, i32 5		; visa id: 958
  %544 = fcmp reassoc nsz arcp contract olt float %542, %543, !spirv.Decorations !1233		; visa id: 959
  %545 = select i1 %544, float %543, float %542		; visa id: 960
  %546 = extractelement <8 x float> %.sroa.01431.5, i32 6		; visa id: 961
  %547 = extractelement <8 x float> %.sroa.155.5, i32 6		; visa id: 962
  %548 = fcmp reassoc nsz arcp contract olt float %546, %547, !spirv.Decorations !1233		; visa id: 963
  %549 = select i1 %548, float %547, float %546		; visa id: 964
  %550 = extractelement <8 x float> %.sroa.01431.5, i32 7		; visa id: 965
  %551 = extractelement <8 x float> %.sroa.155.5, i32 7		; visa id: 966
  %552 = fcmp reassoc nsz arcp contract olt float %550, %551, !spirv.Decorations !1233		; visa id: 967
  %553 = select i1 %552, float %551, float %550		; visa id: 968
  %554 = extractelement <8 x float> %.sroa.79.5, i32 0		; visa id: 969
  %555 = extractelement <8 x float> %.sroa.231.5, i32 0		; visa id: 970
  %556 = fcmp reassoc nsz arcp contract olt float %554, %555, !spirv.Decorations !1233		; visa id: 971
  %557 = select i1 %556, float %555, float %554		; visa id: 972
  %558 = extractelement <8 x float> %.sroa.79.5, i32 1		; visa id: 973
  %559 = extractelement <8 x float> %.sroa.231.5, i32 1		; visa id: 974
  %560 = fcmp reassoc nsz arcp contract olt float %558, %559, !spirv.Decorations !1233		; visa id: 975
  %561 = select i1 %560, float %559, float %558		; visa id: 976
  %562 = extractelement <8 x float> %.sroa.79.5, i32 2		; visa id: 977
  %563 = extractelement <8 x float> %.sroa.231.5, i32 2		; visa id: 978
  %564 = fcmp reassoc nsz arcp contract olt float %562, %563, !spirv.Decorations !1233		; visa id: 979
  %565 = select i1 %564, float %563, float %562		; visa id: 980
  %566 = extractelement <8 x float> %.sroa.79.5, i32 3		; visa id: 981
  %567 = extractelement <8 x float> %.sroa.231.5, i32 3		; visa id: 982
  %568 = fcmp reassoc nsz arcp contract olt float %566, %567, !spirv.Decorations !1233		; visa id: 983
  %569 = select i1 %568, float %567, float %566		; visa id: 984
  %570 = extractelement <8 x float> %.sroa.79.5, i32 4		; visa id: 985
  %571 = extractelement <8 x float> %.sroa.231.5, i32 4		; visa id: 986
  %572 = fcmp reassoc nsz arcp contract olt float %570, %571, !spirv.Decorations !1233		; visa id: 987
  %573 = select i1 %572, float %571, float %570		; visa id: 988
  %574 = extractelement <8 x float> %.sroa.79.5, i32 5		; visa id: 989
  %575 = extractelement <8 x float> %.sroa.231.5, i32 5		; visa id: 990
  %576 = fcmp reassoc nsz arcp contract olt float %574, %575, !spirv.Decorations !1233		; visa id: 991
  %577 = select i1 %576, float %575, float %574		; visa id: 992
  %578 = extractelement <8 x float> %.sroa.79.5, i32 6		; visa id: 993
  %579 = extractelement <8 x float> %.sroa.231.5, i32 6		; visa id: 994
  %580 = fcmp reassoc nsz arcp contract olt float %578, %579, !spirv.Decorations !1233		; visa id: 995
  %581 = select i1 %580, float %579, float %578		; visa id: 996
  %582 = extractelement <8 x float> %.sroa.79.5, i32 7		; visa id: 997
  %583 = extractelement <8 x float> %.sroa.231.5, i32 7		; visa id: 998
  %584 = fcmp reassoc nsz arcp contract olt float %582, %583, !spirv.Decorations !1233		; visa id: 999
  %585 = select i1 %584, float %583, float %582		; visa id: 1000
  %586 = call float asm "{\0A.decl INTERLEAVE_2 v_type=P num_elts=16\0A.decl INTERLEAVE_4 v_type=P num_elts=16\0A.decl INTERLEAVE_8 v_type=P num_elts=16\0A.decl IN0 v_type=G type=UD num_elts=16 alias=<$1,0>\0A.decl IN1 v_type=G type=UD num_elts=16 alias=<$2,0>\0A.decl IN2 v_type=G type=UD num_elts=16 alias=<$3,0>\0A.decl IN3 v_type=G type=UD num_elts=16 alias=<$4,0>\0A.decl IN4 v_type=G type=UD num_elts=16 alias=<$5,0>\0A.decl IN5 v_type=G type=UD num_elts=16 alias=<$6,0>\0A.decl IN6 v_type=G type=UD num_elts=16 alias=<$7,0>\0A.decl IN7 v_type=G type=UD num_elts=16 alias=<$8,0>\0A.decl IN8 v_type=G type=UD num_elts=16 alias=<$9,0>\0A.decl IN9 v_type=G type=UD num_elts=16 alias=<$10,0>\0A.decl IN10 v_type=G type=UD num_elts=16 alias=<$11,0>\0A.decl IN11 v_type=G type=UD num_elts=16 alias=<$12,0>\0A.decl IN12 v_type=G type=UD num_elts=16 alias=<$13,0>\0A.decl IN13 v_type=G type=UD num_elts=16 alias=<$14,0>\0A.decl IN14 v_type=G type=UD num_elts=16 alias=<$15,0>\0A.decl IN15 v_type=G type=UD num_elts=16 alias=<$16,0>\0A.decl RA0 v_type=G type=UD num_elts=32 align=64\0A.decl RA2 v_type=G type=UD num_elts=32 align=64\0A.decl RA4 v_type=G type=UD num_elts=32 align=64\0A.decl RA6 v_type=G type=UD num_elts=32 align=64\0A.decl RA8 v_type=G type=UD num_elts=32 align=64\0A.decl RA10 v_type=G type=UD num_elts=32 align=64\0A.decl RA12 v_type=G type=UD num_elts=32 align=64\0A.decl RA14 v_type=G type=UD num_elts=32 align=64\0A.decl RF0 v_type=G type=F num_elts=16 alias=<RA0,0>\0A.decl RF1 v_type=G type=F num_elts=16 alias=<RA0,64>\0A.decl RF2 v_type=G type=F num_elts=16 alias=<RA2,0>\0A.decl RF3 v_type=G type=F num_elts=16 alias=<RA2,64>\0A.decl RF4 v_type=G type=F num_elts=16 alias=<RA4,0>\0A.decl RF5 v_type=G type=F num_elts=16 alias=<RA4,64>\0A.decl RF6 v_type=G type=F num_elts=16 alias=<RA6,0>\0A.decl RF7 v_type=G type=F num_elts=16 alias=<RA6,64>\0A.decl RF8 v_type=G type=F num_elts=16 alias=<RA8,0>\0A.decl RF9 v_type=G type=F num_elts=16 alias=<RA8,64>\0A.decl RF10 v_type=G type=F num_elts=16 alias=<RA10,0>\0A.decl RF11 v_type=G type=F num_elts=16 alias=<RA10,64>\0A.decl RF12 v_type=G type=F num_elts=16 alias=<RA12,0>\0A.decl RF13 v_type=G type=F num_elts=16 alias=<RA12,64>\0A.decl RF14 v_type=G type=F num_elts=16 alias=<RA14,0>\0A.decl RF15 v_type=G type=F num_elts=16 alias=<RA14,64>\0Asetp (M1_NM,16) INTERLEAVE_2 0x5555:uw\0Asetp (M1_NM,16) INTERLEAVE_4 0x3333:uw\0Asetp (M1_NM,16) INTERLEAVE_8 0x0F0F:uw\0A(!INTERLEAVE_2) sel (M1_NM,16) RA0(0,0)<1>  IN1(0,0)<2;2,0>  IN0(0,0)<1;1,0>\0A (INTERLEAVE_2) sel (M1_NM,16) RA0(1,0)<1>  IN0(0,1)<2;2,0>  IN1(0,0)<1;1,0>\0A(!INTERLEAVE_2) sel (M1_NM,16) RA2(0,0)<1>  IN3(0,0)<2;2,0>  IN2(0,0)<1;1,0>\0A (INTERLEAVE_2) sel (M1_NM,16) RA2(1,0)<1>  IN2(0,1)<2;2,0>  IN3(0,0)<1;1,0>\0A(!INTERLEAVE_2) sel (M1_NM,16) RA4(0,0)<1>  IN5(0,0)<2;2,0>  IN4(0,0)<1;1,0>\0A (INTERLEAVE_2) sel (M1_NM,16) RA4(1,0)<1>  IN4(0,1)<2;2,0>  IN5(0,0)<1;1,0>\0A(!INTERLEAVE_2) sel (M1_NM,16) RA6(0,0)<1>  IN7(0,0)<2;2,0>  IN6(0,0)<1;1,0>\0A (INTERLEAVE_2) sel (M1_NM,16) RA6(1,0)<1>  IN6(0,1)<2;2,0>  IN7(0,0)<1;1,0>\0A(!INTERLEAVE_2) sel (M1_NM,16) RA8(0,0)<1>  IN9(0,0)<2;2,0>  IN8(0,0)<1;1,0>\0A (INTERLEAVE_2) sel (M1_NM,16) RA8(1,0)<1>  IN8(0,1)<2;2,0>  IN9(0,0)<1;1,0>\0A(!INTERLEAVE_2) sel (M1_NM,16) RA10(0,0)<1> IN11(0,0)<2;2,0> IN10(0,0)<1;1,0>\0A (INTERLEAVE_2) sel (M1_NM,16) RA10(1,0)<1> IN10(0,1)<2;2,0> IN11(0,0)<1;1,0>\0A(!INTERLEAVE_2) sel (M1_NM,16) RA12(0,0)<1> IN13(0,0)<2;2,0> IN12(0,0)<1;1,0>\0A (INTERLEAVE_2) sel (M1_NM,16) RA12(1,0)<1> IN12(0,1)<2;2,0> IN13(0,0)<1;1,0>\0A(!INTERLEAVE_2) sel (M1_NM,16) RA14(0,0)<1> IN15(0,0)<2;2,0> IN14(0,0)<1;1,0>\0A (INTERLEAVE_2) sel (M1_NM,16) RA14(1,0)<1> IN14(0,1)<2;2,0> IN15(0,0)<1;1,0>\0Amax (M1_NM,16) RF0(0,0)<1> RF0(0,0)<1;1,0> RF1(0,0)<1;1,0>\0Amax (M1_NM,16) RF3(0,0)<1> RF2(0,0)<1;1,0> RF3(0,0)<1;1,0>\0Amax (M1_NM,16) RF4(0,0)<1> RF4(0,0)<1;1,0> RF5(0,0)<1;1,0>\0Amax (M1_NM,16) RF7(0,0)<1> RF6(0,0)<1;1,0> RF7(0,0)<1;1,0>\0Amax (M1_NM,16) RF8(0,0)<1> RF8(0,0)<1;1,0> RF9(0,0)<1;1,0>\0Amax (M1_NM,16) RF11(0,0)<1> RF10(0,0)<1;1,0> RF11(0,0)<1;1,0>\0Amax (M1_NM,16) RF12(0,0)<1> RF12(0,0)<1;1,0> RF13(0,0)<1;1,0>\0Amax (M1_NM,16) RF15(0,0)<1> RF14(0,0)<1;1,0> RF15(0,0)<1;1,0>\0A(!INTERLEAVE_4) sel (M1_NM,16) RA0(1,0)<1>  RA2(0,14)<1;1,0>  RA0(0,0)<1;1,0>\0A (INTERLEAVE_4) sel (M1_NM,16) RA0(0,0)<1>  RA0(0,2)<1;1,0>   RA2(1,0)<1;1,0>\0A(!INTERLEAVE_4) sel (M1_NM,16) RA4(1,0)<1>  RA6(0,14)<1;1,0>  RA4(0,0)<1;1,0>\0A (INTERLEAVE_4) sel (M1_NM,16) RA4(0,0)<1>  RA4(0,2)<1;1,0>   RA6(1,0)<1;1,0>\0A(!INTERLEAVE_4) sel (M1_NM,16) RA8(1,0)<1>  RA10(0,14)<1;1,0> RA8(0,0)<1;1,0>\0A (INTERLEAVE_4) sel (M1_NM,16) RA8(0,0)<1>  RA8(0,2)<1;1,0>   RA10(1,0)<1;1,0>\0A(!INTERLEAVE_4) sel (M1_NM,16) RA12(1,0)<1> RA14(0,14)<1;1,0> RA12(0,0)<1;1,0>\0A (INTERLEAVE_4) sel (M1_NM,16) RA12(0,0)<1> RA12(0,2)<1;1,0>  RA14(1,0)<1;1,0>\0Amax (M1_NM,16) RF0(0,0)<1>  RF0(0,0)<1;1,0>  RF1(0,0)<1;1,0>\0Amax (M1_NM,16) RF5(0,0)<1>  RF4(0,0)<1;1,0>  RF5(0,0)<1;1,0>\0Amax (M1_NM,16) RF8(0,0)<1>  RF8(0,0)<1;1,0>  RF9(0,0)<1;1,0>\0Amax (M1_NM,16) RF13(0,0)<1> RF12(0,0)<1;1,0> RF13(0,0)<1;1,0>\0A(!INTERLEAVE_8) sel (M1_NM,16) RA0(1,0)<1> RA4(0,12)<1;1,0>  RA0(0,0)<1;1,0>\0A (INTERLEAVE_8) sel (M1_NM,16) RA0(0,0)<1> RA0(0,4)<1;1,0>   RA4(1,0)<1;1,0>\0A(!INTERLEAVE_8) sel (M1_NM,16) RA8(1,0)<1> RA12(0,12)<1;1,0> RA8(0,0)<1;1,0>\0A (INTERLEAVE_8) sel (M1_NM,16) RA8(0,0)<1> RA8(0,4)<1;1,0>   RA12(1,0)<1;1,0>\0Amax (M1_NM,16) RF0(0,0)<1> RF0(0,0)<1;1,0> RF1(0,0)<1;1,0>\0Amax (M1_NM,16) RF8(0,0)<1> RF8(0,0)<1;1,0> RF9(0,0)<1;1,0>\0Amov (M1_NM, 8) RA0(1,0)<1> RA0(0,8)<1;1,0>\0Amov (M1_NM, 8) RA8(1,8)<1> RA8(0,0)<1;1,0>\0Amax (M1_NM,8) $0(0,0)<1> RF0(0,0)<1;1,0> RF1(0,0)<1;1,0>\0Amax (M1_NM,8) $0(0,8)<1> RF8(0,8)<1;1,0> RF9(0,8)<1;1,0>\0A}\0A", "=rw,rw,rw,rw,rw,rw,rw,rw,rw,rw,rw,rw,rw,rw,rw,rw,rw"(float %525, float %529, float %533, float %537, float %541, float %545, float %549, float %553, float %557, float %561, float %565, float %569, float %573, float %577, float %581, float %585) #0		; visa id: 1001
  %587 = fmul reassoc nsz arcp contract float %586, %const_reg_fp32, !spirv.Decorations !1233		; visa id: 1001
  %588 = call float @llvm.maxnum.f32(float %.sroa.0121.1144, float %587)		; visa id: 1002
  %589 = fmul reassoc nsz arcp contract float %522, %const_reg_fp32, !spirv.Decorations !1233
  %simdBroadcast109 = call float @llvm.genx.GenISA.WaveBroadcast.f32(float %588, i32 0, i32 0)
  %590 = fsub reassoc nsz arcp contract float %589, %simdBroadcast109, !spirv.Decorations !1233		; visa id: 1003
  %591 = call float @llvm.exp2.f32(float %590)		; visa id: 1004
  %592 = fmul reassoc nsz arcp contract float %526, %const_reg_fp32, !spirv.Decorations !1233
  %simdBroadcast109.1 = call float @llvm.genx.GenISA.WaveBroadcast.f32(float %588, i32 1, i32 0)
  %593 = fsub reassoc nsz arcp contract float %592, %simdBroadcast109.1, !spirv.Decorations !1233		; visa id: 1005
  %594 = call float @llvm.exp2.f32(float %593)		; visa id: 1006
  %595 = fmul reassoc nsz arcp contract float %530, %const_reg_fp32, !spirv.Decorations !1233
  %simdBroadcast109.2 = call float @llvm.genx.GenISA.WaveBroadcast.f32(float %588, i32 2, i32 0)
  %596 = fsub reassoc nsz arcp contract float %595, %simdBroadcast109.2, !spirv.Decorations !1233		; visa id: 1007
  %597 = call float @llvm.exp2.f32(float %596)		; visa id: 1008
  %598 = fmul reassoc nsz arcp contract float %534, %const_reg_fp32, !spirv.Decorations !1233
  %simdBroadcast109.3 = call float @llvm.genx.GenISA.WaveBroadcast.f32(float %588, i32 3, i32 0)
  %599 = fsub reassoc nsz arcp contract float %598, %simdBroadcast109.3, !spirv.Decorations !1233		; visa id: 1009
  %600 = call float @llvm.exp2.f32(float %599)		; visa id: 1010
  %601 = fmul reassoc nsz arcp contract float %538, %const_reg_fp32, !spirv.Decorations !1233
  %simdBroadcast109.4 = call float @llvm.genx.GenISA.WaveBroadcast.f32(float %588, i32 4, i32 0)
  %602 = fsub reassoc nsz arcp contract float %601, %simdBroadcast109.4, !spirv.Decorations !1233		; visa id: 1011
  %603 = call float @llvm.exp2.f32(float %602)		; visa id: 1012
  %604 = fmul reassoc nsz arcp contract float %542, %const_reg_fp32, !spirv.Decorations !1233
  %simdBroadcast109.5 = call float @llvm.genx.GenISA.WaveBroadcast.f32(float %588, i32 5, i32 0)
  %605 = fsub reassoc nsz arcp contract float %604, %simdBroadcast109.5, !spirv.Decorations !1233		; visa id: 1013
  %606 = call float @llvm.exp2.f32(float %605)		; visa id: 1014
  %607 = fmul reassoc nsz arcp contract float %546, %const_reg_fp32, !spirv.Decorations !1233
  %simdBroadcast109.6 = call float @llvm.genx.GenISA.WaveBroadcast.f32(float %588, i32 6, i32 0)
  %608 = fsub reassoc nsz arcp contract float %607, %simdBroadcast109.6, !spirv.Decorations !1233		; visa id: 1015
  %609 = call float @llvm.exp2.f32(float %608)		; visa id: 1016
  %610 = fmul reassoc nsz arcp contract float %550, %const_reg_fp32, !spirv.Decorations !1233
  %simdBroadcast109.7 = call float @llvm.genx.GenISA.WaveBroadcast.f32(float %588, i32 7, i32 0)
  %611 = fsub reassoc nsz arcp contract float %610, %simdBroadcast109.7, !spirv.Decorations !1233		; visa id: 1017
  %612 = call float @llvm.exp2.f32(float %611)		; visa id: 1018
  %613 = fmul reassoc nsz arcp contract float %554, %const_reg_fp32, !spirv.Decorations !1233
  %simdBroadcast109.8 = call float @llvm.genx.GenISA.WaveBroadcast.f32(float %588, i32 8, i32 0)
  %614 = fsub reassoc nsz arcp contract float %613, %simdBroadcast109.8, !spirv.Decorations !1233		; visa id: 1019
  %615 = call float @llvm.exp2.f32(float %614)		; visa id: 1020
  %616 = fmul reassoc nsz arcp contract float %558, %const_reg_fp32, !spirv.Decorations !1233
  %simdBroadcast109.9 = call float @llvm.genx.GenISA.WaveBroadcast.f32(float %588, i32 9, i32 0)
  %617 = fsub reassoc nsz arcp contract float %616, %simdBroadcast109.9, !spirv.Decorations !1233		; visa id: 1021
  %618 = call float @llvm.exp2.f32(float %617)		; visa id: 1022
  %619 = fmul reassoc nsz arcp contract float %562, %const_reg_fp32, !spirv.Decorations !1233
  %simdBroadcast109.10 = call float @llvm.genx.GenISA.WaveBroadcast.f32(float %588, i32 10, i32 0)
  %620 = fsub reassoc nsz arcp contract float %619, %simdBroadcast109.10, !spirv.Decorations !1233		; visa id: 1023
  %621 = call float @llvm.exp2.f32(float %620)		; visa id: 1024
  %622 = fmul reassoc nsz arcp contract float %566, %const_reg_fp32, !spirv.Decorations !1233
  %simdBroadcast109.11 = call float @llvm.genx.GenISA.WaveBroadcast.f32(float %588, i32 11, i32 0)
  %623 = fsub reassoc nsz arcp contract float %622, %simdBroadcast109.11, !spirv.Decorations !1233		; visa id: 1025
  %624 = call float @llvm.exp2.f32(float %623)		; visa id: 1026
  %625 = fmul reassoc nsz arcp contract float %570, %const_reg_fp32, !spirv.Decorations !1233
  %simdBroadcast109.12 = call float @llvm.genx.GenISA.WaveBroadcast.f32(float %588, i32 12, i32 0)
  %626 = fsub reassoc nsz arcp contract float %625, %simdBroadcast109.12, !spirv.Decorations !1233		; visa id: 1027
  %627 = call float @llvm.exp2.f32(float %626)		; visa id: 1028
  %628 = fmul reassoc nsz arcp contract float %574, %const_reg_fp32, !spirv.Decorations !1233
  %simdBroadcast109.13 = call float @llvm.genx.GenISA.WaveBroadcast.f32(float %588, i32 13, i32 0)
  %629 = fsub reassoc nsz arcp contract float %628, %simdBroadcast109.13, !spirv.Decorations !1233		; visa id: 1029
  %630 = call float @llvm.exp2.f32(float %629)		; visa id: 1030
  %631 = fmul reassoc nsz arcp contract float %578, %const_reg_fp32, !spirv.Decorations !1233
  %simdBroadcast109.14 = call float @llvm.genx.GenISA.WaveBroadcast.f32(float %588, i32 14, i32 0)
  %632 = fsub reassoc nsz arcp contract float %631, %simdBroadcast109.14, !spirv.Decorations !1233		; visa id: 1031
  %633 = call float @llvm.exp2.f32(float %632)		; visa id: 1032
  %634 = fmul reassoc nsz arcp contract float %582, %const_reg_fp32, !spirv.Decorations !1233
  %simdBroadcast109.15 = call float @llvm.genx.GenISA.WaveBroadcast.f32(float %588, i32 15, i32 0)
  %635 = fsub reassoc nsz arcp contract float %634, %simdBroadcast109.15, !spirv.Decorations !1233		; visa id: 1033
  %636 = call float @llvm.exp2.f32(float %635)		; visa id: 1034
  %637 = fmul reassoc nsz arcp contract float %523, %const_reg_fp32, !spirv.Decorations !1233
  %638 = fsub reassoc nsz arcp contract float %637, %simdBroadcast109, !spirv.Decorations !1233		; visa id: 1035
  %639 = call float @llvm.exp2.f32(float %638)		; visa id: 1036
  %640 = fmul reassoc nsz arcp contract float %527, %const_reg_fp32, !spirv.Decorations !1233
  %641 = fsub reassoc nsz arcp contract float %640, %simdBroadcast109.1, !spirv.Decorations !1233		; visa id: 1037
  %642 = call float @llvm.exp2.f32(float %641)		; visa id: 1038
  %643 = fmul reassoc nsz arcp contract float %531, %const_reg_fp32, !spirv.Decorations !1233
  %644 = fsub reassoc nsz arcp contract float %643, %simdBroadcast109.2, !spirv.Decorations !1233		; visa id: 1039
  %645 = call float @llvm.exp2.f32(float %644)		; visa id: 1040
  %646 = fmul reassoc nsz arcp contract float %535, %const_reg_fp32, !spirv.Decorations !1233
  %647 = fsub reassoc nsz arcp contract float %646, %simdBroadcast109.3, !spirv.Decorations !1233		; visa id: 1041
  %648 = call float @llvm.exp2.f32(float %647)		; visa id: 1042
  %649 = fmul reassoc nsz arcp contract float %539, %const_reg_fp32, !spirv.Decorations !1233
  %650 = fsub reassoc nsz arcp contract float %649, %simdBroadcast109.4, !spirv.Decorations !1233		; visa id: 1043
  %651 = call float @llvm.exp2.f32(float %650)		; visa id: 1044
  %652 = fmul reassoc nsz arcp contract float %543, %const_reg_fp32, !spirv.Decorations !1233
  %653 = fsub reassoc nsz arcp contract float %652, %simdBroadcast109.5, !spirv.Decorations !1233		; visa id: 1045
  %654 = call float @llvm.exp2.f32(float %653)		; visa id: 1046
  %655 = fmul reassoc nsz arcp contract float %547, %const_reg_fp32, !spirv.Decorations !1233
  %656 = fsub reassoc nsz arcp contract float %655, %simdBroadcast109.6, !spirv.Decorations !1233		; visa id: 1047
  %657 = call float @llvm.exp2.f32(float %656)		; visa id: 1048
  %658 = fmul reassoc nsz arcp contract float %551, %const_reg_fp32, !spirv.Decorations !1233
  %659 = fsub reassoc nsz arcp contract float %658, %simdBroadcast109.7, !spirv.Decorations !1233		; visa id: 1049
  %660 = call float @llvm.exp2.f32(float %659)		; visa id: 1050
  %661 = fmul reassoc nsz arcp contract float %555, %const_reg_fp32, !spirv.Decorations !1233
  %662 = fsub reassoc nsz arcp contract float %661, %simdBroadcast109.8, !spirv.Decorations !1233		; visa id: 1051
  %663 = call float @llvm.exp2.f32(float %662)		; visa id: 1052
  %664 = fmul reassoc nsz arcp contract float %559, %const_reg_fp32, !spirv.Decorations !1233
  %665 = fsub reassoc nsz arcp contract float %664, %simdBroadcast109.9, !spirv.Decorations !1233		; visa id: 1053
  %666 = call float @llvm.exp2.f32(float %665)		; visa id: 1054
  %667 = fmul reassoc nsz arcp contract float %563, %const_reg_fp32, !spirv.Decorations !1233
  %668 = fsub reassoc nsz arcp contract float %667, %simdBroadcast109.10, !spirv.Decorations !1233		; visa id: 1055
  %669 = call float @llvm.exp2.f32(float %668)		; visa id: 1056
  %670 = fmul reassoc nsz arcp contract float %567, %const_reg_fp32, !spirv.Decorations !1233
  %671 = fsub reassoc nsz arcp contract float %670, %simdBroadcast109.11, !spirv.Decorations !1233		; visa id: 1057
  %672 = call float @llvm.exp2.f32(float %671)		; visa id: 1058
  %673 = fmul reassoc nsz arcp contract float %571, %const_reg_fp32, !spirv.Decorations !1233
  %674 = fsub reassoc nsz arcp contract float %673, %simdBroadcast109.12, !spirv.Decorations !1233		; visa id: 1059
  %675 = call float @llvm.exp2.f32(float %674)		; visa id: 1060
  %676 = fmul reassoc nsz arcp contract float %575, %const_reg_fp32, !spirv.Decorations !1233
  %677 = fsub reassoc nsz arcp contract float %676, %simdBroadcast109.13, !spirv.Decorations !1233		; visa id: 1061
  %678 = call float @llvm.exp2.f32(float %677)		; visa id: 1062
  %679 = fmul reassoc nsz arcp contract float %579, %const_reg_fp32, !spirv.Decorations !1233
  %680 = fsub reassoc nsz arcp contract float %679, %simdBroadcast109.14, !spirv.Decorations !1233		; visa id: 1063
  %681 = call float @llvm.exp2.f32(float %680)		; visa id: 1064
  %682 = fmul reassoc nsz arcp contract float %583, %const_reg_fp32, !spirv.Decorations !1233
  %683 = fsub reassoc nsz arcp contract float %682, %simdBroadcast109.15, !spirv.Decorations !1233		; visa id: 1065
  %684 = call float @llvm.exp2.f32(float %683)		; visa id: 1066
  %685 = icmp eq i32 %206, 0		; visa id: 1067
  br i1 %685, label %.loopexit1.i..loopexit.i_crit_edge, label %.loopexit.i.loopexit, !stats.blockFrequency.digits !1224, !stats.blockFrequency.scale !1218		; visa id: 1068

.loopexit1.i..loopexit.i_crit_edge:               ; preds = %.loopexit1.i
; BB:
  br label %.loopexit.i, !stats.blockFrequency.digits !1225, !stats.blockFrequency.scale !1226

.loopexit.i.loopexit:                             ; preds = %.loopexit1.i
; BB53 :
  %686 = fsub reassoc nsz arcp contract float %.sroa.0121.1144, %588, !spirv.Decorations !1233		; visa id: 1070
  %687 = call float @llvm.exp2.f32(float %686)		; visa id: 1071
  %simdBroadcast110 = call float @llvm.genx.GenISA.WaveBroadcast.f32(float %687, i32 0, i32 0)
  %688 = extractelement <8 x float> %.sroa.0.0, i32 0		; visa id: 1072
  %689 = fmul reassoc nsz arcp contract float %688, %simdBroadcast110, !spirv.Decorations !1233		; visa id: 1073
  %.sroa.0.0.vec.insert = insertelement <8 x float> poison, float %689, i64 0		; visa id: 1074
  %simdBroadcast110.1 = call float @llvm.genx.GenISA.WaveBroadcast.f32(float %687, i32 1, i32 0)
  %690 = extractelement <8 x float> %.sroa.0.0, i32 1		; visa id: 1075
  %691 = fmul reassoc nsz arcp contract float %690, %simdBroadcast110.1, !spirv.Decorations !1233		; visa id: 1076
  %.sroa.0.4.vec.insert = insertelement <8 x float> %.sroa.0.0.vec.insert, float %691, i64 1		; visa id: 1077
  %simdBroadcast110.2 = call float @llvm.genx.GenISA.WaveBroadcast.f32(float %687, i32 2, i32 0)
  %692 = extractelement <8 x float> %.sroa.0.0, i32 2		; visa id: 1078
  %693 = fmul reassoc nsz arcp contract float %692, %simdBroadcast110.2, !spirv.Decorations !1233		; visa id: 1079
  %.sroa.0.8.vec.insert = insertelement <8 x float> %.sroa.0.4.vec.insert, float %693, i64 2		; visa id: 1080
  %simdBroadcast110.3 = call float @llvm.genx.GenISA.WaveBroadcast.f32(float %687, i32 3, i32 0)
  %694 = extractelement <8 x float> %.sroa.0.0, i32 3		; visa id: 1081
  %695 = fmul reassoc nsz arcp contract float %694, %simdBroadcast110.3, !spirv.Decorations !1233		; visa id: 1082
  %.sroa.0.12.vec.insert = insertelement <8 x float> %.sroa.0.8.vec.insert, float %695, i64 3		; visa id: 1083
  %simdBroadcast110.4 = call float @llvm.genx.GenISA.WaveBroadcast.f32(float %687, i32 4, i32 0)
  %696 = extractelement <8 x float> %.sroa.0.0, i32 4		; visa id: 1084
  %697 = fmul reassoc nsz arcp contract float %696, %simdBroadcast110.4, !spirv.Decorations !1233		; visa id: 1085
  %.sroa.0.16.vec.insert = insertelement <8 x float> %.sroa.0.12.vec.insert, float %697, i64 4		; visa id: 1086
  %simdBroadcast110.5 = call float @llvm.genx.GenISA.WaveBroadcast.f32(float %687, i32 5, i32 0)
  %698 = extractelement <8 x float> %.sroa.0.0, i32 5		; visa id: 1087
  %699 = fmul reassoc nsz arcp contract float %698, %simdBroadcast110.5, !spirv.Decorations !1233		; visa id: 1088
  %.sroa.0.20.vec.insert = insertelement <8 x float> %.sroa.0.16.vec.insert, float %699, i64 5		; visa id: 1089
  %simdBroadcast110.6 = call float @llvm.genx.GenISA.WaveBroadcast.f32(float %687, i32 6, i32 0)
  %700 = extractelement <8 x float> %.sroa.0.0, i32 6		; visa id: 1090
  %701 = fmul reassoc nsz arcp contract float %700, %simdBroadcast110.6, !spirv.Decorations !1233		; visa id: 1091
  %.sroa.0.24.vec.insert = insertelement <8 x float> %.sroa.0.20.vec.insert, float %701, i64 6		; visa id: 1092
  %simdBroadcast110.7 = call float @llvm.genx.GenISA.WaveBroadcast.f32(float %687, i32 7, i32 0)
  %702 = extractelement <8 x float> %.sroa.0.0, i32 7		; visa id: 1093
  %703 = fmul reassoc nsz arcp contract float %702, %simdBroadcast110.7, !spirv.Decorations !1233		; visa id: 1094
  %.sroa.0.28.vec.insert = insertelement <8 x float> %.sroa.0.24.vec.insert, float %703, i64 7		; visa id: 1095
  %simdBroadcast110.8 = call float @llvm.genx.GenISA.WaveBroadcast.f32(float %687, i32 8, i32 0)
  %704 = extractelement <8 x float> %.sroa.32.0, i32 0		; visa id: 1096
  %705 = fmul reassoc nsz arcp contract float %704, %simdBroadcast110.8, !spirv.Decorations !1233		; visa id: 1097
  %.sroa.32.32.vec.insert = insertelement <8 x float> poison, float %705, i64 0		; visa id: 1098
  %simdBroadcast110.9 = call float @llvm.genx.GenISA.WaveBroadcast.f32(float %687, i32 9, i32 0)
  %706 = extractelement <8 x float> %.sroa.32.0, i32 1		; visa id: 1099
  %707 = fmul reassoc nsz arcp contract float %706, %simdBroadcast110.9, !spirv.Decorations !1233		; visa id: 1100
  %.sroa.32.36.vec.insert = insertelement <8 x float> %.sroa.32.32.vec.insert, float %707, i64 1		; visa id: 1101
  %simdBroadcast110.10 = call float @llvm.genx.GenISA.WaveBroadcast.f32(float %687, i32 10, i32 0)
  %708 = extractelement <8 x float> %.sroa.32.0, i32 2		; visa id: 1102
  %709 = fmul reassoc nsz arcp contract float %708, %simdBroadcast110.10, !spirv.Decorations !1233		; visa id: 1103
  %.sroa.32.40.vec.insert = insertelement <8 x float> %.sroa.32.36.vec.insert, float %709, i64 2		; visa id: 1104
  %simdBroadcast110.11 = call float @llvm.genx.GenISA.WaveBroadcast.f32(float %687, i32 11, i32 0)
  %710 = extractelement <8 x float> %.sroa.32.0, i32 3		; visa id: 1105
  %711 = fmul reassoc nsz arcp contract float %710, %simdBroadcast110.11, !spirv.Decorations !1233		; visa id: 1106
  %.sroa.32.44.vec.insert = insertelement <8 x float> %.sroa.32.40.vec.insert, float %711, i64 3		; visa id: 1107
  %simdBroadcast110.12 = call float @llvm.genx.GenISA.WaveBroadcast.f32(float %687, i32 12, i32 0)
  %712 = extractelement <8 x float> %.sroa.32.0, i32 4		; visa id: 1108
  %713 = fmul reassoc nsz arcp contract float %712, %simdBroadcast110.12, !spirv.Decorations !1233		; visa id: 1109
  %.sroa.32.48.vec.insert = insertelement <8 x float> %.sroa.32.44.vec.insert, float %713, i64 4		; visa id: 1110
  %simdBroadcast110.13 = call float @llvm.genx.GenISA.WaveBroadcast.f32(float %687, i32 13, i32 0)
  %714 = extractelement <8 x float> %.sroa.32.0, i32 5		; visa id: 1111
  %715 = fmul reassoc nsz arcp contract float %714, %simdBroadcast110.13, !spirv.Decorations !1233		; visa id: 1112
  %.sroa.32.52.vec.insert = insertelement <8 x float> %.sroa.32.48.vec.insert, float %715, i64 5		; visa id: 1113
  %simdBroadcast110.14 = call float @llvm.genx.GenISA.WaveBroadcast.f32(float %687, i32 14, i32 0)
  %716 = extractelement <8 x float> %.sroa.32.0, i32 6		; visa id: 1114
  %717 = fmul reassoc nsz arcp contract float %716, %simdBroadcast110.14, !spirv.Decorations !1233		; visa id: 1115
  %.sroa.32.56.vec.insert = insertelement <8 x float> %.sroa.32.52.vec.insert, float %717, i64 6		; visa id: 1116
  %simdBroadcast110.15 = call float @llvm.genx.GenISA.WaveBroadcast.f32(float %687, i32 15, i32 0)
  %718 = extractelement <8 x float> %.sroa.32.0, i32 7		; visa id: 1117
  %719 = fmul reassoc nsz arcp contract float %718, %simdBroadcast110.15, !spirv.Decorations !1233		; visa id: 1118
  %.sroa.32.60.vec.insert = insertelement <8 x float> %.sroa.32.56.vec.insert, float %719, i64 7		; visa id: 1119
  %720 = extractelement <8 x float> %.sroa.60.0, i32 0		; visa id: 1120
  %721 = fmul reassoc nsz arcp contract float %720, %simdBroadcast110, !spirv.Decorations !1233		; visa id: 1121
  %.sroa.60.64.vec.insert = insertelement <8 x float> poison, float %721, i64 0		; visa id: 1122
  %722 = extractelement <8 x float> %.sroa.60.0, i32 1		; visa id: 1123
  %723 = fmul reassoc nsz arcp contract float %722, %simdBroadcast110.1, !spirv.Decorations !1233		; visa id: 1124
  %.sroa.60.68.vec.insert = insertelement <8 x float> %.sroa.60.64.vec.insert, float %723, i64 1		; visa id: 1125
  %724 = extractelement <8 x float> %.sroa.60.0, i32 2		; visa id: 1126
  %725 = fmul reassoc nsz arcp contract float %724, %simdBroadcast110.2, !spirv.Decorations !1233		; visa id: 1127
  %.sroa.60.72.vec.insert = insertelement <8 x float> %.sroa.60.68.vec.insert, float %725, i64 2		; visa id: 1128
  %726 = extractelement <8 x float> %.sroa.60.0, i32 3		; visa id: 1129
  %727 = fmul reassoc nsz arcp contract float %726, %simdBroadcast110.3, !spirv.Decorations !1233		; visa id: 1130
  %.sroa.60.76.vec.insert = insertelement <8 x float> %.sroa.60.72.vec.insert, float %727, i64 3		; visa id: 1131
  %728 = extractelement <8 x float> %.sroa.60.0, i32 4		; visa id: 1132
  %729 = fmul reassoc nsz arcp contract float %728, %simdBroadcast110.4, !spirv.Decorations !1233		; visa id: 1133
  %.sroa.60.80.vec.insert = insertelement <8 x float> %.sroa.60.76.vec.insert, float %729, i64 4		; visa id: 1134
  %730 = extractelement <8 x float> %.sroa.60.0, i32 5		; visa id: 1135
  %731 = fmul reassoc nsz arcp contract float %730, %simdBroadcast110.5, !spirv.Decorations !1233		; visa id: 1136
  %.sroa.60.84.vec.insert = insertelement <8 x float> %.sroa.60.80.vec.insert, float %731, i64 5		; visa id: 1137
  %732 = extractelement <8 x float> %.sroa.60.0, i32 6		; visa id: 1138
  %733 = fmul reassoc nsz arcp contract float %732, %simdBroadcast110.6, !spirv.Decorations !1233		; visa id: 1139
  %.sroa.60.88.vec.insert = insertelement <8 x float> %.sroa.60.84.vec.insert, float %733, i64 6		; visa id: 1140
  %734 = extractelement <8 x float> %.sroa.60.0, i32 7		; visa id: 1141
  %735 = fmul reassoc nsz arcp contract float %734, %simdBroadcast110.7, !spirv.Decorations !1233		; visa id: 1142
  %.sroa.60.92.vec.insert = insertelement <8 x float> %.sroa.60.88.vec.insert, float %735, i64 7		; visa id: 1143
  %736 = extractelement <8 x float> %.sroa.88.0, i32 0		; visa id: 1144
  %737 = fmul reassoc nsz arcp contract float %736, %simdBroadcast110.8, !spirv.Decorations !1233		; visa id: 1145
  %.sroa.88.96.vec.insert = insertelement <8 x float> poison, float %737, i64 0		; visa id: 1146
  %738 = extractelement <8 x float> %.sroa.88.0, i32 1		; visa id: 1147
  %739 = fmul reassoc nsz arcp contract float %738, %simdBroadcast110.9, !spirv.Decorations !1233		; visa id: 1148
  %.sroa.88.100.vec.insert = insertelement <8 x float> %.sroa.88.96.vec.insert, float %739, i64 1		; visa id: 1149
  %740 = extractelement <8 x float> %.sroa.88.0, i32 2		; visa id: 1150
  %741 = fmul reassoc nsz arcp contract float %740, %simdBroadcast110.10, !spirv.Decorations !1233		; visa id: 1151
  %.sroa.88.104.vec.insert = insertelement <8 x float> %.sroa.88.100.vec.insert, float %741, i64 2		; visa id: 1152
  %742 = extractelement <8 x float> %.sroa.88.0, i32 3		; visa id: 1153
  %743 = fmul reassoc nsz arcp contract float %742, %simdBroadcast110.11, !spirv.Decorations !1233		; visa id: 1154
  %.sroa.88.108.vec.insert = insertelement <8 x float> %.sroa.88.104.vec.insert, float %743, i64 3		; visa id: 1155
  %744 = extractelement <8 x float> %.sroa.88.0, i32 4		; visa id: 1156
  %745 = fmul reassoc nsz arcp contract float %744, %simdBroadcast110.12, !spirv.Decorations !1233		; visa id: 1157
  %.sroa.88.112.vec.insert = insertelement <8 x float> %.sroa.88.108.vec.insert, float %745, i64 4		; visa id: 1158
  %746 = extractelement <8 x float> %.sroa.88.0, i32 5		; visa id: 1159
  %747 = fmul reassoc nsz arcp contract float %746, %simdBroadcast110.13, !spirv.Decorations !1233		; visa id: 1160
  %.sroa.88.116.vec.insert = insertelement <8 x float> %.sroa.88.112.vec.insert, float %747, i64 5		; visa id: 1161
  %748 = extractelement <8 x float> %.sroa.88.0, i32 6		; visa id: 1162
  %749 = fmul reassoc nsz arcp contract float %748, %simdBroadcast110.14, !spirv.Decorations !1233		; visa id: 1163
  %.sroa.88.120.vec.insert = insertelement <8 x float> %.sroa.88.116.vec.insert, float %749, i64 6		; visa id: 1164
  %750 = extractelement <8 x float> %.sroa.88.0, i32 7		; visa id: 1165
  %751 = fmul reassoc nsz arcp contract float %750, %simdBroadcast110.15, !spirv.Decorations !1233		; visa id: 1166
  %.sroa.88.124.vec.insert = insertelement <8 x float> %.sroa.88.120.vec.insert, float %751, i64 7		; visa id: 1167
  %752 = extractelement <8 x float> %.sroa.116.0, i32 0		; visa id: 1168
  %753 = fmul reassoc nsz arcp contract float %752, %simdBroadcast110, !spirv.Decorations !1233		; visa id: 1169
  %.sroa.116.128.vec.insert = insertelement <8 x float> poison, float %753, i64 0		; visa id: 1170
  %754 = extractelement <8 x float> %.sroa.116.0, i32 1		; visa id: 1171
  %755 = fmul reassoc nsz arcp contract float %754, %simdBroadcast110.1, !spirv.Decorations !1233		; visa id: 1172
  %.sroa.116.132.vec.insert = insertelement <8 x float> %.sroa.116.128.vec.insert, float %755, i64 1		; visa id: 1173
  %756 = extractelement <8 x float> %.sroa.116.0, i32 2		; visa id: 1174
  %757 = fmul reassoc nsz arcp contract float %756, %simdBroadcast110.2, !spirv.Decorations !1233		; visa id: 1175
  %.sroa.116.136.vec.insert = insertelement <8 x float> %.sroa.116.132.vec.insert, float %757, i64 2		; visa id: 1176
  %758 = extractelement <8 x float> %.sroa.116.0, i32 3		; visa id: 1177
  %759 = fmul reassoc nsz arcp contract float %758, %simdBroadcast110.3, !spirv.Decorations !1233		; visa id: 1178
  %.sroa.116.140.vec.insert = insertelement <8 x float> %.sroa.116.136.vec.insert, float %759, i64 3		; visa id: 1179
  %760 = extractelement <8 x float> %.sroa.116.0, i32 4		; visa id: 1180
  %761 = fmul reassoc nsz arcp contract float %760, %simdBroadcast110.4, !spirv.Decorations !1233		; visa id: 1181
  %.sroa.116.144.vec.insert = insertelement <8 x float> %.sroa.116.140.vec.insert, float %761, i64 4		; visa id: 1182
  %762 = extractelement <8 x float> %.sroa.116.0, i32 5		; visa id: 1183
  %763 = fmul reassoc nsz arcp contract float %762, %simdBroadcast110.5, !spirv.Decorations !1233		; visa id: 1184
  %.sroa.116.148.vec.insert = insertelement <8 x float> %.sroa.116.144.vec.insert, float %763, i64 5		; visa id: 1185
  %764 = extractelement <8 x float> %.sroa.116.0, i32 6		; visa id: 1186
  %765 = fmul reassoc nsz arcp contract float %764, %simdBroadcast110.6, !spirv.Decorations !1233		; visa id: 1187
  %.sroa.116.152.vec.insert = insertelement <8 x float> %.sroa.116.148.vec.insert, float %765, i64 6		; visa id: 1188
  %766 = extractelement <8 x float> %.sroa.116.0, i32 7		; visa id: 1189
  %767 = fmul reassoc nsz arcp contract float %766, %simdBroadcast110.7, !spirv.Decorations !1233		; visa id: 1190
  %.sroa.116.156.vec.insert = insertelement <8 x float> %.sroa.116.152.vec.insert, float %767, i64 7		; visa id: 1191
  %768 = extractelement <8 x float> %.sroa.144.0, i32 0		; visa id: 1192
  %769 = fmul reassoc nsz arcp contract float %768, %simdBroadcast110.8, !spirv.Decorations !1233		; visa id: 1193
  %.sroa.144.160.vec.insert = insertelement <8 x float> poison, float %769, i64 0		; visa id: 1194
  %770 = extractelement <8 x float> %.sroa.144.0, i32 1		; visa id: 1195
  %771 = fmul reassoc nsz arcp contract float %770, %simdBroadcast110.9, !spirv.Decorations !1233		; visa id: 1196
  %.sroa.144.164.vec.insert = insertelement <8 x float> %.sroa.144.160.vec.insert, float %771, i64 1		; visa id: 1197
  %772 = extractelement <8 x float> %.sroa.144.0, i32 2		; visa id: 1198
  %773 = fmul reassoc nsz arcp contract float %772, %simdBroadcast110.10, !spirv.Decorations !1233		; visa id: 1199
  %.sroa.144.168.vec.insert = insertelement <8 x float> %.sroa.144.164.vec.insert, float %773, i64 2		; visa id: 1200
  %774 = extractelement <8 x float> %.sroa.144.0, i32 3		; visa id: 1201
  %775 = fmul reassoc nsz arcp contract float %774, %simdBroadcast110.11, !spirv.Decorations !1233		; visa id: 1202
  %.sroa.144.172.vec.insert = insertelement <8 x float> %.sroa.144.168.vec.insert, float %775, i64 3		; visa id: 1203
  %776 = extractelement <8 x float> %.sroa.144.0, i32 4		; visa id: 1204
  %777 = fmul reassoc nsz arcp contract float %776, %simdBroadcast110.12, !spirv.Decorations !1233		; visa id: 1205
  %.sroa.144.176.vec.insert = insertelement <8 x float> %.sroa.144.172.vec.insert, float %777, i64 4		; visa id: 1206
  %778 = extractelement <8 x float> %.sroa.144.0, i32 5		; visa id: 1207
  %779 = fmul reassoc nsz arcp contract float %778, %simdBroadcast110.13, !spirv.Decorations !1233		; visa id: 1208
  %.sroa.144.180.vec.insert = insertelement <8 x float> %.sroa.144.176.vec.insert, float %779, i64 5		; visa id: 1209
  %780 = extractelement <8 x float> %.sroa.144.0, i32 6		; visa id: 1210
  %781 = fmul reassoc nsz arcp contract float %780, %simdBroadcast110.14, !spirv.Decorations !1233		; visa id: 1211
  %.sroa.144.184.vec.insert = insertelement <8 x float> %.sroa.144.180.vec.insert, float %781, i64 6		; visa id: 1212
  %782 = extractelement <8 x float> %.sroa.144.0, i32 7		; visa id: 1213
  %783 = fmul reassoc nsz arcp contract float %782, %simdBroadcast110.15, !spirv.Decorations !1233		; visa id: 1214
  %.sroa.144.188.vec.insert = insertelement <8 x float> %.sroa.144.184.vec.insert, float %783, i64 7		; visa id: 1215
  %784 = extractelement <8 x float> %.sroa.172.0, i32 0		; visa id: 1216
  %785 = fmul reassoc nsz arcp contract float %784, %simdBroadcast110, !spirv.Decorations !1233		; visa id: 1217
  %.sroa.172.192.vec.insert = insertelement <8 x float> poison, float %785, i64 0		; visa id: 1218
  %786 = extractelement <8 x float> %.sroa.172.0, i32 1		; visa id: 1219
  %787 = fmul reassoc nsz arcp contract float %786, %simdBroadcast110.1, !spirv.Decorations !1233		; visa id: 1220
  %.sroa.172.196.vec.insert = insertelement <8 x float> %.sroa.172.192.vec.insert, float %787, i64 1		; visa id: 1221
  %788 = extractelement <8 x float> %.sroa.172.0, i32 2		; visa id: 1222
  %789 = fmul reassoc nsz arcp contract float %788, %simdBroadcast110.2, !spirv.Decorations !1233		; visa id: 1223
  %.sroa.172.200.vec.insert = insertelement <8 x float> %.sroa.172.196.vec.insert, float %789, i64 2		; visa id: 1224
  %790 = extractelement <8 x float> %.sroa.172.0, i32 3		; visa id: 1225
  %791 = fmul reassoc nsz arcp contract float %790, %simdBroadcast110.3, !spirv.Decorations !1233		; visa id: 1226
  %.sroa.172.204.vec.insert = insertelement <8 x float> %.sroa.172.200.vec.insert, float %791, i64 3		; visa id: 1227
  %792 = extractelement <8 x float> %.sroa.172.0, i32 4		; visa id: 1228
  %793 = fmul reassoc nsz arcp contract float %792, %simdBroadcast110.4, !spirv.Decorations !1233		; visa id: 1229
  %.sroa.172.208.vec.insert = insertelement <8 x float> %.sroa.172.204.vec.insert, float %793, i64 4		; visa id: 1230
  %794 = extractelement <8 x float> %.sroa.172.0, i32 5		; visa id: 1231
  %795 = fmul reassoc nsz arcp contract float %794, %simdBroadcast110.5, !spirv.Decorations !1233		; visa id: 1232
  %.sroa.172.212.vec.insert = insertelement <8 x float> %.sroa.172.208.vec.insert, float %795, i64 5		; visa id: 1233
  %796 = extractelement <8 x float> %.sroa.172.0, i32 6		; visa id: 1234
  %797 = fmul reassoc nsz arcp contract float %796, %simdBroadcast110.6, !spirv.Decorations !1233		; visa id: 1235
  %.sroa.172.216.vec.insert = insertelement <8 x float> %.sroa.172.212.vec.insert, float %797, i64 6		; visa id: 1236
  %798 = extractelement <8 x float> %.sroa.172.0, i32 7		; visa id: 1237
  %799 = fmul reassoc nsz arcp contract float %798, %simdBroadcast110.7, !spirv.Decorations !1233		; visa id: 1238
  %.sroa.172.220.vec.insert = insertelement <8 x float> %.sroa.172.216.vec.insert, float %799, i64 7		; visa id: 1239
  %800 = extractelement <8 x float> %.sroa.200.0, i32 0		; visa id: 1240
  %801 = fmul reassoc nsz arcp contract float %800, %simdBroadcast110.8, !spirv.Decorations !1233		; visa id: 1241
  %.sroa.200.224.vec.insert = insertelement <8 x float> poison, float %801, i64 0		; visa id: 1242
  %802 = extractelement <8 x float> %.sroa.200.0, i32 1		; visa id: 1243
  %803 = fmul reassoc nsz arcp contract float %802, %simdBroadcast110.9, !spirv.Decorations !1233		; visa id: 1244
  %.sroa.200.228.vec.insert = insertelement <8 x float> %.sroa.200.224.vec.insert, float %803, i64 1		; visa id: 1245
  %804 = extractelement <8 x float> %.sroa.200.0, i32 2		; visa id: 1246
  %805 = fmul reassoc nsz arcp contract float %804, %simdBroadcast110.10, !spirv.Decorations !1233		; visa id: 1247
  %.sroa.200.232.vec.insert = insertelement <8 x float> %.sroa.200.228.vec.insert, float %805, i64 2		; visa id: 1248
  %806 = extractelement <8 x float> %.sroa.200.0, i32 3		; visa id: 1249
  %807 = fmul reassoc nsz arcp contract float %806, %simdBroadcast110.11, !spirv.Decorations !1233		; visa id: 1250
  %.sroa.200.236.vec.insert = insertelement <8 x float> %.sroa.200.232.vec.insert, float %807, i64 3		; visa id: 1251
  %808 = extractelement <8 x float> %.sroa.200.0, i32 4		; visa id: 1252
  %809 = fmul reassoc nsz arcp contract float %808, %simdBroadcast110.12, !spirv.Decorations !1233		; visa id: 1253
  %.sroa.200.240.vec.insert = insertelement <8 x float> %.sroa.200.236.vec.insert, float %809, i64 4		; visa id: 1254
  %810 = extractelement <8 x float> %.sroa.200.0, i32 5		; visa id: 1255
  %811 = fmul reassoc nsz arcp contract float %810, %simdBroadcast110.13, !spirv.Decorations !1233		; visa id: 1256
  %.sroa.200.244.vec.insert = insertelement <8 x float> %.sroa.200.240.vec.insert, float %811, i64 5		; visa id: 1257
  %812 = extractelement <8 x float> %.sroa.200.0, i32 6		; visa id: 1258
  %813 = fmul reassoc nsz arcp contract float %812, %simdBroadcast110.14, !spirv.Decorations !1233		; visa id: 1259
  %.sroa.200.248.vec.insert = insertelement <8 x float> %.sroa.200.244.vec.insert, float %813, i64 6		; visa id: 1260
  %814 = extractelement <8 x float> %.sroa.200.0, i32 7		; visa id: 1261
  %815 = fmul reassoc nsz arcp contract float %814, %simdBroadcast110.15, !spirv.Decorations !1233		; visa id: 1262
  %.sroa.200.252.vec.insert = insertelement <8 x float> %.sroa.200.248.vec.insert, float %815, i64 7		; visa id: 1263
  %816 = extractelement <8 x float> %.sroa.228.0, i32 0		; visa id: 1264
  %817 = fmul reassoc nsz arcp contract float %816, %simdBroadcast110, !spirv.Decorations !1233		; visa id: 1265
  %.sroa.228.256.vec.insert = insertelement <8 x float> poison, float %817, i64 0		; visa id: 1266
  %818 = extractelement <8 x float> %.sroa.228.0, i32 1		; visa id: 1267
  %819 = fmul reassoc nsz arcp contract float %818, %simdBroadcast110.1, !spirv.Decorations !1233		; visa id: 1268
  %.sroa.228.260.vec.insert = insertelement <8 x float> %.sroa.228.256.vec.insert, float %819, i64 1		; visa id: 1269
  %820 = extractelement <8 x float> %.sroa.228.0, i32 2		; visa id: 1270
  %821 = fmul reassoc nsz arcp contract float %820, %simdBroadcast110.2, !spirv.Decorations !1233		; visa id: 1271
  %.sroa.228.264.vec.insert = insertelement <8 x float> %.sroa.228.260.vec.insert, float %821, i64 2		; visa id: 1272
  %822 = extractelement <8 x float> %.sroa.228.0, i32 3		; visa id: 1273
  %823 = fmul reassoc nsz arcp contract float %822, %simdBroadcast110.3, !spirv.Decorations !1233		; visa id: 1274
  %.sroa.228.268.vec.insert = insertelement <8 x float> %.sroa.228.264.vec.insert, float %823, i64 3		; visa id: 1275
  %824 = extractelement <8 x float> %.sroa.228.0, i32 4		; visa id: 1276
  %825 = fmul reassoc nsz arcp contract float %824, %simdBroadcast110.4, !spirv.Decorations !1233		; visa id: 1277
  %.sroa.228.272.vec.insert = insertelement <8 x float> %.sroa.228.268.vec.insert, float %825, i64 4		; visa id: 1278
  %826 = extractelement <8 x float> %.sroa.228.0, i32 5		; visa id: 1279
  %827 = fmul reassoc nsz arcp contract float %826, %simdBroadcast110.5, !spirv.Decorations !1233		; visa id: 1280
  %.sroa.228.276.vec.insert = insertelement <8 x float> %.sroa.228.272.vec.insert, float %827, i64 5		; visa id: 1281
  %828 = extractelement <8 x float> %.sroa.228.0, i32 6		; visa id: 1282
  %829 = fmul reassoc nsz arcp contract float %828, %simdBroadcast110.6, !spirv.Decorations !1233		; visa id: 1283
  %.sroa.228.280.vec.insert = insertelement <8 x float> %.sroa.228.276.vec.insert, float %829, i64 6		; visa id: 1284
  %830 = extractelement <8 x float> %.sroa.228.0, i32 7		; visa id: 1285
  %831 = fmul reassoc nsz arcp contract float %830, %simdBroadcast110.7, !spirv.Decorations !1233		; visa id: 1286
  %.sroa.228.284.vec.insert = insertelement <8 x float> %.sroa.228.280.vec.insert, float %831, i64 7		; visa id: 1287
  %832 = extractelement <8 x float> %.sroa.256.0, i32 0		; visa id: 1288
  %833 = fmul reassoc nsz arcp contract float %832, %simdBroadcast110.8, !spirv.Decorations !1233		; visa id: 1289
  %.sroa.256.288.vec.insert = insertelement <8 x float> poison, float %833, i64 0		; visa id: 1290
  %834 = extractelement <8 x float> %.sroa.256.0, i32 1		; visa id: 1291
  %835 = fmul reassoc nsz arcp contract float %834, %simdBroadcast110.9, !spirv.Decorations !1233		; visa id: 1292
  %.sroa.256.292.vec.insert = insertelement <8 x float> %.sroa.256.288.vec.insert, float %835, i64 1		; visa id: 1293
  %836 = extractelement <8 x float> %.sroa.256.0, i32 2		; visa id: 1294
  %837 = fmul reassoc nsz arcp contract float %836, %simdBroadcast110.10, !spirv.Decorations !1233		; visa id: 1295
  %.sroa.256.296.vec.insert = insertelement <8 x float> %.sroa.256.292.vec.insert, float %837, i64 2		; visa id: 1296
  %838 = extractelement <8 x float> %.sroa.256.0, i32 3		; visa id: 1297
  %839 = fmul reassoc nsz arcp contract float %838, %simdBroadcast110.11, !spirv.Decorations !1233		; visa id: 1298
  %.sroa.256.300.vec.insert = insertelement <8 x float> %.sroa.256.296.vec.insert, float %839, i64 3		; visa id: 1299
  %840 = extractelement <8 x float> %.sroa.256.0, i32 4		; visa id: 1300
  %841 = fmul reassoc nsz arcp contract float %840, %simdBroadcast110.12, !spirv.Decorations !1233		; visa id: 1301
  %.sroa.256.304.vec.insert = insertelement <8 x float> %.sroa.256.300.vec.insert, float %841, i64 4		; visa id: 1302
  %842 = extractelement <8 x float> %.sroa.256.0, i32 5		; visa id: 1303
  %843 = fmul reassoc nsz arcp contract float %842, %simdBroadcast110.13, !spirv.Decorations !1233		; visa id: 1304
  %.sroa.256.308.vec.insert = insertelement <8 x float> %.sroa.256.304.vec.insert, float %843, i64 5		; visa id: 1305
  %844 = extractelement <8 x float> %.sroa.256.0, i32 6		; visa id: 1306
  %845 = fmul reassoc nsz arcp contract float %844, %simdBroadcast110.14, !spirv.Decorations !1233		; visa id: 1307
  %.sroa.256.312.vec.insert = insertelement <8 x float> %.sroa.256.308.vec.insert, float %845, i64 6		; visa id: 1308
  %846 = extractelement <8 x float> %.sroa.256.0, i32 7		; visa id: 1309
  %847 = fmul reassoc nsz arcp contract float %846, %simdBroadcast110.15, !spirv.Decorations !1233		; visa id: 1310
  %.sroa.256.316.vec.insert = insertelement <8 x float> %.sroa.256.312.vec.insert, float %847, i64 7		; visa id: 1311
  %848 = extractelement <8 x float> %.sroa.284.0, i32 0		; visa id: 1312
  %849 = fmul reassoc nsz arcp contract float %848, %simdBroadcast110, !spirv.Decorations !1233		; visa id: 1313
  %.sroa.284.320.vec.insert = insertelement <8 x float> poison, float %849, i64 0		; visa id: 1314
  %850 = extractelement <8 x float> %.sroa.284.0, i32 1		; visa id: 1315
  %851 = fmul reassoc nsz arcp contract float %850, %simdBroadcast110.1, !spirv.Decorations !1233		; visa id: 1316
  %.sroa.284.324.vec.insert = insertelement <8 x float> %.sroa.284.320.vec.insert, float %851, i64 1		; visa id: 1317
  %852 = extractelement <8 x float> %.sroa.284.0, i32 2		; visa id: 1318
  %853 = fmul reassoc nsz arcp contract float %852, %simdBroadcast110.2, !spirv.Decorations !1233		; visa id: 1319
  %.sroa.284.328.vec.insert = insertelement <8 x float> %.sroa.284.324.vec.insert, float %853, i64 2		; visa id: 1320
  %854 = extractelement <8 x float> %.sroa.284.0, i32 3		; visa id: 1321
  %855 = fmul reassoc nsz arcp contract float %854, %simdBroadcast110.3, !spirv.Decorations !1233		; visa id: 1322
  %.sroa.284.332.vec.insert = insertelement <8 x float> %.sroa.284.328.vec.insert, float %855, i64 3		; visa id: 1323
  %856 = extractelement <8 x float> %.sroa.284.0, i32 4		; visa id: 1324
  %857 = fmul reassoc nsz arcp contract float %856, %simdBroadcast110.4, !spirv.Decorations !1233		; visa id: 1325
  %.sroa.284.336.vec.insert = insertelement <8 x float> %.sroa.284.332.vec.insert, float %857, i64 4		; visa id: 1326
  %858 = extractelement <8 x float> %.sroa.284.0, i32 5		; visa id: 1327
  %859 = fmul reassoc nsz arcp contract float %858, %simdBroadcast110.5, !spirv.Decorations !1233		; visa id: 1328
  %.sroa.284.340.vec.insert = insertelement <8 x float> %.sroa.284.336.vec.insert, float %859, i64 5		; visa id: 1329
  %860 = extractelement <8 x float> %.sroa.284.0, i32 6		; visa id: 1330
  %861 = fmul reassoc nsz arcp contract float %860, %simdBroadcast110.6, !spirv.Decorations !1233		; visa id: 1331
  %.sroa.284.344.vec.insert = insertelement <8 x float> %.sroa.284.340.vec.insert, float %861, i64 6		; visa id: 1332
  %862 = extractelement <8 x float> %.sroa.284.0, i32 7		; visa id: 1333
  %863 = fmul reassoc nsz arcp contract float %862, %simdBroadcast110.7, !spirv.Decorations !1233		; visa id: 1334
  %.sroa.284.348.vec.insert = insertelement <8 x float> %.sroa.284.344.vec.insert, float %863, i64 7		; visa id: 1335
  %864 = extractelement <8 x float> %.sroa.312.0, i32 0		; visa id: 1336
  %865 = fmul reassoc nsz arcp contract float %864, %simdBroadcast110.8, !spirv.Decorations !1233		; visa id: 1337
  %.sroa.312.352.vec.insert = insertelement <8 x float> poison, float %865, i64 0		; visa id: 1338
  %866 = extractelement <8 x float> %.sroa.312.0, i32 1		; visa id: 1339
  %867 = fmul reassoc nsz arcp contract float %866, %simdBroadcast110.9, !spirv.Decorations !1233		; visa id: 1340
  %.sroa.312.356.vec.insert = insertelement <8 x float> %.sroa.312.352.vec.insert, float %867, i64 1		; visa id: 1341
  %868 = extractelement <8 x float> %.sroa.312.0, i32 2		; visa id: 1342
  %869 = fmul reassoc nsz arcp contract float %868, %simdBroadcast110.10, !spirv.Decorations !1233		; visa id: 1343
  %.sroa.312.360.vec.insert = insertelement <8 x float> %.sroa.312.356.vec.insert, float %869, i64 2		; visa id: 1344
  %870 = extractelement <8 x float> %.sroa.312.0, i32 3		; visa id: 1345
  %871 = fmul reassoc nsz arcp contract float %870, %simdBroadcast110.11, !spirv.Decorations !1233		; visa id: 1346
  %.sroa.312.364.vec.insert = insertelement <8 x float> %.sroa.312.360.vec.insert, float %871, i64 3		; visa id: 1347
  %872 = extractelement <8 x float> %.sroa.312.0, i32 4		; visa id: 1348
  %873 = fmul reassoc nsz arcp contract float %872, %simdBroadcast110.12, !spirv.Decorations !1233		; visa id: 1349
  %.sroa.312.368.vec.insert = insertelement <8 x float> %.sroa.312.364.vec.insert, float %873, i64 4		; visa id: 1350
  %874 = extractelement <8 x float> %.sroa.312.0, i32 5		; visa id: 1351
  %875 = fmul reassoc nsz arcp contract float %874, %simdBroadcast110.13, !spirv.Decorations !1233		; visa id: 1352
  %.sroa.312.372.vec.insert = insertelement <8 x float> %.sroa.312.368.vec.insert, float %875, i64 5		; visa id: 1353
  %876 = extractelement <8 x float> %.sroa.312.0, i32 6		; visa id: 1354
  %877 = fmul reassoc nsz arcp contract float %876, %simdBroadcast110.14, !spirv.Decorations !1233		; visa id: 1355
  %.sroa.312.376.vec.insert = insertelement <8 x float> %.sroa.312.372.vec.insert, float %877, i64 6		; visa id: 1356
  %878 = extractelement <8 x float> %.sroa.312.0, i32 7		; visa id: 1357
  %879 = fmul reassoc nsz arcp contract float %878, %simdBroadcast110.15, !spirv.Decorations !1233		; visa id: 1358
  %.sroa.312.380.vec.insert = insertelement <8 x float> %.sroa.312.376.vec.insert, float %879, i64 7		; visa id: 1359
  %880 = extractelement <8 x float> %.sroa.340.0, i32 0		; visa id: 1360
  %881 = fmul reassoc nsz arcp contract float %880, %simdBroadcast110, !spirv.Decorations !1233		; visa id: 1361
  %.sroa.340.384.vec.insert = insertelement <8 x float> poison, float %881, i64 0		; visa id: 1362
  %882 = extractelement <8 x float> %.sroa.340.0, i32 1		; visa id: 1363
  %883 = fmul reassoc nsz arcp contract float %882, %simdBroadcast110.1, !spirv.Decorations !1233		; visa id: 1364
  %.sroa.340.388.vec.insert = insertelement <8 x float> %.sroa.340.384.vec.insert, float %883, i64 1		; visa id: 1365
  %884 = extractelement <8 x float> %.sroa.340.0, i32 2		; visa id: 1366
  %885 = fmul reassoc nsz arcp contract float %884, %simdBroadcast110.2, !spirv.Decorations !1233		; visa id: 1367
  %.sroa.340.392.vec.insert = insertelement <8 x float> %.sroa.340.388.vec.insert, float %885, i64 2		; visa id: 1368
  %886 = extractelement <8 x float> %.sroa.340.0, i32 3		; visa id: 1369
  %887 = fmul reassoc nsz arcp contract float %886, %simdBroadcast110.3, !spirv.Decorations !1233		; visa id: 1370
  %.sroa.340.396.vec.insert = insertelement <8 x float> %.sroa.340.392.vec.insert, float %887, i64 3		; visa id: 1371
  %888 = extractelement <8 x float> %.sroa.340.0, i32 4		; visa id: 1372
  %889 = fmul reassoc nsz arcp contract float %888, %simdBroadcast110.4, !spirv.Decorations !1233		; visa id: 1373
  %.sroa.340.400.vec.insert = insertelement <8 x float> %.sroa.340.396.vec.insert, float %889, i64 4		; visa id: 1374
  %890 = extractelement <8 x float> %.sroa.340.0, i32 5		; visa id: 1375
  %891 = fmul reassoc nsz arcp contract float %890, %simdBroadcast110.5, !spirv.Decorations !1233		; visa id: 1376
  %.sroa.340.404.vec.insert = insertelement <8 x float> %.sroa.340.400.vec.insert, float %891, i64 5		; visa id: 1377
  %892 = extractelement <8 x float> %.sroa.340.0, i32 6		; visa id: 1378
  %893 = fmul reassoc nsz arcp contract float %892, %simdBroadcast110.6, !spirv.Decorations !1233		; visa id: 1379
  %.sroa.340.408.vec.insert = insertelement <8 x float> %.sroa.340.404.vec.insert, float %893, i64 6		; visa id: 1380
  %894 = extractelement <8 x float> %.sroa.340.0, i32 7		; visa id: 1381
  %895 = fmul reassoc nsz arcp contract float %894, %simdBroadcast110.7, !spirv.Decorations !1233		; visa id: 1382
  %.sroa.340.412.vec.insert = insertelement <8 x float> %.sroa.340.408.vec.insert, float %895, i64 7		; visa id: 1383
  %896 = extractelement <8 x float> %.sroa.368.0, i32 0		; visa id: 1384
  %897 = fmul reassoc nsz arcp contract float %896, %simdBroadcast110.8, !spirv.Decorations !1233		; visa id: 1385
  %.sroa.368.416.vec.insert = insertelement <8 x float> poison, float %897, i64 0		; visa id: 1386
  %898 = extractelement <8 x float> %.sroa.368.0, i32 1		; visa id: 1387
  %899 = fmul reassoc nsz arcp contract float %898, %simdBroadcast110.9, !spirv.Decorations !1233		; visa id: 1388
  %.sroa.368.420.vec.insert = insertelement <8 x float> %.sroa.368.416.vec.insert, float %899, i64 1		; visa id: 1389
  %900 = extractelement <8 x float> %.sroa.368.0, i32 2		; visa id: 1390
  %901 = fmul reassoc nsz arcp contract float %900, %simdBroadcast110.10, !spirv.Decorations !1233		; visa id: 1391
  %.sroa.368.424.vec.insert = insertelement <8 x float> %.sroa.368.420.vec.insert, float %901, i64 2		; visa id: 1392
  %902 = extractelement <8 x float> %.sroa.368.0, i32 3		; visa id: 1393
  %903 = fmul reassoc nsz arcp contract float %902, %simdBroadcast110.11, !spirv.Decorations !1233		; visa id: 1394
  %.sroa.368.428.vec.insert = insertelement <8 x float> %.sroa.368.424.vec.insert, float %903, i64 3		; visa id: 1395
  %904 = extractelement <8 x float> %.sroa.368.0, i32 4		; visa id: 1396
  %905 = fmul reassoc nsz arcp contract float %904, %simdBroadcast110.12, !spirv.Decorations !1233		; visa id: 1397
  %.sroa.368.432.vec.insert = insertelement <8 x float> %.sroa.368.428.vec.insert, float %905, i64 4		; visa id: 1398
  %906 = extractelement <8 x float> %.sroa.368.0, i32 5		; visa id: 1399
  %907 = fmul reassoc nsz arcp contract float %906, %simdBroadcast110.13, !spirv.Decorations !1233		; visa id: 1400
  %.sroa.368.436.vec.insert = insertelement <8 x float> %.sroa.368.432.vec.insert, float %907, i64 5		; visa id: 1401
  %908 = extractelement <8 x float> %.sroa.368.0, i32 6		; visa id: 1402
  %909 = fmul reassoc nsz arcp contract float %908, %simdBroadcast110.14, !spirv.Decorations !1233		; visa id: 1403
  %.sroa.368.440.vec.insert = insertelement <8 x float> %.sroa.368.436.vec.insert, float %909, i64 6		; visa id: 1404
  %910 = extractelement <8 x float> %.sroa.368.0, i32 7		; visa id: 1405
  %911 = fmul reassoc nsz arcp contract float %910, %simdBroadcast110.15, !spirv.Decorations !1233		; visa id: 1406
  %.sroa.368.444.vec.insert = insertelement <8 x float> %.sroa.368.440.vec.insert, float %911, i64 7		; visa id: 1407
  %912 = extractelement <8 x float> %.sroa.396.0, i32 0		; visa id: 1408
  %913 = fmul reassoc nsz arcp contract float %912, %simdBroadcast110, !spirv.Decorations !1233		; visa id: 1409
  %.sroa.396.448.vec.insert = insertelement <8 x float> poison, float %913, i64 0		; visa id: 1410
  %914 = extractelement <8 x float> %.sroa.396.0, i32 1		; visa id: 1411
  %915 = fmul reassoc nsz arcp contract float %914, %simdBroadcast110.1, !spirv.Decorations !1233		; visa id: 1412
  %.sroa.396.452.vec.insert = insertelement <8 x float> %.sroa.396.448.vec.insert, float %915, i64 1		; visa id: 1413
  %916 = extractelement <8 x float> %.sroa.396.0, i32 2		; visa id: 1414
  %917 = fmul reassoc nsz arcp contract float %916, %simdBroadcast110.2, !spirv.Decorations !1233		; visa id: 1415
  %.sroa.396.456.vec.insert = insertelement <8 x float> %.sroa.396.452.vec.insert, float %917, i64 2		; visa id: 1416
  %918 = extractelement <8 x float> %.sroa.396.0, i32 3		; visa id: 1417
  %919 = fmul reassoc nsz arcp contract float %918, %simdBroadcast110.3, !spirv.Decorations !1233		; visa id: 1418
  %.sroa.396.460.vec.insert = insertelement <8 x float> %.sroa.396.456.vec.insert, float %919, i64 3		; visa id: 1419
  %920 = extractelement <8 x float> %.sroa.396.0, i32 4		; visa id: 1420
  %921 = fmul reassoc nsz arcp contract float %920, %simdBroadcast110.4, !spirv.Decorations !1233		; visa id: 1421
  %.sroa.396.464.vec.insert = insertelement <8 x float> %.sroa.396.460.vec.insert, float %921, i64 4		; visa id: 1422
  %922 = extractelement <8 x float> %.sroa.396.0, i32 5		; visa id: 1423
  %923 = fmul reassoc nsz arcp contract float %922, %simdBroadcast110.5, !spirv.Decorations !1233		; visa id: 1424
  %.sroa.396.468.vec.insert = insertelement <8 x float> %.sroa.396.464.vec.insert, float %923, i64 5		; visa id: 1425
  %924 = extractelement <8 x float> %.sroa.396.0, i32 6		; visa id: 1426
  %925 = fmul reassoc nsz arcp contract float %924, %simdBroadcast110.6, !spirv.Decorations !1233		; visa id: 1427
  %.sroa.396.472.vec.insert = insertelement <8 x float> %.sroa.396.468.vec.insert, float %925, i64 6		; visa id: 1428
  %926 = extractelement <8 x float> %.sroa.396.0, i32 7		; visa id: 1429
  %927 = fmul reassoc nsz arcp contract float %926, %simdBroadcast110.7, !spirv.Decorations !1233		; visa id: 1430
  %.sroa.396.476.vec.insert = insertelement <8 x float> %.sroa.396.472.vec.insert, float %927, i64 7		; visa id: 1431
  %928 = extractelement <8 x float> %.sroa.424.0, i32 0		; visa id: 1432
  %929 = fmul reassoc nsz arcp contract float %928, %simdBroadcast110.8, !spirv.Decorations !1233		; visa id: 1433
  %.sroa.424.480.vec.insert = insertelement <8 x float> poison, float %929, i64 0		; visa id: 1434
  %930 = extractelement <8 x float> %.sroa.424.0, i32 1		; visa id: 1435
  %931 = fmul reassoc nsz arcp contract float %930, %simdBroadcast110.9, !spirv.Decorations !1233		; visa id: 1436
  %.sroa.424.484.vec.insert = insertelement <8 x float> %.sroa.424.480.vec.insert, float %931, i64 1		; visa id: 1437
  %932 = extractelement <8 x float> %.sroa.424.0, i32 2		; visa id: 1438
  %933 = fmul reassoc nsz arcp contract float %932, %simdBroadcast110.10, !spirv.Decorations !1233		; visa id: 1439
  %.sroa.424.488.vec.insert = insertelement <8 x float> %.sroa.424.484.vec.insert, float %933, i64 2		; visa id: 1440
  %934 = extractelement <8 x float> %.sroa.424.0, i32 3		; visa id: 1441
  %935 = fmul reassoc nsz arcp contract float %934, %simdBroadcast110.11, !spirv.Decorations !1233		; visa id: 1442
  %.sroa.424.492.vec.insert = insertelement <8 x float> %.sroa.424.488.vec.insert, float %935, i64 3		; visa id: 1443
  %936 = extractelement <8 x float> %.sroa.424.0, i32 4		; visa id: 1444
  %937 = fmul reassoc nsz arcp contract float %936, %simdBroadcast110.12, !spirv.Decorations !1233		; visa id: 1445
  %.sroa.424.496.vec.insert = insertelement <8 x float> %.sroa.424.492.vec.insert, float %937, i64 4		; visa id: 1446
  %938 = extractelement <8 x float> %.sroa.424.0, i32 5		; visa id: 1447
  %939 = fmul reassoc nsz arcp contract float %938, %simdBroadcast110.13, !spirv.Decorations !1233		; visa id: 1448
  %.sroa.424.500.vec.insert = insertelement <8 x float> %.sroa.424.496.vec.insert, float %939, i64 5		; visa id: 1449
  %940 = extractelement <8 x float> %.sroa.424.0, i32 6		; visa id: 1450
  %941 = fmul reassoc nsz arcp contract float %940, %simdBroadcast110.14, !spirv.Decorations !1233		; visa id: 1451
  %.sroa.424.504.vec.insert = insertelement <8 x float> %.sroa.424.500.vec.insert, float %941, i64 6		; visa id: 1452
  %942 = extractelement <8 x float> %.sroa.424.0, i32 7		; visa id: 1453
  %943 = fmul reassoc nsz arcp contract float %942, %simdBroadcast110.15, !spirv.Decorations !1233		; visa id: 1454
  %.sroa.424.508.vec.insert = insertelement <8 x float> %.sroa.424.504.vec.insert, float %943, i64 7		; visa id: 1455
  %944 = fmul reassoc nsz arcp contract float %.sroa.0114.1143, %687, !spirv.Decorations !1233		; visa id: 1456
  br label %.loopexit.i, !stats.blockFrequency.digits !1235, !stats.blockFrequency.scale !1226		; visa id: 1585

.loopexit.i:                                      ; preds = %.loopexit1.i..loopexit.i_crit_edge, %.loopexit.i.loopexit
; BB54 :
  %.sroa.424.1 = phi <8 x float> [ %.sroa.424.508.vec.insert, %.loopexit.i.loopexit ], [ %.sroa.424.0, %.loopexit1.i..loopexit.i_crit_edge ]
  %.sroa.396.1 = phi <8 x float> [ %.sroa.396.476.vec.insert, %.loopexit.i.loopexit ], [ %.sroa.396.0, %.loopexit1.i..loopexit.i_crit_edge ]
  %.sroa.368.1 = phi <8 x float> [ %.sroa.368.444.vec.insert, %.loopexit.i.loopexit ], [ %.sroa.368.0, %.loopexit1.i..loopexit.i_crit_edge ]
  %.sroa.340.1 = phi <8 x float> [ %.sroa.340.412.vec.insert, %.loopexit.i.loopexit ], [ %.sroa.340.0, %.loopexit1.i..loopexit.i_crit_edge ]
  %.sroa.312.1 = phi <8 x float> [ %.sroa.312.380.vec.insert, %.loopexit.i.loopexit ], [ %.sroa.312.0, %.loopexit1.i..loopexit.i_crit_edge ]
  %.sroa.284.1 = phi <8 x float> [ %.sroa.284.348.vec.insert, %.loopexit.i.loopexit ], [ %.sroa.284.0, %.loopexit1.i..loopexit.i_crit_edge ]
  %.sroa.256.1 = phi <8 x float> [ %.sroa.256.316.vec.insert, %.loopexit.i.loopexit ], [ %.sroa.256.0, %.loopexit1.i..loopexit.i_crit_edge ]
  %.sroa.228.1 = phi <8 x float> [ %.sroa.228.284.vec.insert, %.loopexit.i.loopexit ], [ %.sroa.228.0, %.loopexit1.i..loopexit.i_crit_edge ]
  %.sroa.200.1 = phi <8 x float> [ %.sroa.200.252.vec.insert, %.loopexit.i.loopexit ], [ %.sroa.200.0, %.loopexit1.i..loopexit.i_crit_edge ]
  %.sroa.172.1 = phi <8 x float> [ %.sroa.172.220.vec.insert, %.loopexit.i.loopexit ], [ %.sroa.172.0, %.loopexit1.i..loopexit.i_crit_edge ]
  %.sroa.144.1 = phi <8 x float> [ %.sroa.144.188.vec.insert, %.loopexit.i.loopexit ], [ %.sroa.144.0, %.loopexit1.i..loopexit.i_crit_edge ]
  %.sroa.116.1 = phi <8 x float> [ %.sroa.116.156.vec.insert, %.loopexit.i.loopexit ], [ %.sroa.116.0, %.loopexit1.i..loopexit.i_crit_edge ]
  %.sroa.88.1 = phi <8 x float> [ %.sroa.88.124.vec.insert, %.loopexit.i.loopexit ], [ %.sroa.88.0, %.loopexit1.i..loopexit.i_crit_edge ]
  %.sroa.60.1 = phi <8 x float> [ %.sroa.60.92.vec.insert, %.loopexit.i.loopexit ], [ %.sroa.60.0, %.loopexit1.i..loopexit.i_crit_edge ]
  %.sroa.32.1 = phi <8 x float> [ %.sroa.32.60.vec.insert, %.loopexit.i.loopexit ], [ %.sroa.32.0, %.loopexit1.i..loopexit.i_crit_edge ]
  %.sroa.0.1 = phi <8 x float> [ %.sroa.0.28.vec.insert, %.loopexit.i.loopexit ], [ %.sroa.0.0, %.loopexit1.i..loopexit.i_crit_edge ]
  %.sroa.0114.2 = phi float [ %944, %.loopexit.i.loopexit ], [ %.sroa.0114.1143, %.loopexit1.i..loopexit.i_crit_edge ]
  %945 = fadd reassoc nsz arcp contract float %591, %639, !spirv.Decorations !1233		; visa id: 1586
  %946 = fadd reassoc nsz arcp contract float %594, %642, !spirv.Decorations !1233		; visa id: 1587
  %947 = fadd reassoc nsz arcp contract float %597, %645, !spirv.Decorations !1233		; visa id: 1588
  %948 = fadd reassoc nsz arcp contract float %600, %648, !spirv.Decorations !1233		; visa id: 1589
  %949 = fadd reassoc nsz arcp contract float %603, %651, !spirv.Decorations !1233		; visa id: 1590
  %950 = fadd reassoc nsz arcp contract float %606, %654, !spirv.Decorations !1233		; visa id: 1591
  %951 = fadd reassoc nsz arcp contract float %609, %657, !spirv.Decorations !1233		; visa id: 1592
  %952 = fadd reassoc nsz arcp contract float %612, %660, !spirv.Decorations !1233		; visa id: 1593
  %953 = fadd reassoc nsz arcp contract float %615, %663, !spirv.Decorations !1233		; visa id: 1594
  %954 = fadd reassoc nsz arcp contract float %618, %666, !spirv.Decorations !1233		; visa id: 1595
  %955 = fadd reassoc nsz arcp contract float %621, %669, !spirv.Decorations !1233		; visa id: 1596
  %956 = fadd reassoc nsz arcp contract float %624, %672, !spirv.Decorations !1233		; visa id: 1597
  %957 = fadd reassoc nsz arcp contract float %627, %675, !spirv.Decorations !1233		; visa id: 1598
  %958 = fadd reassoc nsz arcp contract float %630, %678, !spirv.Decorations !1233		; visa id: 1599
  %959 = fadd reassoc nsz arcp contract float %633, %681, !spirv.Decorations !1233		; visa id: 1600
  %960 = fadd reassoc nsz arcp contract float %636, %684, !spirv.Decorations !1233		; visa id: 1601
  %961 = call float asm "{\0A.decl INTERLEAVE_2 v_type=P num_elts=16\0A.decl INTERLEAVE_4 v_type=P num_elts=16\0A.decl INTERLEAVE_8 v_type=P num_elts=16\0A.decl IN0 v_type=G type=UD num_elts=16 alias=<$1,0>\0A.decl IN1 v_type=G type=UD num_elts=16 alias=<$2,0>\0A.decl IN2 v_type=G type=UD num_elts=16 alias=<$3,0>\0A.decl IN3 v_type=G type=UD num_elts=16 alias=<$4,0>\0A.decl IN4 v_type=G type=UD num_elts=16 alias=<$5,0>\0A.decl IN5 v_type=G type=UD num_elts=16 alias=<$6,0>\0A.decl IN6 v_type=G type=UD num_elts=16 alias=<$7,0>\0A.decl IN7 v_type=G type=UD num_elts=16 alias=<$8,0>\0A.decl IN8 v_type=G type=UD num_elts=16 alias=<$9,0>\0A.decl IN9 v_type=G type=UD num_elts=16 alias=<$10,0>\0A.decl IN10 v_type=G type=UD num_elts=16 alias=<$11,0>\0A.decl IN11 v_type=G type=UD num_elts=16 alias=<$12,0>\0A.decl IN12 v_type=G type=UD num_elts=16 alias=<$13,0>\0A.decl IN13 v_type=G type=UD num_elts=16 alias=<$14,0>\0A.decl IN14 v_type=G type=UD num_elts=16 alias=<$15,0>\0A.decl IN15 v_type=G type=UD num_elts=16 alias=<$16,0>\0A.decl RA0 v_type=G type=UD num_elts=32 align=64\0A.decl RA2 v_type=G type=UD num_elts=32 align=64\0A.decl RA4 v_type=G type=UD num_elts=32 align=64\0A.decl RA6 v_type=G type=UD num_elts=32 align=64\0A.decl RA8 v_type=G type=UD num_elts=32 align=64\0A.decl RA10 v_type=G type=UD num_elts=32 align=64\0A.decl RA12 v_type=G type=UD num_elts=32 align=64\0A.decl RA14 v_type=G type=UD num_elts=32 align=64\0A.decl RF0 v_type=G type=F num_elts=16 alias=<RA0,0>\0A.decl RF1 v_type=G type=F num_elts=16 alias=<RA0,64>\0A.decl RF2 v_type=G type=F num_elts=16 alias=<RA2,0>\0A.decl RF3 v_type=G type=F num_elts=16 alias=<RA2,64>\0A.decl RF4 v_type=G type=F num_elts=16 alias=<RA4,0>\0A.decl RF5 v_type=G type=F num_elts=16 alias=<RA4,64>\0A.decl RF6 v_type=G type=F num_elts=16 alias=<RA6,0>\0A.decl RF7 v_type=G type=F num_elts=16 alias=<RA6,64>\0A.decl RF8 v_type=G type=F num_elts=16 alias=<RA8,0>\0A.decl RF9 v_type=G type=F num_elts=16 alias=<RA8,64>\0A.decl RF10 v_type=G type=F num_elts=16 alias=<RA10,0>\0A.decl RF11 v_type=G type=F num_elts=16 alias=<RA10,64>\0A.decl RF12 v_type=G type=F num_elts=16 alias=<RA12,0>\0A.decl RF13 v_type=G type=F num_elts=16 alias=<RA12,64>\0A.decl RF14 v_type=G type=F num_elts=16 alias=<RA14,0>\0A.decl RF15 v_type=G type=F num_elts=16 alias=<RA14,64>\0Asetp (M1_NM,16) INTERLEAVE_2 0x5555:uw\0Asetp (M1_NM,16) INTERLEAVE_4 0x3333:uw\0Asetp (M1_NM,16) INTERLEAVE_8 0x0F0F:uw\0A(!INTERLEAVE_2) sel (M1_NM,16) RA0(0,0)<1>  IN1(0,0)<2;2,0>  IN0(0,0)<1;1,0>\0A (INTERLEAVE_2) sel (M1_NM,16) RA0(1,0)<1>  IN0(0,1)<2;2,0>  IN1(0,0)<1;1,0>\0A(!INTERLEAVE_2) sel (M1_NM,16) RA2(0,0)<1>  IN3(0,0)<2;2,0>  IN2(0,0)<1;1,0>\0A (INTERLEAVE_2) sel (M1_NM,16) RA2(1,0)<1>  IN2(0,1)<2;2,0>  IN3(0,0)<1;1,0>\0A(!INTERLEAVE_2) sel (M1_NM,16) RA4(0,0)<1>  IN5(0,0)<2;2,0>  IN4(0,0)<1;1,0>\0A (INTERLEAVE_2) sel (M1_NM,16) RA4(1,0)<1>  IN4(0,1)<2;2,0>  IN5(0,0)<1;1,0>\0A(!INTERLEAVE_2) sel (M1_NM,16) RA6(0,0)<1>  IN7(0,0)<2;2,0>  IN6(0,0)<1;1,0>\0A (INTERLEAVE_2) sel (M1_NM,16) RA6(1,0)<1>  IN6(0,1)<2;2,0>  IN7(0,0)<1;1,0>\0A(!INTERLEAVE_2) sel (M1_NM,16) RA8(0,0)<1>  IN9(0,0)<2;2,0>  IN8(0,0)<1;1,0>\0A (INTERLEAVE_2) sel (M1_NM,16) RA8(1,0)<1>  IN8(0,1)<2;2,0>  IN9(0,0)<1;1,0>\0A(!INTERLEAVE_2) sel (M1_NM,16) RA10(0,0)<1> IN11(0,0)<2;2,0> IN10(0,0)<1;1,0>\0A (INTERLEAVE_2) sel (M1_NM,16) RA10(1,0)<1> IN10(0,1)<2;2,0> IN11(0,0)<1;1,0>\0A(!INTERLEAVE_2) sel (M1_NM,16) RA12(0,0)<1> IN13(0,0)<2;2,0> IN12(0,0)<1;1,0>\0A (INTERLEAVE_2) sel (M1_NM,16) RA12(1,0)<1> IN12(0,1)<2;2,0> IN13(0,0)<1;1,0>\0A(!INTERLEAVE_2) sel (M1_NM,16) RA14(0,0)<1> IN15(0,0)<2;2,0> IN14(0,0)<1;1,0>\0A (INTERLEAVE_2) sel (M1_NM,16) RA14(1,0)<1> IN14(0,1)<2;2,0> IN15(0,0)<1;1,0>\0Aadd (M1_NM,16) RF0(0,0)<1> RF0(0,0)<1;1,0> RF1(0,0)<1;1,0>\0Aadd (M1_NM,16) RF3(0,0)<1> RF2(0,0)<1;1,0> RF3(0,0)<1;1,0>\0Aadd (M1_NM,16) RF4(0,0)<1> RF4(0,0)<1;1,0> RF5(0,0)<1;1,0>\0Aadd (M1_NM,16) RF7(0,0)<1> RF6(0,0)<1;1,0> RF7(0,0)<1;1,0>\0Aadd (M1_NM,16) RF8(0,0)<1> RF8(0,0)<1;1,0> RF9(0,0)<1;1,0>\0Aadd (M1_NM,16) RF11(0,0)<1> RF10(0,0)<1;1,0> RF11(0,0)<1;1,0>\0Aadd (M1_NM,16) RF12(0,0)<1> RF12(0,0)<1;1,0> RF13(0,0)<1;1,0>\0Aadd (M1_NM,16) RF15(0,0)<1> RF14(0,0)<1;1,0> RF15(0,0)<1;1,0>\0A(!INTERLEAVE_4) sel (M1_NM,16) RA0(1,0)<1>  RA2(0,14)<1;1,0>  RA0(0,0)<1;1,0>\0A (INTERLEAVE_4) sel (M1_NM,16) RA0(0,0)<1>  RA0(0,2)<1;1,0>   RA2(1,0)<1;1,0>\0A(!INTERLEAVE_4) sel (M1_NM,16) RA4(1,0)<1>  RA6(0,14)<1;1,0>  RA4(0,0)<1;1,0>\0A (INTERLEAVE_4) sel (M1_NM,16) RA4(0,0)<1>  RA4(0,2)<1;1,0>   RA6(1,0)<1;1,0>\0A(!INTERLEAVE_4) sel (M1_NM,16) RA8(1,0)<1>  RA10(0,14)<1;1,0> RA8(0,0)<1;1,0>\0A (INTERLEAVE_4) sel (M1_NM,16) RA8(0,0)<1>  RA8(0,2)<1;1,0>   RA10(1,0)<1;1,0>\0A(!INTERLEAVE_4) sel (M1_NM,16) RA12(1,0)<1> RA14(0,14)<1;1,0> RA12(0,0)<1;1,0>\0A (INTERLEAVE_4) sel (M1_NM,16) RA12(0,0)<1> RA12(0,2)<1;1,0>  RA14(1,0)<1;1,0>\0Aadd (M1_NM,16) RF0(0,0)<1>  RF0(0,0)<1;1,0>  RF1(0,0)<1;1,0>\0Aadd (M1_NM,16) RF5(0,0)<1>  RF4(0,0)<1;1,0>  RF5(0,0)<1;1,0>\0Aadd (M1_NM,16) RF8(0,0)<1>  RF8(0,0)<1;1,0>  RF9(0,0)<1;1,0>\0Aadd (M1_NM,16) RF13(0,0)<1> RF12(0,0)<1;1,0> RF13(0,0)<1;1,0>\0A(!INTERLEAVE_8) sel (M1_NM,16) RA0(1,0)<1> RA4(0,12)<1;1,0>  RA0(0,0)<1;1,0>\0A (INTERLEAVE_8) sel (M1_NM,16) RA0(0,0)<1> RA0(0,4)<1;1,0>   RA4(1,0)<1;1,0>\0A(!INTERLEAVE_8) sel (M1_NM,16) RA8(1,0)<1> RA12(0,12)<1;1,0> RA8(0,0)<1;1,0>\0A (INTERLEAVE_8) sel (M1_NM,16) RA8(0,0)<1> RA8(0,4)<1;1,0>   RA12(1,0)<1;1,0>\0Aadd (M1_NM,16) RF0(0,0)<1> RF0(0,0)<1;1,0> RF1(0,0)<1;1,0>\0Aadd (M1_NM,16) RF8(0,0)<1> RF8(0,0)<1;1,0> RF9(0,0)<1;1,0>\0Amov (M1_NM, 8) RA0(1,0)<1> RA0(0,8)<1;1,0>\0Amov (M1_NM, 8) RA8(1,8)<1> RA8(0,0)<1;1,0>\0Aadd (M1_NM,8) $0(0,0)<1> RF0(0,0)<1;1,0> RF1(0,0)<1;1,0>\0Aadd (M1_NM,8) $0(0,8)<1> RF8(0,8)<1;1,0> RF9(0,8)<1;1,0>\0A}\0A", "=rw,rw,rw,rw,rw,rw,rw,rw,rw,rw,rw,rw,rw,rw,rw,rw,rw"(float %945, float %946, float %947, float %948, float %949, float %950, float %951, float %952, float %953, float %954, float %955, float %956, float %957, float %958, float %959, float %960) #0		; visa id: 1602
  %bf_cvt = call i16 @llvm.genx.GenISA.ftobf.i16.f32(float %591, i32 0)		; visa id: 1602
  %.sroa.01394.0.vec.insert = insertelement <8 x i16> poison, i16 %bf_cvt, i64 0		; visa id: 1603
  %bf_cvt.1 = call i16 @llvm.genx.GenISA.ftobf.i16.f32(float %594, i32 0)		; visa id: 1604
  %.sroa.01394.2.vec.insert = insertelement <8 x i16> %.sroa.01394.0.vec.insert, i16 %bf_cvt.1, i64 1		; visa id: 1605
  %bf_cvt.2 = call i16 @llvm.genx.GenISA.ftobf.i16.f32(float %597, i32 0)		; visa id: 1606
  %.sroa.01394.4.vec.insert = insertelement <8 x i16> %.sroa.01394.2.vec.insert, i16 %bf_cvt.2, i64 2		; visa id: 1607
  %bf_cvt.3 = call i16 @llvm.genx.GenISA.ftobf.i16.f32(float %600, i32 0)		; visa id: 1608
  %.sroa.01394.6.vec.insert = insertelement <8 x i16> %.sroa.01394.4.vec.insert, i16 %bf_cvt.3, i64 3		; visa id: 1609
  %bf_cvt.4 = call i16 @llvm.genx.GenISA.ftobf.i16.f32(float %603, i32 0)		; visa id: 1610
  %.sroa.01394.8.vec.insert = insertelement <8 x i16> %.sroa.01394.6.vec.insert, i16 %bf_cvt.4, i64 4		; visa id: 1611
  %bf_cvt.5 = call i16 @llvm.genx.GenISA.ftobf.i16.f32(float %606, i32 0)		; visa id: 1612
  %.sroa.01394.10.vec.insert = insertelement <8 x i16> %.sroa.01394.8.vec.insert, i16 %bf_cvt.5, i64 5		; visa id: 1613
  %bf_cvt.6 = call i16 @llvm.genx.GenISA.ftobf.i16.f32(float %609, i32 0)		; visa id: 1614
  %.sroa.01394.12.vec.insert = insertelement <8 x i16> %.sroa.01394.10.vec.insert, i16 %bf_cvt.6, i64 6		; visa id: 1615
  %bf_cvt.7 = call i16 @llvm.genx.GenISA.ftobf.i16.f32(float %612, i32 0)		; visa id: 1616
  %.sroa.01394.14.vec.insert = insertelement <8 x i16> %.sroa.01394.12.vec.insert, i16 %bf_cvt.7, i64 7		; visa id: 1617
  %bf_cvt.8 = call i16 @llvm.genx.GenISA.ftobf.i16.f32(float %615, i32 0)		; visa id: 1618
  %.sroa.19.16.vec.insert = insertelement <8 x i16> poison, i16 %bf_cvt.8, i64 0		; visa id: 1619
  %bf_cvt.9 = call i16 @llvm.genx.GenISA.ftobf.i16.f32(float %618, i32 0)		; visa id: 1620
  %.sroa.19.18.vec.insert = insertelement <8 x i16> %.sroa.19.16.vec.insert, i16 %bf_cvt.9, i64 1		; visa id: 1621
  %bf_cvt.10 = call i16 @llvm.genx.GenISA.ftobf.i16.f32(float %621, i32 0)		; visa id: 1622
  %.sroa.19.20.vec.insert = insertelement <8 x i16> %.sroa.19.18.vec.insert, i16 %bf_cvt.10, i64 2		; visa id: 1623
  %bf_cvt.11 = call i16 @llvm.genx.GenISA.ftobf.i16.f32(float %624, i32 0)		; visa id: 1624
  %.sroa.19.22.vec.insert = insertelement <8 x i16> %.sroa.19.20.vec.insert, i16 %bf_cvt.11, i64 3		; visa id: 1625
  %bf_cvt.12 = call i16 @llvm.genx.GenISA.ftobf.i16.f32(float %627, i32 0)		; visa id: 1626
  %.sroa.19.24.vec.insert = insertelement <8 x i16> %.sroa.19.22.vec.insert, i16 %bf_cvt.12, i64 4		; visa id: 1627
  %bf_cvt.13 = call i16 @llvm.genx.GenISA.ftobf.i16.f32(float %630, i32 0)		; visa id: 1628
  %.sroa.19.26.vec.insert = insertelement <8 x i16> %.sroa.19.24.vec.insert, i16 %bf_cvt.13, i64 5		; visa id: 1629
  %bf_cvt.14 = call i16 @llvm.genx.GenISA.ftobf.i16.f32(float %633, i32 0)		; visa id: 1630
  %.sroa.19.28.vec.insert = insertelement <8 x i16> %.sroa.19.26.vec.insert, i16 %bf_cvt.14, i64 6		; visa id: 1631
  %bf_cvt.15 = call i16 @llvm.genx.GenISA.ftobf.i16.f32(float %636, i32 0)		; visa id: 1632
  %.sroa.19.30.vec.insert = insertelement <8 x i16> %.sroa.19.28.vec.insert, i16 %bf_cvt.15, i64 7		; visa id: 1633
  %bf_cvt.16 = call i16 @llvm.genx.GenISA.ftobf.i16.f32(float %639, i32 0)		; visa id: 1634
  %.sroa.35.32.vec.insert = insertelement <8 x i16> poison, i16 %bf_cvt.16, i64 0		; visa id: 1635
  %bf_cvt.17 = call i16 @llvm.genx.GenISA.ftobf.i16.f32(float %642, i32 0)		; visa id: 1636
  %.sroa.35.34.vec.insert = insertelement <8 x i16> %.sroa.35.32.vec.insert, i16 %bf_cvt.17, i64 1		; visa id: 1637
  %bf_cvt.18 = call i16 @llvm.genx.GenISA.ftobf.i16.f32(float %645, i32 0)		; visa id: 1638
  %.sroa.35.36.vec.insert = insertelement <8 x i16> %.sroa.35.34.vec.insert, i16 %bf_cvt.18, i64 2		; visa id: 1639
  %bf_cvt.19 = call i16 @llvm.genx.GenISA.ftobf.i16.f32(float %648, i32 0)		; visa id: 1640
  %.sroa.35.38.vec.insert = insertelement <8 x i16> %.sroa.35.36.vec.insert, i16 %bf_cvt.19, i64 3		; visa id: 1641
  %bf_cvt.20 = call i16 @llvm.genx.GenISA.ftobf.i16.f32(float %651, i32 0)		; visa id: 1642
  %.sroa.35.40.vec.insert = insertelement <8 x i16> %.sroa.35.38.vec.insert, i16 %bf_cvt.20, i64 4		; visa id: 1643
  %bf_cvt.21 = call i16 @llvm.genx.GenISA.ftobf.i16.f32(float %654, i32 0)		; visa id: 1644
  %.sroa.35.42.vec.insert = insertelement <8 x i16> %.sroa.35.40.vec.insert, i16 %bf_cvt.21, i64 5		; visa id: 1645
  %bf_cvt.22 = call i16 @llvm.genx.GenISA.ftobf.i16.f32(float %657, i32 0)		; visa id: 1646
  %.sroa.35.44.vec.insert = insertelement <8 x i16> %.sroa.35.42.vec.insert, i16 %bf_cvt.22, i64 6		; visa id: 1647
  %bf_cvt.23 = call i16 @llvm.genx.GenISA.ftobf.i16.f32(float %660, i32 0)		; visa id: 1648
  %.sroa.35.46.vec.insert = insertelement <8 x i16> %.sroa.35.44.vec.insert, i16 %bf_cvt.23, i64 7		; visa id: 1649
  %bf_cvt.24 = call i16 @llvm.genx.GenISA.ftobf.i16.f32(float %663, i32 0)		; visa id: 1650
  %.sroa.51.48.vec.insert = insertelement <8 x i16> poison, i16 %bf_cvt.24, i64 0		; visa id: 1651
  %bf_cvt.25 = call i16 @llvm.genx.GenISA.ftobf.i16.f32(float %666, i32 0)		; visa id: 1652
  %.sroa.51.50.vec.insert = insertelement <8 x i16> %.sroa.51.48.vec.insert, i16 %bf_cvt.25, i64 1		; visa id: 1653
  %bf_cvt.26 = call i16 @llvm.genx.GenISA.ftobf.i16.f32(float %669, i32 0)		; visa id: 1654
  %.sroa.51.52.vec.insert = insertelement <8 x i16> %.sroa.51.50.vec.insert, i16 %bf_cvt.26, i64 2		; visa id: 1655
  %bf_cvt.27 = call i16 @llvm.genx.GenISA.ftobf.i16.f32(float %672, i32 0)		; visa id: 1656
  %.sroa.51.54.vec.insert = insertelement <8 x i16> %.sroa.51.52.vec.insert, i16 %bf_cvt.27, i64 3		; visa id: 1657
  %bf_cvt.28 = call i16 @llvm.genx.GenISA.ftobf.i16.f32(float %675, i32 0)		; visa id: 1658
  %.sroa.51.56.vec.insert = insertelement <8 x i16> %.sroa.51.54.vec.insert, i16 %bf_cvt.28, i64 4		; visa id: 1659
  %bf_cvt.29 = call i16 @llvm.genx.GenISA.ftobf.i16.f32(float %678, i32 0)		; visa id: 1660
  %.sroa.51.58.vec.insert = insertelement <8 x i16> %.sroa.51.56.vec.insert, i16 %bf_cvt.29, i64 5		; visa id: 1661
  %bf_cvt.30 = call i16 @llvm.genx.GenISA.ftobf.i16.f32(float %681, i32 0)		; visa id: 1662
  %.sroa.51.60.vec.insert = insertelement <8 x i16> %.sroa.51.58.vec.insert, i16 %bf_cvt.30, i64 6		; visa id: 1663
  %bf_cvt.31 = call i16 @llvm.genx.GenISA.ftobf.i16.f32(float %684, i32 0)		; visa id: 1664
  %.sroa.51.62.vec.insert = insertelement <8 x i16> %.sroa.51.60.vec.insert, i16 %bf_cvt.31, i64 7		; visa id: 1665
  call void @llvm.genx.GenISA.LSC2DBlockSetAddrPayloadField.p4i8.i32(i8 addrspace(4)* %Block2D_AddrPayload113, i32 5, i32 %202, i1 false)		; visa id: 1666
  call void @llvm.genx.GenISA.LSC2DBlockSetAddrPayloadField.p4i8.i32(i8 addrspace(4)* %Block2D_AddrPayload113, i32 6, i32 %208, i1 false)		; visa id: 1667
  %962 = call <32 x i16> asm "lsc_load_block2d.ugm (M1, 1)  $0:d$2.$3x$4x$5nt flat[$1+(0,0)]", "=rw,rw.u,P,P,P,P"(i8 addrspace(4)* %Block2D_AddrPayload113, i32 16, i32 2, i32 16, i32 16) #0		; visa id: 1668
  %963 = add i32 %208, 16		; visa id: 1668
  call void @llvm.genx.GenISA.LSC2DBlockSetAddrPayloadField.p4i8.i32(i8 addrspace(4)* %Block2D_AddrPayload113, i32 5, i32 %202, i1 false)		; visa id: 1669
  call void @llvm.genx.GenISA.LSC2DBlockSetAddrPayloadField.p4i8.i32(i8 addrspace(4)* %Block2D_AddrPayload113, i32 6, i32 %963, i1 false)		; visa id: 1670
  %964 = call <32 x i16> asm "lsc_load_block2d.ugm (M1, 1)  $0:d$2.$3x$4x$5nt flat[$1+(0,0)]", "=rw,rw.u,P,P,P,P"(i8 addrspace(4)* %Block2D_AddrPayload113, i32 16, i32 2, i32 16, i32 16) #0		; visa id: 1671
  %965 = extractelement <32 x i16> %962, i32 0		; visa id: 1671
  %966 = insertelement <16 x i16> undef, i16 %965, i32 0		; visa id: 1671
  %967 = extractelement <32 x i16> %962, i32 1		; visa id: 1671
  %968 = insertelement <16 x i16> %966, i16 %967, i32 1		; visa id: 1671
  %969 = extractelement <32 x i16> %962, i32 2		; visa id: 1671
  %970 = insertelement <16 x i16> %968, i16 %969, i32 2		; visa id: 1671
  %971 = extractelement <32 x i16> %962, i32 3		; visa id: 1671
  %972 = insertelement <16 x i16> %970, i16 %971, i32 3		; visa id: 1671
  %973 = extractelement <32 x i16> %962, i32 4		; visa id: 1671
  %974 = insertelement <16 x i16> %972, i16 %973, i32 4		; visa id: 1671
  %975 = extractelement <32 x i16> %962, i32 5		; visa id: 1671
  %976 = insertelement <16 x i16> %974, i16 %975, i32 5		; visa id: 1671
  %977 = extractelement <32 x i16> %962, i32 6		; visa id: 1671
  %978 = insertelement <16 x i16> %976, i16 %977, i32 6		; visa id: 1671
  %979 = extractelement <32 x i16> %962, i32 7		; visa id: 1671
  %980 = insertelement <16 x i16> %978, i16 %979, i32 7		; visa id: 1671
  %981 = extractelement <32 x i16> %962, i32 8		; visa id: 1671
  %982 = insertelement <16 x i16> %980, i16 %981, i32 8		; visa id: 1671
  %983 = extractelement <32 x i16> %962, i32 9		; visa id: 1671
  %984 = insertelement <16 x i16> %982, i16 %983, i32 9		; visa id: 1671
  %985 = extractelement <32 x i16> %962, i32 10		; visa id: 1671
  %986 = insertelement <16 x i16> %984, i16 %985, i32 10		; visa id: 1671
  %987 = extractelement <32 x i16> %962, i32 11		; visa id: 1671
  %988 = insertelement <16 x i16> %986, i16 %987, i32 11		; visa id: 1671
  %989 = extractelement <32 x i16> %962, i32 12		; visa id: 1671
  %990 = insertelement <16 x i16> %988, i16 %989, i32 12		; visa id: 1671
  %991 = extractelement <32 x i16> %962, i32 13		; visa id: 1671
  %992 = insertelement <16 x i16> %990, i16 %991, i32 13		; visa id: 1671
  %993 = extractelement <32 x i16> %962, i32 14		; visa id: 1671
  %994 = insertelement <16 x i16> %992, i16 %993, i32 14		; visa id: 1671
  %995 = extractelement <32 x i16> %962, i32 15		; visa id: 1671
  %996 = insertelement <16 x i16> %994, i16 %995, i32 15		; visa id: 1671
  %997 = extractelement <32 x i16> %962, i32 16		; visa id: 1671
  %998 = insertelement <16 x i16> undef, i16 %997, i32 0		; visa id: 1671
  %999 = extractelement <32 x i16> %962, i32 17		; visa id: 1671
  %1000 = insertelement <16 x i16> %998, i16 %999, i32 1		; visa id: 1671
  %1001 = extractelement <32 x i16> %962, i32 18		; visa id: 1671
  %1002 = insertelement <16 x i16> %1000, i16 %1001, i32 2		; visa id: 1671
  %1003 = extractelement <32 x i16> %962, i32 19		; visa id: 1671
  %1004 = insertelement <16 x i16> %1002, i16 %1003, i32 3		; visa id: 1671
  %1005 = extractelement <32 x i16> %962, i32 20		; visa id: 1671
  %1006 = insertelement <16 x i16> %1004, i16 %1005, i32 4		; visa id: 1671
  %1007 = extractelement <32 x i16> %962, i32 21		; visa id: 1671
  %1008 = insertelement <16 x i16> %1006, i16 %1007, i32 5		; visa id: 1671
  %1009 = extractelement <32 x i16> %962, i32 22		; visa id: 1671
  %1010 = insertelement <16 x i16> %1008, i16 %1009, i32 6		; visa id: 1671
  %1011 = extractelement <32 x i16> %962, i32 23		; visa id: 1671
  %1012 = insertelement <16 x i16> %1010, i16 %1011, i32 7		; visa id: 1671
  %1013 = extractelement <32 x i16> %962, i32 24		; visa id: 1671
  %1014 = insertelement <16 x i16> %1012, i16 %1013, i32 8		; visa id: 1671
  %1015 = extractelement <32 x i16> %962, i32 25		; visa id: 1671
  %1016 = insertelement <16 x i16> %1014, i16 %1015, i32 9		; visa id: 1671
  %1017 = extractelement <32 x i16> %962, i32 26		; visa id: 1671
  %1018 = insertelement <16 x i16> %1016, i16 %1017, i32 10		; visa id: 1671
  %1019 = extractelement <32 x i16> %962, i32 27		; visa id: 1671
  %1020 = insertelement <16 x i16> %1018, i16 %1019, i32 11		; visa id: 1671
  %1021 = extractelement <32 x i16> %962, i32 28		; visa id: 1671
  %1022 = insertelement <16 x i16> %1020, i16 %1021, i32 12		; visa id: 1671
  %1023 = extractelement <32 x i16> %962, i32 29		; visa id: 1671
  %1024 = insertelement <16 x i16> %1022, i16 %1023, i32 13		; visa id: 1671
  %1025 = extractelement <32 x i16> %962, i32 30		; visa id: 1671
  %1026 = insertelement <16 x i16> %1024, i16 %1025, i32 14		; visa id: 1671
  %1027 = extractelement <32 x i16> %962, i32 31		; visa id: 1671
  %1028 = insertelement <16 x i16> %1026, i16 %1027, i32 15		; visa id: 1671
  %1029 = extractelement <32 x i16> %964, i32 0		; visa id: 1671
  %1030 = insertelement <16 x i16> undef, i16 %1029, i32 0		; visa id: 1671
  %1031 = extractelement <32 x i16> %964, i32 1		; visa id: 1671
  %1032 = insertelement <16 x i16> %1030, i16 %1031, i32 1		; visa id: 1671
  %1033 = extractelement <32 x i16> %964, i32 2		; visa id: 1671
  %1034 = insertelement <16 x i16> %1032, i16 %1033, i32 2		; visa id: 1671
  %1035 = extractelement <32 x i16> %964, i32 3		; visa id: 1671
  %1036 = insertelement <16 x i16> %1034, i16 %1035, i32 3		; visa id: 1671
  %1037 = extractelement <32 x i16> %964, i32 4		; visa id: 1671
  %1038 = insertelement <16 x i16> %1036, i16 %1037, i32 4		; visa id: 1671
  %1039 = extractelement <32 x i16> %964, i32 5		; visa id: 1671
  %1040 = insertelement <16 x i16> %1038, i16 %1039, i32 5		; visa id: 1671
  %1041 = extractelement <32 x i16> %964, i32 6		; visa id: 1671
  %1042 = insertelement <16 x i16> %1040, i16 %1041, i32 6		; visa id: 1671
  %1043 = extractelement <32 x i16> %964, i32 7		; visa id: 1671
  %1044 = insertelement <16 x i16> %1042, i16 %1043, i32 7		; visa id: 1671
  %1045 = extractelement <32 x i16> %964, i32 8		; visa id: 1671
  %1046 = insertelement <16 x i16> %1044, i16 %1045, i32 8		; visa id: 1671
  %1047 = extractelement <32 x i16> %964, i32 9		; visa id: 1671
  %1048 = insertelement <16 x i16> %1046, i16 %1047, i32 9		; visa id: 1671
  %1049 = extractelement <32 x i16> %964, i32 10		; visa id: 1671
  %1050 = insertelement <16 x i16> %1048, i16 %1049, i32 10		; visa id: 1671
  %1051 = extractelement <32 x i16> %964, i32 11		; visa id: 1671
  %1052 = insertelement <16 x i16> %1050, i16 %1051, i32 11		; visa id: 1671
  %1053 = extractelement <32 x i16> %964, i32 12		; visa id: 1671
  %1054 = insertelement <16 x i16> %1052, i16 %1053, i32 12		; visa id: 1671
  %1055 = extractelement <32 x i16> %964, i32 13		; visa id: 1671
  %1056 = insertelement <16 x i16> %1054, i16 %1055, i32 13		; visa id: 1671
  %1057 = extractelement <32 x i16> %964, i32 14		; visa id: 1671
  %1058 = insertelement <16 x i16> %1056, i16 %1057, i32 14		; visa id: 1671
  %1059 = extractelement <32 x i16> %964, i32 15		; visa id: 1671
  %1060 = insertelement <16 x i16> %1058, i16 %1059, i32 15		; visa id: 1671
  %1061 = extractelement <32 x i16> %964, i32 16		; visa id: 1671
  %1062 = insertelement <16 x i16> undef, i16 %1061, i32 0		; visa id: 1671
  %1063 = extractelement <32 x i16> %964, i32 17		; visa id: 1671
  %1064 = insertelement <16 x i16> %1062, i16 %1063, i32 1		; visa id: 1671
  %1065 = extractelement <32 x i16> %964, i32 18		; visa id: 1671
  %1066 = insertelement <16 x i16> %1064, i16 %1065, i32 2		; visa id: 1671
  %1067 = extractelement <32 x i16> %964, i32 19		; visa id: 1671
  %1068 = insertelement <16 x i16> %1066, i16 %1067, i32 3		; visa id: 1671
  %1069 = extractelement <32 x i16> %964, i32 20		; visa id: 1671
  %1070 = insertelement <16 x i16> %1068, i16 %1069, i32 4		; visa id: 1671
  %1071 = extractelement <32 x i16> %964, i32 21		; visa id: 1671
  %1072 = insertelement <16 x i16> %1070, i16 %1071, i32 5		; visa id: 1671
  %1073 = extractelement <32 x i16> %964, i32 22		; visa id: 1671
  %1074 = insertelement <16 x i16> %1072, i16 %1073, i32 6		; visa id: 1671
  %1075 = extractelement <32 x i16> %964, i32 23		; visa id: 1671
  %1076 = insertelement <16 x i16> %1074, i16 %1075, i32 7		; visa id: 1671
  %1077 = extractelement <32 x i16> %964, i32 24		; visa id: 1671
  %1078 = insertelement <16 x i16> %1076, i16 %1077, i32 8		; visa id: 1671
  %1079 = extractelement <32 x i16> %964, i32 25		; visa id: 1671
  %1080 = insertelement <16 x i16> %1078, i16 %1079, i32 9		; visa id: 1671
  %1081 = extractelement <32 x i16> %964, i32 26		; visa id: 1671
  %1082 = insertelement <16 x i16> %1080, i16 %1081, i32 10		; visa id: 1671
  %1083 = extractelement <32 x i16> %964, i32 27		; visa id: 1671
  %1084 = insertelement <16 x i16> %1082, i16 %1083, i32 11		; visa id: 1671
  %1085 = extractelement <32 x i16> %964, i32 28		; visa id: 1671
  %1086 = insertelement <16 x i16> %1084, i16 %1085, i32 12		; visa id: 1671
  %1087 = extractelement <32 x i16> %964, i32 29		; visa id: 1671
  %1088 = insertelement <16 x i16> %1086, i16 %1087, i32 13		; visa id: 1671
  %1089 = extractelement <32 x i16> %964, i32 30		; visa id: 1671
  %1090 = insertelement <16 x i16> %1088, i16 %1089, i32 14		; visa id: 1671
  %1091 = extractelement <32 x i16> %964, i32 31		; visa id: 1671
  %1092 = insertelement <16 x i16> %1090, i16 %1091, i32 15		; visa id: 1671
  %1093 = call <8 x float> asm "{\0A.decl DST     v_type=G type=f num_elts=$5 alias=<$0,0>\0A.decl SRC1_UD v_type=G type=UD num_elts=128 alias=<$2,0>\0A.decl SRC2_UD v_type=G type=UD num_elts=$4 alias=<$1,0>\0Adpas.bf.bf.8.$3 (M1, 16) DST.0 DST.0 SRC1_UD.0 SRC2_UD(0,0)\0A}\0A", "=rw,rw,rw,P,P,P,0"(<8 x i16> %.sroa.01394.14.vec.insert, <16 x i16> %996, i32 8, i32 64, i32 128, <8 x float> %.sroa.0.1) #0		; visa id: 1671
  %1094 = call <8 x float> asm "{\0A.decl DST     v_type=G type=f num_elts=$5 alias=<$0,0>\0A.decl SRC1_UD v_type=G type=UD num_elts=128 alias=<$2,0>\0A.decl SRC2_UD v_type=G type=UD num_elts=$4 alias=<$1,0>\0Adpas.bf.bf.8.$3 (M1, 16) DST.0 DST.0 SRC1_UD.0 SRC2_UD(0,0)\0A}\0A", "=rw,rw,rw,P,P,P,0"(<8 x i16> %.sroa.19.30.vec.insert, <16 x i16> %996, i32 8, i32 64, i32 128, <8 x float> %.sroa.32.1) #0		; visa id: 1671
  %1095 = call <8 x float> asm "{\0A.decl DST     v_type=G type=f num_elts=$5 alias=<$0,0>\0A.decl SRC1_UD v_type=G type=UD num_elts=128 alias=<$2,0>\0A.decl SRC2_UD v_type=G type=UD num_elts=$4 alias=<$1,0>\0Adpas.bf.bf.8.$3 (M1, 16) DST.0 DST.0 SRC1_UD.0 SRC2_UD(0,0)\0A}\0A", "=rw,rw,rw,P,P,P,0"(<8 x i16> %.sroa.19.30.vec.insert, <16 x i16> %1028, i32 8, i32 64, i32 128, <8 x float> %.sroa.88.1) #0		; visa id: 1671
  %1096 = call <8 x float> asm "{\0A.decl DST     v_type=G type=f num_elts=$5 alias=<$0,0>\0A.decl SRC1_UD v_type=G type=UD num_elts=128 alias=<$2,0>\0A.decl SRC2_UD v_type=G type=UD num_elts=$4 alias=<$1,0>\0Adpas.bf.bf.8.$3 (M1, 16) DST.0 DST.0 SRC1_UD.0 SRC2_UD(0,0)\0A}\0A", "=rw,rw,rw,P,P,P,0"(<8 x i16> %.sroa.01394.14.vec.insert, <16 x i16> %1028, i32 8, i32 64, i32 128, <8 x float> %.sroa.60.1) #0		; visa id: 1671
  %1097 = call <8 x float> asm "{\0A.decl DST     v_type=G type=f num_elts=$5 alias=<$0,0>\0A.decl SRC1_UD v_type=G type=UD num_elts=128 alias=<$2,0>\0A.decl SRC2_UD v_type=G type=UD num_elts=$4 alias=<$1,0>\0Adpas.bf.bf.8.$3 (M1, 16) DST.0 DST.0 SRC1_UD.0 SRC2_UD(0,0)\0A}\0A", "=rw,rw,rw,P,P,P,0"(<8 x i16> %.sroa.35.46.vec.insert, <16 x i16> %1060, i32 8, i32 64, i32 128, <8 x float> %1093) #0		; visa id: 1671
  %1098 = call <8 x float> asm "{\0A.decl DST     v_type=G type=f num_elts=$5 alias=<$0,0>\0A.decl SRC1_UD v_type=G type=UD num_elts=128 alias=<$2,0>\0A.decl SRC2_UD v_type=G type=UD num_elts=$4 alias=<$1,0>\0Adpas.bf.bf.8.$3 (M1, 16) DST.0 DST.0 SRC1_UD.0 SRC2_UD(0,0)\0A}\0A", "=rw,rw,rw,P,P,P,0"(<8 x i16> %.sroa.51.62.vec.insert, <16 x i16> %1060, i32 8, i32 64, i32 128, <8 x float> %1094) #0		; visa id: 1671
  %1099 = call <8 x float> asm "{\0A.decl DST     v_type=G type=f num_elts=$5 alias=<$0,0>\0A.decl SRC1_UD v_type=G type=UD num_elts=128 alias=<$2,0>\0A.decl SRC2_UD v_type=G type=UD num_elts=$4 alias=<$1,0>\0Adpas.bf.bf.8.$3 (M1, 16) DST.0 DST.0 SRC1_UD.0 SRC2_UD(0,0)\0A}\0A", "=rw,rw,rw,P,P,P,0"(<8 x i16> %.sroa.51.62.vec.insert, <16 x i16> %1092, i32 8, i32 64, i32 128, <8 x float> %1095) #0		; visa id: 1671
  %1100 = call <8 x float> asm "{\0A.decl DST     v_type=G type=f num_elts=$5 alias=<$0,0>\0A.decl SRC1_UD v_type=G type=UD num_elts=128 alias=<$2,0>\0A.decl SRC2_UD v_type=G type=UD num_elts=$4 alias=<$1,0>\0Adpas.bf.bf.8.$3 (M1, 16) DST.0 DST.0 SRC1_UD.0 SRC2_UD(0,0)\0A}\0A", "=rw,rw,rw,P,P,P,0"(<8 x i16> %.sroa.35.46.vec.insert, <16 x i16> %1092, i32 8, i32 64, i32 128, <8 x float> %1096) #0		; visa id: 1671
  call void @llvm.genx.GenISA.LSC2DBlockSetAddrPayloadField.p4i8.i32(i8 addrspace(4)* %Block2D_AddrPayload113, i32 5, i32 %203, i1 false)		; visa id: 1671
  call void @llvm.genx.GenISA.LSC2DBlockSetAddrPayloadField.p4i8.i32(i8 addrspace(4)* %Block2D_AddrPayload113, i32 6, i32 %208, i1 false)		; visa id: 1672
  %1101 = call <32 x i16> asm "lsc_load_block2d.ugm (M1, 1)  $0:d$2.$3x$4x$5nt flat[$1+(0,0)]", "=rw,rw.u,P,P,P,P"(i8 addrspace(4)* %Block2D_AddrPayload113, i32 16, i32 2, i32 16, i32 16) #0		; visa id: 1673
  call void @llvm.genx.GenISA.LSC2DBlockSetAddrPayloadField.p4i8.i32(i8 addrspace(4)* %Block2D_AddrPayload113, i32 5, i32 %203, i1 false)		; visa id: 1673
  call void @llvm.genx.GenISA.LSC2DBlockSetAddrPayloadField.p4i8.i32(i8 addrspace(4)* %Block2D_AddrPayload113, i32 6, i32 %963, i1 false)		; visa id: 1674
  %1102 = call <32 x i16> asm "lsc_load_block2d.ugm (M1, 1)  $0:d$2.$3x$4x$5nt flat[$1+(0,0)]", "=rw,rw.u,P,P,P,P"(i8 addrspace(4)* %Block2D_AddrPayload113, i32 16, i32 2, i32 16, i32 16) #0		; visa id: 1675
  %1103 = extractelement <32 x i16> %1101, i32 0		; visa id: 1675
  %1104 = insertelement <16 x i16> undef, i16 %1103, i32 0		; visa id: 1675
  %1105 = extractelement <32 x i16> %1101, i32 1		; visa id: 1675
  %1106 = insertelement <16 x i16> %1104, i16 %1105, i32 1		; visa id: 1675
  %1107 = extractelement <32 x i16> %1101, i32 2		; visa id: 1675
  %1108 = insertelement <16 x i16> %1106, i16 %1107, i32 2		; visa id: 1675
  %1109 = extractelement <32 x i16> %1101, i32 3		; visa id: 1675
  %1110 = insertelement <16 x i16> %1108, i16 %1109, i32 3		; visa id: 1675
  %1111 = extractelement <32 x i16> %1101, i32 4		; visa id: 1675
  %1112 = insertelement <16 x i16> %1110, i16 %1111, i32 4		; visa id: 1675
  %1113 = extractelement <32 x i16> %1101, i32 5		; visa id: 1675
  %1114 = insertelement <16 x i16> %1112, i16 %1113, i32 5		; visa id: 1675
  %1115 = extractelement <32 x i16> %1101, i32 6		; visa id: 1675
  %1116 = insertelement <16 x i16> %1114, i16 %1115, i32 6		; visa id: 1675
  %1117 = extractelement <32 x i16> %1101, i32 7		; visa id: 1675
  %1118 = insertelement <16 x i16> %1116, i16 %1117, i32 7		; visa id: 1675
  %1119 = extractelement <32 x i16> %1101, i32 8		; visa id: 1675
  %1120 = insertelement <16 x i16> %1118, i16 %1119, i32 8		; visa id: 1675
  %1121 = extractelement <32 x i16> %1101, i32 9		; visa id: 1675
  %1122 = insertelement <16 x i16> %1120, i16 %1121, i32 9		; visa id: 1675
  %1123 = extractelement <32 x i16> %1101, i32 10		; visa id: 1675
  %1124 = insertelement <16 x i16> %1122, i16 %1123, i32 10		; visa id: 1675
  %1125 = extractelement <32 x i16> %1101, i32 11		; visa id: 1675
  %1126 = insertelement <16 x i16> %1124, i16 %1125, i32 11		; visa id: 1675
  %1127 = extractelement <32 x i16> %1101, i32 12		; visa id: 1675
  %1128 = insertelement <16 x i16> %1126, i16 %1127, i32 12		; visa id: 1675
  %1129 = extractelement <32 x i16> %1101, i32 13		; visa id: 1675
  %1130 = insertelement <16 x i16> %1128, i16 %1129, i32 13		; visa id: 1675
  %1131 = extractelement <32 x i16> %1101, i32 14		; visa id: 1675
  %1132 = insertelement <16 x i16> %1130, i16 %1131, i32 14		; visa id: 1675
  %1133 = extractelement <32 x i16> %1101, i32 15		; visa id: 1675
  %1134 = insertelement <16 x i16> %1132, i16 %1133, i32 15		; visa id: 1675
  %1135 = extractelement <32 x i16> %1101, i32 16		; visa id: 1675
  %1136 = insertelement <16 x i16> undef, i16 %1135, i32 0		; visa id: 1675
  %1137 = extractelement <32 x i16> %1101, i32 17		; visa id: 1675
  %1138 = insertelement <16 x i16> %1136, i16 %1137, i32 1		; visa id: 1675
  %1139 = extractelement <32 x i16> %1101, i32 18		; visa id: 1675
  %1140 = insertelement <16 x i16> %1138, i16 %1139, i32 2		; visa id: 1675
  %1141 = extractelement <32 x i16> %1101, i32 19		; visa id: 1675
  %1142 = insertelement <16 x i16> %1140, i16 %1141, i32 3		; visa id: 1675
  %1143 = extractelement <32 x i16> %1101, i32 20		; visa id: 1675
  %1144 = insertelement <16 x i16> %1142, i16 %1143, i32 4		; visa id: 1675
  %1145 = extractelement <32 x i16> %1101, i32 21		; visa id: 1675
  %1146 = insertelement <16 x i16> %1144, i16 %1145, i32 5		; visa id: 1675
  %1147 = extractelement <32 x i16> %1101, i32 22		; visa id: 1675
  %1148 = insertelement <16 x i16> %1146, i16 %1147, i32 6		; visa id: 1675
  %1149 = extractelement <32 x i16> %1101, i32 23		; visa id: 1675
  %1150 = insertelement <16 x i16> %1148, i16 %1149, i32 7		; visa id: 1675
  %1151 = extractelement <32 x i16> %1101, i32 24		; visa id: 1675
  %1152 = insertelement <16 x i16> %1150, i16 %1151, i32 8		; visa id: 1675
  %1153 = extractelement <32 x i16> %1101, i32 25		; visa id: 1675
  %1154 = insertelement <16 x i16> %1152, i16 %1153, i32 9		; visa id: 1675
  %1155 = extractelement <32 x i16> %1101, i32 26		; visa id: 1675
  %1156 = insertelement <16 x i16> %1154, i16 %1155, i32 10		; visa id: 1675
  %1157 = extractelement <32 x i16> %1101, i32 27		; visa id: 1675
  %1158 = insertelement <16 x i16> %1156, i16 %1157, i32 11		; visa id: 1675
  %1159 = extractelement <32 x i16> %1101, i32 28		; visa id: 1675
  %1160 = insertelement <16 x i16> %1158, i16 %1159, i32 12		; visa id: 1675
  %1161 = extractelement <32 x i16> %1101, i32 29		; visa id: 1675
  %1162 = insertelement <16 x i16> %1160, i16 %1161, i32 13		; visa id: 1675
  %1163 = extractelement <32 x i16> %1101, i32 30		; visa id: 1675
  %1164 = insertelement <16 x i16> %1162, i16 %1163, i32 14		; visa id: 1675
  %1165 = extractelement <32 x i16> %1101, i32 31		; visa id: 1675
  %1166 = insertelement <16 x i16> %1164, i16 %1165, i32 15		; visa id: 1675
  %1167 = extractelement <32 x i16> %1102, i32 0		; visa id: 1675
  %1168 = insertelement <16 x i16> undef, i16 %1167, i32 0		; visa id: 1675
  %1169 = extractelement <32 x i16> %1102, i32 1		; visa id: 1675
  %1170 = insertelement <16 x i16> %1168, i16 %1169, i32 1		; visa id: 1675
  %1171 = extractelement <32 x i16> %1102, i32 2		; visa id: 1675
  %1172 = insertelement <16 x i16> %1170, i16 %1171, i32 2		; visa id: 1675
  %1173 = extractelement <32 x i16> %1102, i32 3		; visa id: 1675
  %1174 = insertelement <16 x i16> %1172, i16 %1173, i32 3		; visa id: 1675
  %1175 = extractelement <32 x i16> %1102, i32 4		; visa id: 1675
  %1176 = insertelement <16 x i16> %1174, i16 %1175, i32 4		; visa id: 1675
  %1177 = extractelement <32 x i16> %1102, i32 5		; visa id: 1675
  %1178 = insertelement <16 x i16> %1176, i16 %1177, i32 5		; visa id: 1675
  %1179 = extractelement <32 x i16> %1102, i32 6		; visa id: 1675
  %1180 = insertelement <16 x i16> %1178, i16 %1179, i32 6		; visa id: 1675
  %1181 = extractelement <32 x i16> %1102, i32 7		; visa id: 1675
  %1182 = insertelement <16 x i16> %1180, i16 %1181, i32 7		; visa id: 1675
  %1183 = extractelement <32 x i16> %1102, i32 8		; visa id: 1675
  %1184 = insertelement <16 x i16> %1182, i16 %1183, i32 8		; visa id: 1675
  %1185 = extractelement <32 x i16> %1102, i32 9		; visa id: 1675
  %1186 = insertelement <16 x i16> %1184, i16 %1185, i32 9		; visa id: 1675
  %1187 = extractelement <32 x i16> %1102, i32 10		; visa id: 1675
  %1188 = insertelement <16 x i16> %1186, i16 %1187, i32 10		; visa id: 1675
  %1189 = extractelement <32 x i16> %1102, i32 11		; visa id: 1675
  %1190 = insertelement <16 x i16> %1188, i16 %1189, i32 11		; visa id: 1675
  %1191 = extractelement <32 x i16> %1102, i32 12		; visa id: 1675
  %1192 = insertelement <16 x i16> %1190, i16 %1191, i32 12		; visa id: 1675
  %1193 = extractelement <32 x i16> %1102, i32 13		; visa id: 1675
  %1194 = insertelement <16 x i16> %1192, i16 %1193, i32 13		; visa id: 1675
  %1195 = extractelement <32 x i16> %1102, i32 14		; visa id: 1675
  %1196 = insertelement <16 x i16> %1194, i16 %1195, i32 14		; visa id: 1675
  %1197 = extractelement <32 x i16> %1102, i32 15		; visa id: 1675
  %1198 = insertelement <16 x i16> %1196, i16 %1197, i32 15		; visa id: 1675
  %1199 = extractelement <32 x i16> %1102, i32 16		; visa id: 1675
  %1200 = insertelement <16 x i16> undef, i16 %1199, i32 0		; visa id: 1675
  %1201 = extractelement <32 x i16> %1102, i32 17		; visa id: 1675
  %1202 = insertelement <16 x i16> %1200, i16 %1201, i32 1		; visa id: 1675
  %1203 = extractelement <32 x i16> %1102, i32 18		; visa id: 1675
  %1204 = insertelement <16 x i16> %1202, i16 %1203, i32 2		; visa id: 1675
  %1205 = extractelement <32 x i16> %1102, i32 19		; visa id: 1675
  %1206 = insertelement <16 x i16> %1204, i16 %1205, i32 3		; visa id: 1675
  %1207 = extractelement <32 x i16> %1102, i32 20		; visa id: 1675
  %1208 = insertelement <16 x i16> %1206, i16 %1207, i32 4		; visa id: 1675
  %1209 = extractelement <32 x i16> %1102, i32 21		; visa id: 1675
  %1210 = insertelement <16 x i16> %1208, i16 %1209, i32 5		; visa id: 1675
  %1211 = extractelement <32 x i16> %1102, i32 22		; visa id: 1675
  %1212 = insertelement <16 x i16> %1210, i16 %1211, i32 6		; visa id: 1675
  %1213 = extractelement <32 x i16> %1102, i32 23		; visa id: 1675
  %1214 = insertelement <16 x i16> %1212, i16 %1213, i32 7		; visa id: 1675
  %1215 = extractelement <32 x i16> %1102, i32 24		; visa id: 1675
  %1216 = insertelement <16 x i16> %1214, i16 %1215, i32 8		; visa id: 1675
  %1217 = extractelement <32 x i16> %1102, i32 25		; visa id: 1675
  %1218 = insertelement <16 x i16> %1216, i16 %1217, i32 9		; visa id: 1675
  %1219 = extractelement <32 x i16> %1102, i32 26		; visa id: 1675
  %1220 = insertelement <16 x i16> %1218, i16 %1219, i32 10		; visa id: 1675
  %1221 = extractelement <32 x i16> %1102, i32 27		; visa id: 1675
  %1222 = insertelement <16 x i16> %1220, i16 %1221, i32 11		; visa id: 1675
  %1223 = extractelement <32 x i16> %1102, i32 28		; visa id: 1675
  %1224 = insertelement <16 x i16> %1222, i16 %1223, i32 12		; visa id: 1675
  %1225 = extractelement <32 x i16> %1102, i32 29		; visa id: 1675
  %1226 = insertelement <16 x i16> %1224, i16 %1225, i32 13		; visa id: 1675
  %1227 = extractelement <32 x i16> %1102, i32 30		; visa id: 1675
  %1228 = insertelement <16 x i16> %1226, i16 %1227, i32 14		; visa id: 1675
  %1229 = extractelement <32 x i16> %1102, i32 31		; visa id: 1675
  %1230 = insertelement <16 x i16> %1228, i16 %1229, i32 15		; visa id: 1675
  %1231 = call <8 x float> asm "{\0A.decl DST     v_type=G type=f num_elts=$5 alias=<$0,0>\0A.decl SRC1_UD v_type=G type=UD num_elts=128 alias=<$2,0>\0A.decl SRC2_UD v_type=G type=UD num_elts=$4 alias=<$1,0>\0Adpas.bf.bf.8.$3 (M1, 16) DST.0 DST.0 SRC1_UD.0 SRC2_UD(0,0)\0A}\0A", "=rw,rw,rw,P,P,P,0"(<8 x i16> %.sroa.01394.14.vec.insert, <16 x i16> %1134, i32 8, i32 64, i32 128, <8 x float> %.sroa.116.1) #0		; visa id: 1675
  %1232 = call <8 x float> asm "{\0A.decl DST     v_type=G type=f num_elts=$5 alias=<$0,0>\0A.decl SRC1_UD v_type=G type=UD num_elts=128 alias=<$2,0>\0A.decl SRC2_UD v_type=G type=UD num_elts=$4 alias=<$1,0>\0Adpas.bf.bf.8.$3 (M1, 16) DST.0 DST.0 SRC1_UD.0 SRC2_UD(0,0)\0A}\0A", "=rw,rw,rw,P,P,P,0"(<8 x i16> %.sroa.19.30.vec.insert, <16 x i16> %1134, i32 8, i32 64, i32 128, <8 x float> %.sroa.144.1) #0		; visa id: 1675
  %1233 = call <8 x float> asm "{\0A.decl DST     v_type=G type=f num_elts=$5 alias=<$0,0>\0A.decl SRC1_UD v_type=G type=UD num_elts=128 alias=<$2,0>\0A.decl SRC2_UD v_type=G type=UD num_elts=$4 alias=<$1,0>\0Adpas.bf.bf.8.$3 (M1, 16) DST.0 DST.0 SRC1_UD.0 SRC2_UD(0,0)\0A}\0A", "=rw,rw,rw,P,P,P,0"(<8 x i16> %.sroa.19.30.vec.insert, <16 x i16> %1166, i32 8, i32 64, i32 128, <8 x float> %.sroa.200.1) #0		; visa id: 1675
  %1234 = call <8 x float> asm "{\0A.decl DST     v_type=G type=f num_elts=$5 alias=<$0,0>\0A.decl SRC1_UD v_type=G type=UD num_elts=128 alias=<$2,0>\0A.decl SRC2_UD v_type=G type=UD num_elts=$4 alias=<$1,0>\0Adpas.bf.bf.8.$3 (M1, 16) DST.0 DST.0 SRC1_UD.0 SRC2_UD(0,0)\0A}\0A", "=rw,rw,rw,P,P,P,0"(<8 x i16> %.sroa.01394.14.vec.insert, <16 x i16> %1166, i32 8, i32 64, i32 128, <8 x float> %.sroa.172.1) #0		; visa id: 1675
  %1235 = call <8 x float> asm "{\0A.decl DST     v_type=G type=f num_elts=$5 alias=<$0,0>\0A.decl SRC1_UD v_type=G type=UD num_elts=128 alias=<$2,0>\0A.decl SRC2_UD v_type=G type=UD num_elts=$4 alias=<$1,0>\0Adpas.bf.bf.8.$3 (M1, 16) DST.0 DST.0 SRC1_UD.0 SRC2_UD(0,0)\0A}\0A", "=rw,rw,rw,P,P,P,0"(<8 x i16> %.sroa.35.46.vec.insert, <16 x i16> %1198, i32 8, i32 64, i32 128, <8 x float> %1231) #0		; visa id: 1675
  %1236 = call <8 x float> asm "{\0A.decl DST     v_type=G type=f num_elts=$5 alias=<$0,0>\0A.decl SRC1_UD v_type=G type=UD num_elts=128 alias=<$2,0>\0A.decl SRC2_UD v_type=G type=UD num_elts=$4 alias=<$1,0>\0Adpas.bf.bf.8.$3 (M1, 16) DST.0 DST.0 SRC1_UD.0 SRC2_UD(0,0)\0A}\0A", "=rw,rw,rw,P,P,P,0"(<8 x i16> %.sroa.51.62.vec.insert, <16 x i16> %1198, i32 8, i32 64, i32 128, <8 x float> %1232) #0		; visa id: 1675
  %1237 = call <8 x float> asm "{\0A.decl DST     v_type=G type=f num_elts=$5 alias=<$0,0>\0A.decl SRC1_UD v_type=G type=UD num_elts=128 alias=<$2,0>\0A.decl SRC2_UD v_type=G type=UD num_elts=$4 alias=<$1,0>\0Adpas.bf.bf.8.$3 (M1, 16) DST.0 DST.0 SRC1_UD.0 SRC2_UD(0,0)\0A}\0A", "=rw,rw,rw,P,P,P,0"(<8 x i16> %.sroa.51.62.vec.insert, <16 x i16> %1230, i32 8, i32 64, i32 128, <8 x float> %1233) #0		; visa id: 1675
  %1238 = call <8 x float> asm "{\0A.decl DST     v_type=G type=f num_elts=$5 alias=<$0,0>\0A.decl SRC1_UD v_type=G type=UD num_elts=128 alias=<$2,0>\0A.decl SRC2_UD v_type=G type=UD num_elts=$4 alias=<$1,0>\0Adpas.bf.bf.8.$3 (M1, 16) DST.0 DST.0 SRC1_UD.0 SRC2_UD(0,0)\0A}\0A", "=rw,rw,rw,P,P,P,0"(<8 x i16> %.sroa.35.46.vec.insert, <16 x i16> %1230, i32 8, i32 64, i32 128, <8 x float> %1234) #0		; visa id: 1675
  call void @llvm.genx.GenISA.LSC2DBlockSetAddrPayloadField.p4i8.i32(i8 addrspace(4)* %Block2D_AddrPayload113, i32 5, i32 %204, i1 false)		; visa id: 1675
  call void @llvm.genx.GenISA.LSC2DBlockSetAddrPayloadField.p4i8.i32(i8 addrspace(4)* %Block2D_AddrPayload113, i32 6, i32 %208, i1 false)		; visa id: 1676
  %1239 = call <32 x i16> asm "lsc_load_block2d.ugm (M1, 1)  $0:d$2.$3x$4x$5nt flat[$1+(0,0)]", "=rw,rw.u,P,P,P,P"(i8 addrspace(4)* %Block2D_AddrPayload113, i32 16, i32 2, i32 16, i32 16) #0		; visa id: 1677
  call void @llvm.genx.GenISA.LSC2DBlockSetAddrPayloadField.p4i8.i32(i8 addrspace(4)* %Block2D_AddrPayload113, i32 5, i32 %204, i1 false)		; visa id: 1677
  call void @llvm.genx.GenISA.LSC2DBlockSetAddrPayloadField.p4i8.i32(i8 addrspace(4)* %Block2D_AddrPayload113, i32 6, i32 %963, i1 false)		; visa id: 1678
  %1240 = call <32 x i16> asm "lsc_load_block2d.ugm (M1, 1)  $0:d$2.$3x$4x$5nt flat[$1+(0,0)]", "=rw,rw.u,P,P,P,P"(i8 addrspace(4)* %Block2D_AddrPayload113, i32 16, i32 2, i32 16, i32 16) #0		; visa id: 1679
  %1241 = extractelement <32 x i16> %1239, i32 0		; visa id: 1679
  %1242 = insertelement <16 x i16> undef, i16 %1241, i32 0		; visa id: 1679
  %1243 = extractelement <32 x i16> %1239, i32 1		; visa id: 1679
  %1244 = insertelement <16 x i16> %1242, i16 %1243, i32 1		; visa id: 1679
  %1245 = extractelement <32 x i16> %1239, i32 2		; visa id: 1679
  %1246 = insertelement <16 x i16> %1244, i16 %1245, i32 2		; visa id: 1679
  %1247 = extractelement <32 x i16> %1239, i32 3		; visa id: 1679
  %1248 = insertelement <16 x i16> %1246, i16 %1247, i32 3		; visa id: 1679
  %1249 = extractelement <32 x i16> %1239, i32 4		; visa id: 1679
  %1250 = insertelement <16 x i16> %1248, i16 %1249, i32 4		; visa id: 1679
  %1251 = extractelement <32 x i16> %1239, i32 5		; visa id: 1679
  %1252 = insertelement <16 x i16> %1250, i16 %1251, i32 5		; visa id: 1679
  %1253 = extractelement <32 x i16> %1239, i32 6		; visa id: 1679
  %1254 = insertelement <16 x i16> %1252, i16 %1253, i32 6		; visa id: 1679
  %1255 = extractelement <32 x i16> %1239, i32 7		; visa id: 1679
  %1256 = insertelement <16 x i16> %1254, i16 %1255, i32 7		; visa id: 1679
  %1257 = extractelement <32 x i16> %1239, i32 8		; visa id: 1679
  %1258 = insertelement <16 x i16> %1256, i16 %1257, i32 8		; visa id: 1679
  %1259 = extractelement <32 x i16> %1239, i32 9		; visa id: 1679
  %1260 = insertelement <16 x i16> %1258, i16 %1259, i32 9		; visa id: 1679
  %1261 = extractelement <32 x i16> %1239, i32 10		; visa id: 1679
  %1262 = insertelement <16 x i16> %1260, i16 %1261, i32 10		; visa id: 1679
  %1263 = extractelement <32 x i16> %1239, i32 11		; visa id: 1679
  %1264 = insertelement <16 x i16> %1262, i16 %1263, i32 11		; visa id: 1679
  %1265 = extractelement <32 x i16> %1239, i32 12		; visa id: 1679
  %1266 = insertelement <16 x i16> %1264, i16 %1265, i32 12		; visa id: 1679
  %1267 = extractelement <32 x i16> %1239, i32 13		; visa id: 1679
  %1268 = insertelement <16 x i16> %1266, i16 %1267, i32 13		; visa id: 1679
  %1269 = extractelement <32 x i16> %1239, i32 14		; visa id: 1679
  %1270 = insertelement <16 x i16> %1268, i16 %1269, i32 14		; visa id: 1679
  %1271 = extractelement <32 x i16> %1239, i32 15		; visa id: 1679
  %1272 = insertelement <16 x i16> %1270, i16 %1271, i32 15		; visa id: 1679
  %1273 = extractelement <32 x i16> %1239, i32 16		; visa id: 1679
  %1274 = insertelement <16 x i16> undef, i16 %1273, i32 0		; visa id: 1679
  %1275 = extractelement <32 x i16> %1239, i32 17		; visa id: 1679
  %1276 = insertelement <16 x i16> %1274, i16 %1275, i32 1		; visa id: 1679
  %1277 = extractelement <32 x i16> %1239, i32 18		; visa id: 1679
  %1278 = insertelement <16 x i16> %1276, i16 %1277, i32 2		; visa id: 1679
  %1279 = extractelement <32 x i16> %1239, i32 19		; visa id: 1679
  %1280 = insertelement <16 x i16> %1278, i16 %1279, i32 3		; visa id: 1679
  %1281 = extractelement <32 x i16> %1239, i32 20		; visa id: 1679
  %1282 = insertelement <16 x i16> %1280, i16 %1281, i32 4		; visa id: 1679
  %1283 = extractelement <32 x i16> %1239, i32 21		; visa id: 1679
  %1284 = insertelement <16 x i16> %1282, i16 %1283, i32 5		; visa id: 1679
  %1285 = extractelement <32 x i16> %1239, i32 22		; visa id: 1679
  %1286 = insertelement <16 x i16> %1284, i16 %1285, i32 6		; visa id: 1679
  %1287 = extractelement <32 x i16> %1239, i32 23		; visa id: 1679
  %1288 = insertelement <16 x i16> %1286, i16 %1287, i32 7		; visa id: 1679
  %1289 = extractelement <32 x i16> %1239, i32 24		; visa id: 1679
  %1290 = insertelement <16 x i16> %1288, i16 %1289, i32 8		; visa id: 1679
  %1291 = extractelement <32 x i16> %1239, i32 25		; visa id: 1679
  %1292 = insertelement <16 x i16> %1290, i16 %1291, i32 9		; visa id: 1679
  %1293 = extractelement <32 x i16> %1239, i32 26		; visa id: 1679
  %1294 = insertelement <16 x i16> %1292, i16 %1293, i32 10		; visa id: 1679
  %1295 = extractelement <32 x i16> %1239, i32 27		; visa id: 1679
  %1296 = insertelement <16 x i16> %1294, i16 %1295, i32 11		; visa id: 1679
  %1297 = extractelement <32 x i16> %1239, i32 28		; visa id: 1679
  %1298 = insertelement <16 x i16> %1296, i16 %1297, i32 12		; visa id: 1679
  %1299 = extractelement <32 x i16> %1239, i32 29		; visa id: 1679
  %1300 = insertelement <16 x i16> %1298, i16 %1299, i32 13		; visa id: 1679
  %1301 = extractelement <32 x i16> %1239, i32 30		; visa id: 1679
  %1302 = insertelement <16 x i16> %1300, i16 %1301, i32 14		; visa id: 1679
  %1303 = extractelement <32 x i16> %1239, i32 31		; visa id: 1679
  %1304 = insertelement <16 x i16> %1302, i16 %1303, i32 15		; visa id: 1679
  %1305 = extractelement <32 x i16> %1240, i32 0		; visa id: 1679
  %1306 = insertelement <16 x i16> undef, i16 %1305, i32 0		; visa id: 1679
  %1307 = extractelement <32 x i16> %1240, i32 1		; visa id: 1679
  %1308 = insertelement <16 x i16> %1306, i16 %1307, i32 1		; visa id: 1679
  %1309 = extractelement <32 x i16> %1240, i32 2		; visa id: 1679
  %1310 = insertelement <16 x i16> %1308, i16 %1309, i32 2		; visa id: 1679
  %1311 = extractelement <32 x i16> %1240, i32 3		; visa id: 1679
  %1312 = insertelement <16 x i16> %1310, i16 %1311, i32 3		; visa id: 1679
  %1313 = extractelement <32 x i16> %1240, i32 4		; visa id: 1679
  %1314 = insertelement <16 x i16> %1312, i16 %1313, i32 4		; visa id: 1679
  %1315 = extractelement <32 x i16> %1240, i32 5		; visa id: 1679
  %1316 = insertelement <16 x i16> %1314, i16 %1315, i32 5		; visa id: 1679
  %1317 = extractelement <32 x i16> %1240, i32 6		; visa id: 1679
  %1318 = insertelement <16 x i16> %1316, i16 %1317, i32 6		; visa id: 1679
  %1319 = extractelement <32 x i16> %1240, i32 7		; visa id: 1679
  %1320 = insertelement <16 x i16> %1318, i16 %1319, i32 7		; visa id: 1679
  %1321 = extractelement <32 x i16> %1240, i32 8		; visa id: 1679
  %1322 = insertelement <16 x i16> %1320, i16 %1321, i32 8		; visa id: 1679
  %1323 = extractelement <32 x i16> %1240, i32 9		; visa id: 1679
  %1324 = insertelement <16 x i16> %1322, i16 %1323, i32 9		; visa id: 1679
  %1325 = extractelement <32 x i16> %1240, i32 10		; visa id: 1679
  %1326 = insertelement <16 x i16> %1324, i16 %1325, i32 10		; visa id: 1679
  %1327 = extractelement <32 x i16> %1240, i32 11		; visa id: 1679
  %1328 = insertelement <16 x i16> %1326, i16 %1327, i32 11		; visa id: 1679
  %1329 = extractelement <32 x i16> %1240, i32 12		; visa id: 1679
  %1330 = insertelement <16 x i16> %1328, i16 %1329, i32 12		; visa id: 1679
  %1331 = extractelement <32 x i16> %1240, i32 13		; visa id: 1679
  %1332 = insertelement <16 x i16> %1330, i16 %1331, i32 13		; visa id: 1679
  %1333 = extractelement <32 x i16> %1240, i32 14		; visa id: 1679
  %1334 = insertelement <16 x i16> %1332, i16 %1333, i32 14		; visa id: 1679
  %1335 = extractelement <32 x i16> %1240, i32 15		; visa id: 1679
  %1336 = insertelement <16 x i16> %1334, i16 %1335, i32 15		; visa id: 1679
  %1337 = extractelement <32 x i16> %1240, i32 16		; visa id: 1679
  %1338 = insertelement <16 x i16> undef, i16 %1337, i32 0		; visa id: 1679
  %1339 = extractelement <32 x i16> %1240, i32 17		; visa id: 1679
  %1340 = insertelement <16 x i16> %1338, i16 %1339, i32 1		; visa id: 1679
  %1341 = extractelement <32 x i16> %1240, i32 18		; visa id: 1679
  %1342 = insertelement <16 x i16> %1340, i16 %1341, i32 2		; visa id: 1679
  %1343 = extractelement <32 x i16> %1240, i32 19		; visa id: 1679
  %1344 = insertelement <16 x i16> %1342, i16 %1343, i32 3		; visa id: 1679
  %1345 = extractelement <32 x i16> %1240, i32 20		; visa id: 1679
  %1346 = insertelement <16 x i16> %1344, i16 %1345, i32 4		; visa id: 1679
  %1347 = extractelement <32 x i16> %1240, i32 21		; visa id: 1679
  %1348 = insertelement <16 x i16> %1346, i16 %1347, i32 5		; visa id: 1679
  %1349 = extractelement <32 x i16> %1240, i32 22		; visa id: 1679
  %1350 = insertelement <16 x i16> %1348, i16 %1349, i32 6		; visa id: 1679
  %1351 = extractelement <32 x i16> %1240, i32 23		; visa id: 1679
  %1352 = insertelement <16 x i16> %1350, i16 %1351, i32 7		; visa id: 1679
  %1353 = extractelement <32 x i16> %1240, i32 24		; visa id: 1679
  %1354 = insertelement <16 x i16> %1352, i16 %1353, i32 8		; visa id: 1679
  %1355 = extractelement <32 x i16> %1240, i32 25		; visa id: 1679
  %1356 = insertelement <16 x i16> %1354, i16 %1355, i32 9		; visa id: 1679
  %1357 = extractelement <32 x i16> %1240, i32 26		; visa id: 1679
  %1358 = insertelement <16 x i16> %1356, i16 %1357, i32 10		; visa id: 1679
  %1359 = extractelement <32 x i16> %1240, i32 27		; visa id: 1679
  %1360 = insertelement <16 x i16> %1358, i16 %1359, i32 11		; visa id: 1679
  %1361 = extractelement <32 x i16> %1240, i32 28		; visa id: 1679
  %1362 = insertelement <16 x i16> %1360, i16 %1361, i32 12		; visa id: 1679
  %1363 = extractelement <32 x i16> %1240, i32 29		; visa id: 1679
  %1364 = insertelement <16 x i16> %1362, i16 %1363, i32 13		; visa id: 1679
  %1365 = extractelement <32 x i16> %1240, i32 30		; visa id: 1679
  %1366 = insertelement <16 x i16> %1364, i16 %1365, i32 14		; visa id: 1679
  %1367 = extractelement <32 x i16> %1240, i32 31		; visa id: 1679
  %1368 = insertelement <16 x i16> %1366, i16 %1367, i32 15		; visa id: 1679
  %1369 = call <8 x float> asm "{\0A.decl DST     v_type=G type=f num_elts=$5 alias=<$0,0>\0A.decl SRC1_UD v_type=G type=UD num_elts=128 alias=<$2,0>\0A.decl SRC2_UD v_type=G type=UD num_elts=$4 alias=<$1,0>\0Adpas.bf.bf.8.$3 (M1, 16) DST.0 DST.0 SRC1_UD.0 SRC2_UD(0,0)\0A}\0A", "=rw,rw,rw,P,P,P,0"(<8 x i16> %.sroa.01394.14.vec.insert, <16 x i16> %1272, i32 8, i32 64, i32 128, <8 x float> %.sroa.228.1) #0		; visa id: 1679
  %1370 = call <8 x float> asm "{\0A.decl DST     v_type=G type=f num_elts=$5 alias=<$0,0>\0A.decl SRC1_UD v_type=G type=UD num_elts=128 alias=<$2,0>\0A.decl SRC2_UD v_type=G type=UD num_elts=$4 alias=<$1,0>\0Adpas.bf.bf.8.$3 (M1, 16) DST.0 DST.0 SRC1_UD.0 SRC2_UD(0,0)\0A}\0A", "=rw,rw,rw,P,P,P,0"(<8 x i16> %.sroa.19.30.vec.insert, <16 x i16> %1272, i32 8, i32 64, i32 128, <8 x float> %.sroa.256.1) #0		; visa id: 1679
  %1371 = call <8 x float> asm "{\0A.decl DST     v_type=G type=f num_elts=$5 alias=<$0,0>\0A.decl SRC1_UD v_type=G type=UD num_elts=128 alias=<$2,0>\0A.decl SRC2_UD v_type=G type=UD num_elts=$4 alias=<$1,0>\0Adpas.bf.bf.8.$3 (M1, 16) DST.0 DST.0 SRC1_UD.0 SRC2_UD(0,0)\0A}\0A", "=rw,rw,rw,P,P,P,0"(<8 x i16> %.sroa.19.30.vec.insert, <16 x i16> %1304, i32 8, i32 64, i32 128, <8 x float> %.sroa.312.1) #0		; visa id: 1679
  %1372 = call <8 x float> asm "{\0A.decl DST     v_type=G type=f num_elts=$5 alias=<$0,0>\0A.decl SRC1_UD v_type=G type=UD num_elts=128 alias=<$2,0>\0A.decl SRC2_UD v_type=G type=UD num_elts=$4 alias=<$1,0>\0Adpas.bf.bf.8.$3 (M1, 16) DST.0 DST.0 SRC1_UD.0 SRC2_UD(0,0)\0A}\0A", "=rw,rw,rw,P,P,P,0"(<8 x i16> %.sroa.01394.14.vec.insert, <16 x i16> %1304, i32 8, i32 64, i32 128, <8 x float> %.sroa.284.1) #0		; visa id: 1679
  %1373 = call <8 x float> asm "{\0A.decl DST     v_type=G type=f num_elts=$5 alias=<$0,0>\0A.decl SRC1_UD v_type=G type=UD num_elts=128 alias=<$2,0>\0A.decl SRC2_UD v_type=G type=UD num_elts=$4 alias=<$1,0>\0Adpas.bf.bf.8.$3 (M1, 16) DST.0 DST.0 SRC1_UD.0 SRC2_UD(0,0)\0A}\0A", "=rw,rw,rw,P,P,P,0"(<8 x i16> %.sroa.35.46.vec.insert, <16 x i16> %1336, i32 8, i32 64, i32 128, <8 x float> %1369) #0		; visa id: 1679
  %1374 = call <8 x float> asm "{\0A.decl DST     v_type=G type=f num_elts=$5 alias=<$0,0>\0A.decl SRC1_UD v_type=G type=UD num_elts=128 alias=<$2,0>\0A.decl SRC2_UD v_type=G type=UD num_elts=$4 alias=<$1,0>\0Adpas.bf.bf.8.$3 (M1, 16) DST.0 DST.0 SRC1_UD.0 SRC2_UD(0,0)\0A}\0A", "=rw,rw,rw,P,P,P,0"(<8 x i16> %.sroa.51.62.vec.insert, <16 x i16> %1336, i32 8, i32 64, i32 128, <8 x float> %1370) #0		; visa id: 1679
  %1375 = call <8 x float> asm "{\0A.decl DST     v_type=G type=f num_elts=$5 alias=<$0,0>\0A.decl SRC1_UD v_type=G type=UD num_elts=128 alias=<$2,0>\0A.decl SRC2_UD v_type=G type=UD num_elts=$4 alias=<$1,0>\0Adpas.bf.bf.8.$3 (M1, 16) DST.0 DST.0 SRC1_UD.0 SRC2_UD(0,0)\0A}\0A", "=rw,rw,rw,P,P,P,0"(<8 x i16> %.sroa.51.62.vec.insert, <16 x i16> %1368, i32 8, i32 64, i32 128, <8 x float> %1371) #0		; visa id: 1679
  %1376 = call <8 x float> asm "{\0A.decl DST     v_type=G type=f num_elts=$5 alias=<$0,0>\0A.decl SRC1_UD v_type=G type=UD num_elts=128 alias=<$2,0>\0A.decl SRC2_UD v_type=G type=UD num_elts=$4 alias=<$1,0>\0Adpas.bf.bf.8.$3 (M1, 16) DST.0 DST.0 SRC1_UD.0 SRC2_UD(0,0)\0A}\0A", "=rw,rw,rw,P,P,P,0"(<8 x i16> %.sroa.35.46.vec.insert, <16 x i16> %1368, i32 8, i32 64, i32 128, <8 x float> %1372) #0		; visa id: 1679
  call void @llvm.genx.GenISA.LSC2DBlockSetAddrPayloadField.p4i8.i32(i8 addrspace(4)* %Block2D_AddrPayload113, i32 5, i32 %205, i1 false)		; visa id: 1679
  call void @llvm.genx.GenISA.LSC2DBlockSetAddrPayloadField.p4i8.i32(i8 addrspace(4)* %Block2D_AddrPayload113, i32 6, i32 %208, i1 false)		; visa id: 1680
  %1377 = call <32 x i16> asm "lsc_load_block2d.ugm (M1, 1)  $0:d$2.$3x$4x$5nt flat[$1+(0,0)]", "=rw,rw.u,P,P,P,P"(i8 addrspace(4)* %Block2D_AddrPayload113, i32 16, i32 2, i32 16, i32 16) #0		; visa id: 1681
  call void @llvm.genx.GenISA.LSC2DBlockSetAddrPayloadField.p4i8.i32(i8 addrspace(4)* %Block2D_AddrPayload113, i32 5, i32 %205, i1 false)		; visa id: 1681
  call void @llvm.genx.GenISA.LSC2DBlockSetAddrPayloadField.p4i8.i32(i8 addrspace(4)* %Block2D_AddrPayload113, i32 6, i32 %963, i1 false)		; visa id: 1682
  %1378 = call <32 x i16> asm "lsc_load_block2d.ugm (M1, 1)  $0:d$2.$3x$4x$5nt flat[$1+(0,0)]", "=rw,rw.u,P,P,P,P"(i8 addrspace(4)* %Block2D_AddrPayload113, i32 16, i32 2, i32 16, i32 16) #0		; visa id: 1683
  %1379 = extractelement <32 x i16> %1377, i32 0		; visa id: 1683
  %1380 = insertelement <16 x i16> undef, i16 %1379, i32 0		; visa id: 1683
  %1381 = extractelement <32 x i16> %1377, i32 1		; visa id: 1683
  %1382 = insertelement <16 x i16> %1380, i16 %1381, i32 1		; visa id: 1683
  %1383 = extractelement <32 x i16> %1377, i32 2		; visa id: 1683
  %1384 = insertelement <16 x i16> %1382, i16 %1383, i32 2		; visa id: 1683
  %1385 = extractelement <32 x i16> %1377, i32 3		; visa id: 1683
  %1386 = insertelement <16 x i16> %1384, i16 %1385, i32 3		; visa id: 1683
  %1387 = extractelement <32 x i16> %1377, i32 4		; visa id: 1683
  %1388 = insertelement <16 x i16> %1386, i16 %1387, i32 4		; visa id: 1683
  %1389 = extractelement <32 x i16> %1377, i32 5		; visa id: 1683
  %1390 = insertelement <16 x i16> %1388, i16 %1389, i32 5		; visa id: 1683
  %1391 = extractelement <32 x i16> %1377, i32 6		; visa id: 1683
  %1392 = insertelement <16 x i16> %1390, i16 %1391, i32 6		; visa id: 1683
  %1393 = extractelement <32 x i16> %1377, i32 7		; visa id: 1683
  %1394 = insertelement <16 x i16> %1392, i16 %1393, i32 7		; visa id: 1683
  %1395 = extractelement <32 x i16> %1377, i32 8		; visa id: 1683
  %1396 = insertelement <16 x i16> %1394, i16 %1395, i32 8		; visa id: 1683
  %1397 = extractelement <32 x i16> %1377, i32 9		; visa id: 1683
  %1398 = insertelement <16 x i16> %1396, i16 %1397, i32 9		; visa id: 1683
  %1399 = extractelement <32 x i16> %1377, i32 10		; visa id: 1683
  %1400 = insertelement <16 x i16> %1398, i16 %1399, i32 10		; visa id: 1683
  %1401 = extractelement <32 x i16> %1377, i32 11		; visa id: 1683
  %1402 = insertelement <16 x i16> %1400, i16 %1401, i32 11		; visa id: 1683
  %1403 = extractelement <32 x i16> %1377, i32 12		; visa id: 1683
  %1404 = insertelement <16 x i16> %1402, i16 %1403, i32 12		; visa id: 1683
  %1405 = extractelement <32 x i16> %1377, i32 13		; visa id: 1683
  %1406 = insertelement <16 x i16> %1404, i16 %1405, i32 13		; visa id: 1683
  %1407 = extractelement <32 x i16> %1377, i32 14		; visa id: 1683
  %1408 = insertelement <16 x i16> %1406, i16 %1407, i32 14		; visa id: 1683
  %1409 = extractelement <32 x i16> %1377, i32 15		; visa id: 1683
  %1410 = insertelement <16 x i16> %1408, i16 %1409, i32 15		; visa id: 1683
  %1411 = extractelement <32 x i16> %1377, i32 16		; visa id: 1683
  %1412 = insertelement <16 x i16> undef, i16 %1411, i32 0		; visa id: 1683
  %1413 = extractelement <32 x i16> %1377, i32 17		; visa id: 1683
  %1414 = insertelement <16 x i16> %1412, i16 %1413, i32 1		; visa id: 1683
  %1415 = extractelement <32 x i16> %1377, i32 18		; visa id: 1683
  %1416 = insertelement <16 x i16> %1414, i16 %1415, i32 2		; visa id: 1683
  %1417 = extractelement <32 x i16> %1377, i32 19		; visa id: 1683
  %1418 = insertelement <16 x i16> %1416, i16 %1417, i32 3		; visa id: 1683
  %1419 = extractelement <32 x i16> %1377, i32 20		; visa id: 1683
  %1420 = insertelement <16 x i16> %1418, i16 %1419, i32 4		; visa id: 1683
  %1421 = extractelement <32 x i16> %1377, i32 21		; visa id: 1683
  %1422 = insertelement <16 x i16> %1420, i16 %1421, i32 5		; visa id: 1683
  %1423 = extractelement <32 x i16> %1377, i32 22		; visa id: 1683
  %1424 = insertelement <16 x i16> %1422, i16 %1423, i32 6		; visa id: 1683
  %1425 = extractelement <32 x i16> %1377, i32 23		; visa id: 1683
  %1426 = insertelement <16 x i16> %1424, i16 %1425, i32 7		; visa id: 1683
  %1427 = extractelement <32 x i16> %1377, i32 24		; visa id: 1683
  %1428 = insertelement <16 x i16> %1426, i16 %1427, i32 8		; visa id: 1683
  %1429 = extractelement <32 x i16> %1377, i32 25		; visa id: 1683
  %1430 = insertelement <16 x i16> %1428, i16 %1429, i32 9		; visa id: 1683
  %1431 = extractelement <32 x i16> %1377, i32 26		; visa id: 1683
  %1432 = insertelement <16 x i16> %1430, i16 %1431, i32 10		; visa id: 1683
  %1433 = extractelement <32 x i16> %1377, i32 27		; visa id: 1683
  %1434 = insertelement <16 x i16> %1432, i16 %1433, i32 11		; visa id: 1683
  %1435 = extractelement <32 x i16> %1377, i32 28		; visa id: 1683
  %1436 = insertelement <16 x i16> %1434, i16 %1435, i32 12		; visa id: 1683
  %1437 = extractelement <32 x i16> %1377, i32 29		; visa id: 1683
  %1438 = insertelement <16 x i16> %1436, i16 %1437, i32 13		; visa id: 1683
  %1439 = extractelement <32 x i16> %1377, i32 30		; visa id: 1683
  %1440 = insertelement <16 x i16> %1438, i16 %1439, i32 14		; visa id: 1683
  %1441 = extractelement <32 x i16> %1377, i32 31		; visa id: 1683
  %1442 = insertelement <16 x i16> %1440, i16 %1441, i32 15		; visa id: 1683
  %1443 = extractelement <32 x i16> %1378, i32 0		; visa id: 1683
  %1444 = insertelement <16 x i16> undef, i16 %1443, i32 0		; visa id: 1683
  %1445 = extractelement <32 x i16> %1378, i32 1		; visa id: 1683
  %1446 = insertelement <16 x i16> %1444, i16 %1445, i32 1		; visa id: 1683
  %1447 = extractelement <32 x i16> %1378, i32 2		; visa id: 1683
  %1448 = insertelement <16 x i16> %1446, i16 %1447, i32 2		; visa id: 1683
  %1449 = extractelement <32 x i16> %1378, i32 3		; visa id: 1683
  %1450 = insertelement <16 x i16> %1448, i16 %1449, i32 3		; visa id: 1683
  %1451 = extractelement <32 x i16> %1378, i32 4		; visa id: 1683
  %1452 = insertelement <16 x i16> %1450, i16 %1451, i32 4		; visa id: 1683
  %1453 = extractelement <32 x i16> %1378, i32 5		; visa id: 1683
  %1454 = insertelement <16 x i16> %1452, i16 %1453, i32 5		; visa id: 1683
  %1455 = extractelement <32 x i16> %1378, i32 6		; visa id: 1683
  %1456 = insertelement <16 x i16> %1454, i16 %1455, i32 6		; visa id: 1683
  %1457 = extractelement <32 x i16> %1378, i32 7		; visa id: 1683
  %1458 = insertelement <16 x i16> %1456, i16 %1457, i32 7		; visa id: 1683
  %1459 = extractelement <32 x i16> %1378, i32 8		; visa id: 1683
  %1460 = insertelement <16 x i16> %1458, i16 %1459, i32 8		; visa id: 1683
  %1461 = extractelement <32 x i16> %1378, i32 9		; visa id: 1683
  %1462 = insertelement <16 x i16> %1460, i16 %1461, i32 9		; visa id: 1683
  %1463 = extractelement <32 x i16> %1378, i32 10		; visa id: 1683
  %1464 = insertelement <16 x i16> %1462, i16 %1463, i32 10		; visa id: 1683
  %1465 = extractelement <32 x i16> %1378, i32 11		; visa id: 1683
  %1466 = insertelement <16 x i16> %1464, i16 %1465, i32 11		; visa id: 1683
  %1467 = extractelement <32 x i16> %1378, i32 12		; visa id: 1683
  %1468 = insertelement <16 x i16> %1466, i16 %1467, i32 12		; visa id: 1683
  %1469 = extractelement <32 x i16> %1378, i32 13		; visa id: 1683
  %1470 = insertelement <16 x i16> %1468, i16 %1469, i32 13		; visa id: 1683
  %1471 = extractelement <32 x i16> %1378, i32 14		; visa id: 1683
  %1472 = insertelement <16 x i16> %1470, i16 %1471, i32 14		; visa id: 1683
  %1473 = extractelement <32 x i16> %1378, i32 15		; visa id: 1683
  %1474 = insertelement <16 x i16> %1472, i16 %1473, i32 15		; visa id: 1683
  %1475 = extractelement <32 x i16> %1378, i32 16		; visa id: 1683
  %1476 = insertelement <16 x i16> undef, i16 %1475, i32 0		; visa id: 1683
  %1477 = extractelement <32 x i16> %1378, i32 17		; visa id: 1683
  %1478 = insertelement <16 x i16> %1476, i16 %1477, i32 1		; visa id: 1683
  %1479 = extractelement <32 x i16> %1378, i32 18		; visa id: 1683
  %1480 = insertelement <16 x i16> %1478, i16 %1479, i32 2		; visa id: 1683
  %1481 = extractelement <32 x i16> %1378, i32 19		; visa id: 1683
  %1482 = insertelement <16 x i16> %1480, i16 %1481, i32 3		; visa id: 1683
  %1483 = extractelement <32 x i16> %1378, i32 20		; visa id: 1683
  %1484 = insertelement <16 x i16> %1482, i16 %1483, i32 4		; visa id: 1683
  %1485 = extractelement <32 x i16> %1378, i32 21		; visa id: 1683
  %1486 = insertelement <16 x i16> %1484, i16 %1485, i32 5		; visa id: 1683
  %1487 = extractelement <32 x i16> %1378, i32 22		; visa id: 1683
  %1488 = insertelement <16 x i16> %1486, i16 %1487, i32 6		; visa id: 1683
  %1489 = extractelement <32 x i16> %1378, i32 23		; visa id: 1683
  %1490 = insertelement <16 x i16> %1488, i16 %1489, i32 7		; visa id: 1683
  %1491 = extractelement <32 x i16> %1378, i32 24		; visa id: 1683
  %1492 = insertelement <16 x i16> %1490, i16 %1491, i32 8		; visa id: 1683
  %1493 = extractelement <32 x i16> %1378, i32 25		; visa id: 1683
  %1494 = insertelement <16 x i16> %1492, i16 %1493, i32 9		; visa id: 1683
  %1495 = extractelement <32 x i16> %1378, i32 26		; visa id: 1683
  %1496 = insertelement <16 x i16> %1494, i16 %1495, i32 10		; visa id: 1683
  %1497 = extractelement <32 x i16> %1378, i32 27		; visa id: 1683
  %1498 = insertelement <16 x i16> %1496, i16 %1497, i32 11		; visa id: 1683
  %1499 = extractelement <32 x i16> %1378, i32 28		; visa id: 1683
  %1500 = insertelement <16 x i16> %1498, i16 %1499, i32 12		; visa id: 1683
  %1501 = extractelement <32 x i16> %1378, i32 29		; visa id: 1683
  %1502 = insertelement <16 x i16> %1500, i16 %1501, i32 13		; visa id: 1683
  %1503 = extractelement <32 x i16> %1378, i32 30		; visa id: 1683
  %1504 = insertelement <16 x i16> %1502, i16 %1503, i32 14		; visa id: 1683
  %1505 = extractelement <32 x i16> %1378, i32 31		; visa id: 1683
  %1506 = insertelement <16 x i16> %1504, i16 %1505, i32 15		; visa id: 1683
  %1507 = call <8 x float> asm "{\0A.decl DST     v_type=G type=f num_elts=$5 alias=<$0,0>\0A.decl SRC1_UD v_type=G type=UD num_elts=128 alias=<$2,0>\0A.decl SRC2_UD v_type=G type=UD num_elts=$4 alias=<$1,0>\0Adpas.bf.bf.8.$3 (M1, 16) DST.0 DST.0 SRC1_UD.0 SRC2_UD(0,0)\0A}\0A", "=rw,rw,rw,P,P,P,0"(<8 x i16> %.sroa.01394.14.vec.insert, <16 x i16> %1410, i32 8, i32 64, i32 128, <8 x float> %.sroa.340.1) #0		; visa id: 1683
  %1508 = call <8 x float> asm "{\0A.decl DST     v_type=G type=f num_elts=$5 alias=<$0,0>\0A.decl SRC1_UD v_type=G type=UD num_elts=128 alias=<$2,0>\0A.decl SRC2_UD v_type=G type=UD num_elts=$4 alias=<$1,0>\0Adpas.bf.bf.8.$3 (M1, 16) DST.0 DST.0 SRC1_UD.0 SRC2_UD(0,0)\0A}\0A", "=rw,rw,rw,P,P,P,0"(<8 x i16> %.sroa.19.30.vec.insert, <16 x i16> %1410, i32 8, i32 64, i32 128, <8 x float> %.sroa.368.1) #0		; visa id: 1683
  %1509 = call <8 x float> asm "{\0A.decl DST     v_type=G type=f num_elts=$5 alias=<$0,0>\0A.decl SRC1_UD v_type=G type=UD num_elts=128 alias=<$2,0>\0A.decl SRC2_UD v_type=G type=UD num_elts=$4 alias=<$1,0>\0Adpas.bf.bf.8.$3 (M1, 16) DST.0 DST.0 SRC1_UD.0 SRC2_UD(0,0)\0A}\0A", "=rw,rw,rw,P,P,P,0"(<8 x i16> %.sroa.19.30.vec.insert, <16 x i16> %1442, i32 8, i32 64, i32 128, <8 x float> %.sroa.424.1) #0		; visa id: 1683
  %1510 = call <8 x float> asm "{\0A.decl DST     v_type=G type=f num_elts=$5 alias=<$0,0>\0A.decl SRC1_UD v_type=G type=UD num_elts=128 alias=<$2,0>\0A.decl SRC2_UD v_type=G type=UD num_elts=$4 alias=<$1,0>\0Adpas.bf.bf.8.$3 (M1, 16) DST.0 DST.0 SRC1_UD.0 SRC2_UD(0,0)\0A}\0A", "=rw,rw,rw,P,P,P,0"(<8 x i16> %.sroa.01394.14.vec.insert, <16 x i16> %1442, i32 8, i32 64, i32 128, <8 x float> %.sroa.396.1) #0		; visa id: 1683
  %1511 = call <8 x float> asm "{\0A.decl DST     v_type=G type=f num_elts=$5 alias=<$0,0>\0A.decl SRC1_UD v_type=G type=UD num_elts=128 alias=<$2,0>\0A.decl SRC2_UD v_type=G type=UD num_elts=$4 alias=<$1,0>\0Adpas.bf.bf.8.$3 (M1, 16) DST.0 DST.0 SRC1_UD.0 SRC2_UD(0,0)\0A}\0A", "=rw,rw,rw,P,P,P,0"(<8 x i16> %.sroa.35.46.vec.insert, <16 x i16> %1474, i32 8, i32 64, i32 128, <8 x float> %1507) #0		; visa id: 1683
  %1512 = call <8 x float> asm "{\0A.decl DST     v_type=G type=f num_elts=$5 alias=<$0,0>\0A.decl SRC1_UD v_type=G type=UD num_elts=128 alias=<$2,0>\0A.decl SRC2_UD v_type=G type=UD num_elts=$4 alias=<$1,0>\0Adpas.bf.bf.8.$3 (M1, 16) DST.0 DST.0 SRC1_UD.0 SRC2_UD(0,0)\0A}\0A", "=rw,rw,rw,P,P,P,0"(<8 x i16> %.sroa.51.62.vec.insert, <16 x i16> %1474, i32 8, i32 64, i32 128, <8 x float> %1508) #0		; visa id: 1683
  %1513 = call <8 x float> asm "{\0A.decl DST     v_type=G type=f num_elts=$5 alias=<$0,0>\0A.decl SRC1_UD v_type=G type=UD num_elts=128 alias=<$2,0>\0A.decl SRC2_UD v_type=G type=UD num_elts=$4 alias=<$1,0>\0Adpas.bf.bf.8.$3 (M1, 16) DST.0 DST.0 SRC1_UD.0 SRC2_UD(0,0)\0A}\0A", "=rw,rw,rw,P,P,P,0"(<8 x i16> %.sroa.51.62.vec.insert, <16 x i16> %1506, i32 8, i32 64, i32 128, <8 x float> %1509) #0		; visa id: 1683
  %1514 = call <8 x float> asm "{\0A.decl DST     v_type=G type=f num_elts=$5 alias=<$0,0>\0A.decl SRC1_UD v_type=G type=UD num_elts=128 alias=<$2,0>\0A.decl SRC2_UD v_type=G type=UD num_elts=$4 alias=<$1,0>\0Adpas.bf.bf.8.$3 (M1, 16) DST.0 DST.0 SRC1_UD.0 SRC2_UD(0,0)\0A}\0A", "=rw,rw,rw,P,P,P,0"(<8 x i16> %.sroa.35.46.vec.insert, <16 x i16> %1506, i32 8, i32 64, i32 128, <8 x float> %1510) #0		; visa id: 1683
  %1515 = fadd reassoc nsz arcp contract float %.sroa.0114.2, %961, !spirv.Decorations !1233		; visa id: 1683
  br i1 %167, label %.lr.ph142, label %.loopexit.i._ZZN7cutlass4fmha10collective15FMHAFwdMainloopINS0_9XeDefaultILi2EEELb0ELb0ELb0EN4cute8TiledMMAINS5_8MMA_AtomIJNS5_10XE_DPAS_TTILi8EfNS_10bfloat16_tES9_fEEEEENS5_6LayoutINS5_5tupleIJNS5_1CILi16EEENSE_ILi1EEESG_EEENSD_IJSG_NSE_ILi0EEESI_EEEEEKNSD_IJNSC_INSD_IJNSE_ILi8EEESF_NSE_ILi2EEEEEENSD_IJSG_SF_SL_EEEEENSC_INSE_ILi32EEESG_EESR_EEEEESU_Li4ENS5_6TensorINS5_10ViewEngineINS5_8gmem_ptrIPS9_EEEENSC_INSD_IJiiiiEEENSD_IJiSG_iiEEEEEEES14_NSV_IS10_NSC_IS11_NSD_IJSG_iiiEEEEEEES14_S17_vvvvvEclINSD_IJjjEEEEEvRKNSV_IS10_NSC_INSD_IJiiEEENSD_IJiSG_EEEEEEES1G_RKNSV_IS10_NSC_IS1B_NSD_IJSG_iEEEEEEERNS5_14SubgroupTensorINS5_11ArrayEngineIfLm128EEENSC_INSD_IJSL_SM_SM_NSE_ILi4EEEEEENSD_IJSG_SL_SF_SQ_EEEEENSC_INSD_IJSF_NSD_IJSL_NSD_IJSM_SM_EEES1P_EEEEEENSD_IJNS5_11ScaledBasisISG_JLi1EEEENSD_IJNS1W_ISG_JLi0EEEENSD_IJNS1W_ISL_JLi0EEEENS1W_ISF_JLi1EEEEEEENS1W_ISQ_JLi1EEEEEEEEEEEEEERNSV_INS1N_IfLm1EEENSC_ISG_SI_EEEES2B_T_iiiiiiiiiS1G_S1L_ENKUlS2C_iRT0_RT1_RT2_RT3_RT4_RT5_E_clISt17integral_constantIbLb0EENS5_9TiledCopyINS5_9Copy_Atom_crit_edge, !stats.blockFrequency.digits !1224, !stats.blockFrequency.scale !1218		; visa id: 1684

.loopexit.i._ZZN7cutlass4fmha10collective15FMHAFwdMainloopINS0_9XeDefaultILi2EEELb0ELb0ELb0EN4cute8TiledMMAINS5_8MMA_AtomIJNS5_10XE_DPAS_TTILi8EfNS_10bfloat16_tES9_fEEEEENS5_6LayoutINS5_5tupleIJNS5_1CILi16EEENSE_ILi1EEESG_EEENSD_IJSG_NSE_ILi0EEESI_EEEEEKNSD_IJNSC_INSD_IJNSE_ILi8EEESF_NSE_ILi2EEEEEENSD_IJSG_SF_SL_EEEEENSC_INSE_ILi32EEESG_EESR_EEEEESU_Li4ENS5_6TensorINS5_10ViewEngineINS5_8gmem_ptrIPS9_EEEENSC_INSD_IJiiiiEEENSD_IJiSG_iiEEEEEEES14_NSV_IS10_NSC_IS11_NSD_IJSG_iiiEEEEEEES14_S17_vvvvvEclINSD_IJjjEEEEEvRKNSV_IS10_NSC_INSD_IJiiEEENSD_IJiSG_EEEEEEES1G_RKNSV_IS10_NSC_IS1B_NSD_IJSG_iEEEEEEERNS5_14SubgroupTensorINS5_11ArrayEngineIfLm128EEENSC_INSD_IJSL_SM_SM_NSE_ILi4EEEEEENSD_IJSG_SL_SF_SQ_EEEEENSC_INSD_IJSF_NSD_IJSL_NSD_IJSM_SM_EEES1P_EEEEEENSD_IJNS5_11ScaledBasisISG_JLi1EEEENSD_IJNS1W_ISG_JLi0EEEENSD_IJNS1W_ISL_JLi0EEEENS1W_ISF_JLi1EEEEEEENS1W_ISQ_JLi1EEEEEEEEEEEEEERNSV_INS1N_IfLm1EEENSC_ISG_SI_EEEES2B_T_iiiiiiiiiS1G_S1L_ENKUlS2C_iRT0_RT1_RT2_RT3_RT4_RT5_E_clISt17integral_constantIbLb0EENS5_9TiledCopyINS5_9Copy_Atom_crit_edge: ; preds = %.loopexit.i
; BB:
  br label %_ZZN7cutlass4fmha10collective15FMHAFwdMainloopINS0_9XeDefaultILi2EEELb0ELb0ELb0EN4cute8TiledMMAINS5_8MMA_AtomIJNS5_10XE_DPAS_TTILi8EfNS_10bfloat16_tES9_fEEEEENS5_6LayoutINS5_5tupleIJNS5_1CILi16EEENSE_ILi1EEESG_EEENSD_IJSG_NSE_ILi0EEESI_EEEEEKNSD_IJNSC_INSD_IJNSE_ILi8EEESF_NSE_ILi2EEEEEENSD_IJSG_SF_SL_EEEEENSC_INSE_ILi32EEESG_EESR_EEEEESU_Li4ENS5_6TensorINS5_10ViewEngineINS5_8gmem_ptrIPS9_EEEENSC_INSD_IJiiiiEEENSD_IJiSG_iiEEEEEEES14_NSV_IS10_NSC_IS11_NSD_IJSG_iiiEEEEEEES14_S17_vvvvvEclINSD_IJjjEEEEEvRKNSV_IS10_NSC_INSD_IJiiEEENSD_IJiSG_EEEEEEES1G_RKNSV_IS10_NSC_IS1B_NSD_IJSG_iEEEEEEERNS5_14SubgroupTensorINS5_11ArrayEngineIfLm128EEENSC_INSD_IJSL_SM_SM_NSE_ILi4EEEEEENSD_IJSG_SL_SF_SQ_EEEEENSC_INSD_IJSF_NSD_IJSL_NSD_IJSM_SM_EEES1P_EEEEEENSD_IJNS5_11ScaledBasisISG_JLi1EEEENSD_IJNS1W_ISG_JLi0EEEENSD_IJNS1W_ISL_JLi0EEEENS1W_ISF_JLi1EEEEEEENS1W_ISQ_JLi1EEEEEEEEEEEEEERNSV_INS1N_IfLm1EEENSC_ISG_SI_EEEES2B_T_iiiiiiiiiS1G_S1L_ENKUlS2C_iRT0_RT1_RT2_RT3_RT4_RT5_E_clISt17integral_constantIbLb0EENS5_9TiledCopyINS5_9Copy_Atom, !stats.blockFrequency.digits !1225, !stats.blockFrequency.scale !1226

.lr.ph142:                                        ; preds = %.loopexit.i
; BB56 :
  %1516 = add nuw nsw i32 %206, 2, !spirv.Decorations !1203
  %1517 = sub nsw i32 %1516, %qot3225, !spirv.Decorations !1203		; visa id: 1686
  %1518 = shl nsw i32 %1517, 5, !spirv.Decorations !1203		; visa id: 1687
  %1519 = add nsw i32 %163, %1518, !spirv.Decorations !1203		; visa id: 1688
  br label %1520, !stats.blockFrequency.digits !1220, !stats.blockFrequency.scale !1206		; visa id: 1690

1520:                                             ; preds = %._crit_edge3290, %.lr.ph142
; BB57 :
  %1521 = phi i32 [ 0, %.lr.ph142 ], [ %1523, %._crit_edge3290 ]
  %1522 = shl nsw i32 %1521, 5, !spirv.Decorations !1203		; visa id: 1691
  call void @llvm.genx.GenISA.LSC2DBlockSetAddrPayloadField.p4i8.i32(i8 addrspace(4)* %Block2D_AddrPayload117, i32 5, i32 %1522, i1 false)		; visa id: 1692
  call void @llvm.genx.GenISA.LSC2DBlockSetAddrPayloadField.p4i8.i32(i8 addrspace(4)* %Block2D_AddrPayload117, i32 6, i32 %1519, i1 false)		; visa id: 1693
  call void asm sideeffect "lsc_load_block2d.ugm.ca.ca (M1, 1)  %null:d$1.$2x$3nn flat[$0+(0,0)]", "rw.u,P,P,P"(i8 addrspace(4)* %Block2D_AddrPayload117, i32 16, i32 32, i32 2) #0		; visa id: 1694
  %1523 = add nuw nsw i32 %1521, 1, !spirv.Decorations !1215		; visa id: 1694
  %1524 = icmp slt i32 %1523, %qot3221		; visa id: 1695
  br i1 %1524, label %._crit_edge3290, label %_ZZN7cutlass4fmha10collective15FMHAFwdMainloopINS0_9XeDefaultILi2EEELb0ELb0ELb0EN4cute8TiledMMAINS5_8MMA_AtomIJNS5_10XE_DPAS_TTILi8EfNS_10bfloat16_tES9_fEEEEENS5_6LayoutINS5_5tupleIJNS5_1CILi16EEENSE_ILi1EEESG_EEENSD_IJSG_NSE_ILi0EEESI_EEEEEKNSD_IJNSC_INSD_IJNSE_ILi8EEESF_NSE_ILi2EEEEEENSD_IJSG_SF_SL_EEEEENSC_INSE_ILi32EEESG_EESR_EEEEESU_Li4ENS5_6TensorINS5_10ViewEngineINS5_8gmem_ptrIPS9_EEEENSC_INSD_IJiiiiEEENSD_IJiSG_iiEEEEEEES14_NSV_IS10_NSC_IS11_NSD_IJSG_iiiEEEEEEES14_S17_vvvvvEclINSD_IJjjEEEEEvRKNSV_IS10_NSC_INSD_IJiiEEENSD_IJiSG_EEEEEEES1G_RKNSV_IS10_NSC_IS1B_NSD_IJSG_iEEEEEEERNS5_14SubgroupTensorINS5_11ArrayEngineIfLm128EEENSC_INSD_IJSL_SM_SM_NSE_ILi4EEEEEENSD_IJSG_SL_SF_SQ_EEEEENSC_INSD_IJSF_NSD_IJSL_NSD_IJSM_SM_EEES1P_EEEEEENSD_IJNS5_11ScaledBasisISG_JLi1EEEENSD_IJNS1W_ISG_JLi0EEEENSD_IJNS1W_ISL_JLi0EEEENS1W_ISF_JLi1EEEEEEENS1W_ISQ_JLi1EEEEEEEEEEEEEERNSV_INS1N_IfLm1EEENSC_ISG_SI_EEEES2B_T_iiiiiiiiiS1G_S1L_ENKUlS2C_iRT0_RT1_RT2_RT3_RT4_RT5_E_clISt17integral_constantIbLb0EENS5_9TiledCopyINS5_9Copy_Atom3265, !stats.blockFrequency.digits !1220, !stats.blockFrequency.scale !1236		; visa id: 1696

_ZZN7cutlass4fmha10collective15FMHAFwdMainloopINS0_9XeDefaultILi2EEELb0ELb0ELb0EN4cute8TiledMMAINS5_8MMA_AtomIJNS5_10XE_DPAS_TTILi8EfNS_10bfloat16_tES9_fEEEEENS5_6LayoutINS5_5tupleIJNS5_1CILi16EEENSE_ILi1EEESG_EEENSD_IJSG_NSE_ILi0EEESI_EEEEEKNSD_IJNSC_INSD_IJNSE_ILi8EEESF_NSE_ILi2EEEEEENSD_IJSG_SF_SL_EEEEENSC_INSE_ILi32EEESG_EESR_EEEEESU_Li4ENS5_6TensorINS5_10ViewEngineINS5_8gmem_ptrIPS9_EEEENSC_INSD_IJiiiiEEENSD_IJiSG_iiEEEEEEES14_NSV_IS10_NSC_IS11_NSD_IJSG_iiiEEEEEEES14_S17_vvvvvEclINSD_IJjjEEEEEvRKNSV_IS10_NSC_INSD_IJiiEEENSD_IJiSG_EEEEEEES1G_RKNSV_IS10_NSC_IS1B_NSD_IJSG_iEEEEEEERNS5_14SubgroupTensorINS5_11ArrayEngineIfLm128EEENSC_INSD_IJSL_SM_SM_NSE_ILi4EEEEEENSD_IJSG_SL_SF_SQ_EEEEENSC_INSD_IJSF_NSD_IJSL_NSD_IJSM_SM_EEES1P_EEEEEENSD_IJNS5_11ScaledBasisISG_JLi1EEEENSD_IJNS1W_ISG_JLi0EEEENSD_IJNS1W_ISL_JLi0EEEENS1W_ISF_JLi1EEEEEEENS1W_ISQ_JLi1EEEEEEEEEEEEEERNSV_INS1N_IfLm1EEENSC_ISG_SI_EEEES2B_T_iiiiiiiiiS1G_S1L_ENKUlS2C_iRT0_RT1_RT2_RT3_RT4_RT5_E_clISt17integral_constantIbLb0EENS5_9TiledCopyINS5_9Copy_Atom3265: ; preds = %1520
; BB:
  br label %_ZZN7cutlass4fmha10collective15FMHAFwdMainloopINS0_9XeDefaultILi2EEELb0ELb0ELb0EN4cute8TiledMMAINS5_8MMA_AtomIJNS5_10XE_DPAS_TTILi8EfNS_10bfloat16_tES9_fEEEEENS5_6LayoutINS5_5tupleIJNS5_1CILi16EEENSE_ILi1EEESG_EEENSD_IJSG_NSE_ILi0EEESI_EEEEEKNSD_IJNSC_INSD_IJNSE_ILi8EEESF_NSE_ILi2EEEEEENSD_IJSG_SF_SL_EEEEENSC_INSE_ILi32EEESG_EESR_EEEEESU_Li4ENS5_6TensorINS5_10ViewEngineINS5_8gmem_ptrIPS9_EEEENSC_INSD_IJiiiiEEENSD_IJiSG_iiEEEEEEES14_NSV_IS10_NSC_IS11_NSD_IJSG_iiiEEEEEEES14_S17_vvvvvEclINSD_IJjjEEEEEvRKNSV_IS10_NSC_INSD_IJiiEEENSD_IJiSG_EEEEEEES1G_RKNSV_IS10_NSC_IS1B_NSD_IJSG_iEEEEEEERNS5_14SubgroupTensorINS5_11ArrayEngineIfLm128EEENSC_INSD_IJSL_SM_SM_NSE_ILi4EEEEEENSD_IJSG_SL_SF_SQ_EEEEENSC_INSD_IJSF_NSD_IJSL_NSD_IJSM_SM_EEES1P_EEEEEENSD_IJNS5_11ScaledBasisISG_JLi1EEEENSD_IJNS1W_ISG_JLi0EEEENSD_IJNS1W_ISL_JLi0EEEENS1W_ISF_JLi1EEEEEEENS1W_ISQ_JLi1EEEEEEEEEEEEEERNSV_INS1N_IfLm1EEENSC_ISG_SI_EEEES2B_T_iiiiiiiiiS1G_S1L_ENKUlS2C_iRT0_RT1_RT2_RT3_RT4_RT5_E_clISt17integral_constantIbLb0EENS5_9TiledCopyINS5_9Copy_Atom, !stats.blockFrequency.digits !1220, !stats.blockFrequency.scale !1206

._crit_edge3290:                                  ; preds = %1520
; BB:
  br label %1520, !stats.blockFrequency.digits !1223, !stats.blockFrequency.scale !1236

_ZZN7cutlass4fmha10collective15FMHAFwdMainloopINS0_9XeDefaultILi2EEELb0ELb0ELb0EN4cute8TiledMMAINS5_8MMA_AtomIJNS5_10XE_DPAS_TTILi8EfNS_10bfloat16_tES9_fEEEEENS5_6LayoutINS5_5tupleIJNS5_1CILi16EEENSE_ILi1EEESG_EEENSD_IJSG_NSE_ILi0EEESI_EEEEEKNSD_IJNSC_INSD_IJNSE_ILi8EEESF_NSE_ILi2EEEEEENSD_IJSG_SF_SL_EEEEENSC_INSE_ILi32EEESG_EESR_EEEEESU_Li4ENS5_6TensorINS5_10ViewEngineINS5_8gmem_ptrIPS9_EEEENSC_INSD_IJiiiiEEENSD_IJiSG_iiEEEEEEES14_NSV_IS10_NSC_IS11_NSD_IJSG_iiiEEEEEEES14_S17_vvvvvEclINSD_IJjjEEEEEvRKNSV_IS10_NSC_INSD_IJiiEEENSD_IJiSG_EEEEEEES1G_RKNSV_IS10_NSC_IS1B_NSD_IJSG_iEEEEEEERNS5_14SubgroupTensorINS5_11ArrayEngineIfLm128EEENSC_INSD_IJSL_SM_SM_NSE_ILi4EEEEEENSD_IJSG_SL_SF_SQ_EEEEENSC_INSD_IJSF_NSD_IJSL_NSD_IJSM_SM_EEES1P_EEEEEENSD_IJNS5_11ScaledBasisISG_JLi1EEEENSD_IJNS1W_ISG_JLi0EEEENSD_IJNS1W_ISL_JLi0EEEENS1W_ISF_JLi1EEEEEEENS1W_ISQ_JLi1EEEEEEEEEEEEEERNSV_INS1N_IfLm1EEENSC_ISG_SI_EEEES2B_T_iiiiiiiiiS1G_S1L_ENKUlS2C_iRT0_RT1_RT2_RT3_RT4_RT5_E_clISt17integral_constantIbLb0EENS5_9TiledCopyINS5_9Copy_Atom: ; preds = %.loopexit.i._ZZN7cutlass4fmha10collective15FMHAFwdMainloopINS0_9XeDefaultILi2EEELb0ELb0ELb0EN4cute8TiledMMAINS5_8MMA_AtomIJNS5_10XE_DPAS_TTILi8EfNS_10bfloat16_tES9_fEEEEENS5_6LayoutINS5_5tupleIJNS5_1CILi16EEENSE_ILi1EEESG_EEENSD_IJSG_NSE_ILi0EEESI_EEEEEKNSD_IJNSC_INSD_IJNSE_ILi8EEESF_NSE_ILi2EEEEEENSD_IJSG_SF_SL_EEEEENSC_INSE_ILi32EEESG_EESR_EEEEESU_Li4ENS5_6TensorINS5_10ViewEngineINS5_8gmem_ptrIPS9_EEEENSC_INSD_IJiiiiEEENSD_IJiSG_iiEEEEEEES14_NSV_IS10_NSC_IS11_NSD_IJSG_iiiEEEEEEES14_S17_vvvvvEclINSD_IJjjEEEEEvRKNSV_IS10_NSC_INSD_IJiiEEENSD_IJiSG_EEEEEEES1G_RKNSV_IS10_NSC_IS1B_NSD_IJSG_iEEEEEEERNS5_14SubgroupTensorINS5_11ArrayEngineIfLm128EEENSC_INSD_IJSL_SM_SM_NSE_ILi4EEEEEENSD_IJSG_SL_SF_SQ_EEEEENSC_INSD_IJSF_NSD_IJSL_NSD_IJSM_SM_EEES1P_EEEEEENSD_IJNS5_11ScaledBasisISG_JLi1EEEENSD_IJNS1W_ISG_JLi0EEEENSD_IJNS1W_ISL_JLi0EEEENS1W_ISF_JLi1EEEEEEENS1W_ISQ_JLi1EEEEEEEEEEEEEERNSV_INS1N_IfLm1EEENSC_ISG_SI_EEEES2B_T_iiiiiiiiiS1G_S1L_ENKUlS2C_iRT0_RT1_RT2_RT3_RT4_RT5_E_clISt17integral_constantIbLb0EENS5_9TiledCopyINS5_9Copy_Atom_crit_edge, %_ZZN7cutlass4fmha10collective15FMHAFwdMainloopINS0_9XeDefaultILi2EEELb0ELb0ELb0EN4cute8TiledMMAINS5_8MMA_AtomIJNS5_10XE_DPAS_TTILi8EfNS_10bfloat16_tES9_fEEEEENS5_6LayoutINS5_5tupleIJNS5_1CILi16EEENSE_ILi1EEESG_EEENSD_IJSG_NSE_ILi0EEESI_EEEEEKNSD_IJNSC_INSD_IJNSE_ILi8EEESF_NSE_ILi2EEEEEENSD_IJSG_SF_SL_EEEEENSC_INSE_ILi32EEESG_EESR_EEEEESU_Li4ENS5_6TensorINS5_10ViewEngineINS5_8gmem_ptrIPS9_EEEENSC_INSD_IJiiiiEEENSD_IJiSG_iiEEEEEEES14_NSV_IS10_NSC_IS11_NSD_IJSG_iiiEEEEEEES14_S17_vvvvvEclINSD_IJjjEEEEEvRKNSV_IS10_NSC_INSD_IJiiEEENSD_IJiSG_EEEEEEES1G_RKNSV_IS10_NSC_IS1B_NSD_IJSG_iEEEEEEERNS5_14SubgroupTensorINS5_11ArrayEngineIfLm128EEENSC_INSD_IJSL_SM_SM_NSE_ILi4EEEEEENSD_IJSG_SL_SF_SQ_EEEEENSC_INSD_IJSF_NSD_IJSL_NSD_IJSM_SM_EEES1P_EEEEEENSD_IJNS5_11ScaledBasisISG_JLi1EEEENSD_IJNS1W_ISG_JLi0EEEENSD_IJNS1W_ISL_JLi0EEEENS1W_ISF_JLi1EEEEEEENS1W_ISQ_JLi1EEEEEEEEEEEEEERNSV_INS1N_IfLm1EEENSC_ISG_SI_EEEES2B_T_iiiiiiiiiS1G_S1L_ENKUlS2C_iRT0_RT1_RT2_RT3_RT4_RT5_E_clISt17integral_constantIbLb0EENS5_9TiledCopyINS5_9Copy_Atom3265
; BB60 :
  %1525 = add nuw nsw i32 %206, 1, !spirv.Decorations !1203		; visa id: 1698
  %1526 = icmp slt i32 %1525, %qot		; visa id: 1699
