; ------------------------------------------------
; OCL_asm02a05bd857049a6b_simd16_entry_0006.visa.ll
; LLVM major version: 16
; ------------------------------------------------
; Function Attrs: convergent nounwind
define spir_kernel void @_ZTSN7cutlass4fmha6kernel15XeFMHAFwdKernelINS1_16FMHAProblemShapeILb1EEENS0_10collective15FMHAFwdMainloopINS0_9XeDefaultILi2EEELb1ELb1ELb1EN4cute8TiledMMAINS9_8MMA_AtomIJNS9_10XE_DPAS_TTILi8EfNS_10bfloat16_tESD_fEEEEENS9_6LayoutINS9_5tupleIJNS9_1CILi16EEENSI_ILi1EEESK_EEENSH_IJSK_NSI_ILi0EEESM_EEEEEKNSH_IJNSG_INSH_IJNSI_ILi8EEESJ_NSI_ILi2EEEEEENSH_IJSK_SJ_SP_EEEEENSG_INSI_ILi32EEESK_EESV_EEEEESY_Li4ENS9_6TensorINS9_10ViewEngineINS9_8gmem_ptrIPSD_EEEENSG_INSH_IJiiiiEEENSH_IJiSK_iiEEEEEEES18_NSZ_IS14_NSG_IS15_NSH_IJSK_iiiEEEEEEES18_S1B_vvvvvEENS5_15FMHAFwdEpilogueIS1C_NSH_IJNSI_ILi256EEENSI_ILi128EEEEEENSZ_INS10_INS11_IPfEEEES17_EEvEENS1_29XeFHMAIndividualTileSchedulerEEE(%"class.std::__generated_tuple.8943"* byval(%"class.std::__generated_tuple.8943") align 8 %0, i8 addrspace(3)* noalias align 1 %1, <8 x i32> %r0, <3 x i32> %globalOffset, i16 %localIdX, i16 %localIdY, i16 %localIdZ, i8 addrspace(2)* %constBase, i8* %privateBase, i32 %const_reg_dword, i32 %const_reg_dword1, i32 %const_reg_dword2, i32 %const_reg_dword3, i64 %const_reg_qword, i32 %const_reg_dword4, i64 %const_reg_qword5, i32 %const_reg_dword6, i64 %const_reg_qword7, i32 %const_reg_dword8, i32 %const_reg_dword9, i64 %const_reg_qword10, i32 %const_reg_dword11, i32 %const_reg_dword12, i32 %const_reg_dword13, i8 %const_reg_byte, i8 %const_reg_byte14, i8 %const_reg_byte15, i8 %const_reg_byte16, i64 %const_reg_qword17, i32 %const_reg_dword18, i32 %const_reg_dword19, i32 %const_reg_dword20, i8 %const_reg_byte21, i8 %const_reg_byte22, i8 %const_reg_byte23, i8 %const_reg_byte24, i64 %const_reg_qword25, i32 %const_reg_dword26, i32 %const_reg_dword27, i32 %const_reg_dword28, i8 %const_reg_byte29, i8 %const_reg_byte30, i8 %const_reg_byte31, i8 %const_reg_byte32, i64 %const_reg_qword33, i32 %const_reg_dword34, i32 %const_reg_dword35, i32 %const_reg_dword36, i8 %const_reg_byte37, i8 %const_reg_byte38, i8 %const_reg_byte39, i8 %const_reg_byte40, i64 %const_reg_qword41, i32 %const_reg_dword42, i32 %const_reg_dword43, i32 %const_reg_dword44, i8 %const_reg_byte45, i8 %const_reg_byte46, i8 %const_reg_byte47, i8 %const_reg_byte48, i64 %const_reg_qword49, i32 %const_reg_dword50, i32 %const_reg_dword51, i32 %const_reg_dword52, i8 %const_reg_byte53, i8 %const_reg_byte54, i8 %const_reg_byte55, i8 %const_reg_byte56, float %const_reg_fp32, i64 %const_reg_qword57, i32 %const_reg_dword58, i64 %const_reg_qword59, i8 %const_reg_byte60, i8 %const_reg_byte61, i8 %const_reg_byte62, i8 %const_reg_byte63, i32 %const_reg_dword64, i32 %const_reg_dword65, i32 %const_reg_dword66, i32 %const_reg_dword67, i32 %const_reg_dword68, i32 %const_reg_dword69, i8 %const_reg_byte70, i8 %const_reg_byte71, i8 %const_reg_byte72, i8 %const_reg_byte73, i32 %bindlessOffset) #1 {
; BB0 :
  %3 = extractelement <8 x i32> %r0, i32 6		; visa id: 2
  %4 = extractelement <8 x i32> %r0, i32 7		; visa id: 2
  %tobool.i = icmp eq i32 %const_reg_dword2, 0		; visa id: 2
  br i1 %tobool.i, label %if.then.i, label %if.end.i, !stats.blockFrequency.digits !1203, !stats.blockFrequency.scale !1204		; visa id: 3

if.then.i:                                        ; preds = %2
; BB1 :
  br label %precompiled_s32divrem_sp.exit, !stats.blockFrequency.digits !1205, !stats.blockFrequency.scale !1206		; visa id: 6

if.end.i:                                         ; preds = %2
; BB2 :
  %shr.i = ashr i32 %const_reg_dword2, 31		; visa id: 8
  %shr1.i = ashr i32 %const_reg_dword1, 31		; visa id: 9
  %add.i = add nsw i32 %shr.i, %const_reg_dword2		; visa id: 10
  %xor.i = xor i32 %add.i, %shr.i		; visa id: 11
  %add2.i = add nsw i32 %shr1.i, %const_reg_dword1		; visa id: 12
  %xor3.i = xor i32 %add2.i, %shr1.i		; visa id: 13
  %5 = call float @llvm.genx.GenISA.uitof.rtz.f32.i32(i32 %xor.i)		; visa id: 14
  %conv.i = fptoui float %5 to i32		; visa id: 16
  %sub.i = sub i32 %xor.i, %conv.i		; visa id: 17
  %6 = call float @llvm.genx.GenISA.uitof.rtz.f32.i32(i32 %xor3.i)		; visa id: 18
  %div.i = fdiv float 1.000000e+00, %5, !fpmath !1207		; visa id: 19
  %7 = call float @llvm.genx.GenISA.fma.rtz.f32.f32.f32.f32(float %div.i, float 0xBE98000000000000, float %div.i)		; visa id: 20
  %8 = call float @llvm.genx.GenISA.mul.rtz.f32.f32.f32(float %6, float %7)		; visa id: 21
  %conv6.i = fptoui float %6 to i32		; visa id: 22
  %sub7.i = sub i32 %xor3.i, %conv6.i		; visa id: 23
  %conv11.i = fptoui float %8 to i32		; visa id: 24
  %9 = call float @llvm.genx.GenISA.uitof.rtz.f32.i32(i32 %sub.i)		; visa id: 25
  %10 = call float @llvm.genx.GenISA.uitof.rtz.f32.i32(i32 %sub7.i)		; visa id: 26
  %11 = call float @llvm.genx.GenISA.uitof.rtz.f32.i32(i32 %conv11.i)		; visa id: 27
  %12 = fsub float 0.000000e+00, %5		; visa id: 28
  %13 = call float @llvm.genx.GenISA.fma.rtz.f32.f32.f32.f32(float %12, float %11, float %6)		; visa id: 29
  %14 = fsub float 0.000000e+00, %9		; visa id: 30
  %15 = call float @llvm.genx.GenISA.fma.rtz.f32.f32.f32.f32(float %14, float %11, float %10)		; visa id: 31
  %16 = call float @llvm.genx.GenISA.add.rtz.f32.f32.f32(float %13, float %15)		; visa id: 32
  %17 = call float @llvm.genx.GenISA.mul.rtz.f32.f32.f32(float %7, float %16)		; visa id: 33
  %conv19.i = fptoui float %17 to i32		; visa id: 35
  %add20.i = add i32 %conv19.i, %conv11.i		; visa id: 36
  %xor21.i = xor i32 %shr.i, %shr1.i		; visa id: 37
  %mul.i = mul i32 %add20.i, %xor.i		; visa id: 38
  %sub22.i = sub i32 %xor3.i, %mul.i		; visa id: 39
  %cmp.i = icmp uge i32 %sub22.i, %xor.i
  %18 = sext i1 %cmp.i to i32		; visa id: 40
  %19 = sub i32 0, %18
  %add24.i = add i32 %add20.i, %xor21.i
  %add29.i = add i32 %add24.i, %19		; visa id: 41
  %xor30.i = xor i32 %add29.i, %xor21.i		; visa id: 42
  br label %precompiled_s32divrem_sp.exit, !stats.blockFrequency.digits !1208, !stats.blockFrequency.scale !1209		; visa id: 43

precompiled_s32divrem_sp.exit:                    ; preds = %if.then.i, %if.end.i
; BB3 :
  %retval.0.i = phi i32 [ %xor30.i, %if.end.i ], [ -1, %if.then.i ]
  %20 = zext i16 %localIdX to i32		; visa id: 44
  %21 = and i32 %20, 240		; visa id: 45
  %simdBroadcast = call i32 @llvm.genx.GenISA.WaveBroadcast.i32(i32 %21, i32 0, i32 0)
  %22 = call { i32, i32 } @llvm.genx.GenISA.mul.pair(i32 %4, i32 0, i32 %const_reg_dword68, i32 0)
  %23 = extractvalue { i32, i32 } %22, 1		; visa id: 46
  %24 = lshr i32 %23, %const_reg_dword69		; visa id: 51
  %25 = icmp eq i32 %const_reg_dword67, 1
  %26 = select i1 %25, i32 %4, i32 %24		; visa id: 52
  %27 = mul nsw i32 %26, %const_reg_dword67, !spirv.Decorations !1210		; visa id: 54
  %28 = sub nsw i32 %4, %27, !spirv.Decorations !1210		; visa id: 55
  %tobool.i6758 = icmp eq i32 %retval.0.i, 0		; visa id: 56
  br i1 %tobool.i6758, label %if.then.i6759, label %if.end.i6789, !stats.blockFrequency.digits !1203, !stats.blockFrequency.scale !1204		; visa id: 57

if.then.i6759:                                    ; preds = %precompiled_s32divrem_sp.exit
; BB4 :
  br label %precompiled_s32divrem_sp.exit6791, !stats.blockFrequency.digits !1205, !stats.blockFrequency.scale !1206		; visa id: 60

if.end.i6789:                                     ; preds = %precompiled_s32divrem_sp.exit
; BB5 :
  %shr.i6760 = ashr i32 %retval.0.i, 31		; visa id: 62
  %shr1.i6761 = ashr i32 %28, 31		; visa id: 63
  %add.i6762 = add nsw i32 %shr.i6760, %retval.0.i		; visa id: 64
  %xor.i6763 = xor i32 %add.i6762, %shr.i6760		; visa id: 65
  %add2.i6764 = add nsw i32 %shr1.i6761, %28		; visa id: 66
  %xor3.i6765 = xor i32 %add2.i6764, %shr1.i6761		; visa id: 67
  %29 = call float @llvm.genx.GenISA.uitof.rtz.f32.i32(i32 %xor.i6763)		; visa id: 68
  %conv.i6766 = fptoui float %29 to i32		; visa id: 70
  %sub.i6767 = sub i32 %xor.i6763, %conv.i6766		; visa id: 71
  %30 = call float @llvm.genx.GenISA.uitof.rtz.f32.i32(i32 %xor3.i6765)		; visa id: 72
  %div.i6770 = fdiv float 1.000000e+00, %29, !fpmath !1207		; visa id: 73
  %31 = call float @llvm.genx.GenISA.fma.rtz.f32.f32.f32.f32(float %div.i6770, float 0xBE98000000000000, float %div.i6770)		; visa id: 74
  %32 = call float @llvm.genx.GenISA.mul.rtz.f32.f32.f32(float %30, float %31)		; visa id: 75
  %conv6.i6768 = fptoui float %30 to i32		; visa id: 76
  %sub7.i6769 = sub i32 %xor3.i6765, %conv6.i6768		; visa id: 77
  %conv11.i6771 = fptoui float %32 to i32		; visa id: 78
  %33 = call float @llvm.genx.GenISA.uitof.rtz.f32.i32(i32 %sub.i6767)		; visa id: 79
  %34 = call float @llvm.genx.GenISA.uitof.rtz.f32.i32(i32 %sub7.i6769)		; visa id: 80
  %35 = call float @llvm.genx.GenISA.uitof.rtz.f32.i32(i32 %conv11.i6771)		; visa id: 81
  %36 = fsub float 0.000000e+00, %29		; visa id: 82
  %37 = call float @llvm.genx.GenISA.fma.rtz.f32.f32.f32.f32(float %36, float %35, float %30)		; visa id: 83
  %38 = fsub float 0.000000e+00, %33		; visa id: 84
  %39 = call float @llvm.genx.GenISA.fma.rtz.f32.f32.f32.f32(float %38, float %35, float %34)		; visa id: 85
  %40 = call float @llvm.genx.GenISA.add.rtz.f32.f32.f32(float %37, float %39)		; visa id: 86
  %41 = call float @llvm.genx.GenISA.mul.rtz.f32.f32.f32(float %31, float %40)		; visa id: 87
  %conv19.i6774 = fptoui float %41 to i32		; visa id: 89
  %add20.i6775 = add i32 %conv19.i6774, %conv11.i6771		; visa id: 90
  %xor21.i6776 = xor i32 %shr.i6760, %shr1.i6761		; visa id: 91
  %mul.i6777 = mul i32 %add20.i6775, %xor.i6763		; visa id: 92
  %sub22.i6778 = sub i32 %xor3.i6765, %mul.i6777		; visa id: 93
  %cmp.i6779 = icmp uge i32 %sub22.i6778, %xor.i6763
  %42 = sext i1 %cmp.i6779 to i32		; visa id: 94
  %43 = sub i32 0, %42
  %add24.i6786 = add i32 %add20.i6775, %xor21.i6776
  %add29.i6787 = add i32 %add24.i6786, %43		; visa id: 95
  %xor30.i6788 = xor i32 %add29.i6787, %xor21.i6776		; visa id: 96
  br label %precompiled_s32divrem_sp.exit6791, !stats.blockFrequency.digits !1208, !stats.blockFrequency.scale !1209		; visa id: 97

precompiled_s32divrem_sp.exit6791:                ; preds = %if.then.i6759, %if.end.i6789
; BB6 :
  %retval.0.i6790 = phi i32 [ %xor30.i6788, %if.end.i6789 ], [ -1, %if.then.i6759 ]
  %44 = zext i32 %26 to i64		; visa id: 98
  %45 = shl nuw nsw i64 %44, 2		; visa id: 99
  %46 = add i64 %45, %const_reg_qword		; visa id: 100
  %47 = inttoptr i64 %46 to <2 x i32> addrspace(4)*		; visa id: 101
  %48 = addrspacecast <2 x i32> addrspace(4)* %47 to <2 x i32> addrspace(1)*		; visa id: 101
  %49 = load <2 x i32>, <2 x i32> addrspace(1)* %48, align 4		; visa id: 102
  %50 = extractelement <2 x i32> %49, i32 1		; visa id: 103
  %51 = extractelement <2 x i32> %49, i32 0		; visa id: 103
  %52 = sub nsw i32 %50, %51, !spirv.Decorations !1210		; visa id: 103
  %53 = shl i32 %3, 8		; visa id: 104
  %54 = icmp ult i32 %53, %52		; visa id: 105
  br i1 %54, label %55, label %precompiled_s32divrem_sp.exit6791.._crit_edge_crit_edge, !stats.blockFrequency.digits !1203, !stats.blockFrequency.scale !1204		; visa id: 106

precompiled_s32divrem_sp.exit6791.._crit_edge_crit_edge: ; preds = %precompiled_s32divrem_sp.exit6791
; BB:
  br label %._crit_edge, !stats.blockFrequency.digits !1212, !stats.blockFrequency.scale !1209

55:                                               ; preds = %precompiled_s32divrem_sp.exit6791
; BB8 :
  %56 = add i64 %45, %const_reg_qword5		; visa id: 108
  %57 = inttoptr i64 %56 to <2 x i32> addrspace(4)*		; visa id: 109
  %58 = addrspacecast <2 x i32> addrspace(4)* %57 to <2 x i32> addrspace(1)*		; visa id: 109
  %59 = load <2 x i32>, <2 x i32> addrspace(1)* %58, align 4		; visa id: 110
  %60 = extractelement <2 x i32> %59, i32 1		; visa id: 111
  %61 = extractelement <2 x i32> %59, i32 0		; visa id: 111
  %62 = sub nsw i32 %60, %61, !spirv.Decorations !1210		; visa id: 111
  %63 = call i32 @llvm.smin.i32(i32 %52, i32 %62)		; visa id: 112
  %64 = sub nsw i32 %52, %63, !spirv.Decorations !1210		; visa id: 113
  %65 = add i32 %53, %simdBroadcast		; visa id: 114
  %66 = call i32 @llvm.umin.i32(i32 %52, i32 %65)		; visa id: 115
  %67 = icmp slt i32 %66, %64		; visa id: 116
  br i1 %67, label %.._crit_edge_crit_edge, label %68, !stats.blockFrequency.digits !1212, !stats.blockFrequency.scale !1209		; visa id: 117

.._crit_edge_crit_edge:                           ; preds = %55
; BB:
  br label %._crit_edge, !stats.blockFrequency.digits !1212, !stats.blockFrequency.scale !1206

68:                                               ; preds = %55
; BB10 :
  %69 = add i64 %45, %const_reg_qword7		; visa id: 119
  %70 = inttoptr i64 %69 to <2 x i32> addrspace(4)*		; visa id: 120
  %71 = addrspacecast <2 x i32> addrspace(4)* %70 to <2 x i32> addrspace(1)*		; visa id: 120
  %72 = load <2 x i32>, <2 x i32> addrspace(1)* %71, align 4		; visa id: 121
  %73 = extractelement <2 x i32> %72, i32 1		; visa id: 122
  %74 = extractelement <2 x i32> %72, i32 0		; visa id: 122
  %75 = sub nsw i32 %73, %74, !spirv.Decorations !1210		; visa id: 122
  %76 = sub nsw i32 %62, %63, !spirv.Decorations !1210		; visa id: 123
  %77 = sub nsw i32 %66, %64, !spirv.Decorations !1210		; visa id: 124
  %78 = call i32 @llvm.smin.i32(i32 %62, i32 %77)		; visa id: 125
  %79 = add nsw i32 %76, %78, !spirv.Decorations !1210		; visa id: 126
  %80 = add nsw i32 %79, 16, !spirv.Decorations !1210		; visa id: 127
  %81 = add nsw i32 %80, %75, !spirv.Decorations !1210		; visa id: 128
  %is-neg = icmp slt i32 %81, -31		; visa id: 129
  br i1 %is-neg, label %cond-add, label %.cond-add-join_crit_edge, !stats.blockFrequency.digits !1212, !stats.blockFrequency.scale !1206		; visa id: 130

.cond-add-join_crit_edge:                         ; preds = %68
; BB11 :
  %82 = add nsw i32 %81, 31, !spirv.Decorations !1210		; visa id: 132
  br label %cond-add-join, !stats.blockFrequency.digits !1212, !stats.blockFrequency.scale !1213		; visa id: 133

cond-add:                                         ; preds = %68
; BB12 :
  %83 = add i32 %81, 62		; visa id: 135
  br label %cond-add-join, !stats.blockFrequency.digits !1212, !stats.blockFrequency.scale !1213		; visa id: 136

cond-add-join:                                    ; preds = %.cond-add-join_crit_edge, %cond-add
; BB13 :
  %84 = phi i32 [ %82, %.cond-add-join_crit_edge ], [ %83, %cond-add ]
  %85 = bitcast i64 %const_reg_qword7 to <2 x i32>		; visa id: 137
  %86 = extractelement <2 x i32> %85, i32 0		; visa id: 138
  %87 = extractelement <2 x i32> %85, i32 1		; visa id: 138
  %qot = ashr i32 %84, 5		; visa id: 138
  %88 = mul nsw i32 %const_reg_dword1, %const_reg_dword8, !spirv.Decorations !1210		; visa id: 139
  %89 = mul nsw i32 %88, %51, !spirv.Decorations !1210		; visa id: 140
  %90 = mul nsw i32 %const_reg_dword2, %const_reg_dword8, !spirv.Decorations !1210		; visa id: 141
  %91 = mul nsw i32 %90, %61, !spirv.Decorations !1210		; visa id: 142
  %92 = mul nsw i32 %const_reg_dword2, %const_reg_dword9, !spirv.Decorations !1210		; visa id: 143
  %93 = mul nsw i32 %92, %61, !spirv.Decorations !1210		; visa id: 144
  %94 = icmp eq i32 %87, 0
  %95 = icmp eq i32 %86, 0		; visa id: 145
  %96 = and i1 %94, %95		; visa id: 146
  %97 = mul nsw i32 %90, %74, !spirv.Decorations !1210		; visa id: 148
  %98 = mul nsw i32 %92, %74, !spirv.Decorations !1210		; visa id: 149
  %99 = sext i32 %89 to i64		; visa id: 150
  %100 = shl nsw i64 %99, 1		; visa id: 151
  %101 = add i64 %100, %const_reg_qword10		; visa id: 152
  %102 = sext i32 %91 to i64		; visa id: 153
  %103 = shl nsw i64 %102, 1		; visa id: 154
  %104 = add i64 %103, %const_reg_qword17		; visa id: 155
  %105 = sext i32 %93 to i64		; visa id: 156
  %106 = shl nsw i64 %105, 1		; visa id: 157
  %107 = add i64 %106, %const_reg_qword25		; visa id: 158
  %108 = sext i32 %97 to i64		; visa id: 159
  %.op = shl nsw i64 %108, 1		; visa id: 160
  %109 = bitcast i64 %.op to <2 x i32>		; visa id: 161
  %110 = extractelement <2 x i32> %109, i32 0		; visa id: 162
  %111 = extractelement <2 x i32> %109, i32 1		; visa id: 162
  %112 = select i1 %96, i32 0, i32 %110		; visa id: 162
  %113 = select i1 %96, i32 0, i32 %111		; visa id: 163
  %114 = insertelement <2 x i32> undef, i32 %112, i32 0		; visa id: 164
  %115 = insertelement <2 x i32> %114, i32 %113, i32 1		; visa id: 165
  %116 = bitcast <2 x i32> %115 to i64		; visa id: 166
  %117 = add i64 %116, %const_reg_qword41		; visa id: 168
  %118 = sext i32 %98 to i64		; visa id: 169
  %.op7140 = shl nsw i64 %118, 1		; visa id: 170
  %119 = bitcast i64 %.op7140 to <2 x i32>		; visa id: 171
  %120 = extractelement <2 x i32> %119, i32 0		; visa id: 172
  %121 = extractelement <2 x i32> %119, i32 1		; visa id: 172
  %122 = select i1 %96, i32 0, i32 %120		; visa id: 172
  %123 = select i1 %96, i32 0, i32 %121		; visa id: 173
  %124 = insertelement <2 x i32> undef, i32 %122, i32 0		; visa id: 174
  %125 = insertelement <2 x i32> %124, i32 %123, i32 1		; visa id: 175
  %126 = bitcast <2 x i32> %125 to i64		; visa id: 176
  %127 = add i64 %126, %const_reg_qword49		; visa id: 178
  %128 = mul nsw i32 %52, %const_reg_dword8, !spirv.Decorations !1210		; visa id: 179
  %129 = icmp slt i32 %const_reg_dword1, 2		; visa id: 180
  %130 = select i1 %129, i32 0, i32 %128		; visa id: 181
  %131 = mul nsw i32 %62, %const_reg_dword8, !spirv.Decorations !1210		; visa id: 182
  %132 = mul nsw i32 %62, %const_reg_dword9, !spirv.Decorations !1210		; visa id: 183
  %133 = icmp slt i32 %const_reg_dword2, 2		; visa id: 184
  %134 = select i1 %133, i32 0, i32 %132		; visa id: 185
  %135 = select i1 %133, i32 0, i32 %131		; visa id: 186
  %136 = mul nsw i32 %75, %const_reg_dword8, !spirv.Decorations !1210		; visa id: 187
  %137 = mul nsw i32 %75, %const_reg_dword9, !spirv.Decorations !1210		; visa id: 188
  %138 = select i1 %133, i32 0, i32 %137		; visa id: 189
  %139 = select i1 %133, i32 0, i32 %136		; visa id: 190
  %140 = mul nsw i32 %28, %130, !spirv.Decorations !1210		; visa id: 191
  %141 = sext i32 %140 to i64		; visa id: 192
  %142 = shl nsw i64 %141, 1		; visa id: 193
  %143 = add i64 %101, %142		; visa id: 194
  %144 = mul nsw i32 %retval.0.i6790, %135, !spirv.Decorations !1210		; visa id: 195
  %145 = sext i32 %144 to i64		; visa id: 196
  %146 = shl nsw i64 %145, 1		; visa id: 197
  %147 = add i64 %104, %146		; visa id: 198
  %148 = mul nsw i32 %retval.0.i6790, %134, !spirv.Decorations !1210		; visa id: 199
  %149 = sext i32 %148 to i64		; visa id: 200
  %150 = shl nsw i64 %149, 1		; visa id: 201
  %151 = add i64 %107, %150		; visa id: 202
  %152 = mul nsw i32 %retval.0.i6790, %139, !spirv.Decorations !1210		; visa id: 203
  %153 = sext i32 %152 to i64		; visa id: 204
  %154 = shl nsw i64 %153, 1		; visa id: 205
  %155 = add i64 %117, %154		; visa id: 206
  %156 = mul nsw i32 %retval.0.i6790, %138, !spirv.Decorations !1210		; visa id: 207
  %157 = sext i32 %156 to i64		; visa id: 208
  %158 = shl nsw i64 %157, 1		; visa id: 209
  %159 = add i64 %127, %158		; visa id: 210
  %is-neg6725 = icmp slt i32 %const_reg_dword8, -31		; visa id: 211
  br i1 %is-neg6725, label %cond-add6726, label %cond-add-join.cond-add-join6727_crit_edge, !stats.blockFrequency.digits !1212, !stats.blockFrequency.scale !1206		; visa id: 212

cond-add-join.cond-add-join6727_crit_edge:        ; preds = %cond-add-join
; BB14 :
  %160 = add nsw i32 %const_reg_dword8, 31, !spirv.Decorations !1210		; visa id: 214
  br label %cond-add-join6727, !stats.blockFrequency.digits !1212, !stats.blockFrequency.scale !1213		; visa id: 215

cond-add6726:                                     ; preds = %cond-add-join
; BB15 :
  %161 = add i32 %const_reg_dword8, 62		; visa id: 217
  br label %cond-add-join6727, !stats.blockFrequency.digits !1212, !stats.blockFrequency.scale !1213		; visa id: 218

cond-add-join6727:                                ; preds = %cond-add-join.cond-add-join6727_crit_edge, %cond-add6726
; BB16 :
  %162 = phi i32 [ %160, %cond-add-join.cond-add-join6727_crit_edge ], [ %161, %cond-add6726 ]
  %163 = extractelement <8 x i32> %r0, i32 1		; visa id: 219
  %qot6728 = ashr i32 %162, 5		; visa id: 219
  %164 = shl i32 %163, 7		; visa id: 220
  %165 = shl nsw i32 %const_reg_dword8, 1, !spirv.Decorations !1210		; visa id: 221
  %166 = add i32 %165, -1		; visa id: 222
  %167 = add i32 %52, -1		; visa id: 223
  %Block2D_AddrPayload = call i8 addrspace(4)* @llvm.genx.GenISA.LSC2DBlockCreateAddrPayload.p4i8(i64 %143, i32 %166, i32 %167, i32 %166, i32 0, i32 0, i32 16, i32 16, i32 2)		; visa id: 224
  %168 = add i32 %62, -1		; visa id: 231
  %Block2D_AddrPayload115 = call i8 addrspace(4)* @llvm.genx.GenISA.LSC2DBlockCreateAddrPayload.p4i8(i64 %147, i32 %166, i32 %168, i32 %166, i32 0, i32 0, i32 8, i32 16, i32 1)		; visa id: 232
  %169 = shl nsw i32 %const_reg_dword9, 1, !spirv.Decorations !1210		; visa id: 239
  %170 = add i32 %169, -1		; visa id: 240
  %Block2D_AddrPayload116 = call i8 addrspace(4)* @llvm.genx.GenISA.LSC2DBlockCreateAddrPayload.p4i8(i64 %151, i32 %170, i32 %168, i32 %170, i32 0, i32 0, i32 16, i32 16, i32 2)		; visa id: 241
  %171 = add i32 %75, -1		; visa id: 248
  %Block2D_AddrPayload117 = call i8 addrspace(4)* @llvm.genx.GenISA.LSC2DBlockCreateAddrPayload.p4i8(i64 %155, i32 %166, i32 %171, i32 %166, i32 0, i32 0, i32 8, i32 16, i32 1)		; visa id: 249
  %Block2D_AddrPayload118 = call i8 addrspace(4)* @llvm.genx.GenISA.LSC2DBlockCreateAddrPayload.p4i8(i64 %159, i32 %170, i32 %171, i32 %170, i32 0, i32 0, i32 16, i32 16, i32 2)		; visa id: 256
  %172 = and i32 %20, 65520		; visa id: 263
  %173 = add i32 %53, %172		; visa id: 264
  %Block2D_AddrPayload119 = call i8 addrspace(4)* @llvm.genx.GenISA.LSC2DBlockCreateAddrPayload.p4i8(i64 %143, i32 %166, i32 %167, i32 %166, i32 0, i32 0, i32 32, i32 16, i32 1)		; visa id: 265
  %Block2D_AddrPayload120 = call i8 addrspace(4)* @llvm.genx.GenISA.LSC2DBlockCreateAddrPayload.p4i8(i64 %147, i32 %166, i32 %168, i32 %166, i32 0, i32 0, i32 32, i32 2, i32 1)		; visa id: 272
  %Block2D_AddrPayload121 = call i8 addrspace(4)* @llvm.genx.GenISA.LSC2DBlockCreateAddrPayload.p4i8(i64 %151, i32 %170, i32 %168, i32 %170, i32 0, i32 0, i32 32, i32 2, i32 1)		; visa id: 279
  %Block2D_AddrPayload122 = call i8 addrspace(4)* @llvm.genx.GenISA.LSC2DBlockCreateAddrPayload.p4i8(i64 %155, i32 %166, i32 %171, i32 %166, i32 0, i32 0, i32 32, i32 2, i32 1)		; visa id: 286
  %Block2D_AddrPayload123 = call i8 addrspace(4)* @llvm.genx.GenISA.LSC2DBlockCreateAddrPayload.p4i8(i64 %159, i32 %170, i32 %171, i32 %170, i32 0, i32 0, i32 32, i32 2, i32 1)		; visa id: 293
  %174 = lshr i32 %20, 3		; visa id: 300
  %175 = and i32 %174, 8190		; visa id: 301
  %is-neg6729 = icmp slt i32 %75, -31		; visa id: 302
  br i1 %is-neg6729, label %cond-add6730, label %cond-add-join6727.cond-add-join6731_crit_edge, !stats.blockFrequency.digits !1212, !stats.blockFrequency.scale !1206		; visa id: 303

cond-add-join6727.cond-add-join6731_crit_edge:    ; preds = %cond-add-join6727
; BB17 :
  %176 = add nsw i32 %75, 31, !spirv.Decorations !1210		; visa id: 305
  br label %cond-add-join6731, !stats.blockFrequency.digits !1212, !stats.blockFrequency.scale !1213		; visa id: 306

cond-add6730:                                     ; preds = %cond-add-join6727
; BB18 :
  %177 = add i32 %75, 62		; visa id: 308
  br label %cond-add-join6731, !stats.blockFrequency.digits !1212, !stats.blockFrequency.scale !1213		; visa id: 309

cond-add-join6731:                                ; preds = %cond-add-join6727.cond-add-join6731_crit_edge, %cond-add6730
; BB19 :
  %178 = phi i32 [ %176, %cond-add-join6727.cond-add-join6731_crit_edge ], [ %177, %cond-add6730 ]
  %179 = bitcast i64 %const_reg_qword59 to <2 x i32>		; visa id: 310
  %180 = extractelement <2 x i32> %179, i32 0		; visa id: 311
  %181 = extractelement <2 x i32> %179, i32 1		; visa id: 311
  %qot6732 = ashr i32 %178, 5		; visa id: 311
  %182 = icmp sgt i32 %const_reg_dword8, 0		; visa id: 312
  br i1 %182, label %.lr.ph184.preheader, label %cond-add-join6731..preheader_crit_edge, !stats.blockFrequency.digits !1212, !stats.blockFrequency.scale !1206		; visa id: 313

cond-add-join6731..preheader_crit_edge:           ; preds = %cond-add-join6731
; BB:
  br label %.preheader, !stats.blockFrequency.digits !1214, !stats.blockFrequency.scale !1215

.lr.ph184.preheader:                              ; preds = %cond-add-join6731
; BB21 :
  br label %.lr.ph184, !stats.blockFrequency.digits !1216, !stats.blockFrequency.scale !1213		; visa id: 316

.lr.ph184:                                        ; preds = %.lr.ph184..lr.ph184_crit_edge, %.lr.ph184.preheader
; BB22 :
  %183 = phi i32 [ %185, %.lr.ph184..lr.ph184_crit_edge ], [ 0, %.lr.ph184.preheader ]
  %184 = shl nsw i32 %183, 5, !spirv.Decorations !1210		; visa id: 317
  call void @llvm.genx.GenISA.LSC2DBlockSetAddrPayloadField.p4i8.i32(i8 addrspace(4)* %Block2D_AddrPayload119, i32 5, i32 %184, i1 false)		; visa id: 318
  call void @llvm.genx.GenISA.LSC2DBlockSetAddrPayloadField.p4i8.i32(i8 addrspace(4)* %Block2D_AddrPayload119, i32 6, i32 %173, i1 false)		; visa id: 319
  call void asm sideeffect "lsc_load_block2d.ugm.ca.ca (M1, 1)  %null:d$1.$2x$3nn flat[$0+(0,0)]", "rw.u,P,P,P"(i8 addrspace(4)* %Block2D_AddrPayload119, i32 16, i32 32, i32 16) #0		; visa id: 320
  %185 = add nuw nsw i32 %183, 1, !spirv.Decorations !1217		; visa id: 320
  %186 = icmp slt i32 %185, %qot6728		; visa id: 321
  br i1 %186, label %.lr.ph184..lr.ph184_crit_edge, label %.preheader158, !stats.blockFrequency.digits !1219, !stats.blockFrequency.scale !1220		; visa id: 322

.lr.ph184..lr.ph184_crit_edge:                    ; preds = %.lr.ph184
; BB:
  br label %.lr.ph184, !stats.blockFrequency.digits !1221, !stats.blockFrequency.scale !1222

.preheader158:                                    ; preds = %.lr.ph184
; BB24 :
  br i1 true, label %.lr.ph182, label %.preheader158..preheader_crit_edge, !stats.blockFrequency.digits !1216, !stats.blockFrequency.scale !1213		; visa id: 324

.preheader158..preheader_crit_edge:               ; preds = %.preheader158
; BB:
  br label %.preheader, !stats.blockFrequency.digits !1216, !stats.blockFrequency.scale !1215

.lr.ph182:                                        ; preds = %.preheader158
; BB26 :
  %187 = icmp eq i32 %181, 0
  %188 = icmp eq i32 %180, 0		; visa id: 327
  %189 = and i1 %187, %188		; visa id: 328
  %190 = sext i32 %26 to i64		; visa id: 330
  %191 = shl nsw i64 %190, 2		; visa id: 331
  %192 = add i64 %191, %const_reg_qword59		; visa id: 332
  %193 = inttoptr i64 %192 to i32 addrspace(4)*		; visa id: 333
  %194 = addrspacecast i32 addrspace(4)* %193 to i32 addrspace(1)*		; visa id: 333
  %is-neg6733 = icmp slt i32 %const_reg_dword58, 0		; visa id: 334
  br i1 %is-neg6733, label %cond-add6734, label %.lr.ph182.cond-add-join6735_crit_edge, !stats.blockFrequency.digits !1216, !stats.blockFrequency.scale !1215		; visa id: 335

.lr.ph182.cond-add-join6735_crit_edge:            ; preds = %.lr.ph182
; BB27 :
  br label %cond-add-join6735, !stats.blockFrequency.digits !1223, !stats.blockFrequency.scale !1224		; visa id: 338

cond-add6734:                                     ; preds = %.lr.ph182
; BB28 :
  %const_reg_dword586736 = add i32 %const_reg_dword58, 31		; visa id: 340
  br label %cond-add-join6735, !stats.blockFrequency.digits !1225, !stats.blockFrequency.scale !1224		; visa id: 342

cond-add-join6735:                                ; preds = %.lr.ph182.cond-add-join6735_crit_edge, %cond-add6734
; BB29 :
  %const_reg_dword586737 = phi i32 [ %const_reg_dword58, %.lr.ph182.cond-add-join6735_crit_edge ], [ %const_reg_dword586736, %cond-add6734 ]
  %qot6738 = ashr i32 %const_reg_dword586737, 5		; visa id: 343
  %195 = icmp sgt i32 %75, 0		; visa id: 344
  %196 = and i32 %178, -32		; visa id: 345
  %197 = sub i32 %175, %196		; visa id: 346
  %198 = icmp sgt i32 %75, 32		; visa id: 347
  %199 = sub i32 32, %196
  %200 = add nuw nsw i32 %175, %199		; visa id: 348
  %tobool.i6792 = icmp eq i32 %const_reg_dword58, 0		; visa id: 349
  %shr.i6794 = ashr i32 %const_reg_dword58, 31		; visa id: 350
  %shr1.i6795 = ashr i32 %75, 31		; visa id: 351
  %add.i6796 = add nsw i32 %shr.i6794, %const_reg_dword58		; visa id: 352
  %xor.i6797 = xor i32 %add.i6796, %shr.i6794		; visa id: 353
  %add2.i6798 = add nsw i32 %shr1.i6795, %75		; visa id: 354
  %xor3.i6799 = xor i32 %add2.i6798, %shr1.i6795		; visa id: 355
  %xor21.i6810 = xor i32 %shr1.i6795, %shr.i6794		; visa id: 356
  %tobool.i6888 = icmp ult i32 %const_reg_dword586737, 32		; visa id: 357
  %shr.i6890 = ashr i32 %const_reg_dword586737, 31		; visa id: 358
  %add.i6891 = add nsw i32 %shr.i6890, %qot6738		; visa id: 359
  %xor.i6892 = xor i32 %add.i6891, %shr.i6890		; visa id: 360
  br label %201, !stats.blockFrequency.digits !1216, !stats.blockFrequency.scale !1215		; visa id: 362

201:                                              ; preds = %._crit_edge7185, %cond-add-join6735
; BB30 :
  %202 = phi i32 [ 0, %cond-add-join6735 ], [ %300, %._crit_edge7185 ]
  %203 = shl nsw i32 %202, 5, !spirv.Decorations !1210		; visa id: 363
  br i1 %195, label %204, label %235, !stats.blockFrequency.digits !1226, !stats.blockFrequency.scale !1227		; visa id: 364

204:                                              ; preds = %201
; BB31 :
  br i1 %189, label %205, label %222, !stats.blockFrequency.digits !1228, !stats.blockFrequency.scale !1229		; visa id: 366

205:                                              ; preds = %204
; BB32 :
  br i1 %tobool.i6792, label %if.then.i6793, label %if.end.i6823, !stats.blockFrequency.digits !1228, !stats.blockFrequency.scale !1209		; visa id: 368

if.then.i6793:                                    ; preds = %205
; BB33 :
  br label %precompiled_s32divrem_sp.exit6825, !stats.blockFrequency.digits !1230, !stats.blockFrequency.scale !1206		; visa id: 371

if.end.i6823:                                     ; preds = %205
; BB34 :
  %206 = call float @llvm.genx.GenISA.uitof.rtz.f32.i32(i32 %xor.i6797)		; visa id: 373
  %conv.i6800 = fptoui float %206 to i32		; visa id: 375
  %sub.i6801 = sub i32 %xor.i6797, %conv.i6800		; visa id: 376
  %207 = call float @llvm.genx.GenISA.uitof.rtz.f32.i32(i32 %xor3.i6799)		; visa id: 377
  %div.i6804 = fdiv float 1.000000e+00, %206, !fpmath !1207		; visa id: 378
  %208 = call float @llvm.genx.GenISA.fma.rtz.f32.f32.f32.f32(float %div.i6804, float 0xBE98000000000000, float %div.i6804)		; visa id: 379
  %209 = call float @llvm.genx.GenISA.mul.rtz.f32.f32.f32(float %207, float %208)		; visa id: 380
  %conv6.i6802 = fptoui float %207 to i32		; visa id: 381
  %sub7.i6803 = sub i32 %xor3.i6799, %conv6.i6802		; visa id: 382
  %conv11.i6805 = fptoui float %209 to i32		; visa id: 383
  %210 = call float @llvm.genx.GenISA.uitof.rtz.f32.i32(i32 %sub.i6801)		; visa id: 384
  %211 = call float @llvm.genx.GenISA.uitof.rtz.f32.i32(i32 %sub7.i6803)		; visa id: 385
  %212 = call float @llvm.genx.GenISA.uitof.rtz.f32.i32(i32 %conv11.i6805)		; visa id: 386
  %213 = fsub float 0.000000e+00, %206		; visa id: 387
  %214 = call float @llvm.genx.GenISA.fma.rtz.f32.f32.f32.f32(float %213, float %212, float %207)		; visa id: 388
  %215 = fsub float 0.000000e+00, %210		; visa id: 389
  %216 = call float @llvm.genx.GenISA.fma.rtz.f32.f32.f32.f32(float %215, float %212, float %211)		; visa id: 390
  %217 = call float @llvm.genx.GenISA.add.rtz.f32.f32.f32(float %214, float %216)		; visa id: 391
  %218 = call float @llvm.genx.GenISA.mul.rtz.f32.f32.f32(float %208, float %217)		; visa id: 392
  %conv19.i6808 = fptoui float %218 to i32		; visa id: 394
  %add20.i6809 = add i32 %conv19.i6808, %conv11.i6805		; visa id: 395
  %mul.i6811 = mul i32 %add20.i6809, %xor.i6797		; visa id: 396
  %sub22.i6812 = sub i32 %xor3.i6799, %mul.i6811		; visa id: 397
  %cmp.i6813 = icmp uge i32 %sub22.i6812, %xor.i6797
  %219 = sext i1 %cmp.i6813 to i32		; visa id: 398
  %220 = sub i32 0, %219
  %add24.i6820 = add i32 %add20.i6809, %xor21.i6810
  %add29.i6821 = add i32 %add24.i6820, %220		; visa id: 399
  %xor30.i6822 = xor i32 %add29.i6821, %xor21.i6810		; visa id: 400
  br label %precompiled_s32divrem_sp.exit6825, !stats.blockFrequency.digits !1231, !stats.blockFrequency.scale !1209		; visa id: 401

precompiled_s32divrem_sp.exit6825:                ; preds = %if.then.i6793, %if.end.i6823
; BB35 :
  %retval.0.i6824 = phi i32 [ %xor30.i6822, %if.end.i6823 ], [ -1, %if.then.i6793 ]
  %221 = mul nsw i32 %26, %retval.0.i6824, !spirv.Decorations !1210		; visa id: 402
  br label %224, !stats.blockFrequency.digits !1228, !stats.blockFrequency.scale !1209		; visa id: 403

222:                                              ; preds = %204
; BB36 :
  %223 = load i32, i32 addrspace(1)* %194, align 4		; visa id: 405
  br label %224, !stats.blockFrequency.digits !1228, !stats.blockFrequency.scale !1209		; visa id: 406

224:                                              ; preds = %precompiled_s32divrem_sp.exit6825, %222
; BB37 :
  %225 = phi i32 [ %223, %222 ], [ %221, %precompiled_s32divrem_sp.exit6825 ]
  %226 = sext i32 %225 to i64		; visa id: 407
  %227 = shl nsw i64 %226, 2		; visa id: 408
  %228 = add i64 %227, %const_reg_qword57		; visa id: 409
  %229 = inttoptr i64 %228 to i32 addrspace(4)*		; visa id: 410
  %230 = addrspacecast i32 addrspace(4)* %229 to i32 addrspace(1)*		; visa id: 410
  %231 = load i32, i32 addrspace(1)* %230, align 4		; visa id: 411
  %232 = mul nsw i32 %231, %qot6738, !spirv.Decorations !1210		; visa id: 412
  %233 = shl nsw i32 %232, 5, !spirv.Decorations !1210		; visa id: 413
  %234 = add nsw i32 %175, %233, !spirv.Decorations !1210		; visa id: 414
  call void @llvm.genx.GenISA.LSC2DBlockSetAddrPayloadField.p4i8.i32(i8 addrspace(4)* %Block2D_AddrPayload122, i32 5, i32 %203, i1 false)		; visa id: 415
  call void @llvm.genx.GenISA.LSC2DBlockSetAddrPayloadField.p4i8.i32(i8 addrspace(4)* %Block2D_AddrPayload122, i32 6, i32 %234, i1 false)		; visa id: 416
  call void asm sideeffect "lsc_load_block2d.ugm.ca.ca (M1, 1)  %null:d$1.$2x$3nn flat[$0+(0,0)]", "rw.u,P,P,P"(i8 addrspace(4)* %Block2D_AddrPayload122, i32 16, i32 32, i32 2) #0		; visa id: 417
  br label %236, !stats.blockFrequency.digits !1228, !stats.blockFrequency.scale !1229		; visa id: 417

235:                                              ; preds = %201
; BB38 :
  call void @llvm.genx.GenISA.LSC2DBlockSetAddrPayloadField.p4i8.i32(i8 addrspace(4)* %Block2D_AddrPayload120, i32 5, i32 %203, i1 false)		; visa id: 419
  call void @llvm.genx.GenISA.LSC2DBlockSetAddrPayloadField.p4i8.i32(i8 addrspace(4)* %Block2D_AddrPayload120, i32 6, i32 %197, i1 false)		; visa id: 420
  call void asm sideeffect "lsc_load_block2d.ugm.ca.ca (M1, 1)  %null:d$1.$2x$3nn flat[$0+(0,0)]", "rw.u,P,P,P"(i8 addrspace(4)* %Block2D_AddrPayload120, i32 16, i32 32, i32 2) #0		; visa id: 421
  br label %236, !stats.blockFrequency.digits !1232, !stats.blockFrequency.scale !1229		; visa id: 421

236:                                              ; preds = %235, %224
; BB39 :
  br i1 %198, label %237, label %298, !stats.blockFrequency.digits !1226, !stats.blockFrequency.scale !1227		; visa id: 422

237:                                              ; preds = %236
; BB40 :
  br i1 %189, label %238, label %255, !stats.blockFrequency.digits !1226, !stats.blockFrequency.scale !1229		; visa id: 424

238:                                              ; preds = %237
; BB41 :
  br i1 %tobool.i6792, label %if.then.i6827, label %if.end.i6857, !stats.blockFrequency.digits !1208, !stats.blockFrequency.scale !1209		; visa id: 426

if.then.i6827:                                    ; preds = %238
; BB42 :
  br label %precompiled_s32divrem_sp.exit6859, !stats.blockFrequency.digits !1233, !stats.blockFrequency.scale !1206		; visa id: 429

if.end.i6857:                                     ; preds = %238
; BB43 :
  %239 = call float @llvm.genx.GenISA.uitof.rtz.f32.i32(i32 %xor.i6797)		; visa id: 431
  %conv.i6834 = fptoui float %239 to i32		; visa id: 433
  %sub.i6835 = sub i32 %xor.i6797, %conv.i6834		; visa id: 434
  %240 = call float @llvm.genx.GenISA.uitof.rtz.f32.i32(i32 %xor3.i6799)		; visa id: 435
  %div.i6838 = fdiv float 1.000000e+00, %239, !fpmath !1207		; visa id: 436
  %241 = call float @llvm.genx.GenISA.fma.rtz.f32.f32.f32.f32(float %div.i6838, float 0xBE98000000000000, float %div.i6838)		; visa id: 437
  %242 = call float @llvm.genx.GenISA.mul.rtz.f32.f32.f32(float %240, float %241)		; visa id: 438
  %conv6.i6836 = fptoui float %240 to i32		; visa id: 439
  %sub7.i6837 = sub i32 %xor3.i6799, %conv6.i6836		; visa id: 440
  %conv11.i6839 = fptoui float %242 to i32		; visa id: 441
  %243 = call float @llvm.genx.GenISA.uitof.rtz.f32.i32(i32 %sub.i6835)		; visa id: 442
  %244 = call float @llvm.genx.GenISA.uitof.rtz.f32.i32(i32 %sub7.i6837)		; visa id: 443
  %245 = call float @llvm.genx.GenISA.uitof.rtz.f32.i32(i32 %conv11.i6839)		; visa id: 444
  %246 = fsub float 0.000000e+00, %239		; visa id: 445
  %247 = call float @llvm.genx.GenISA.fma.rtz.f32.f32.f32.f32(float %246, float %245, float %240)		; visa id: 446
  %248 = fsub float 0.000000e+00, %243		; visa id: 447
  %249 = call float @llvm.genx.GenISA.fma.rtz.f32.f32.f32.f32(float %248, float %245, float %244)		; visa id: 448
  %250 = call float @llvm.genx.GenISA.add.rtz.f32.f32.f32(float %247, float %249)		; visa id: 449
  %251 = call float @llvm.genx.GenISA.mul.rtz.f32.f32.f32(float %241, float %250)		; visa id: 450
  %conv19.i6842 = fptoui float %251 to i32		; visa id: 452
  %add20.i6843 = add i32 %conv19.i6842, %conv11.i6839		; visa id: 453
  %mul.i6845 = mul i32 %add20.i6843, %xor.i6797		; visa id: 454
  %sub22.i6846 = sub i32 %xor3.i6799, %mul.i6845		; visa id: 455
  %cmp.i6847 = icmp uge i32 %sub22.i6846, %xor.i6797
  %252 = sext i1 %cmp.i6847 to i32		; visa id: 456
  %253 = sub i32 0, %252
  %add24.i6854 = add i32 %add20.i6843, %xor21.i6810
  %add29.i6855 = add i32 %add24.i6854, %253		; visa id: 457
  %xor30.i6856 = xor i32 %add29.i6855, %xor21.i6810		; visa id: 458
  br label %precompiled_s32divrem_sp.exit6859, !stats.blockFrequency.digits !1234, !stats.blockFrequency.scale !1206		; visa id: 459

precompiled_s32divrem_sp.exit6859:                ; preds = %if.then.i6827, %if.end.i6857
; BB44 :
  %retval.0.i6858 = phi i32 [ %xor30.i6856, %if.end.i6857 ], [ -1, %if.then.i6827 ]
  %254 = mul nsw i32 %26, %retval.0.i6858, !spirv.Decorations !1210		; visa id: 460
  br label %257, !stats.blockFrequency.digits !1208, !stats.blockFrequency.scale !1209		; visa id: 461

255:                                              ; preds = %237
; BB45 :
  %256 = load i32, i32 addrspace(1)* %194, align 4		; visa id: 463
  br label %257, !stats.blockFrequency.digits !1208, !stats.blockFrequency.scale !1209		; visa id: 464

257:                                              ; preds = %precompiled_s32divrem_sp.exit6859, %255
; BB46 :
  %258 = phi i32 [ %256, %255 ], [ %254, %precompiled_s32divrem_sp.exit6859 ]
  br i1 %tobool.i6792, label %if.then.i6861, label %if.end.i6885, !stats.blockFrequency.digits !1226, !stats.blockFrequency.scale !1229		; visa id: 465

if.then.i6861:                                    ; preds = %257
; BB47 :
  br label %precompiled_s32divrem_sp.exit6887, !stats.blockFrequency.digits !1235, !stats.blockFrequency.scale !1209		; visa id: 468

if.end.i6885:                                     ; preds = %257
; BB48 :
  %259 = call float @llvm.genx.GenISA.uitof.rtz.f32.i32(i32 %xor.i6797)		; visa id: 470
  %conv.i6865 = fptoui float %259 to i32		; visa id: 472
  %sub.i6866 = sub i32 %xor.i6797, %conv.i6865		; visa id: 473
  %260 = call float @llvm.genx.GenISA.uitof.rtz.f32.i32(i32 32)		; visa id: 474
  %div.i6869 = fdiv float 1.000000e+00, %259, !fpmath !1207		; visa id: 475
  %261 = call float @llvm.genx.GenISA.fma.rtz.f32.f32.f32.f32(float %div.i6869, float 0xBE98000000000000, float %div.i6869)		; visa id: 476
  %262 = call float @llvm.genx.GenISA.mul.rtz.f32.f32.f32(float %260, float %261)		; visa id: 477
  %conv6.i6867 = fptoui float %260 to i32		; visa id: 478
  %sub7.i6868 = sub i32 32, %conv6.i6867		; visa id: 479
  %conv11.i6870 = fptoui float %262 to i32		; visa id: 480
  %263 = call float @llvm.genx.GenISA.uitof.rtz.f32.i32(i32 %sub.i6866)		; visa id: 481
  %264 = call float @llvm.genx.GenISA.uitof.rtz.f32.i32(i32 %sub7.i6868)		; visa id: 482
  %265 = call float @llvm.genx.GenISA.uitof.rtz.f32.i32(i32 %conv11.i6870)		; visa id: 483
  %266 = fsub float 0.000000e+00, %259		; visa id: 484
  %267 = call float @llvm.genx.GenISA.fma.rtz.f32.f32.f32.f32(float %266, float %265, float %260)		; visa id: 485
  %268 = fsub float 0.000000e+00, %263		; visa id: 486
  %269 = call float @llvm.genx.GenISA.fma.rtz.f32.f32.f32.f32(float %268, float %265, float %264)		; visa id: 487
  %270 = call float @llvm.genx.GenISA.add.rtz.f32.f32.f32(float %267, float %269)		; visa id: 488
  %271 = call float @llvm.genx.GenISA.mul.rtz.f32.f32.f32(float %261, float %270)		; visa id: 489
  %conv19.i6873 = fptoui float %271 to i32		; visa id: 491
  %add20.i6874 = add i32 %conv19.i6873, %conv11.i6870		; visa id: 492
  %mul.i6875 = mul i32 %add20.i6874, %xor.i6797		; visa id: 493
  %sub22.i6876 = sub i32 32, %mul.i6875		; visa id: 494
  %cmp.i6877 = icmp uge i32 %sub22.i6876, %xor.i6797
  %272 = sext i1 %cmp.i6877 to i32		; visa id: 495
  %273 = sub i32 0, %272
  %add24.i6882 = add i32 %add20.i6874, %shr.i6794
  %add29.i6883 = add i32 %add24.i6882, %273		; visa id: 496
  %xor30.i6884 = xor i32 %add29.i6883, %shr.i6794		; visa id: 497
  br label %precompiled_s32divrem_sp.exit6887, !stats.blockFrequency.digits !1228, !stats.blockFrequency.scale !1209		; visa id: 498

precompiled_s32divrem_sp.exit6887:                ; preds = %if.then.i6861, %if.end.i6885
; BB49 :
  %retval.0.i6886 = phi i32 [ %xor30.i6884, %if.end.i6885 ], [ -1, %if.then.i6861 ]
  %274 = add nsw i32 %258, %retval.0.i6886, !spirv.Decorations !1210		; visa id: 499
  %275 = sext i32 %274 to i64		; visa id: 500
  %276 = shl nsw i64 %275, 2		; visa id: 501
  %277 = add i64 %276, %const_reg_qword57		; visa id: 502
  %278 = inttoptr i64 %277 to i32 addrspace(4)*		; visa id: 503
  %279 = addrspacecast i32 addrspace(4)* %278 to i32 addrspace(1)*		; visa id: 503
  %280 = load i32, i32 addrspace(1)* %279, align 4		; visa id: 504
  %281 = mul nsw i32 %280, %qot6738, !spirv.Decorations !1210		; visa id: 505
  br i1 %tobool.i6888, label %if.then.i6889, label %if.end.i6913, !stats.blockFrequency.digits !1226, !stats.blockFrequency.scale !1229		; visa id: 506

if.then.i6889:                                    ; preds = %precompiled_s32divrem_sp.exit6887
; BB50 :
  br label %precompiled_s32divrem_sp.exit6915, !stats.blockFrequency.digits !1208, !stats.blockFrequency.scale !1209		; visa id: 509

if.end.i6913:                                     ; preds = %precompiled_s32divrem_sp.exit6887
; BB51 :
  %282 = call float @llvm.genx.GenISA.uitof.rtz.f32.i32(i32 %xor.i6892)		; visa id: 511
  %conv.i6893 = fptoui float %282 to i32		; visa id: 513
  %sub.i6894 = sub i32 %xor.i6892, %conv.i6893		; visa id: 514
  %283 = call float @llvm.genx.GenISA.uitof.rtz.f32.i32(i32 1)		; visa id: 515
  %div.i6897 = fdiv float 1.000000e+00, %282, !fpmath !1207		; visa id: 516
  %284 = call float @llvm.genx.GenISA.fma.rtz.f32.f32.f32.f32(float %div.i6897, float 0xBE98000000000000, float %div.i6897)		; visa id: 517
  %285 = call float @llvm.genx.GenISA.mul.rtz.f32.f32.f32(float %283, float %284)		; visa id: 518
  %conv6.i6895 = fptoui float %283 to i32		; visa id: 519
  %sub7.i6896 = sub i32 1, %conv6.i6895		; visa id: 520
  %conv11.i6898 = fptoui float %285 to i32		; visa id: 521
  %286 = call float @llvm.genx.GenISA.uitof.rtz.f32.i32(i32 %sub.i6894)		; visa id: 522
  %287 = call float @llvm.genx.GenISA.uitof.rtz.f32.i32(i32 %sub7.i6896)		; visa id: 523
  %288 = call float @llvm.genx.GenISA.uitof.rtz.f32.i32(i32 %conv11.i6898)		; visa id: 524
  %289 = fsub float 0.000000e+00, %282		; visa id: 525
  %290 = call float @llvm.genx.GenISA.fma.rtz.f32.f32.f32.f32(float %289, float %288, float %283)		; visa id: 526
  %291 = fsub float 0.000000e+00, %286		; visa id: 527
  %292 = call float @llvm.genx.GenISA.fma.rtz.f32.f32.f32.f32(float %291, float %288, float %287)		; visa id: 528
  %293 = call float @llvm.genx.GenISA.add.rtz.f32.f32.f32(float %290, float %292)		; visa id: 529
  %294 = call float @llvm.genx.GenISA.mul.rtz.f32.f32.f32(float %284, float %293)		; visa id: 530
  %conv19.i6901 = fptoui float %294 to i32		; visa id: 532
  %add20.i6902 = add i32 %conv19.i6901, %conv11.i6898		; visa id: 533
  %mul.i6903 = mul i32 %add20.i6902, %xor.i6892		; visa id: 534
  %sub22.i6904 = sub i32 1, %mul.i6903		; visa id: 535
  %cmp.i6905.not = icmp ult i32 %sub22.i6904, %xor.i6892		; visa id: 536
  %and25.i6908 = select i1 %cmp.i6905.not, i32 0, i32 %xor.i6892		; visa id: 537
  %add27.i6909 = sub i32 %sub22.i6904, %and25.i6908		; visa id: 538
  br label %precompiled_s32divrem_sp.exit6915, !stats.blockFrequency.digits !1208, !stats.blockFrequency.scale !1209		; visa id: 539

precompiled_s32divrem_sp.exit6915:                ; preds = %if.then.i6889, %if.end.i6913
; BB52 :
  %Remainder6749.0 = phi i32 [ -1, %if.then.i6889 ], [ %add27.i6909, %if.end.i6913 ]
  %295 = add nsw i32 %281, %Remainder6749.0, !spirv.Decorations !1210		; visa id: 540
  %296 = shl nsw i32 %295, 5, !spirv.Decorations !1210		; visa id: 541
  %297 = add nsw i32 %175, %296, !spirv.Decorations !1210		; visa id: 542
  call void @llvm.genx.GenISA.LSC2DBlockSetAddrPayloadField.p4i8.i32(i8 addrspace(4)* %Block2D_AddrPayload122, i32 5, i32 %203, i1 false)		; visa id: 543
  call void @llvm.genx.GenISA.LSC2DBlockSetAddrPayloadField.p4i8.i32(i8 addrspace(4)* %Block2D_AddrPayload122, i32 6, i32 %297, i1 false)		; visa id: 544
  call void asm sideeffect "lsc_load_block2d.ugm.ca.ca (M1, 1)  %null:d$1.$2x$3nn flat[$0+(0,0)]", "rw.u,P,P,P"(i8 addrspace(4)* %Block2D_AddrPayload122, i32 16, i32 32, i32 2) #0		; visa id: 545
  br label %299, !stats.blockFrequency.digits !1226, !stats.blockFrequency.scale !1229		; visa id: 545

298:                                              ; preds = %236
; BB53 :
  call void @llvm.genx.GenISA.LSC2DBlockSetAddrPayloadField.p4i8.i32(i8 addrspace(4)* %Block2D_AddrPayload120, i32 5, i32 %203, i1 false)		; visa id: 547
  call void @llvm.genx.GenISA.LSC2DBlockSetAddrPayloadField.p4i8.i32(i8 addrspace(4)* %Block2D_AddrPayload120, i32 6, i32 %200, i1 false)		; visa id: 548
  call void asm sideeffect "lsc_load_block2d.ugm.ca.ca (M1, 1)  %null:d$1.$2x$3nn flat[$0+(0,0)]", "rw.u,P,P,P"(i8 addrspace(4)* %Block2D_AddrPayload120, i32 16, i32 32, i32 2) #0		; visa id: 549
  br label %299, !stats.blockFrequency.digits !1226, !stats.blockFrequency.scale !1229		; visa id: 549

299:                                              ; preds = %precompiled_s32divrem_sp.exit6915, %298
; BB54 :
  %300 = add nuw nsw i32 %202, 1, !spirv.Decorations !1217		; visa id: 550
  %301 = icmp slt i32 %300, %qot6728		; visa id: 551
  br i1 %301, label %._crit_edge7185, label %.preheader.loopexit, !stats.blockFrequency.digits !1226, !stats.blockFrequency.scale !1227		; visa id: 552

.preheader.loopexit:                              ; preds = %299
; BB:
  br label %.preheader, !stats.blockFrequency.digits !1216, !stats.blockFrequency.scale !1215

._crit_edge7185:                                  ; preds = %299
; BB:
  br label %201, !stats.blockFrequency.digits !1221, !stats.blockFrequency.scale !1227

.preheader:                                       ; preds = %.preheader158..preheader_crit_edge, %cond-add-join6731..preheader_crit_edge, %.preheader.loopexit
; BB57 :
  %302 = mul nsw i32 %const_reg_dword1, %const_reg_dword9, !spirv.Decorations !1210		; visa id: 554
  %303 = mul nsw i32 %302, %51, !spirv.Decorations !1210		; visa id: 555
  %304 = mul nsw i32 %52, %const_reg_dword9, !spirv.Decorations !1210		; visa id: 556
  %305 = sext i32 %303 to i64		; visa id: 557
  %306 = shl nsw i64 %305, 2		; visa id: 558
  %307 = add i64 %306, %const_reg_qword33		; visa id: 559
  %308 = select i1 %129, i32 0, i32 %304		; visa id: 560
  %309 = icmp sgt i32 %75, 0		; visa id: 561
  br i1 %309, label %.lr.ph178, label %.preheader.._crit_edge179_crit_edge, !stats.blockFrequency.digits !1212, !stats.blockFrequency.scale !1206		; visa id: 562

.preheader.._crit_edge179_crit_edge:              ; preds = %.preheader
; BB58 :
  br label %._crit_edge179, !stats.blockFrequency.digits !1214, !stats.blockFrequency.scale !1215		; visa id: 694

.lr.ph178:                                        ; preds = %.preheader
; BB59 :
  %310 = icmp eq i32 %181, 0
  %311 = icmp eq i32 %180, 0		; visa id: 696
  %312 = and i1 %310, %311		; visa id: 697
  %313 = sext i32 %26 to i64		; visa id: 699
  %314 = shl nsw i64 %313, 2		; visa id: 700
  %315 = add i64 %314, %const_reg_qword59		; visa id: 701
  %316 = inttoptr i64 %315 to i32 addrspace(4)*		; visa id: 702
  %317 = addrspacecast i32 addrspace(4)* %316 to i32 addrspace(1)*		; visa id: 702
  %is-neg6739 = icmp slt i32 %const_reg_dword58, 0		; visa id: 703
  br i1 %is-neg6739, label %cond-add6740, label %.lr.ph178.cond-add-join6741_crit_edge, !stats.blockFrequency.digits !1216, !stats.blockFrequency.scale !1213		; visa id: 704

.lr.ph178.cond-add-join6741_crit_edge:            ; preds = %.lr.ph178
; BB60 :
  br label %cond-add-join6741, !stats.blockFrequency.digits !1223, !stats.blockFrequency.scale !1215		; visa id: 707

cond-add6740:                                     ; preds = %.lr.ph178
; BB61 :
  %const_reg_dword586742 = add i32 %const_reg_dword58, 31		; visa id: 709
  br label %cond-add-join6741, !stats.blockFrequency.digits !1236, !stats.blockFrequency.scale !1215		; visa id: 710

cond-add-join6741:                                ; preds = %.lr.ph178.cond-add-join6741_crit_edge, %cond-add6740
; BB62 :
  %const_reg_dword586743 = phi i32 [ %const_reg_dword58, %.lr.ph178.cond-add-join6741_crit_edge ], [ %const_reg_dword586742, %cond-add6740 ]
  %qot6744 = ashr i32 %const_reg_dword586743, 5		; visa id: 711
  %smax195 = call i32 @llvm.smax.i32(i32 %qot6728, i32 1)		; visa id: 712
  %xtraiter196 = and i32 %smax195, 1
  %318 = icmp slt i32 %const_reg_dword8, 33		; visa id: 713
  %unroll_iter199 = and i32 %smax195, 2147483646		; visa id: 714
  %lcmp.mod198.not = icmp eq i32 %xtraiter196, 0		; visa id: 715
  %319 = and i32 %164, 268435328		; visa id: 717
  %320 = or i32 %319, 32		; visa id: 718
  %321 = or i32 %319, 64		; visa id: 719
  %322 = or i32 %319, 96		; visa id: 720
  %tobool.i6916 = icmp eq i32 %const_reg_dword58, 0		; visa id: 721
  %shr.i6918 = ashr i32 %const_reg_dword58, 31		; visa id: 722
  %shr1.i6919 = ashr i32 %75, 31		; visa id: 723
  %add.i6920 = add nsw i32 %shr.i6918, %const_reg_dword58		; visa id: 724
  %xor.i6921 = xor i32 %add.i6920, %shr.i6918		; visa id: 725
  %add2.i6922 = add nsw i32 %shr1.i6919, %75		; visa id: 726
  %xor3.i6923 = xor i32 %add2.i6922, %shr1.i6919		; visa id: 727
  %xor21.i6934 = xor i32 %shr1.i6919, %shr.i6918		; visa id: 728
  %tobool.i6984 = icmp ult i32 %const_reg_dword586743, 32		; visa id: 729
  %shr.i6986 = ashr i32 %const_reg_dword586743, 31		; visa id: 730
  %add.i6988 = add nsw i32 %shr.i6986, %qot6744		; visa id: 731
  %xor.i6989 = xor i32 %add.i6988, %shr.i6986		; visa id: 732
  br label %323, !stats.blockFrequency.digits !1216, !stats.blockFrequency.scale !1213		; visa id: 864

323:                                              ; preds = %_ZZN7cutlass4fmha10collective15FMHAFwdMainloopINS0_9XeDefaultILi2EEELb1ELb1ELb1EN4cute8TiledMMAINS5_8MMA_AtomIJNS5_10XE_DPAS_TTILi8EfNS_10bfloat16_tES9_fEEEEENS5_6LayoutINS5_5tupleIJNS5_1CILi16EEENSE_ILi1EEESG_EEENSD_IJSG_NSE_ILi0EEESI_EEEEEKNSD_IJNSC_INSD_IJNSE_ILi8EEESF_NSE_ILi2EEEEEENSD_IJSG_SF_SL_EEEEENSC_INSE_ILi32EEESG_EESR_EEEEESU_Li4ENS5_6TensorINS5_10ViewEngineINS5_8gmem_ptrIPS9_EEEENSC_INSD_IJiiiiEEENSD_IJiSG_iiEEEEEEES14_NSV_IS10_NSC_IS11_NSD_IJSG_iiiEEEEEEES14_S17_vvvvvEclINSD_IJjjEEEEEvRKNSV_IS10_NSC_INSD_IJiiEEENSD_IJiSG_EEEEEEES1G_RKNSV_IS10_NSC_IS1B_NSD_IJSG_iEEEEEEERNS5_14SubgroupTensorINS5_11ArrayEngineIfLm128EEENSC_INSD_IJSL_SM_SM_NSE_ILi4EEEEEENSD_IJSG_SL_SF_SQ_EEEEENSC_INSD_IJSF_NSD_IJSL_NSD_IJSM_SM_EEES1P_EEEEEENSD_IJNS5_11ScaledBasisISG_JLi1EEEENSD_IJNS1W_ISG_JLi0EEEENSD_IJNS1W_ISL_JLi0EEEENS1W_ISF_JLi1EEEEEEENS1W_ISQ_JLi1EEEEEEEEEEEEEERNSV_INS1N_IfLm1EEENSC_ISG_SI_EEEES2B_T_iiiiiiiiiS1G_S1L_ENKUlS2C_iRT0_RT1_RT2_RT3_RT4_RT5_E_clISt17integral_constantIbLb1EENS5_9TiledCopyINS5_9Copy_Atom._crit_edge, %cond-add-join6741
; BB63 :
  %.sroa.724.1 = phi <8 x float> [ zeroinitializer, %cond-add-join6741 ], [ %1621, %_ZZN7cutlass4fmha10collective15FMHAFwdMainloopINS0_9XeDefaultILi2EEELb1ELb1ELb1EN4cute8TiledMMAINS5_8MMA_AtomIJNS5_10XE_DPAS_TTILi8EfNS_10bfloat16_tES9_fEEEEENS5_6LayoutINS5_5tupleIJNS5_1CILi16EEENSE_ILi1EEESG_EEENSD_IJSG_NSE_ILi0EEESI_EEEEEKNSD_IJNSC_INSD_IJNSE_ILi8EEESF_NSE_ILi2EEEEEENSD_IJSG_SF_SL_EEEEENSC_INSE_ILi32EEESG_EESR_EEEEESU_Li4ENS5_6TensorINS5_10ViewEngineINS5_8gmem_ptrIPS9_EEEENSC_INSD_IJiiiiEEENSD_IJiSG_iiEEEEEEES14_NSV_IS10_NSC_IS11_NSD_IJSG_iiiEEEEEEES14_S17_vvvvvEclINSD_IJjjEEEEEvRKNSV_IS10_NSC_INSD_IJiiEEENSD_IJiSG_EEEEEEES1G_RKNSV_IS10_NSC_IS1B_NSD_IJSG_iEEEEEEERNS5_14SubgroupTensorINS5_11ArrayEngineIfLm128EEENSC_INSD_IJSL_SM_SM_NSE_ILi4EEEEEENSD_IJSG_SL_SF_SQ_EEEEENSC_INSD_IJSF_NSD_IJSL_NSD_IJSM_SM_EEES1P_EEEEEENSD_IJNS5_11ScaledBasisISG_JLi1EEEENSD_IJNS1W_ISG_JLi0EEEENSD_IJNS1W_ISL_JLi0EEEENS1W_ISF_JLi1EEEEEEENS1W_ISQ_JLi1EEEEEEEEEEEEEERNSV_INS1N_IfLm1EEENSC_ISG_SI_EEEES2B_T_iiiiiiiiiS1G_S1L_ENKUlS2C_iRT0_RT1_RT2_RT3_RT4_RT5_E_clISt17integral_constantIbLb1EENS5_9TiledCopyINS5_9Copy_Atom._crit_edge ]
  %.sroa.676.1 = phi <8 x float> [ zeroinitializer, %cond-add-join6741 ], [ %1622, %_ZZN7cutlass4fmha10collective15FMHAFwdMainloopINS0_9XeDefaultILi2EEELb1ELb1ELb1EN4cute8TiledMMAINS5_8MMA_AtomIJNS5_10XE_DPAS_TTILi8EfNS_10bfloat16_tES9_fEEEEENS5_6LayoutINS5_5tupleIJNS5_1CILi16EEENSE_ILi1EEESG_EEENSD_IJSG_NSE_ILi0EEESI_EEEEEKNSD_IJNSC_INSD_IJNSE_ILi8EEESF_NSE_ILi2EEEEEENSD_IJSG_SF_SL_EEEEENSC_INSE_ILi32EEESG_EESR_EEEEESU_Li4ENS5_6TensorINS5_10ViewEngineINS5_8gmem_ptrIPS9_EEEENSC_INSD_IJiiiiEEENSD_IJiSG_iiEEEEEEES14_NSV_IS10_NSC_IS11_NSD_IJSG_iiiEEEEEEES14_S17_vvvvvEclINSD_IJjjEEEEEvRKNSV_IS10_NSC_INSD_IJiiEEENSD_IJiSG_EEEEEEES1G_RKNSV_IS10_NSC_IS1B_NSD_IJSG_iEEEEEEERNS5_14SubgroupTensorINS5_11ArrayEngineIfLm128EEENSC_INSD_IJSL_SM_SM_NSE_ILi4EEEEEENSD_IJSG_SL_SF_SQ_EEEEENSC_INSD_IJSF_NSD_IJSL_NSD_IJSM_SM_EEES1P_EEEEEENSD_IJNS5_11ScaledBasisISG_JLi1EEEENSD_IJNS1W_ISG_JLi0EEEENSD_IJNS1W_ISL_JLi0EEEENS1W_ISF_JLi1EEEEEEENS1W_ISQ_JLi1EEEEEEEEEEEEEERNSV_INS1N_IfLm1EEENSC_ISG_SI_EEEES2B_T_iiiiiiiiiS1G_S1L_ENKUlS2C_iRT0_RT1_RT2_RT3_RT4_RT5_E_clISt17integral_constantIbLb1EENS5_9TiledCopyINS5_9Copy_Atom._crit_edge ]
  %.sroa.628.1 = phi <8 x float> [ zeroinitializer, %cond-add-join6741 ], [ %1620, %_ZZN7cutlass4fmha10collective15FMHAFwdMainloopINS0_9XeDefaultILi2EEELb1ELb1ELb1EN4cute8TiledMMAINS5_8MMA_AtomIJNS5_10XE_DPAS_TTILi8EfNS_10bfloat16_tES9_fEEEEENS5_6LayoutINS5_5tupleIJNS5_1CILi16EEENSE_ILi1EEESG_EEENSD_IJSG_NSE_ILi0EEESI_EEEEEKNSD_IJNSC_INSD_IJNSE_ILi8EEESF_NSE_ILi2EEEEEENSD_IJSG_SF_SL_EEEEENSC_INSE_ILi32EEESG_EESR_EEEEESU_Li4ENS5_6TensorINS5_10ViewEngineINS5_8gmem_ptrIPS9_EEEENSC_INSD_IJiiiiEEENSD_IJiSG_iiEEEEEEES14_NSV_IS10_NSC_IS11_NSD_IJSG_iiiEEEEEEES14_S17_vvvvvEclINSD_IJjjEEEEEvRKNSV_IS10_NSC_INSD_IJiiEEENSD_IJiSG_EEEEEEES1G_RKNSV_IS10_NSC_IS1B_NSD_IJSG_iEEEEEEERNS5_14SubgroupTensorINS5_11ArrayEngineIfLm128EEENSC_INSD_IJSL_SM_SM_NSE_ILi4EEEEEENSD_IJSG_SL_SF_SQ_EEEEENSC_INSD_IJSF_NSD_IJSL_NSD_IJSM_SM_EEES1P_EEEEEENSD_IJNS5_11ScaledBasisISG_JLi1EEEENSD_IJNS1W_ISG_JLi0EEEENSD_IJNS1W_ISL_JLi0EEEENS1W_ISF_JLi1EEEEEEENS1W_ISQ_JLi1EEEEEEEEEEEEEERNSV_INS1N_IfLm1EEENSC_ISG_SI_EEEES2B_T_iiiiiiiiiS1G_S1L_ENKUlS2C_iRT0_RT1_RT2_RT3_RT4_RT5_E_clISt17integral_constantIbLb1EENS5_9TiledCopyINS5_9Copy_Atom._crit_edge ]
  %.sroa.580.1 = phi <8 x float> [ zeroinitializer, %cond-add-join6741 ], [ %1619, %_ZZN7cutlass4fmha10collective15FMHAFwdMainloopINS0_9XeDefaultILi2EEELb1ELb1ELb1EN4cute8TiledMMAINS5_8MMA_AtomIJNS5_10XE_DPAS_TTILi8EfNS_10bfloat16_tES9_fEEEEENS5_6LayoutINS5_5tupleIJNS5_1CILi16EEENSE_ILi1EEESG_EEENSD_IJSG_NSE_ILi0EEESI_EEEEEKNSD_IJNSC_INSD_IJNSE_ILi8EEESF_NSE_ILi2EEEEEENSD_IJSG_SF_SL_EEEEENSC_INSE_ILi32EEESG_EESR_EEEEESU_Li4ENS5_6TensorINS5_10ViewEngineINS5_8gmem_ptrIPS9_EEEENSC_INSD_IJiiiiEEENSD_IJiSG_iiEEEEEEES14_NSV_IS10_NSC_IS11_NSD_IJSG_iiiEEEEEEES14_S17_vvvvvEclINSD_IJjjEEEEEvRKNSV_IS10_NSC_INSD_IJiiEEENSD_IJiSG_EEEEEEES1G_RKNSV_IS10_NSC_IS1B_NSD_IJSG_iEEEEEEERNS5_14SubgroupTensorINS5_11ArrayEngineIfLm128EEENSC_INSD_IJSL_SM_SM_NSE_ILi4EEEEEENSD_IJSG_SL_SF_SQ_EEEEENSC_INSD_IJSF_NSD_IJSL_NSD_IJSM_SM_EEES1P_EEEEEENSD_IJNS5_11ScaledBasisISG_JLi1EEEENSD_IJNS1W_ISG_JLi0EEEENSD_IJNS1W_ISL_JLi0EEEENS1W_ISF_JLi1EEEEEEENS1W_ISQ_JLi1EEEEEEEEEEEEEERNSV_INS1N_IfLm1EEENSC_ISG_SI_EEEES2B_T_iiiiiiiiiS1G_S1L_ENKUlS2C_iRT0_RT1_RT2_RT3_RT4_RT5_E_clISt17integral_constantIbLb1EENS5_9TiledCopyINS5_9Copy_Atom._crit_edge ]
  %.sroa.532.1 = phi <8 x float> [ zeroinitializer, %cond-add-join6741 ], [ %1483, %_ZZN7cutlass4fmha10collective15FMHAFwdMainloopINS0_9XeDefaultILi2EEELb1ELb1ELb1EN4cute8TiledMMAINS5_8MMA_AtomIJNS5_10XE_DPAS_TTILi8EfNS_10bfloat16_tES9_fEEEEENS5_6LayoutINS5_5tupleIJNS5_1CILi16EEENSE_ILi1EEESG_EEENSD_IJSG_NSE_ILi0EEESI_EEEEEKNSD_IJNSC_INSD_IJNSE_ILi8EEESF_NSE_ILi2EEEEEENSD_IJSG_SF_SL_EEEEENSC_INSE_ILi32EEESG_EESR_EEEEESU_Li4ENS5_6TensorINS5_10ViewEngineINS5_8gmem_ptrIPS9_EEEENSC_INSD_IJiiiiEEENSD_IJiSG_iiEEEEEEES14_NSV_IS10_NSC_IS11_NSD_IJSG_iiiEEEEEEES14_S17_vvvvvEclINSD_IJjjEEEEEvRKNSV_IS10_NSC_INSD_IJiiEEENSD_IJiSG_EEEEEEES1G_RKNSV_IS10_NSC_IS1B_NSD_IJSG_iEEEEEEERNS5_14SubgroupTensorINS5_11ArrayEngineIfLm128EEENSC_INSD_IJSL_SM_SM_NSE_ILi4EEEEEENSD_IJSG_SL_SF_SQ_EEEEENSC_INSD_IJSF_NSD_IJSL_NSD_IJSM_SM_EEES1P_EEEEEENSD_IJNS5_11ScaledBasisISG_JLi1EEEENSD_IJNS1W_ISG_JLi0EEEENSD_IJNS1W_ISL_JLi0EEEENS1W_ISF_JLi1EEEEEEENS1W_ISQ_JLi1EEEEEEEEEEEEEERNSV_INS1N_IfLm1EEENSC_ISG_SI_EEEES2B_T_iiiiiiiiiS1G_S1L_ENKUlS2C_iRT0_RT1_RT2_RT3_RT4_RT5_E_clISt17integral_constantIbLb1EENS5_9TiledCopyINS5_9Copy_Atom._crit_edge ]
  %.sroa.484.1 = phi <8 x float> [ zeroinitializer, %cond-add-join6741 ], [ %1484, %_ZZN7cutlass4fmha10collective15FMHAFwdMainloopINS0_9XeDefaultILi2EEELb1ELb1ELb1EN4cute8TiledMMAINS5_8MMA_AtomIJNS5_10XE_DPAS_TTILi8EfNS_10bfloat16_tES9_fEEEEENS5_6LayoutINS5_5tupleIJNS5_1CILi16EEENSE_ILi1EEESG_EEENSD_IJSG_NSE_ILi0EEESI_EEEEEKNSD_IJNSC_INSD_IJNSE_ILi8EEESF_NSE_ILi2EEEEEENSD_IJSG_SF_SL_EEEEENSC_INSE_ILi32EEESG_EESR_EEEEESU_Li4ENS5_6TensorINS5_10ViewEngineINS5_8gmem_ptrIPS9_EEEENSC_INSD_IJiiiiEEENSD_IJiSG_iiEEEEEEES14_NSV_IS10_NSC_IS11_NSD_IJSG_iiiEEEEEEES14_S17_vvvvvEclINSD_IJjjEEEEEvRKNSV_IS10_NSC_INSD_IJiiEEENSD_IJiSG_EEEEEEES1G_RKNSV_IS10_NSC_IS1B_NSD_IJSG_iEEEEEEERNS5_14SubgroupTensorINS5_11ArrayEngineIfLm128EEENSC_INSD_IJSL_SM_SM_NSE_ILi4EEEEEENSD_IJSG_SL_SF_SQ_EEEEENSC_INSD_IJSF_NSD_IJSL_NSD_IJSM_SM_EEES1P_EEEEEENSD_IJNS5_11ScaledBasisISG_JLi1EEEENSD_IJNS1W_ISG_JLi0EEEENSD_IJNS1W_ISL_JLi0EEEENS1W_ISF_JLi1EEEEEEENS1W_ISQ_JLi1EEEEEEEEEEEEEERNSV_INS1N_IfLm1EEENSC_ISG_SI_EEEES2B_T_iiiiiiiiiS1G_S1L_ENKUlS2C_iRT0_RT1_RT2_RT3_RT4_RT5_E_clISt17integral_constantIbLb1EENS5_9TiledCopyINS5_9Copy_Atom._crit_edge ]
  %.sroa.436.1 = phi <8 x float> [ zeroinitializer, %cond-add-join6741 ], [ %1482, %_ZZN7cutlass4fmha10collective15FMHAFwdMainloopINS0_9XeDefaultILi2EEELb1ELb1ELb1EN4cute8TiledMMAINS5_8MMA_AtomIJNS5_10XE_DPAS_TTILi8EfNS_10bfloat16_tES9_fEEEEENS5_6LayoutINS5_5tupleIJNS5_1CILi16EEENSE_ILi1EEESG_EEENSD_IJSG_NSE_ILi0EEESI_EEEEEKNSD_IJNSC_INSD_IJNSE_ILi8EEESF_NSE_ILi2EEEEEENSD_IJSG_SF_SL_EEEEENSC_INSE_ILi32EEESG_EESR_EEEEESU_Li4ENS5_6TensorINS5_10ViewEngineINS5_8gmem_ptrIPS9_EEEENSC_INSD_IJiiiiEEENSD_IJiSG_iiEEEEEEES14_NSV_IS10_NSC_IS11_NSD_IJSG_iiiEEEEEEES14_S17_vvvvvEclINSD_IJjjEEEEEvRKNSV_IS10_NSC_INSD_IJiiEEENSD_IJiSG_EEEEEEES1G_RKNSV_IS10_NSC_IS1B_NSD_IJSG_iEEEEEEERNS5_14SubgroupTensorINS5_11ArrayEngineIfLm128EEENSC_INSD_IJSL_SM_SM_NSE_ILi4EEEEEENSD_IJSG_SL_SF_SQ_EEEEENSC_INSD_IJSF_NSD_IJSL_NSD_IJSM_SM_EEES1P_EEEEEENSD_IJNS5_11ScaledBasisISG_JLi1EEEENSD_IJNS1W_ISG_JLi0EEEENSD_IJNS1W_ISL_JLi0EEEENS1W_ISF_JLi1EEEEEEENS1W_ISQ_JLi1EEEEEEEEEEEEEERNSV_INS1N_IfLm1EEENSC_ISG_SI_EEEES2B_T_iiiiiiiiiS1G_S1L_ENKUlS2C_iRT0_RT1_RT2_RT3_RT4_RT5_E_clISt17integral_constantIbLb1EENS5_9TiledCopyINS5_9Copy_Atom._crit_edge ]
  %.sroa.388.1 = phi <8 x float> [ zeroinitializer, %cond-add-join6741 ], [ %1481, %_ZZN7cutlass4fmha10collective15FMHAFwdMainloopINS0_9XeDefaultILi2EEELb1ELb1ELb1EN4cute8TiledMMAINS5_8MMA_AtomIJNS5_10XE_DPAS_TTILi8EfNS_10bfloat16_tES9_fEEEEENS5_6LayoutINS5_5tupleIJNS5_1CILi16EEENSE_ILi1EEESG_EEENSD_IJSG_NSE_ILi0EEESI_EEEEEKNSD_IJNSC_INSD_IJNSE_ILi8EEESF_NSE_ILi2EEEEEENSD_IJSG_SF_SL_EEEEENSC_INSE_ILi32EEESG_EESR_EEEEESU_Li4ENS5_6TensorINS5_10ViewEngineINS5_8gmem_ptrIPS9_EEEENSC_INSD_IJiiiiEEENSD_IJiSG_iiEEEEEEES14_NSV_IS10_NSC_IS11_NSD_IJSG_iiiEEEEEEES14_S17_vvvvvEclINSD_IJjjEEEEEvRKNSV_IS10_NSC_INSD_IJiiEEENSD_IJiSG_EEEEEEES1G_RKNSV_IS10_NSC_IS1B_NSD_IJSG_iEEEEEEERNS5_14SubgroupTensorINS5_11ArrayEngineIfLm128EEENSC_INSD_IJSL_SM_SM_NSE_ILi4EEEEEENSD_IJSG_SL_SF_SQ_EEEEENSC_INSD_IJSF_NSD_IJSL_NSD_IJSM_SM_EEES1P_EEEEEENSD_IJNS5_11ScaledBasisISG_JLi1EEEENSD_IJNS1W_ISG_JLi0EEEENSD_IJNS1W_ISL_JLi0EEEENS1W_ISF_JLi1EEEEEEENS1W_ISQ_JLi1EEEEEEEEEEEEEERNSV_INS1N_IfLm1EEENSC_ISG_SI_EEEES2B_T_iiiiiiiiiS1G_S1L_ENKUlS2C_iRT0_RT1_RT2_RT3_RT4_RT5_E_clISt17integral_constantIbLb1EENS5_9TiledCopyINS5_9Copy_Atom._crit_edge ]
  %.sroa.340.1 = phi <8 x float> [ zeroinitializer, %cond-add-join6741 ], [ %1345, %_ZZN7cutlass4fmha10collective15FMHAFwdMainloopINS0_9XeDefaultILi2EEELb1ELb1ELb1EN4cute8TiledMMAINS5_8MMA_AtomIJNS5_10XE_DPAS_TTILi8EfNS_10bfloat16_tES9_fEEEEENS5_6LayoutINS5_5tupleIJNS5_1CILi16EEENSE_ILi1EEESG_EEENSD_IJSG_NSE_ILi0EEESI_EEEEEKNSD_IJNSC_INSD_IJNSE_ILi8EEESF_NSE_ILi2EEEEEENSD_IJSG_SF_SL_EEEEENSC_INSE_ILi32EEESG_EESR_EEEEESU_Li4ENS5_6TensorINS5_10ViewEngineINS5_8gmem_ptrIPS9_EEEENSC_INSD_IJiiiiEEENSD_IJiSG_iiEEEEEEES14_NSV_IS10_NSC_IS11_NSD_IJSG_iiiEEEEEEES14_S17_vvvvvEclINSD_IJjjEEEEEvRKNSV_IS10_NSC_INSD_IJiiEEENSD_IJiSG_EEEEEEES1G_RKNSV_IS10_NSC_IS1B_NSD_IJSG_iEEEEEEERNS5_14SubgroupTensorINS5_11ArrayEngineIfLm128EEENSC_INSD_IJSL_SM_SM_NSE_ILi4EEEEEENSD_IJSG_SL_SF_SQ_EEEEENSC_INSD_IJSF_NSD_IJSL_NSD_IJSM_SM_EEES1P_EEEEEENSD_IJNS5_11ScaledBasisISG_JLi1EEEENSD_IJNS1W_ISG_JLi0EEEENSD_IJNS1W_ISL_JLi0EEEENS1W_ISF_JLi1EEEEEEENS1W_ISQ_JLi1EEEEEEEEEEEEEERNSV_INS1N_IfLm1EEENSC_ISG_SI_EEEES2B_T_iiiiiiiiiS1G_S1L_ENKUlS2C_iRT0_RT1_RT2_RT3_RT4_RT5_E_clISt17integral_constantIbLb1EENS5_9TiledCopyINS5_9Copy_Atom._crit_edge ]
  %.sroa.292.1 = phi <8 x float> [ zeroinitializer, %cond-add-join6741 ], [ %1346, %_ZZN7cutlass4fmha10collective15FMHAFwdMainloopINS0_9XeDefaultILi2EEELb1ELb1ELb1EN4cute8TiledMMAINS5_8MMA_AtomIJNS5_10XE_DPAS_TTILi8EfNS_10bfloat16_tES9_fEEEEENS5_6LayoutINS5_5tupleIJNS5_1CILi16EEENSE_ILi1EEESG_EEENSD_IJSG_NSE_ILi0EEESI_EEEEEKNSD_IJNSC_INSD_IJNSE_ILi8EEESF_NSE_ILi2EEEEEENSD_IJSG_SF_SL_EEEEENSC_INSE_ILi32EEESG_EESR_EEEEESU_Li4ENS5_6TensorINS5_10ViewEngineINS5_8gmem_ptrIPS9_EEEENSC_INSD_IJiiiiEEENSD_IJiSG_iiEEEEEEES14_NSV_IS10_NSC_IS11_NSD_IJSG_iiiEEEEEEES14_S17_vvvvvEclINSD_IJjjEEEEEvRKNSV_IS10_NSC_INSD_IJiiEEENSD_IJiSG_EEEEEEES1G_RKNSV_IS10_NSC_IS1B_NSD_IJSG_iEEEEEEERNS5_14SubgroupTensorINS5_11ArrayEngineIfLm128EEENSC_INSD_IJSL_SM_SM_NSE_ILi4EEEEEENSD_IJSG_SL_SF_SQ_EEEEENSC_INSD_IJSF_NSD_IJSL_NSD_IJSM_SM_EEES1P_EEEEEENSD_IJNS5_11ScaledBasisISG_JLi1EEEENSD_IJNS1W_ISG_JLi0EEEENSD_IJNS1W_ISL_JLi0EEEENS1W_ISF_JLi1EEEEEEENS1W_ISQ_JLi1EEEEEEEEEEEEEERNSV_INS1N_IfLm1EEENSC_ISG_SI_EEEES2B_T_iiiiiiiiiS1G_S1L_ENKUlS2C_iRT0_RT1_RT2_RT3_RT4_RT5_E_clISt17integral_constantIbLb1EENS5_9TiledCopyINS5_9Copy_Atom._crit_edge ]
  %.sroa.244.1 = phi <8 x float> [ zeroinitializer, %cond-add-join6741 ], [ %1344, %_ZZN7cutlass4fmha10collective15FMHAFwdMainloopINS0_9XeDefaultILi2EEELb1ELb1ELb1EN4cute8TiledMMAINS5_8MMA_AtomIJNS5_10XE_DPAS_TTILi8EfNS_10bfloat16_tES9_fEEEEENS5_6LayoutINS5_5tupleIJNS5_1CILi16EEENSE_ILi1EEESG_EEENSD_IJSG_NSE_ILi0EEESI_EEEEEKNSD_IJNSC_INSD_IJNSE_ILi8EEESF_NSE_ILi2EEEEEENSD_IJSG_SF_SL_EEEEENSC_INSE_ILi32EEESG_EESR_EEEEESU_Li4ENS5_6TensorINS5_10ViewEngineINS5_8gmem_ptrIPS9_EEEENSC_INSD_IJiiiiEEENSD_IJiSG_iiEEEEEEES14_NSV_IS10_NSC_IS11_NSD_IJSG_iiiEEEEEEES14_S17_vvvvvEclINSD_IJjjEEEEEvRKNSV_IS10_NSC_INSD_IJiiEEENSD_IJiSG_EEEEEEES1G_RKNSV_IS10_NSC_IS1B_NSD_IJSG_iEEEEEEERNS5_14SubgroupTensorINS5_11ArrayEngineIfLm128EEENSC_INSD_IJSL_SM_SM_NSE_ILi4EEEEEENSD_IJSG_SL_SF_SQ_EEEEENSC_INSD_IJSF_NSD_IJSL_NSD_IJSM_SM_EEES1P_EEEEEENSD_IJNS5_11ScaledBasisISG_JLi1EEEENSD_IJNS1W_ISG_JLi0EEEENSD_IJNS1W_ISL_JLi0EEEENS1W_ISF_JLi1EEEEEEENS1W_ISQ_JLi1EEEEEEEEEEEEEERNSV_INS1N_IfLm1EEENSC_ISG_SI_EEEES2B_T_iiiiiiiiiS1G_S1L_ENKUlS2C_iRT0_RT1_RT2_RT3_RT4_RT5_E_clISt17integral_constantIbLb1EENS5_9TiledCopyINS5_9Copy_Atom._crit_edge ]
  %.sroa.196.1 = phi <8 x float> [ zeroinitializer, %cond-add-join6741 ], [ %1343, %_ZZN7cutlass4fmha10collective15FMHAFwdMainloopINS0_9XeDefaultILi2EEELb1ELb1ELb1EN4cute8TiledMMAINS5_8MMA_AtomIJNS5_10XE_DPAS_TTILi8EfNS_10bfloat16_tES9_fEEEEENS5_6LayoutINS5_5tupleIJNS5_1CILi16EEENSE_ILi1EEESG_EEENSD_IJSG_NSE_ILi0EEESI_EEEEEKNSD_IJNSC_INSD_IJNSE_ILi8EEESF_NSE_ILi2EEEEEENSD_IJSG_SF_SL_EEEEENSC_INSE_ILi32EEESG_EESR_EEEEESU_Li4ENS5_6TensorINS5_10ViewEngineINS5_8gmem_ptrIPS9_EEEENSC_INSD_IJiiiiEEENSD_IJiSG_iiEEEEEEES14_NSV_IS10_NSC_IS11_NSD_IJSG_iiiEEEEEEES14_S17_vvvvvEclINSD_IJjjEEEEEvRKNSV_IS10_NSC_INSD_IJiiEEENSD_IJiSG_EEEEEEES1G_RKNSV_IS10_NSC_IS1B_NSD_IJSG_iEEEEEEERNS5_14SubgroupTensorINS5_11ArrayEngineIfLm128EEENSC_INSD_IJSL_SM_SM_NSE_ILi4EEEEEENSD_IJSG_SL_SF_SQ_EEEEENSC_INSD_IJSF_NSD_IJSL_NSD_IJSM_SM_EEES1P_EEEEEENSD_IJNS5_11ScaledBasisISG_JLi1EEEENSD_IJNS1W_ISG_JLi0EEEENSD_IJNS1W_ISL_JLi0EEEENS1W_ISF_JLi1EEEEEEENS1W_ISQ_JLi1EEEEEEEEEEEEEERNSV_INS1N_IfLm1EEENSC_ISG_SI_EEEES2B_T_iiiiiiiiiS1G_S1L_ENKUlS2C_iRT0_RT1_RT2_RT3_RT4_RT5_E_clISt17integral_constantIbLb1EENS5_9TiledCopyINS5_9Copy_Atom._crit_edge ]
  %.sroa.148.1 = phi <8 x float> [ zeroinitializer, %cond-add-join6741 ], [ %1207, %_ZZN7cutlass4fmha10collective15FMHAFwdMainloopINS0_9XeDefaultILi2EEELb1ELb1ELb1EN4cute8TiledMMAINS5_8MMA_AtomIJNS5_10XE_DPAS_TTILi8EfNS_10bfloat16_tES9_fEEEEENS5_6LayoutINS5_5tupleIJNS5_1CILi16EEENSE_ILi1EEESG_EEENSD_IJSG_NSE_ILi0EEESI_EEEEEKNSD_IJNSC_INSD_IJNSE_ILi8EEESF_NSE_ILi2EEEEEENSD_IJSG_SF_SL_EEEEENSC_INSE_ILi32EEESG_EESR_EEEEESU_Li4ENS5_6TensorINS5_10ViewEngineINS5_8gmem_ptrIPS9_EEEENSC_INSD_IJiiiiEEENSD_IJiSG_iiEEEEEEES14_NSV_IS10_NSC_IS11_NSD_IJSG_iiiEEEEEEES14_S17_vvvvvEclINSD_IJjjEEEEEvRKNSV_IS10_NSC_INSD_IJiiEEENSD_IJiSG_EEEEEEES1G_RKNSV_IS10_NSC_IS1B_NSD_IJSG_iEEEEEEERNS5_14SubgroupTensorINS5_11ArrayEngineIfLm128EEENSC_INSD_IJSL_SM_SM_NSE_ILi4EEEEEENSD_IJSG_SL_SF_SQ_EEEEENSC_INSD_IJSF_NSD_IJSL_NSD_IJSM_SM_EEES1P_EEEEEENSD_IJNS5_11ScaledBasisISG_JLi1EEEENSD_IJNS1W_ISG_JLi0EEEENSD_IJNS1W_ISL_JLi0EEEENS1W_ISF_JLi1EEEEEEENS1W_ISQ_JLi1EEEEEEEEEEEEEERNSV_INS1N_IfLm1EEENSC_ISG_SI_EEEES2B_T_iiiiiiiiiS1G_S1L_ENKUlS2C_iRT0_RT1_RT2_RT3_RT4_RT5_E_clISt17integral_constantIbLb1EENS5_9TiledCopyINS5_9Copy_Atom._crit_edge ]
  %.sroa.100.1 = phi <8 x float> [ zeroinitializer, %cond-add-join6741 ], [ %1208, %_ZZN7cutlass4fmha10collective15FMHAFwdMainloopINS0_9XeDefaultILi2EEELb1ELb1ELb1EN4cute8TiledMMAINS5_8MMA_AtomIJNS5_10XE_DPAS_TTILi8EfNS_10bfloat16_tES9_fEEEEENS5_6LayoutINS5_5tupleIJNS5_1CILi16EEENSE_ILi1EEESG_EEENSD_IJSG_NSE_ILi0EEESI_EEEEEKNSD_IJNSC_INSD_IJNSE_ILi8EEESF_NSE_ILi2EEEEEENSD_IJSG_SF_SL_EEEEENSC_INSE_ILi32EEESG_EESR_EEEEESU_Li4ENS5_6TensorINS5_10ViewEngineINS5_8gmem_ptrIPS9_EEEENSC_INSD_IJiiiiEEENSD_IJiSG_iiEEEEEEES14_NSV_IS10_NSC_IS11_NSD_IJSG_iiiEEEEEEES14_S17_vvvvvEclINSD_IJjjEEEEEvRKNSV_IS10_NSC_INSD_IJiiEEENSD_IJiSG_EEEEEEES1G_RKNSV_IS10_NSC_IS1B_NSD_IJSG_iEEEEEEERNS5_14SubgroupTensorINS5_11ArrayEngineIfLm128EEENSC_INSD_IJSL_SM_SM_NSE_ILi4EEEEEENSD_IJSG_SL_SF_SQ_EEEEENSC_INSD_IJSF_NSD_IJSL_NSD_IJSM_SM_EEES1P_EEEEEENSD_IJNS5_11ScaledBasisISG_JLi1EEEENSD_IJNS1W_ISG_JLi0EEEENSD_IJNS1W_ISL_JLi0EEEENS1W_ISF_JLi1EEEEEEENS1W_ISQ_JLi1EEEEEEEEEEEEEERNSV_INS1N_IfLm1EEENSC_ISG_SI_EEEES2B_T_iiiiiiiiiS1G_S1L_ENKUlS2C_iRT0_RT1_RT2_RT3_RT4_RT5_E_clISt17integral_constantIbLb1EENS5_9TiledCopyINS5_9Copy_Atom._crit_edge ]
  %.sroa.52.1 = phi <8 x float> [ zeroinitializer, %cond-add-join6741 ], [ %1206, %_ZZN7cutlass4fmha10collective15FMHAFwdMainloopINS0_9XeDefaultILi2EEELb1ELb1ELb1EN4cute8TiledMMAINS5_8MMA_AtomIJNS5_10XE_DPAS_TTILi8EfNS_10bfloat16_tES9_fEEEEENS5_6LayoutINS5_5tupleIJNS5_1CILi16EEENSE_ILi1EEESG_EEENSD_IJSG_NSE_ILi0EEESI_EEEEEKNSD_IJNSC_INSD_IJNSE_ILi8EEESF_NSE_ILi2EEEEEENSD_IJSG_SF_SL_EEEEENSC_INSE_ILi32EEESG_EESR_EEEEESU_Li4ENS5_6TensorINS5_10ViewEngineINS5_8gmem_ptrIPS9_EEEENSC_INSD_IJiiiiEEENSD_IJiSG_iiEEEEEEES14_NSV_IS10_NSC_IS11_NSD_IJSG_iiiEEEEEEES14_S17_vvvvvEclINSD_IJjjEEEEEvRKNSV_IS10_NSC_INSD_IJiiEEENSD_IJiSG_EEEEEEES1G_RKNSV_IS10_NSC_IS1B_NSD_IJSG_iEEEEEEERNS5_14SubgroupTensorINS5_11ArrayEngineIfLm128EEENSC_INSD_IJSL_SM_SM_NSE_ILi4EEEEEENSD_IJSG_SL_SF_SQ_EEEEENSC_INSD_IJSF_NSD_IJSL_NSD_IJSM_SM_EEES1P_EEEEEENSD_IJNS5_11ScaledBasisISG_JLi1EEEENSD_IJNS1W_ISG_JLi0EEEENSD_IJNS1W_ISL_JLi0EEEENS1W_ISF_JLi1EEEEEEENS1W_ISQ_JLi1EEEEEEEEEEEEEERNSV_INS1N_IfLm1EEENSC_ISG_SI_EEEES2B_T_iiiiiiiiiS1G_S1L_ENKUlS2C_iRT0_RT1_RT2_RT3_RT4_RT5_E_clISt17integral_constantIbLb1EENS5_9TiledCopyINS5_9Copy_Atom._crit_edge ]
  %.sroa.0.1 = phi <8 x float> [ zeroinitializer, %cond-add-join6741 ], [ %1205, %_ZZN7cutlass4fmha10collective15FMHAFwdMainloopINS0_9XeDefaultILi2EEELb1ELb1ELb1EN4cute8TiledMMAINS5_8MMA_AtomIJNS5_10XE_DPAS_TTILi8EfNS_10bfloat16_tES9_fEEEEENS5_6LayoutINS5_5tupleIJNS5_1CILi16EEENSE_ILi1EEESG_EEENSD_IJSG_NSE_ILi0EEESI_EEEEEKNSD_IJNSC_INSD_IJNSE_ILi8EEESF_NSE_ILi2EEEEEENSD_IJSG_SF_SL_EEEEENSC_INSE_ILi32EEESG_EESR_EEEEESU_Li4ENS5_6TensorINS5_10ViewEngineINS5_8gmem_ptrIPS9_EEEENSC_INSD_IJiiiiEEENSD_IJiSG_iiEEEEEEES14_NSV_IS10_NSC_IS11_NSD_IJSG_iiiEEEEEEES14_S17_vvvvvEclINSD_IJjjEEEEEvRKNSV_IS10_NSC_INSD_IJiiEEENSD_IJiSG_EEEEEEES1G_RKNSV_IS10_NSC_IS1B_NSD_IJSG_iEEEEEEERNS5_14SubgroupTensorINS5_11ArrayEngineIfLm128EEENSC_INSD_IJSL_SM_SM_NSE_ILi4EEEEEENSD_IJSG_SL_SF_SQ_EEEEENSC_INSD_IJSF_NSD_IJSL_NSD_IJSM_SM_EEES1P_EEEEEENSD_IJNS5_11ScaledBasisISG_JLi1EEEENSD_IJNS1W_ISG_JLi0EEEENSD_IJNS1W_ISL_JLi0EEEENS1W_ISF_JLi1EEEEEEENS1W_ISQ_JLi1EEEEEEEEEEEEEERNSV_INS1N_IfLm1EEENSC_ISG_SI_EEEES2B_T_iiiiiiiiiS1G_S1L_ENKUlS2C_iRT0_RT1_RT2_RT3_RT4_RT5_E_clISt17integral_constantIbLb1EENS5_9TiledCopyINS5_9Copy_Atom._crit_edge ]
  %324 = phi i32 [ 0, %cond-add-join6741 ], [ %1699, %_ZZN7cutlass4fmha10collective15FMHAFwdMainloopINS0_9XeDefaultILi2EEELb1ELb1ELb1EN4cute8TiledMMAINS5_8MMA_AtomIJNS5_10XE_DPAS_TTILi8EfNS_10bfloat16_tES9_fEEEEENS5_6LayoutINS5_5tupleIJNS5_1CILi16EEENSE_ILi1EEESG_EEENSD_IJSG_NSE_ILi0EEESI_EEEEEKNSD_IJNSC_INSD_IJNSE_ILi8EEESF_NSE_ILi2EEEEEENSD_IJSG_SF_SL_EEEEENSC_INSE_ILi32EEESG_EESR_EEEEESU_Li4ENS5_6TensorINS5_10ViewEngineINS5_8gmem_ptrIPS9_EEEENSC_INSD_IJiiiiEEENSD_IJiSG_iiEEEEEEES14_NSV_IS10_NSC_IS11_NSD_IJSG_iiiEEEEEEES14_S17_vvvvvEclINSD_IJjjEEEEEvRKNSV_IS10_NSC_INSD_IJiiEEENSD_IJiSG_EEEEEEES1G_RKNSV_IS10_NSC_IS1B_NSD_IJSG_iEEEEEEERNS5_14SubgroupTensorINS5_11ArrayEngineIfLm128EEENSC_INSD_IJSL_SM_SM_NSE_ILi4EEEEEENSD_IJSG_SL_SF_SQ_EEEEENSC_INSD_IJSF_NSD_IJSL_NSD_IJSM_SM_EEES1P_EEEEEENSD_IJNS5_11ScaledBasisISG_JLi1EEEENSD_IJNS1W_ISG_JLi0EEEENSD_IJNS1W_ISL_JLi0EEEENS1W_ISF_JLi1EEEEEEENS1W_ISQ_JLi1EEEEEEEEEEEEEERNSV_INS1N_IfLm1EEENSC_ISG_SI_EEEES2B_T_iiiiiiiiiS1G_S1L_ENKUlS2C_iRT0_RT1_RT2_RT3_RT4_RT5_E_clISt17integral_constantIbLb1EENS5_9TiledCopyINS5_9Copy_Atom._crit_edge ]
  %.sroa.0215.1176 = phi float [ 0xC7EFFFFFE0000000, %cond-add-join6741 ], [ %696, %_ZZN7cutlass4fmha10collective15FMHAFwdMainloopINS0_9XeDefaultILi2EEELb1ELb1ELb1EN4cute8TiledMMAINS5_8MMA_AtomIJNS5_10XE_DPAS_TTILi8EfNS_10bfloat16_tES9_fEEEEENS5_6LayoutINS5_5tupleIJNS5_1CILi16EEENSE_ILi1EEESG_EEENSD_IJSG_NSE_ILi0EEESI_EEEEEKNSD_IJNSC_INSD_IJNSE_ILi8EEESF_NSE_ILi2EEEEEENSD_IJSG_SF_SL_EEEEENSC_INSE_ILi32EEESG_EESR_EEEEESU_Li4ENS5_6TensorINS5_10ViewEngineINS5_8gmem_ptrIPS9_EEEENSC_INSD_IJiiiiEEENSD_IJiSG_iiEEEEEEES14_NSV_IS10_NSC_IS11_NSD_IJSG_iiiEEEEEEES14_S17_vvvvvEclINSD_IJjjEEEEEvRKNSV_IS10_NSC_INSD_IJiiEEENSD_IJiSG_EEEEEEES1G_RKNSV_IS10_NSC_IS1B_NSD_IJSG_iEEEEEEERNS5_14SubgroupTensorINS5_11ArrayEngineIfLm128EEENSC_INSD_IJSL_SM_SM_NSE_ILi4EEEEEENSD_IJSG_SL_SF_SQ_EEEEENSC_INSD_IJSF_NSD_IJSL_NSD_IJSM_SM_EEES1P_EEEEEENSD_IJNS5_11ScaledBasisISG_JLi1EEEENSD_IJNS1W_ISG_JLi0EEEENSD_IJNS1W_ISL_JLi0EEEENS1W_ISF_JLi1EEEEEEENS1W_ISQ_JLi1EEEEEEEEEEEEEERNSV_INS1N_IfLm1EEENSC_ISG_SI_EEEES2B_T_iiiiiiiiiS1G_S1L_ENKUlS2C_iRT0_RT1_RT2_RT3_RT4_RT5_E_clISt17integral_constantIbLb1EENS5_9TiledCopyINS5_9Copy_Atom._crit_edge ]
  %.sroa.0206.1175 = phi float [ 0.000000e+00, %cond-add-join6741 ], [ %1623, %_ZZN7cutlass4fmha10collective15FMHAFwdMainloopINS0_9XeDefaultILi2EEELb1ELb1ELb1EN4cute8TiledMMAINS5_8MMA_AtomIJNS5_10XE_DPAS_TTILi8EfNS_10bfloat16_tES9_fEEEEENS5_6LayoutINS5_5tupleIJNS5_1CILi16EEENSE_ILi1EEESG_EEENSD_IJSG_NSE_ILi0EEESI_EEEEEKNSD_IJNSC_INSD_IJNSE_ILi8EEESF_NSE_ILi2EEEEEENSD_IJSG_SF_SL_EEEEENSC_INSE_ILi32EEESG_EESR_EEEEESU_Li4ENS5_6TensorINS5_10ViewEngineINS5_8gmem_ptrIPS9_EEEENSC_INSD_IJiiiiEEENSD_IJiSG_iiEEEEEEES14_NSV_IS10_NSC_IS11_NSD_IJSG_iiiEEEEEEES14_S17_vvvvvEclINSD_IJjjEEEEEvRKNSV_IS10_NSC_INSD_IJiiEEENSD_IJiSG_EEEEEEES1G_RKNSV_IS10_NSC_IS1B_NSD_IJSG_iEEEEEEERNS5_14SubgroupTensorINS5_11ArrayEngineIfLm128EEENSC_INSD_IJSL_SM_SM_NSE_ILi4EEEEEENSD_IJSG_SL_SF_SQ_EEEEENSC_INSD_IJSF_NSD_IJSL_NSD_IJSM_SM_EEES1P_EEEEEENSD_IJNS5_11ScaledBasisISG_JLi1EEEENSD_IJNS1W_ISG_JLi0EEEENSD_IJNS1W_ISL_JLi0EEEENS1W_ISF_JLi1EEEEEEENS1W_ISQ_JLi1EEEEEEEEEEEEEERNSV_INS1N_IfLm1EEENSC_ISG_SI_EEEES2B_T_iiiiiiiiiS1G_S1L_ENKUlS2C_iRT0_RT1_RT2_RT3_RT4_RT5_E_clISt17integral_constantIbLb1EENS5_9TiledCopyINS5_9Copy_Atom._crit_edge ]
  br i1 %312, label %325, label %342, !stats.blockFrequency.digits !1219, !stats.blockFrequency.scale !1220		; visa id: 865

325:                                              ; preds = %323
; BB64 :
  br i1 %tobool.i6916, label %if.then.i6917, label %if.end.i6947, !stats.blockFrequency.digits !1226, !stats.blockFrequency.scale !1227		; visa id: 867

if.then.i6917:                                    ; preds = %325
; BB65 :
  br label %precompiled_s32divrem_sp.exit6949, !stats.blockFrequency.digits !1232, !stats.blockFrequency.scale !1229		; visa id: 870

if.end.i6947:                                     ; preds = %325
; BB66 :
  %326 = call float @llvm.genx.GenISA.uitof.rtz.f32.i32(i32 %xor.i6921)		; visa id: 872
  %conv.i6924 = fptoui float %326 to i32		; visa id: 874
  %sub.i6925 = sub i32 %xor.i6921, %conv.i6924		; visa id: 875
  %327 = call float @llvm.genx.GenISA.uitof.rtz.f32.i32(i32 %xor3.i6923)		; visa id: 876
  %div.i6928 = fdiv float 1.000000e+00, %326, !fpmath !1207		; visa id: 877
  %328 = call float @llvm.genx.GenISA.fma.rtz.f32.f32.f32.f32(float %div.i6928, float 0xBE98000000000000, float %div.i6928)		; visa id: 878
  %329 = call float @llvm.genx.GenISA.mul.rtz.f32.f32.f32(float %327, float %328)		; visa id: 879
  %conv6.i6926 = fptoui float %327 to i32		; visa id: 880
  %sub7.i6927 = sub i32 %xor3.i6923, %conv6.i6926		; visa id: 881
  %conv11.i6929 = fptoui float %329 to i32		; visa id: 882
  %330 = call float @llvm.genx.GenISA.uitof.rtz.f32.i32(i32 %sub.i6925)		; visa id: 883
  %331 = call float @llvm.genx.GenISA.uitof.rtz.f32.i32(i32 %sub7.i6927)		; visa id: 884
  %332 = call float @llvm.genx.GenISA.uitof.rtz.f32.i32(i32 %conv11.i6929)		; visa id: 885
  %333 = fsub float 0.000000e+00, %326		; visa id: 886
  %334 = call float @llvm.genx.GenISA.fma.rtz.f32.f32.f32.f32(float %333, float %332, float %327)		; visa id: 887
  %335 = fsub float 0.000000e+00, %330		; visa id: 888
  %336 = call float @llvm.genx.GenISA.fma.rtz.f32.f32.f32.f32(float %335, float %332, float %331)		; visa id: 889
  %337 = call float @llvm.genx.GenISA.add.rtz.f32.f32.f32(float %334, float %336)		; visa id: 890
  %338 = call float @llvm.genx.GenISA.mul.rtz.f32.f32.f32(float %328, float %337)		; visa id: 891
  %conv19.i6932 = fptoui float %338 to i32		; visa id: 893
  %add20.i6933 = add i32 %conv19.i6932, %conv11.i6929		; visa id: 894
  %mul.i6935 = mul i32 %add20.i6933, %xor.i6921		; visa id: 895
  %sub22.i6936 = sub i32 %xor3.i6923, %mul.i6935		; visa id: 896
  %cmp.i6937 = icmp uge i32 %sub22.i6936, %xor.i6921
  %339 = sext i1 %cmp.i6937 to i32		; visa id: 897
  %340 = sub i32 0, %339
  %add24.i6944 = add i32 %add20.i6933, %xor21.i6934
  %add29.i6945 = add i32 %add24.i6944, %340		; visa id: 898
  %xor30.i6946 = xor i32 %add29.i6945, %xor21.i6934		; visa id: 899
  br label %precompiled_s32divrem_sp.exit6949, !stats.blockFrequency.digits !1228, !stats.blockFrequency.scale !1229		; visa id: 900

precompiled_s32divrem_sp.exit6949:                ; preds = %if.then.i6917, %if.end.i6947
; BB67 :
  %retval.0.i6948 = phi i32 [ %xor30.i6946, %if.end.i6947 ], [ -1, %if.then.i6917 ]
  %341 = mul nsw i32 %26, %retval.0.i6948, !spirv.Decorations !1210		; visa id: 901
  br label %344, !stats.blockFrequency.digits !1226, !stats.blockFrequency.scale !1227		; visa id: 902

342:                                              ; preds = %323
; BB68 :
  %343 = load i32, i32 addrspace(1)* %317, align 4		; visa id: 904
  br label %344, !stats.blockFrequency.digits !1226, !stats.blockFrequency.scale !1227		; visa id: 905

344:                                              ; preds = %precompiled_s32divrem_sp.exit6949, %342
; BB69 :
  %345 = phi i32 [ %343, %342 ], [ %341, %precompiled_s32divrem_sp.exit6949 ]
  br i1 %tobool.i6916, label %if.then.i6951, label %if.end.i6981, !stats.blockFrequency.digits !1219, !stats.blockFrequency.scale !1220		; visa id: 906

if.then.i6951:                                    ; preds = %344
; BB70 :
  br label %precompiled_s32divrem_sp.exit6983, !stats.blockFrequency.digits !1237, !stats.blockFrequency.scale !1227		; visa id: 909

if.end.i6981:                                     ; preds = %344
; BB71 :
  %346 = shl nsw i32 %324, 5, !spirv.Decorations !1210		; visa id: 911
  %347 = call float @llvm.genx.GenISA.uitof.rtz.f32.i32(i32 %xor.i6921)		; visa id: 912
  %conv.i6958 = fptoui float %347 to i32		; visa id: 914
  %sub.i6959 = sub i32 %xor.i6921, %conv.i6958		; visa id: 915
  %348 = call float @llvm.genx.GenISA.uitof.rtz.f32.i32(i32 %346)		; visa id: 916
  %div.i6962 = fdiv float 1.000000e+00, %347, !fpmath !1207		; visa id: 917
  %349 = call float @llvm.genx.GenISA.fma.rtz.f32.f32.f32.f32(float %div.i6962, float 0xBE98000000000000, float %div.i6962)		; visa id: 918
  %350 = call float @llvm.genx.GenISA.mul.rtz.f32.f32.f32(float %348, float %349)		; visa id: 919
  %conv6.i6960 = fptoui float %348 to i32		; visa id: 920
  %sub7.i6961 = sub i32 %346, %conv6.i6960		; visa id: 921
  %conv11.i6963 = fptoui float %350 to i32		; visa id: 922
  %351 = call float @llvm.genx.GenISA.uitof.rtz.f32.i32(i32 %sub.i6959)		; visa id: 923
  %352 = call float @llvm.genx.GenISA.uitof.rtz.f32.i32(i32 %sub7.i6961)		; visa id: 924
  %353 = call float @llvm.genx.GenISA.uitof.rtz.f32.i32(i32 %conv11.i6963)		; visa id: 925
  %354 = fsub float 0.000000e+00, %347		; visa id: 926
  %355 = call float @llvm.genx.GenISA.fma.rtz.f32.f32.f32.f32(float %354, float %353, float %348)		; visa id: 927
  %356 = fsub float 0.000000e+00, %351		; visa id: 928
  %357 = call float @llvm.genx.GenISA.fma.rtz.f32.f32.f32.f32(float %356, float %353, float %352)		; visa id: 929
  %358 = call float @llvm.genx.GenISA.add.rtz.f32.f32.f32(float %355, float %357)		; visa id: 930
  %359 = call float @llvm.genx.GenISA.mul.rtz.f32.f32.f32(float %349, float %358)		; visa id: 931
  %conv19.i6966 = fptoui float %359 to i32		; visa id: 933
  %add20.i6967 = add i32 %conv19.i6966, %conv11.i6963		; visa id: 934
  %mul.i6969 = mul i32 %add20.i6967, %xor.i6921		; visa id: 935
  %sub22.i6970 = sub i32 %346, %mul.i6969		; visa id: 936
  %cmp.i6971 = icmp uge i32 %sub22.i6970, %xor.i6921
  %360 = sext i1 %cmp.i6971 to i32		; visa id: 937
  %361 = sub i32 0, %360
  %add24.i6978 = add i32 %add20.i6967, %shr.i6918
  %add29.i6979 = add i32 %add24.i6978, %361		; visa id: 938
  %xor30.i6980 = xor i32 %add29.i6979, %shr.i6918		; visa id: 939
  br label %precompiled_s32divrem_sp.exit6983, !stats.blockFrequency.digits !1238, !stats.blockFrequency.scale !1227		; visa id: 940

precompiled_s32divrem_sp.exit6983:                ; preds = %if.then.i6951, %if.end.i6981
; BB72 :
  %retval.0.i6982 = phi i32 [ %xor30.i6980, %if.end.i6981 ], [ -1, %if.then.i6951 ]
  %362 = add nsw i32 %345, %retval.0.i6982, !spirv.Decorations !1210		; visa id: 941
  %363 = sext i32 %362 to i64		; visa id: 942
  %364 = shl nsw i64 %363, 2		; visa id: 943
  %365 = add i64 %364, %const_reg_qword57		; visa id: 944
  %366 = inttoptr i64 %365 to i32 addrspace(4)*		; visa id: 945
  %367 = addrspacecast i32 addrspace(4)* %366 to i32 addrspace(1)*		; visa id: 945
  %368 = load i32, i32 addrspace(1)* %367, align 4		; visa id: 946
  %369 = mul nsw i32 %368, %qot6744, !spirv.Decorations !1210		; visa id: 947
  br i1 %tobool.i6984, label %if.then.i6985, label %if.end.i7015, !stats.blockFrequency.digits !1219, !stats.blockFrequency.scale !1220		; visa id: 948

if.then.i6985:                                    ; preds = %precompiled_s32divrem_sp.exit6983
; BB73 :
  br label %precompiled_s32divrem_sp.exit7017, !stats.blockFrequency.digits !1226, !stats.blockFrequency.scale !1227		; visa id: 951

if.end.i7015:                                     ; preds = %precompiled_s32divrem_sp.exit6983
; BB74 :
  %370 = call float @llvm.genx.GenISA.uitof.rtz.f32.i32(i32 %xor.i6989)		; visa id: 953
  %conv.i6992 = fptoui float %370 to i32		; visa id: 955
  %sub.i6993 = sub i32 %xor.i6989, %conv.i6992		; visa id: 956
  %371 = call float @llvm.genx.GenISA.uitof.rtz.f32.i32(i32 %324)		; visa id: 957
  %div.i6996 = fdiv float 1.000000e+00, %370, !fpmath !1207		; visa id: 958
  %372 = call float @llvm.genx.GenISA.fma.rtz.f32.f32.f32.f32(float %div.i6996, float 0xBE98000000000000, float %div.i6996)		; visa id: 959
  %373 = call float @llvm.genx.GenISA.mul.rtz.f32.f32.f32(float %371, float %372)		; visa id: 960
  %conv6.i6994 = fptoui float %371 to i32		; visa id: 961
  %sub7.i6995 = sub i32 %324, %conv6.i6994		; visa id: 962
  %conv11.i6997 = fptoui float %373 to i32		; visa id: 963
  %374 = call float @llvm.genx.GenISA.uitof.rtz.f32.i32(i32 %sub.i6993)		; visa id: 964
  %375 = call float @llvm.genx.GenISA.uitof.rtz.f32.i32(i32 %sub7.i6995)		; visa id: 965
  %376 = call float @llvm.genx.GenISA.uitof.rtz.f32.i32(i32 %conv11.i6997)		; visa id: 966
  %377 = fsub float 0.000000e+00, %370		; visa id: 967
  %378 = call float @llvm.genx.GenISA.fma.rtz.f32.f32.f32.f32(float %377, float %376, float %371)		; visa id: 968
  %379 = fsub float 0.000000e+00, %374		; visa id: 969
  %380 = call float @llvm.genx.GenISA.fma.rtz.f32.f32.f32.f32(float %379, float %376, float %375)		; visa id: 970
  %381 = call float @llvm.genx.GenISA.add.rtz.f32.f32.f32(float %378, float %380)		; visa id: 971
  %382 = call float @llvm.genx.GenISA.mul.rtz.f32.f32.f32(float %372, float %381)		; visa id: 972
  %conv19.i7000 = fptoui float %382 to i32		; visa id: 974
  %add20.i7001 = add i32 %conv19.i7000, %conv11.i6997		; visa id: 975
  %mul.i7003 = mul i32 %add20.i7001, %xor.i6989		; visa id: 976
  %sub22.i7004 = sub i32 %324, %mul.i7003		; visa id: 977
  %cmp.i7005.not = icmp ult i32 %sub22.i7004, %xor.i6989		; visa id: 978
  %and25.i7008 = select i1 %cmp.i7005.not, i32 0, i32 %xor.i6989		; visa id: 979
  %add27.i7010 = sub i32 %sub22.i7004, %and25.i7008		; visa id: 980
  br label %precompiled_s32divrem_sp.exit7017, !stats.blockFrequency.digits !1226, !stats.blockFrequency.scale !1227		; visa id: 981

precompiled_s32divrem_sp.exit7017:                ; preds = %if.then.i6985, %if.end.i7015
; BB75 :
  %Remainder6752.0 = phi i32 [ -1, %if.then.i6985 ], [ %add27.i7010, %if.end.i7015 ]
  %383 = add nsw i32 %369, %Remainder6752.0, !spirv.Decorations !1210		; visa id: 982
  %384 = shl nsw i32 %383, 5, !spirv.Decorations !1210		; visa id: 983
  br i1 %182, label %.lr.ph171, label %precompiled_s32divrem_sp.exit7017.._crit_edge172_crit_edge, !stats.blockFrequency.digits !1219, !stats.blockFrequency.scale !1220		; visa id: 984

precompiled_s32divrem_sp.exit7017.._crit_edge172_crit_edge: ; preds = %precompiled_s32divrem_sp.exit7017
; BB76 :
  br label %._crit_edge172, !stats.blockFrequency.digits !1237, !stats.blockFrequency.scale !1227		; visa id: 1018

.lr.ph171:                                        ; preds = %precompiled_s32divrem_sp.exit7017
; BB77 :
  br i1 %318, label %.lr.ph171..epil.preheader194_crit_edge, label %.lr.ph171.new, !stats.blockFrequency.digits !1238, !stats.blockFrequency.scale !1227		; visa id: 1020

.lr.ph171..epil.preheader194_crit_edge:           ; preds = %.lr.ph171
; BB78 :
  br label %.epil.preheader194, !stats.blockFrequency.digits !1228, !stats.blockFrequency.scale !1229		; visa id: 1055

.lr.ph171.new:                                    ; preds = %.lr.ph171
; BB79 :
  %385 = add i32 %384, 16		; visa id: 1057
  br label %.preheader156, !stats.blockFrequency.digits !1228, !stats.blockFrequency.scale !1229		; visa id: 1092

.preheader156:                                    ; preds = %.preheader156..preheader156_crit_edge, %.lr.ph171.new
; BB80 :
  %.sroa.435.5 = phi <8 x float> [ zeroinitializer, %.lr.ph171.new ], [ %545, %.preheader156..preheader156_crit_edge ]
  %.sroa.291.5 = phi <8 x float> [ zeroinitializer, %.lr.ph171.new ], [ %546, %.preheader156..preheader156_crit_edge ]
  %.sroa.147.5 = phi <8 x float> [ zeroinitializer, %.lr.ph171.new ], [ %544, %.preheader156..preheader156_crit_edge ]
  %.sroa.03158.5 = phi <8 x float> [ zeroinitializer, %.lr.ph171.new ], [ %543, %.preheader156..preheader156_crit_edge ]
  %386 = phi i32 [ 0, %.lr.ph171.new ], [ %547, %.preheader156..preheader156_crit_edge ]
  %niter200 = phi i32 [ 0, %.lr.ph171.new ], [ %niter200.next.1, %.preheader156..preheader156_crit_edge ]
  %387 = shl i32 %386, 5, !spirv.Decorations !1210		; visa id: 1093
  call void @llvm.genx.GenISA.LSC2DBlockSetAddrPayloadField.p4i8.i32(i8 addrspace(4)* %Block2D_AddrPayload, i32 5, i32 %387, i1 false)		; visa id: 1094
  call void @llvm.genx.GenISA.LSC2DBlockSetAddrPayloadField.p4i8.i32(i8 addrspace(4)* %Block2D_AddrPayload, i32 6, i32 %173, i1 false)		; visa id: 1095
  %388 = call <32 x i16> asm "lsc_load_block2d.ugm (M1, 1)  $0:d$2.$3x$4x$5nn flat[$1+(0,0)]", "=rw,rw.u,P,P,P,P"(i8 addrspace(4)* %Block2D_AddrPayload, i32 16, i32 2, i32 16, i32 16) #0		; visa id: 1096
  %389 = lshr exact i32 %387, 1		; visa id: 1096
  call void @llvm.genx.GenISA.LSC2DBlockSetAddrPayloadField.p4i8.i32(i8 addrspace(4)* %Block2D_AddrPayload117, i32 5, i32 %389, i1 false)		; visa id: 1097
  call void @llvm.genx.GenISA.LSC2DBlockSetAddrPayloadField.p4i8.i32(i8 addrspace(4)* %Block2D_AddrPayload117, i32 6, i32 %384, i1 false)		; visa id: 1098
  %390 = call <16 x i16> asm "lsc_load_block2d.ugm (M1, 1)  $0:d$2.$3x$4tn flat[$1+(0,0)]", "=rw,rw.u,P,P,P"(i8 addrspace(4)* %Block2D_AddrPayload117, i32 32, i32 8, i32 16) #0		; visa id: 1099
  call void @llvm.genx.GenISA.LSC2DBlockSetAddrPayloadField.p4i8.i32(i8 addrspace(4)* %Block2D_AddrPayload117, i32 5, i32 %389, i1 false)		; visa id: 1099
  call void @llvm.genx.GenISA.LSC2DBlockSetAddrPayloadField.p4i8.i32(i8 addrspace(4)* %Block2D_AddrPayload117, i32 6, i32 %385, i1 false)		; visa id: 1100
  %391 = call <16 x i16> asm "lsc_load_block2d.ugm (M1, 1)  $0:d$2.$3x$4tn flat[$1+(0,0)]", "=rw,rw.u,P,P,P"(i8 addrspace(4)* %Block2D_AddrPayload117, i32 32, i32 8, i32 16) #0		; visa id: 1101
  %392 = or i32 %389, 8		; visa id: 1101
  call void @llvm.genx.GenISA.LSC2DBlockSetAddrPayloadField.p4i8.i32(i8 addrspace(4)* %Block2D_AddrPayload117, i32 5, i32 %392, i1 false)		; visa id: 1102
  call void @llvm.genx.GenISA.LSC2DBlockSetAddrPayloadField.p4i8.i32(i8 addrspace(4)* %Block2D_AddrPayload117, i32 6, i32 %384, i1 false)		; visa id: 1103
  %393 = call <16 x i16> asm "lsc_load_block2d.ugm (M1, 1)  $0:d$2.$3x$4tn flat[$1+(0,0)]", "=rw,rw.u,P,P,P"(i8 addrspace(4)* %Block2D_AddrPayload117, i32 32, i32 8, i32 16) #0		; visa id: 1104
  call void @llvm.genx.GenISA.LSC2DBlockSetAddrPayloadField.p4i8.i32(i8 addrspace(4)* %Block2D_AddrPayload117, i32 5, i32 %392, i1 false)		; visa id: 1104
  call void @llvm.genx.GenISA.LSC2DBlockSetAddrPayloadField.p4i8.i32(i8 addrspace(4)* %Block2D_AddrPayload117, i32 6, i32 %385, i1 false)		; visa id: 1105
  %394 = call <16 x i16> asm "lsc_load_block2d.ugm (M1, 1)  $0:d$2.$3x$4tn flat[$1+(0,0)]", "=rw,rw.u,P,P,P"(i8 addrspace(4)* %Block2D_AddrPayload117, i32 32, i32 8, i32 16) #0		; visa id: 1106
  %395 = extractelement <32 x i16> %388, i32 0		; visa id: 1106
  %396 = insertelement <8 x i16> undef, i16 %395, i32 0		; visa id: 1106
  %397 = extractelement <32 x i16> %388, i32 1		; visa id: 1106
  %398 = insertelement <8 x i16> %396, i16 %397, i32 1		; visa id: 1106
  %399 = extractelement <32 x i16> %388, i32 2		; visa id: 1106
  %400 = insertelement <8 x i16> %398, i16 %399, i32 2		; visa id: 1106
  %401 = extractelement <32 x i16> %388, i32 3		; visa id: 1106
  %402 = insertelement <8 x i16> %400, i16 %401, i32 3		; visa id: 1106
  %403 = extractelement <32 x i16> %388, i32 4		; visa id: 1106
  %404 = insertelement <8 x i16> %402, i16 %403, i32 4		; visa id: 1106
  %405 = extractelement <32 x i16> %388, i32 5		; visa id: 1106
  %406 = insertelement <8 x i16> %404, i16 %405, i32 5		; visa id: 1106
  %407 = extractelement <32 x i16> %388, i32 6		; visa id: 1106
  %408 = insertelement <8 x i16> %406, i16 %407, i32 6		; visa id: 1106
  %409 = extractelement <32 x i16> %388, i32 7		; visa id: 1106
  %410 = insertelement <8 x i16> %408, i16 %409, i32 7		; visa id: 1106
  %411 = extractelement <32 x i16> %388, i32 8		; visa id: 1106
  %412 = insertelement <8 x i16> undef, i16 %411, i32 0		; visa id: 1106
  %413 = extractelement <32 x i16> %388, i32 9		; visa id: 1106
  %414 = insertelement <8 x i16> %412, i16 %413, i32 1		; visa id: 1106
  %415 = extractelement <32 x i16> %388, i32 10		; visa id: 1106
  %416 = insertelement <8 x i16> %414, i16 %415, i32 2		; visa id: 1106
  %417 = extractelement <32 x i16> %388, i32 11		; visa id: 1106
  %418 = insertelement <8 x i16> %416, i16 %417, i32 3		; visa id: 1106
  %419 = extractelement <32 x i16> %388, i32 12		; visa id: 1106
  %420 = insertelement <8 x i16> %418, i16 %419, i32 4		; visa id: 1106
  %421 = extractelement <32 x i16> %388, i32 13		; visa id: 1106
  %422 = insertelement <8 x i16> %420, i16 %421, i32 5		; visa id: 1106
  %423 = extractelement <32 x i16> %388, i32 14		; visa id: 1106
  %424 = insertelement <8 x i16> %422, i16 %423, i32 6		; visa id: 1106
  %425 = extractelement <32 x i16> %388, i32 15		; visa id: 1106
  %426 = insertelement <8 x i16> %424, i16 %425, i32 7		; visa id: 1106
  %427 = extractelement <32 x i16> %388, i32 16		; visa id: 1106
  %428 = insertelement <8 x i16> undef, i16 %427, i32 0		; visa id: 1106
  %429 = extractelement <32 x i16> %388, i32 17		; visa id: 1106
  %430 = insertelement <8 x i16> %428, i16 %429, i32 1		; visa id: 1106
  %431 = extractelement <32 x i16> %388, i32 18		; visa id: 1106
  %432 = insertelement <8 x i16> %430, i16 %431, i32 2		; visa id: 1106
  %433 = extractelement <32 x i16> %388, i32 19		; visa id: 1106
  %434 = insertelement <8 x i16> %432, i16 %433, i32 3		; visa id: 1106
  %435 = extractelement <32 x i16> %388, i32 20		; visa id: 1106
  %436 = insertelement <8 x i16> %434, i16 %435, i32 4		; visa id: 1106
  %437 = extractelement <32 x i16> %388, i32 21		; visa id: 1106
  %438 = insertelement <8 x i16> %436, i16 %437, i32 5		; visa id: 1106
  %439 = extractelement <32 x i16> %388, i32 22		; visa id: 1106
  %440 = insertelement <8 x i16> %438, i16 %439, i32 6		; visa id: 1106
  %441 = extractelement <32 x i16> %388, i32 23		; visa id: 1106
  %442 = insertelement <8 x i16> %440, i16 %441, i32 7		; visa id: 1106
  %443 = extractelement <32 x i16> %388, i32 24		; visa id: 1106
  %444 = insertelement <8 x i16> undef, i16 %443, i32 0		; visa id: 1106
  %445 = extractelement <32 x i16> %388, i32 25		; visa id: 1106
  %446 = insertelement <8 x i16> %444, i16 %445, i32 1		; visa id: 1106
  %447 = extractelement <32 x i16> %388, i32 26		; visa id: 1106
  %448 = insertelement <8 x i16> %446, i16 %447, i32 2		; visa id: 1106
  %449 = extractelement <32 x i16> %388, i32 27		; visa id: 1106
  %450 = insertelement <8 x i16> %448, i16 %449, i32 3		; visa id: 1106
  %451 = extractelement <32 x i16> %388, i32 28		; visa id: 1106
  %452 = insertelement <8 x i16> %450, i16 %451, i32 4		; visa id: 1106
  %453 = extractelement <32 x i16> %388, i32 29		; visa id: 1106
  %454 = insertelement <8 x i16> %452, i16 %453, i32 5		; visa id: 1106
  %455 = extractelement <32 x i16> %388, i32 30		; visa id: 1106
  %456 = insertelement <8 x i16> %454, i16 %455, i32 6		; visa id: 1106
  %457 = extractelement <32 x i16> %388, i32 31		; visa id: 1106
  %458 = insertelement <8 x i16> %456, i16 %457, i32 7		; visa id: 1106
  %459 = call <8 x float> asm "{\0A.decl DST     v_type=G type=f num_elts=$5 alias=<$0,0>\0A.decl SRC1_UD v_type=G type=UD num_elts=128 alias=<$2,0>\0A.decl SRC2_UD v_type=G type=UD num_elts=$4 alias=<$1,0>\0Adpas.bf.bf.8.$3 (M1, 16) DST.0 DST.0 SRC1_UD.0 SRC2_UD(0,0)\0A}\0A", "=rw,rw,rw,P,P,P,0"(<8 x i16> %410, <16 x i16> %390, i32 8, i32 64, i32 128, <8 x float> %.sroa.03158.5) #0		; visa id: 1106
  %460 = call <8 x float> asm "{\0A.decl DST     v_type=G type=f num_elts=$5 alias=<$0,0>\0A.decl SRC1_UD v_type=G type=UD num_elts=128 alias=<$2,0>\0A.decl SRC2_UD v_type=G type=UD num_elts=$4 alias=<$1,0>\0Adpas.bf.bf.8.$3 (M1, 16) DST.0 DST.0 SRC1_UD.0 SRC2_UD(0,0)\0A}\0A", "=rw,rw,rw,P,P,P,0"(<8 x i16> %426, <16 x i16> %390, i32 8, i32 64, i32 128, <8 x float> %.sroa.147.5) #0		; visa id: 1106
  %461 = call <8 x float> asm "{\0A.decl DST     v_type=G type=f num_elts=$5 alias=<$0,0>\0A.decl SRC1_UD v_type=G type=UD num_elts=128 alias=<$2,0>\0A.decl SRC2_UD v_type=G type=UD num_elts=$4 alias=<$1,0>\0Adpas.bf.bf.8.$3 (M1, 16) DST.0 DST.0 SRC1_UD.0 SRC2_UD(0,0)\0A}\0A", "=rw,rw,rw,P,P,P,0"(<8 x i16> %426, <16 x i16> %391, i32 8, i32 64, i32 128, <8 x float> %.sroa.435.5) #0		; visa id: 1106
  %462 = call <8 x float> asm "{\0A.decl DST     v_type=G type=f num_elts=$5 alias=<$0,0>\0A.decl SRC1_UD v_type=G type=UD num_elts=128 alias=<$2,0>\0A.decl SRC2_UD v_type=G type=UD num_elts=$4 alias=<$1,0>\0Adpas.bf.bf.8.$3 (M1, 16) DST.0 DST.0 SRC1_UD.0 SRC2_UD(0,0)\0A}\0A", "=rw,rw,rw,P,P,P,0"(<8 x i16> %410, <16 x i16> %391, i32 8, i32 64, i32 128, <8 x float> %.sroa.291.5) #0		; visa id: 1106
  %463 = call <8 x float> asm "{\0A.decl DST     v_type=G type=f num_elts=$5 alias=<$0,0>\0A.decl SRC1_UD v_type=G type=UD num_elts=128 alias=<$2,0>\0A.decl SRC2_UD v_type=G type=UD num_elts=$4 alias=<$1,0>\0Adpas.bf.bf.8.$3 (M1, 16) DST.0 DST.0 SRC1_UD.0 SRC2_UD(0,0)\0A}\0A", "=rw,rw,rw,P,P,P,0"(<8 x i16> %442, <16 x i16> %393, i32 8, i32 64, i32 128, <8 x float> %459) #0		; visa id: 1106
  %464 = call <8 x float> asm "{\0A.decl DST     v_type=G type=f num_elts=$5 alias=<$0,0>\0A.decl SRC1_UD v_type=G type=UD num_elts=128 alias=<$2,0>\0A.decl SRC2_UD v_type=G type=UD num_elts=$4 alias=<$1,0>\0Adpas.bf.bf.8.$3 (M1, 16) DST.0 DST.0 SRC1_UD.0 SRC2_UD(0,0)\0A}\0A", "=rw,rw,rw,P,P,P,0"(<8 x i16> %458, <16 x i16> %393, i32 8, i32 64, i32 128, <8 x float> %460) #0		; visa id: 1106
  %465 = call <8 x float> asm "{\0A.decl DST     v_type=G type=f num_elts=$5 alias=<$0,0>\0A.decl SRC1_UD v_type=G type=UD num_elts=128 alias=<$2,0>\0A.decl SRC2_UD v_type=G type=UD num_elts=$4 alias=<$1,0>\0Adpas.bf.bf.8.$3 (M1, 16) DST.0 DST.0 SRC1_UD.0 SRC2_UD(0,0)\0A}\0A", "=rw,rw,rw,P,P,P,0"(<8 x i16> %458, <16 x i16> %394, i32 8, i32 64, i32 128, <8 x float> %461) #0		; visa id: 1106
  %466 = call <8 x float> asm "{\0A.decl DST     v_type=G type=f num_elts=$5 alias=<$0,0>\0A.decl SRC1_UD v_type=G type=UD num_elts=128 alias=<$2,0>\0A.decl SRC2_UD v_type=G type=UD num_elts=$4 alias=<$1,0>\0Adpas.bf.bf.8.$3 (M1, 16) DST.0 DST.0 SRC1_UD.0 SRC2_UD(0,0)\0A}\0A", "=rw,rw,rw,P,P,P,0"(<8 x i16> %442, <16 x i16> %394, i32 8, i32 64, i32 128, <8 x float> %462) #0		; visa id: 1106
  %467 = or i32 %387, 32		; visa id: 1106
  call void @llvm.genx.GenISA.LSC2DBlockSetAddrPayloadField.p4i8.i32(i8 addrspace(4)* %Block2D_AddrPayload, i32 5, i32 %467, i1 false)		; visa id: 1107
  call void @llvm.genx.GenISA.LSC2DBlockSetAddrPayloadField.p4i8.i32(i8 addrspace(4)* %Block2D_AddrPayload, i32 6, i32 %173, i1 false)		; visa id: 1108
  %468 = call <32 x i16> asm "lsc_load_block2d.ugm (M1, 1)  $0:d$2.$3x$4x$5nn flat[$1+(0,0)]", "=rw,rw.u,P,P,P,P"(i8 addrspace(4)* %Block2D_AddrPayload, i32 16, i32 2, i32 16, i32 16) #0		; visa id: 1109
  %469 = lshr exact i32 %467, 1		; visa id: 1109
  call void @llvm.genx.GenISA.LSC2DBlockSetAddrPayloadField.p4i8.i32(i8 addrspace(4)* %Block2D_AddrPayload117, i32 5, i32 %469, i1 false)		; visa id: 1110
  call void @llvm.genx.GenISA.LSC2DBlockSetAddrPayloadField.p4i8.i32(i8 addrspace(4)* %Block2D_AddrPayload117, i32 6, i32 %384, i1 false)		; visa id: 1111
  %470 = call <16 x i16> asm "lsc_load_block2d.ugm (M1, 1)  $0:d$2.$3x$4tn flat[$1+(0,0)]", "=rw,rw.u,P,P,P"(i8 addrspace(4)* %Block2D_AddrPayload117, i32 32, i32 8, i32 16) #0		; visa id: 1112
  call void @llvm.genx.GenISA.LSC2DBlockSetAddrPayloadField.p4i8.i32(i8 addrspace(4)* %Block2D_AddrPayload117, i32 5, i32 %469, i1 false)		; visa id: 1112
  call void @llvm.genx.GenISA.LSC2DBlockSetAddrPayloadField.p4i8.i32(i8 addrspace(4)* %Block2D_AddrPayload117, i32 6, i32 %385, i1 false)		; visa id: 1113
  %471 = call <16 x i16> asm "lsc_load_block2d.ugm (M1, 1)  $0:d$2.$3x$4tn flat[$1+(0,0)]", "=rw,rw.u,P,P,P"(i8 addrspace(4)* %Block2D_AddrPayload117, i32 32, i32 8, i32 16) #0		; visa id: 1114
  %472 = or i32 %469, 8		; visa id: 1114
  call void @llvm.genx.GenISA.LSC2DBlockSetAddrPayloadField.p4i8.i32(i8 addrspace(4)* %Block2D_AddrPayload117, i32 5, i32 %472, i1 false)		; visa id: 1115
  call void @llvm.genx.GenISA.LSC2DBlockSetAddrPayloadField.p4i8.i32(i8 addrspace(4)* %Block2D_AddrPayload117, i32 6, i32 %384, i1 false)		; visa id: 1116
  %473 = call <16 x i16> asm "lsc_load_block2d.ugm (M1, 1)  $0:d$2.$3x$4tn flat[$1+(0,0)]", "=rw,rw.u,P,P,P"(i8 addrspace(4)* %Block2D_AddrPayload117, i32 32, i32 8, i32 16) #0		; visa id: 1117
  call void @llvm.genx.GenISA.LSC2DBlockSetAddrPayloadField.p4i8.i32(i8 addrspace(4)* %Block2D_AddrPayload117, i32 5, i32 %472, i1 false)		; visa id: 1117
  call void @llvm.genx.GenISA.LSC2DBlockSetAddrPayloadField.p4i8.i32(i8 addrspace(4)* %Block2D_AddrPayload117, i32 6, i32 %385, i1 false)		; visa id: 1118
  %474 = call <16 x i16> asm "lsc_load_block2d.ugm (M1, 1)  $0:d$2.$3x$4tn flat[$1+(0,0)]", "=rw,rw.u,P,P,P"(i8 addrspace(4)* %Block2D_AddrPayload117, i32 32, i32 8, i32 16) #0		; visa id: 1119
  %475 = extractelement <32 x i16> %468, i32 0		; visa id: 1119
  %476 = insertelement <8 x i16> undef, i16 %475, i32 0		; visa id: 1119
  %477 = extractelement <32 x i16> %468, i32 1		; visa id: 1119
  %478 = insertelement <8 x i16> %476, i16 %477, i32 1		; visa id: 1119
  %479 = extractelement <32 x i16> %468, i32 2		; visa id: 1119
  %480 = insertelement <8 x i16> %478, i16 %479, i32 2		; visa id: 1119
  %481 = extractelement <32 x i16> %468, i32 3		; visa id: 1119
  %482 = insertelement <8 x i16> %480, i16 %481, i32 3		; visa id: 1119
  %483 = extractelement <32 x i16> %468, i32 4		; visa id: 1119
  %484 = insertelement <8 x i16> %482, i16 %483, i32 4		; visa id: 1119
  %485 = extractelement <32 x i16> %468, i32 5		; visa id: 1119
  %486 = insertelement <8 x i16> %484, i16 %485, i32 5		; visa id: 1119
  %487 = extractelement <32 x i16> %468, i32 6		; visa id: 1119
  %488 = insertelement <8 x i16> %486, i16 %487, i32 6		; visa id: 1119
  %489 = extractelement <32 x i16> %468, i32 7		; visa id: 1119
  %490 = insertelement <8 x i16> %488, i16 %489, i32 7		; visa id: 1119
  %491 = extractelement <32 x i16> %468, i32 8		; visa id: 1119
  %492 = insertelement <8 x i16> undef, i16 %491, i32 0		; visa id: 1119
  %493 = extractelement <32 x i16> %468, i32 9		; visa id: 1119
  %494 = insertelement <8 x i16> %492, i16 %493, i32 1		; visa id: 1119
  %495 = extractelement <32 x i16> %468, i32 10		; visa id: 1119
  %496 = insertelement <8 x i16> %494, i16 %495, i32 2		; visa id: 1119
  %497 = extractelement <32 x i16> %468, i32 11		; visa id: 1119
  %498 = insertelement <8 x i16> %496, i16 %497, i32 3		; visa id: 1119
  %499 = extractelement <32 x i16> %468, i32 12		; visa id: 1119
  %500 = insertelement <8 x i16> %498, i16 %499, i32 4		; visa id: 1119
  %501 = extractelement <32 x i16> %468, i32 13		; visa id: 1119
  %502 = insertelement <8 x i16> %500, i16 %501, i32 5		; visa id: 1119
  %503 = extractelement <32 x i16> %468, i32 14		; visa id: 1119
  %504 = insertelement <8 x i16> %502, i16 %503, i32 6		; visa id: 1119
  %505 = extractelement <32 x i16> %468, i32 15		; visa id: 1119
  %506 = insertelement <8 x i16> %504, i16 %505, i32 7		; visa id: 1119
  %507 = extractelement <32 x i16> %468, i32 16		; visa id: 1119
  %508 = insertelement <8 x i16> undef, i16 %507, i32 0		; visa id: 1119
  %509 = extractelement <32 x i16> %468, i32 17		; visa id: 1119
  %510 = insertelement <8 x i16> %508, i16 %509, i32 1		; visa id: 1119
  %511 = extractelement <32 x i16> %468, i32 18		; visa id: 1119
  %512 = insertelement <8 x i16> %510, i16 %511, i32 2		; visa id: 1119
  %513 = extractelement <32 x i16> %468, i32 19		; visa id: 1119
  %514 = insertelement <8 x i16> %512, i16 %513, i32 3		; visa id: 1119
  %515 = extractelement <32 x i16> %468, i32 20		; visa id: 1119
  %516 = insertelement <8 x i16> %514, i16 %515, i32 4		; visa id: 1119
  %517 = extractelement <32 x i16> %468, i32 21		; visa id: 1119
  %518 = insertelement <8 x i16> %516, i16 %517, i32 5		; visa id: 1119
  %519 = extractelement <32 x i16> %468, i32 22		; visa id: 1119
  %520 = insertelement <8 x i16> %518, i16 %519, i32 6		; visa id: 1119
  %521 = extractelement <32 x i16> %468, i32 23		; visa id: 1119
  %522 = insertelement <8 x i16> %520, i16 %521, i32 7		; visa id: 1119
  %523 = extractelement <32 x i16> %468, i32 24		; visa id: 1119
  %524 = insertelement <8 x i16> undef, i16 %523, i32 0		; visa id: 1119
  %525 = extractelement <32 x i16> %468, i32 25		; visa id: 1119
  %526 = insertelement <8 x i16> %524, i16 %525, i32 1		; visa id: 1119
  %527 = extractelement <32 x i16> %468, i32 26		; visa id: 1119
  %528 = insertelement <8 x i16> %526, i16 %527, i32 2		; visa id: 1119
  %529 = extractelement <32 x i16> %468, i32 27		; visa id: 1119
  %530 = insertelement <8 x i16> %528, i16 %529, i32 3		; visa id: 1119
  %531 = extractelement <32 x i16> %468, i32 28		; visa id: 1119
  %532 = insertelement <8 x i16> %530, i16 %531, i32 4		; visa id: 1119
  %533 = extractelement <32 x i16> %468, i32 29		; visa id: 1119
  %534 = insertelement <8 x i16> %532, i16 %533, i32 5		; visa id: 1119
  %535 = extractelement <32 x i16> %468, i32 30		; visa id: 1119
  %536 = insertelement <8 x i16> %534, i16 %535, i32 6		; visa id: 1119
  %537 = extractelement <32 x i16> %468, i32 31		; visa id: 1119
  %538 = insertelement <8 x i16> %536, i16 %537, i32 7		; visa id: 1119
  %539 = call <8 x float> asm "{\0A.decl DST     v_type=G type=f num_elts=$5 alias=<$0,0>\0A.decl SRC1_UD v_type=G type=UD num_elts=128 alias=<$2,0>\0A.decl SRC2_UD v_type=G type=UD num_elts=$4 alias=<$1,0>\0Adpas.bf.bf.8.$3 (M1, 16) DST.0 DST.0 SRC1_UD.0 SRC2_UD(0,0)\0A}\0A", "=rw,rw,rw,P,P,P,0"(<8 x i16> %490, <16 x i16> %470, i32 8, i32 64, i32 128, <8 x float> %463) #0		; visa id: 1119
  %540 = call <8 x float> asm "{\0A.decl DST     v_type=G type=f num_elts=$5 alias=<$0,0>\0A.decl SRC1_UD v_type=G type=UD num_elts=128 alias=<$2,0>\0A.decl SRC2_UD v_type=G type=UD num_elts=$4 alias=<$1,0>\0Adpas.bf.bf.8.$3 (M1, 16) DST.0 DST.0 SRC1_UD.0 SRC2_UD(0,0)\0A}\0A", "=rw,rw,rw,P,P,P,0"(<8 x i16> %506, <16 x i16> %470, i32 8, i32 64, i32 128, <8 x float> %464) #0		; visa id: 1119
  %541 = call <8 x float> asm "{\0A.decl DST     v_type=G type=f num_elts=$5 alias=<$0,0>\0A.decl SRC1_UD v_type=G type=UD num_elts=128 alias=<$2,0>\0A.decl SRC2_UD v_type=G type=UD num_elts=$4 alias=<$1,0>\0Adpas.bf.bf.8.$3 (M1, 16) DST.0 DST.0 SRC1_UD.0 SRC2_UD(0,0)\0A}\0A", "=rw,rw,rw,P,P,P,0"(<8 x i16> %506, <16 x i16> %471, i32 8, i32 64, i32 128, <8 x float> %465) #0		; visa id: 1119
  %542 = call <8 x float> asm "{\0A.decl DST     v_type=G type=f num_elts=$5 alias=<$0,0>\0A.decl SRC1_UD v_type=G type=UD num_elts=128 alias=<$2,0>\0A.decl SRC2_UD v_type=G type=UD num_elts=$4 alias=<$1,0>\0Adpas.bf.bf.8.$3 (M1, 16) DST.0 DST.0 SRC1_UD.0 SRC2_UD(0,0)\0A}\0A", "=rw,rw,rw,P,P,P,0"(<8 x i16> %490, <16 x i16> %471, i32 8, i32 64, i32 128, <8 x float> %466) #0		; visa id: 1119
  %543 = call <8 x float> asm "{\0A.decl DST     v_type=G type=f num_elts=$5 alias=<$0,0>\0A.decl SRC1_UD v_type=G type=UD num_elts=128 alias=<$2,0>\0A.decl SRC2_UD v_type=G type=UD num_elts=$4 alias=<$1,0>\0Adpas.bf.bf.8.$3 (M1, 16) DST.0 DST.0 SRC1_UD.0 SRC2_UD(0,0)\0A}\0A", "=rw,rw,rw,P,P,P,0"(<8 x i16> %522, <16 x i16> %473, i32 8, i32 64, i32 128, <8 x float> %539) #0		; visa id: 1119
  %544 = call <8 x float> asm "{\0A.decl DST     v_type=G type=f num_elts=$5 alias=<$0,0>\0A.decl SRC1_UD v_type=G type=UD num_elts=128 alias=<$2,0>\0A.decl SRC2_UD v_type=G type=UD num_elts=$4 alias=<$1,0>\0Adpas.bf.bf.8.$3 (M1, 16) DST.0 DST.0 SRC1_UD.0 SRC2_UD(0,0)\0A}\0A", "=rw,rw,rw,P,P,P,0"(<8 x i16> %538, <16 x i16> %473, i32 8, i32 64, i32 128, <8 x float> %540) #0		; visa id: 1119
  %545 = call <8 x float> asm "{\0A.decl DST     v_type=G type=f num_elts=$5 alias=<$0,0>\0A.decl SRC1_UD v_type=G type=UD num_elts=128 alias=<$2,0>\0A.decl SRC2_UD v_type=G type=UD num_elts=$4 alias=<$1,0>\0Adpas.bf.bf.8.$3 (M1, 16) DST.0 DST.0 SRC1_UD.0 SRC2_UD(0,0)\0A}\0A", "=rw,rw,rw,P,P,P,0"(<8 x i16> %538, <16 x i16> %474, i32 8, i32 64, i32 128, <8 x float> %541) #0		; visa id: 1119
  %546 = call <8 x float> asm "{\0A.decl DST     v_type=G type=f num_elts=$5 alias=<$0,0>\0A.decl SRC1_UD v_type=G type=UD num_elts=128 alias=<$2,0>\0A.decl SRC2_UD v_type=G type=UD num_elts=$4 alias=<$1,0>\0Adpas.bf.bf.8.$3 (M1, 16) DST.0 DST.0 SRC1_UD.0 SRC2_UD(0,0)\0A}\0A", "=rw,rw,rw,P,P,P,0"(<8 x i16> %522, <16 x i16> %474, i32 8, i32 64, i32 128, <8 x float> %542) #0		; visa id: 1119
  %547 = add nuw nsw i32 %386, 2, !spirv.Decorations !1217		; visa id: 1119
  %niter200.next.1 = add i32 %niter200, 2		; visa id: 1120
  %niter200.ncmp.1.not = icmp eq i32 %niter200.next.1, %unroll_iter199		; visa id: 1121
  br i1 %niter200.ncmp.1.not, label %._crit_edge172.unr-lcssa, label %.preheader156..preheader156_crit_edge, !llvm.loop !1239, !stats.blockFrequency.digits !1241, !stats.blockFrequency.scale !1204		; visa id: 1122

.preheader156..preheader156_crit_edge:            ; preds = %.preheader156
; BB:
  br label %.preheader156, !stats.blockFrequency.digits !1242, !stats.blockFrequency.scale !1204

._crit_edge172.unr-lcssa:                         ; preds = %.preheader156
; BB82 :
  %.lcssa7213 = phi <8 x float> [ %543, %.preheader156 ]
  %.lcssa7212 = phi <8 x float> [ %544, %.preheader156 ]
  %.lcssa7211 = phi <8 x float> [ %545, %.preheader156 ]
  %.lcssa7210 = phi <8 x float> [ %546, %.preheader156 ]
  %.lcssa7209 = phi i32 [ %547, %.preheader156 ]
  br i1 %lcmp.mod198.not, label %._crit_edge172.unr-lcssa.._crit_edge172_crit_edge, label %._crit_edge172.unr-lcssa..epil.preheader194_crit_edge, !stats.blockFrequency.digits !1228, !stats.blockFrequency.scale !1229		; visa id: 1124

._crit_edge172.unr-lcssa..epil.preheader194_crit_edge: ; preds = %._crit_edge172.unr-lcssa
; BB:
  br label %.epil.preheader194, !stats.blockFrequency.digits !1228, !stats.blockFrequency.scale !1209

.epil.preheader194:                               ; preds = %._crit_edge172.unr-lcssa..epil.preheader194_crit_edge, %.lr.ph171..epil.preheader194_crit_edge
; BB84 :
  %.unr1976698 = phi i32 [ %.lcssa7209, %._crit_edge172.unr-lcssa..epil.preheader194_crit_edge ], [ 0, %.lr.ph171..epil.preheader194_crit_edge ]
  %.sroa.03158.26697 = phi <8 x float> [ %.lcssa7213, %._crit_edge172.unr-lcssa..epil.preheader194_crit_edge ], [ zeroinitializer, %.lr.ph171..epil.preheader194_crit_edge ]
  %.sroa.147.26696 = phi <8 x float> [ %.lcssa7212, %._crit_edge172.unr-lcssa..epil.preheader194_crit_edge ], [ zeroinitializer, %.lr.ph171..epil.preheader194_crit_edge ]
  %.sroa.291.26695 = phi <8 x float> [ %.lcssa7210, %._crit_edge172.unr-lcssa..epil.preheader194_crit_edge ], [ zeroinitializer, %.lr.ph171..epil.preheader194_crit_edge ]
  %.sroa.435.26694 = phi <8 x float> [ %.lcssa7211, %._crit_edge172.unr-lcssa..epil.preheader194_crit_edge ], [ zeroinitializer, %.lr.ph171..epil.preheader194_crit_edge ]
  %548 = shl nsw i32 %.unr1976698, 5, !spirv.Decorations !1210		; visa id: 1126
  call void @llvm.genx.GenISA.LSC2DBlockSetAddrPayloadField.p4i8.i32(i8 addrspace(4)* %Block2D_AddrPayload, i32 5, i32 %548, i1 false)		; visa id: 1127
  call void @llvm.genx.GenISA.LSC2DBlockSetAddrPayloadField.p4i8.i32(i8 addrspace(4)* %Block2D_AddrPayload, i32 6, i32 %173, i1 false)		; visa id: 1128
  %549 = call <32 x i16> asm "lsc_load_block2d.ugm (M1, 1)  $0:d$2.$3x$4x$5nn flat[$1+(0,0)]", "=rw,rw.u,P,P,P,P"(i8 addrspace(4)* %Block2D_AddrPayload, i32 16, i32 2, i32 16, i32 16) #0		; visa id: 1129
  %550 = lshr exact i32 %548, 1		; visa id: 1129
  call void @llvm.genx.GenISA.LSC2DBlockSetAddrPayloadField.p4i8.i32(i8 addrspace(4)* %Block2D_AddrPayload117, i32 5, i32 %550, i1 false)		; visa id: 1130
  call void @llvm.genx.GenISA.LSC2DBlockSetAddrPayloadField.p4i8.i32(i8 addrspace(4)* %Block2D_AddrPayload117, i32 6, i32 %384, i1 false)		; visa id: 1131
  %551 = call <16 x i16> asm "lsc_load_block2d.ugm (M1, 1)  $0:d$2.$3x$4tn flat[$1+(0,0)]", "=rw,rw.u,P,P,P"(i8 addrspace(4)* %Block2D_AddrPayload117, i32 32, i32 8, i32 16) #0		; visa id: 1132
  %552 = add i32 %384, 16		; visa id: 1132
  call void @llvm.genx.GenISA.LSC2DBlockSetAddrPayloadField.p4i8.i32(i8 addrspace(4)* %Block2D_AddrPayload117, i32 5, i32 %550, i1 false)		; visa id: 1133
  call void @llvm.genx.GenISA.LSC2DBlockSetAddrPayloadField.p4i8.i32(i8 addrspace(4)* %Block2D_AddrPayload117, i32 6, i32 %552, i1 false)		; visa id: 1134
  %553 = call <16 x i16> asm "lsc_load_block2d.ugm (M1, 1)  $0:d$2.$3x$4tn flat[$1+(0,0)]", "=rw,rw.u,P,P,P"(i8 addrspace(4)* %Block2D_AddrPayload117, i32 32, i32 8, i32 16) #0		; visa id: 1135
  %554 = or i32 %550, 8		; visa id: 1135
  call void @llvm.genx.GenISA.LSC2DBlockSetAddrPayloadField.p4i8.i32(i8 addrspace(4)* %Block2D_AddrPayload117, i32 5, i32 %554, i1 false)		; visa id: 1136
  call void @llvm.genx.GenISA.LSC2DBlockSetAddrPayloadField.p4i8.i32(i8 addrspace(4)* %Block2D_AddrPayload117, i32 6, i32 %384, i1 false)		; visa id: 1137
  %555 = call <16 x i16> asm "lsc_load_block2d.ugm (M1, 1)  $0:d$2.$3x$4tn flat[$1+(0,0)]", "=rw,rw.u,P,P,P"(i8 addrspace(4)* %Block2D_AddrPayload117, i32 32, i32 8, i32 16) #0		; visa id: 1138
  call void @llvm.genx.GenISA.LSC2DBlockSetAddrPayloadField.p4i8.i32(i8 addrspace(4)* %Block2D_AddrPayload117, i32 5, i32 %554, i1 false)		; visa id: 1138
  call void @llvm.genx.GenISA.LSC2DBlockSetAddrPayloadField.p4i8.i32(i8 addrspace(4)* %Block2D_AddrPayload117, i32 6, i32 %552, i1 false)		; visa id: 1139
  %556 = call <16 x i16> asm "lsc_load_block2d.ugm (M1, 1)  $0:d$2.$3x$4tn flat[$1+(0,0)]", "=rw,rw.u,P,P,P"(i8 addrspace(4)* %Block2D_AddrPayload117, i32 32, i32 8, i32 16) #0		; visa id: 1140
  %557 = extractelement <32 x i16> %549, i32 0		; visa id: 1140
  %558 = insertelement <8 x i16> undef, i16 %557, i32 0		; visa id: 1140
  %559 = extractelement <32 x i16> %549, i32 1		; visa id: 1140
  %560 = insertelement <8 x i16> %558, i16 %559, i32 1		; visa id: 1140
  %561 = extractelement <32 x i16> %549, i32 2		; visa id: 1140
  %562 = insertelement <8 x i16> %560, i16 %561, i32 2		; visa id: 1140
  %563 = extractelement <32 x i16> %549, i32 3		; visa id: 1140
  %564 = insertelement <8 x i16> %562, i16 %563, i32 3		; visa id: 1140
  %565 = extractelement <32 x i16> %549, i32 4		; visa id: 1140
  %566 = insertelement <8 x i16> %564, i16 %565, i32 4		; visa id: 1140
  %567 = extractelement <32 x i16> %549, i32 5		; visa id: 1140
  %568 = insertelement <8 x i16> %566, i16 %567, i32 5		; visa id: 1140
  %569 = extractelement <32 x i16> %549, i32 6		; visa id: 1140
  %570 = insertelement <8 x i16> %568, i16 %569, i32 6		; visa id: 1140
  %571 = extractelement <32 x i16> %549, i32 7		; visa id: 1140
  %572 = insertelement <8 x i16> %570, i16 %571, i32 7		; visa id: 1140
  %573 = extractelement <32 x i16> %549, i32 8		; visa id: 1140
  %574 = insertelement <8 x i16> undef, i16 %573, i32 0		; visa id: 1140
  %575 = extractelement <32 x i16> %549, i32 9		; visa id: 1140
  %576 = insertelement <8 x i16> %574, i16 %575, i32 1		; visa id: 1140
  %577 = extractelement <32 x i16> %549, i32 10		; visa id: 1140
  %578 = insertelement <8 x i16> %576, i16 %577, i32 2		; visa id: 1140
  %579 = extractelement <32 x i16> %549, i32 11		; visa id: 1140
  %580 = insertelement <8 x i16> %578, i16 %579, i32 3		; visa id: 1140
  %581 = extractelement <32 x i16> %549, i32 12		; visa id: 1140
  %582 = insertelement <8 x i16> %580, i16 %581, i32 4		; visa id: 1140
  %583 = extractelement <32 x i16> %549, i32 13		; visa id: 1140
  %584 = insertelement <8 x i16> %582, i16 %583, i32 5		; visa id: 1140
  %585 = extractelement <32 x i16> %549, i32 14		; visa id: 1140
  %586 = insertelement <8 x i16> %584, i16 %585, i32 6		; visa id: 1140
  %587 = extractelement <32 x i16> %549, i32 15		; visa id: 1140
  %588 = insertelement <8 x i16> %586, i16 %587, i32 7		; visa id: 1140
  %589 = extractelement <32 x i16> %549, i32 16		; visa id: 1140
  %590 = insertelement <8 x i16> undef, i16 %589, i32 0		; visa id: 1140
  %591 = extractelement <32 x i16> %549, i32 17		; visa id: 1140
  %592 = insertelement <8 x i16> %590, i16 %591, i32 1		; visa id: 1140
  %593 = extractelement <32 x i16> %549, i32 18		; visa id: 1140
  %594 = insertelement <8 x i16> %592, i16 %593, i32 2		; visa id: 1140
  %595 = extractelement <32 x i16> %549, i32 19		; visa id: 1140
  %596 = insertelement <8 x i16> %594, i16 %595, i32 3		; visa id: 1140
  %597 = extractelement <32 x i16> %549, i32 20		; visa id: 1140
  %598 = insertelement <8 x i16> %596, i16 %597, i32 4		; visa id: 1140
  %599 = extractelement <32 x i16> %549, i32 21		; visa id: 1140
  %600 = insertelement <8 x i16> %598, i16 %599, i32 5		; visa id: 1140
  %601 = extractelement <32 x i16> %549, i32 22		; visa id: 1140
  %602 = insertelement <8 x i16> %600, i16 %601, i32 6		; visa id: 1140
  %603 = extractelement <32 x i16> %549, i32 23		; visa id: 1140
  %604 = insertelement <8 x i16> %602, i16 %603, i32 7		; visa id: 1140
  %605 = extractelement <32 x i16> %549, i32 24		; visa id: 1140
  %606 = insertelement <8 x i16> undef, i16 %605, i32 0		; visa id: 1140
  %607 = extractelement <32 x i16> %549, i32 25		; visa id: 1140
  %608 = insertelement <8 x i16> %606, i16 %607, i32 1		; visa id: 1140
  %609 = extractelement <32 x i16> %549, i32 26		; visa id: 1140
  %610 = insertelement <8 x i16> %608, i16 %609, i32 2		; visa id: 1140
  %611 = extractelement <32 x i16> %549, i32 27		; visa id: 1140
  %612 = insertelement <8 x i16> %610, i16 %611, i32 3		; visa id: 1140
  %613 = extractelement <32 x i16> %549, i32 28		; visa id: 1140
  %614 = insertelement <8 x i16> %612, i16 %613, i32 4		; visa id: 1140
  %615 = extractelement <32 x i16> %549, i32 29		; visa id: 1140
  %616 = insertelement <8 x i16> %614, i16 %615, i32 5		; visa id: 1140
  %617 = extractelement <32 x i16> %549, i32 30		; visa id: 1140
  %618 = insertelement <8 x i16> %616, i16 %617, i32 6		; visa id: 1140
  %619 = extractelement <32 x i16> %549, i32 31		; visa id: 1140
  %620 = insertelement <8 x i16> %618, i16 %619, i32 7		; visa id: 1140
  %621 = call <8 x float> asm "{\0A.decl DST     v_type=G type=f num_elts=$5 alias=<$0,0>\0A.decl SRC1_UD v_type=G type=UD num_elts=128 alias=<$2,0>\0A.decl SRC2_UD v_type=G type=UD num_elts=$4 alias=<$1,0>\0Adpas.bf.bf.8.$3 (M1, 16) DST.0 DST.0 SRC1_UD.0 SRC2_UD(0,0)\0A}\0A", "=rw,rw,rw,P,P,P,0"(<8 x i16> %572, <16 x i16> %551, i32 8, i32 64, i32 128, <8 x float> %.sroa.03158.26697) #0		; visa id: 1140
  %622 = call <8 x float> asm "{\0A.decl DST     v_type=G type=f num_elts=$5 alias=<$0,0>\0A.decl SRC1_UD v_type=G type=UD num_elts=128 alias=<$2,0>\0A.decl SRC2_UD v_type=G type=UD num_elts=$4 alias=<$1,0>\0Adpas.bf.bf.8.$3 (M1, 16) DST.0 DST.0 SRC1_UD.0 SRC2_UD(0,0)\0A}\0A", "=rw,rw,rw,P,P,P,0"(<8 x i16> %588, <16 x i16> %551, i32 8, i32 64, i32 128, <8 x float> %.sroa.147.26696) #0		; visa id: 1140
  %623 = call <8 x float> asm "{\0A.decl DST     v_type=G type=f num_elts=$5 alias=<$0,0>\0A.decl SRC1_UD v_type=G type=UD num_elts=128 alias=<$2,0>\0A.decl SRC2_UD v_type=G type=UD num_elts=$4 alias=<$1,0>\0Adpas.bf.bf.8.$3 (M1, 16) DST.0 DST.0 SRC1_UD.0 SRC2_UD(0,0)\0A}\0A", "=rw,rw,rw,P,P,P,0"(<8 x i16> %588, <16 x i16> %553, i32 8, i32 64, i32 128, <8 x float> %.sroa.435.26694) #0		; visa id: 1140
  %624 = call <8 x float> asm "{\0A.decl DST     v_type=G type=f num_elts=$5 alias=<$0,0>\0A.decl SRC1_UD v_type=G type=UD num_elts=128 alias=<$2,0>\0A.decl SRC2_UD v_type=G type=UD num_elts=$4 alias=<$1,0>\0Adpas.bf.bf.8.$3 (M1, 16) DST.0 DST.0 SRC1_UD.0 SRC2_UD(0,0)\0A}\0A", "=rw,rw,rw,P,P,P,0"(<8 x i16> %572, <16 x i16> %553, i32 8, i32 64, i32 128, <8 x float> %.sroa.291.26695) #0		; visa id: 1140
  %625 = call <8 x float> asm "{\0A.decl DST     v_type=G type=f num_elts=$5 alias=<$0,0>\0A.decl SRC1_UD v_type=G type=UD num_elts=128 alias=<$2,0>\0A.decl SRC2_UD v_type=G type=UD num_elts=$4 alias=<$1,0>\0Adpas.bf.bf.8.$3 (M1, 16) DST.0 DST.0 SRC1_UD.0 SRC2_UD(0,0)\0A}\0A", "=rw,rw,rw,P,P,P,0"(<8 x i16> %604, <16 x i16> %555, i32 8, i32 64, i32 128, <8 x float> %621) #0		; visa id: 1140
  %626 = call <8 x float> asm "{\0A.decl DST     v_type=G type=f num_elts=$5 alias=<$0,0>\0A.decl SRC1_UD v_type=G type=UD num_elts=128 alias=<$2,0>\0A.decl SRC2_UD v_type=G type=UD num_elts=$4 alias=<$1,0>\0Adpas.bf.bf.8.$3 (M1, 16) DST.0 DST.0 SRC1_UD.0 SRC2_UD(0,0)\0A}\0A", "=rw,rw,rw,P,P,P,0"(<8 x i16> %620, <16 x i16> %555, i32 8, i32 64, i32 128, <8 x float> %622) #0		; visa id: 1140
  %627 = call <8 x float> asm "{\0A.decl DST     v_type=G type=f num_elts=$5 alias=<$0,0>\0A.decl SRC1_UD v_type=G type=UD num_elts=128 alias=<$2,0>\0A.decl SRC2_UD v_type=G type=UD num_elts=$4 alias=<$1,0>\0Adpas.bf.bf.8.$3 (M1, 16) DST.0 DST.0 SRC1_UD.0 SRC2_UD(0,0)\0A}\0A", "=rw,rw,rw,P,P,P,0"(<8 x i16> %620, <16 x i16> %556, i32 8, i32 64, i32 128, <8 x float> %623) #0		; visa id: 1140
  %628 = call <8 x float> asm "{\0A.decl DST     v_type=G type=f num_elts=$5 alias=<$0,0>\0A.decl SRC1_UD v_type=G type=UD num_elts=128 alias=<$2,0>\0A.decl SRC2_UD v_type=G type=UD num_elts=$4 alias=<$1,0>\0Adpas.bf.bf.8.$3 (M1, 16) DST.0 DST.0 SRC1_UD.0 SRC2_UD(0,0)\0A}\0A", "=rw,rw,rw,P,P,P,0"(<8 x i16> %604, <16 x i16> %556, i32 8, i32 64, i32 128, <8 x float> %624) #0		; visa id: 1140
  br label %._crit_edge172, !stats.blockFrequency.digits !1243, !stats.blockFrequency.scale !1227		; visa id: 1140

._crit_edge172.unr-lcssa.._crit_edge172_crit_edge: ; preds = %._crit_edge172.unr-lcssa
; BB:
  br label %._crit_edge172, !stats.blockFrequency.digits !1228, !stats.blockFrequency.scale !1209

._crit_edge172:                                   ; preds = %._crit_edge172.unr-lcssa.._crit_edge172_crit_edge, %precompiled_s32divrem_sp.exit7017.._crit_edge172_crit_edge, %.epil.preheader194
; BB86 :
  %.sroa.435.4 = phi <8 x float> [ zeroinitializer, %precompiled_s32divrem_sp.exit7017.._crit_edge172_crit_edge ], [ %627, %.epil.preheader194 ], [ %.lcssa7211, %._crit_edge172.unr-lcssa.._crit_edge172_crit_edge ]
  %.sroa.291.4 = phi <8 x float> [ zeroinitializer, %precompiled_s32divrem_sp.exit7017.._crit_edge172_crit_edge ], [ %628, %.epil.preheader194 ], [ %.lcssa7210, %._crit_edge172.unr-lcssa.._crit_edge172_crit_edge ]
  %.sroa.147.4 = phi <8 x float> [ zeroinitializer, %precompiled_s32divrem_sp.exit7017.._crit_edge172_crit_edge ], [ %626, %.epil.preheader194 ], [ %.lcssa7212, %._crit_edge172.unr-lcssa.._crit_edge172_crit_edge ]
  %.sroa.03158.4 = phi <8 x float> [ zeroinitializer, %precompiled_s32divrem_sp.exit7017.._crit_edge172_crit_edge ], [ %625, %.epil.preheader194 ], [ %.lcssa7213, %._crit_edge172.unr-lcssa.._crit_edge172_crit_edge ]
  %629 = add nsw i32 %384, %175, !spirv.Decorations !1210		; visa id: 1141
  call void @llvm.genx.GenISA.LSC2DBlockSetAddrPayloadField.p4i8.i32(i8 addrspace(4)* %Block2D_AddrPayload123, i32 5, i32 %319, i1 false)		; visa id: 1142
  call void @llvm.genx.GenISA.LSC2DBlockSetAddrPayloadField.p4i8.i32(i8 addrspace(4)* %Block2D_AddrPayload123, i32 6, i32 %629, i1 false)		; visa id: 1143
  call void asm sideeffect "lsc_load_block2d.ugm.ca.ca (M1, 1)  %null:d$1.$2x$3nn flat[$0+(0,0)]", "rw.u,P,P,P"(i8 addrspace(4)* %Block2D_AddrPayload123, i32 16, i32 32, i32 2) #0		; visa id: 1144
  call void @llvm.genx.GenISA.LSC2DBlockSetAddrPayloadField.p4i8.i32(i8 addrspace(4)* %Block2D_AddrPayload123, i32 5, i32 %320, i1 false)		; visa id: 1144
  call void @llvm.genx.GenISA.LSC2DBlockSetAddrPayloadField.p4i8.i32(i8 addrspace(4)* %Block2D_AddrPayload123, i32 6, i32 %629, i1 false)		; visa id: 1145
  call void asm sideeffect "lsc_load_block2d.ugm.ca.ca (M1, 1)  %null:d$1.$2x$3nn flat[$0+(0,0)]", "rw.u,P,P,P"(i8 addrspace(4)* %Block2D_AddrPayload123, i32 16, i32 32, i32 2) #0		; visa id: 1146
  call void @llvm.genx.GenISA.LSC2DBlockSetAddrPayloadField.p4i8.i32(i8 addrspace(4)* %Block2D_AddrPayload123, i32 5, i32 %321, i1 false)		; visa id: 1146
  call void @llvm.genx.GenISA.LSC2DBlockSetAddrPayloadField.p4i8.i32(i8 addrspace(4)* %Block2D_AddrPayload123, i32 6, i32 %629, i1 false)		; visa id: 1147
  call void asm sideeffect "lsc_load_block2d.ugm.ca.ca (M1, 1)  %null:d$1.$2x$3nn flat[$0+(0,0)]", "rw.u,P,P,P"(i8 addrspace(4)* %Block2D_AddrPayload123, i32 16, i32 32, i32 2) #0		; visa id: 1148
  call void @llvm.genx.GenISA.LSC2DBlockSetAddrPayloadField.p4i8.i32(i8 addrspace(4)* %Block2D_AddrPayload123, i32 5, i32 %322, i1 false)		; visa id: 1148
  call void @llvm.genx.GenISA.LSC2DBlockSetAddrPayloadField.p4i8.i32(i8 addrspace(4)* %Block2D_AddrPayload123, i32 6, i32 %629, i1 false)		; visa id: 1149
  call void asm sideeffect "lsc_load_block2d.ugm.ca.ca (M1, 1)  %null:d$1.$2x$3nn flat[$0+(0,0)]", "rw.u,P,P,P"(i8 addrspace(4)* %Block2D_AddrPayload123, i32 16, i32 32, i32 2) #0		; visa id: 1150
  %630 = extractelement <8 x float> %.sroa.03158.4, i32 0		; visa id: 1150
  %631 = extractelement <8 x float> %.sroa.291.4, i32 0		; visa id: 1151
  %632 = fcmp reassoc nsz arcp contract olt float %630, %631, !spirv.Decorations !1244		; visa id: 1152
  %633 = select i1 %632, float %631, float %630		; visa id: 1153
  %634 = extractelement <8 x float> %.sroa.03158.4, i32 1		; visa id: 1154
  %635 = extractelement <8 x float> %.sroa.291.4, i32 1		; visa id: 1155
  %636 = fcmp reassoc nsz arcp contract olt float %634, %635, !spirv.Decorations !1244		; visa id: 1156
  %637 = select i1 %636, float %635, float %634		; visa id: 1157
  %638 = extractelement <8 x float> %.sroa.03158.4, i32 2		; visa id: 1158
  %639 = extractelement <8 x float> %.sroa.291.4, i32 2		; visa id: 1159
  %640 = fcmp reassoc nsz arcp contract olt float %638, %639, !spirv.Decorations !1244		; visa id: 1160
  %641 = select i1 %640, float %639, float %638		; visa id: 1161
  %642 = extractelement <8 x float> %.sroa.03158.4, i32 3		; visa id: 1162
  %643 = extractelement <8 x float> %.sroa.291.4, i32 3		; visa id: 1163
  %644 = fcmp reassoc nsz arcp contract olt float %642, %643, !spirv.Decorations !1244		; visa id: 1164
  %645 = select i1 %644, float %643, float %642		; visa id: 1165
  %646 = extractelement <8 x float> %.sroa.03158.4, i32 4		; visa id: 1166
  %647 = extractelement <8 x float> %.sroa.291.4, i32 4		; visa id: 1167
  %648 = fcmp reassoc nsz arcp contract olt float %646, %647, !spirv.Decorations !1244		; visa id: 1168
  %649 = select i1 %648, float %647, float %646		; visa id: 1169
  %650 = extractelement <8 x float> %.sroa.03158.4, i32 5		; visa id: 1170
  %651 = extractelement <8 x float> %.sroa.291.4, i32 5		; visa id: 1171
  %652 = fcmp reassoc nsz arcp contract olt float %650, %651, !spirv.Decorations !1244		; visa id: 1172
  %653 = select i1 %652, float %651, float %650		; visa id: 1173
  %654 = extractelement <8 x float> %.sroa.03158.4, i32 6		; visa id: 1174
  %655 = extractelement <8 x float> %.sroa.291.4, i32 6		; visa id: 1175
  %656 = fcmp reassoc nsz arcp contract olt float %654, %655, !spirv.Decorations !1244		; visa id: 1176
  %657 = select i1 %656, float %655, float %654		; visa id: 1177
  %658 = extractelement <8 x float> %.sroa.03158.4, i32 7		; visa id: 1178
  %659 = extractelement <8 x float> %.sroa.291.4, i32 7		; visa id: 1179
  %660 = fcmp reassoc nsz arcp contract olt float %658, %659, !spirv.Decorations !1244		; visa id: 1180
  %661 = select i1 %660, float %659, float %658		; visa id: 1181
  %662 = extractelement <8 x float> %.sroa.147.4, i32 0		; visa id: 1182
  %663 = extractelement <8 x float> %.sroa.435.4, i32 0		; visa id: 1183
  %664 = fcmp reassoc nsz arcp contract olt float %662, %663, !spirv.Decorations !1244		; visa id: 1184
  %665 = select i1 %664, float %663, float %662		; visa id: 1185
  %666 = extractelement <8 x float> %.sroa.147.4, i32 1		; visa id: 1186
  %667 = extractelement <8 x float> %.sroa.435.4, i32 1		; visa id: 1187
  %668 = fcmp reassoc nsz arcp contract olt float %666, %667, !spirv.Decorations !1244		; visa id: 1188
  %669 = select i1 %668, float %667, float %666		; visa id: 1189
  %670 = extractelement <8 x float> %.sroa.147.4, i32 2		; visa id: 1190
  %671 = extractelement <8 x float> %.sroa.435.4, i32 2		; visa id: 1191
  %672 = fcmp reassoc nsz arcp contract olt float %670, %671, !spirv.Decorations !1244		; visa id: 1192
  %673 = select i1 %672, float %671, float %670		; visa id: 1193
  %674 = extractelement <8 x float> %.sroa.147.4, i32 3		; visa id: 1194
  %675 = extractelement <8 x float> %.sroa.435.4, i32 3		; visa id: 1195
  %676 = fcmp reassoc nsz arcp contract olt float %674, %675, !spirv.Decorations !1244		; visa id: 1196
  %677 = select i1 %676, float %675, float %674		; visa id: 1197
  %678 = extractelement <8 x float> %.sroa.147.4, i32 4		; visa id: 1198
  %679 = extractelement <8 x float> %.sroa.435.4, i32 4		; visa id: 1199
  %680 = fcmp reassoc nsz arcp contract olt float %678, %679, !spirv.Decorations !1244		; visa id: 1200
  %681 = select i1 %680, float %679, float %678		; visa id: 1201
  %682 = extractelement <8 x float> %.sroa.147.4, i32 5		; visa id: 1202
  %683 = extractelement <8 x float> %.sroa.435.4, i32 5		; visa id: 1203
  %684 = fcmp reassoc nsz arcp contract olt float %682, %683, !spirv.Decorations !1244		; visa id: 1204
  %685 = select i1 %684, float %683, float %682		; visa id: 1205
  %686 = extractelement <8 x float> %.sroa.147.4, i32 6		; visa id: 1206
  %687 = extractelement <8 x float> %.sroa.435.4, i32 6		; visa id: 1207
  %688 = fcmp reassoc nsz arcp contract olt float %686, %687, !spirv.Decorations !1244		; visa id: 1208
  %689 = select i1 %688, float %687, float %686		; visa id: 1209
  %690 = extractelement <8 x float> %.sroa.147.4, i32 7		; visa id: 1210
  %691 = extractelement <8 x float> %.sroa.435.4, i32 7		; visa id: 1211
  %692 = fcmp reassoc nsz arcp contract olt float %690, %691, !spirv.Decorations !1244		; visa id: 1212
  %693 = select i1 %692, float %691, float %690		; visa id: 1213
  %694 = call float asm "{\0A.decl INTERLEAVE_2 v_type=P num_elts=16\0A.decl INTERLEAVE_4 v_type=P num_elts=16\0A.decl INTERLEAVE_8 v_type=P num_elts=16\0A.decl IN0 v_type=G type=UD num_elts=16 alias=<$1,0>\0A.decl IN1 v_type=G type=UD num_elts=16 alias=<$2,0>\0A.decl IN2 v_type=G type=UD num_elts=16 alias=<$3,0>\0A.decl IN3 v_type=G type=UD num_elts=16 alias=<$4,0>\0A.decl IN4 v_type=G type=UD num_elts=16 alias=<$5,0>\0A.decl IN5 v_type=G type=UD num_elts=16 alias=<$6,0>\0A.decl IN6 v_type=G type=UD num_elts=16 alias=<$7,0>\0A.decl IN7 v_type=G type=UD num_elts=16 alias=<$8,0>\0A.decl IN8 v_type=G type=UD num_elts=16 alias=<$9,0>\0A.decl IN9 v_type=G type=UD num_elts=16 alias=<$10,0>\0A.decl IN10 v_type=G type=UD num_elts=16 alias=<$11,0>\0A.decl IN11 v_type=G type=UD num_elts=16 alias=<$12,0>\0A.decl IN12 v_type=G type=UD num_elts=16 alias=<$13,0>\0A.decl IN13 v_type=G type=UD num_elts=16 alias=<$14,0>\0A.decl IN14 v_type=G type=UD num_elts=16 alias=<$15,0>\0A.decl IN15 v_type=G type=UD num_elts=16 alias=<$16,0>\0A.decl RA0 v_type=G type=UD num_elts=32 align=64\0A.decl RA2 v_type=G type=UD num_elts=32 align=64\0A.decl RA4 v_type=G type=UD num_elts=32 align=64\0A.decl RA6 v_type=G type=UD num_elts=32 align=64\0A.decl RA8 v_type=G type=UD num_elts=32 align=64\0A.decl RA10 v_type=G type=UD num_elts=32 align=64\0A.decl RA12 v_type=G type=UD num_elts=32 align=64\0A.decl RA14 v_type=G type=UD num_elts=32 align=64\0A.decl RF0 v_type=G type=F num_elts=16 alias=<RA0,0>\0A.decl RF1 v_type=G type=F num_elts=16 alias=<RA0,64>\0A.decl RF2 v_type=G type=F num_elts=16 alias=<RA2,0>\0A.decl RF3 v_type=G type=F num_elts=16 alias=<RA2,64>\0A.decl RF4 v_type=G type=F num_elts=16 alias=<RA4,0>\0A.decl RF5 v_type=G type=F num_elts=16 alias=<RA4,64>\0A.decl RF6 v_type=G type=F num_elts=16 alias=<RA6,0>\0A.decl RF7 v_type=G type=F num_elts=16 alias=<RA6,64>\0A.decl RF8 v_type=G type=F num_elts=16 alias=<RA8,0>\0A.decl RF9 v_type=G type=F num_elts=16 alias=<RA8,64>\0A.decl RF10 v_type=G type=F num_elts=16 alias=<RA10,0>\0A.decl RF11 v_type=G type=F num_elts=16 alias=<RA10,64>\0A.decl RF12 v_type=G type=F num_elts=16 alias=<RA12,0>\0A.decl RF13 v_type=G type=F num_elts=16 alias=<RA12,64>\0A.decl RF14 v_type=G type=F num_elts=16 alias=<RA14,0>\0A.decl RF15 v_type=G type=F num_elts=16 alias=<RA14,64>\0Asetp (M1_NM,16) INTERLEAVE_2 0x5555:uw\0Asetp (M1_NM,16) INTERLEAVE_4 0x3333:uw\0Asetp (M1_NM,16) INTERLEAVE_8 0x0F0F:uw\0A(!INTERLEAVE_2) sel (M1_NM,16) RA0(0,0)<1>  IN1(0,0)<2;2,0>  IN0(0,0)<1;1,0>\0A (INTERLEAVE_2) sel (M1_NM,16) RA0(1,0)<1>  IN0(0,1)<2;2,0>  IN1(0,0)<1;1,0>\0A(!INTERLEAVE_2) sel (M1_NM,16) RA2(0,0)<1>  IN3(0,0)<2;2,0>  IN2(0,0)<1;1,0>\0A (INTERLEAVE_2) sel (M1_NM,16) RA2(1,0)<1>  IN2(0,1)<2;2,0>  IN3(0,0)<1;1,0>\0A(!INTERLEAVE_2) sel (M1_NM,16) RA4(0,0)<1>  IN5(0,0)<2;2,0>  IN4(0,0)<1;1,0>\0A (INTERLEAVE_2) sel (M1_NM,16) RA4(1,0)<1>  IN4(0,1)<2;2,0>  IN5(0,0)<1;1,0>\0A(!INTERLEAVE_2) sel (M1_NM,16) RA6(0,0)<1>  IN7(0,0)<2;2,0>  IN6(0,0)<1;1,0>\0A (INTERLEAVE_2) sel (M1_NM,16) RA6(1,0)<1>  IN6(0,1)<2;2,0>  IN7(0,0)<1;1,0>\0A(!INTERLEAVE_2) sel (M1_NM,16) RA8(0,0)<1>  IN9(0,0)<2;2,0>  IN8(0,0)<1;1,0>\0A (INTERLEAVE_2) sel (M1_NM,16) RA8(1,0)<1>  IN8(0,1)<2;2,0>  IN9(0,0)<1;1,0>\0A(!INTERLEAVE_2) sel (M1_NM,16) RA10(0,0)<1> IN11(0,0)<2;2,0> IN10(0,0)<1;1,0>\0A (INTERLEAVE_2) sel (M1_NM,16) RA10(1,0)<1> IN10(0,1)<2;2,0> IN11(0,0)<1;1,0>\0A(!INTERLEAVE_2) sel (M1_NM,16) RA12(0,0)<1> IN13(0,0)<2;2,0> IN12(0,0)<1;1,0>\0A (INTERLEAVE_2) sel (M1_NM,16) RA12(1,0)<1> IN12(0,1)<2;2,0> IN13(0,0)<1;1,0>\0A(!INTERLEAVE_2) sel (M1_NM,16) RA14(0,0)<1> IN15(0,0)<2;2,0> IN14(0,0)<1;1,0>\0A (INTERLEAVE_2) sel (M1_NM,16) RA14(1,0)<1> IN14(0,1)<2;2,0> IN15(0,0)<1;1,0>\0Amax (M1_NM,16) RF0(0,0)<1> RF0(0,0)<1;1,0> RF1(0,0)<1;1,0>\0Amax (M1_NM,16) RF3(0,0)<1> RF2(0,0)<1;1,0> RF3(0,0)<1;1,0>\0Amax (M1_NM,16) RF4(0,0)<1> RF4(0,0)<1;1,0> RF5(0,0)<1;1,0>\0Amax (M1_NM,16) RF7(0,0)<1> RF6(0,0)<1;1,0> RF7(0,0)<1;1,0>\0Amax (M1_NM,16) RF8(0,0)<1> RF8(0,0)<1;1,0> RF9(0,0)<1;1,0>\0Amax (M1_NM,16) RF11(0,0)<1> RF10(0,0)<1;1,0> RF11(0,0)<1;1,0>\0Amax (M1_NM,16) RF12(0,0)<1> RF12(0,0)<1;1,0> RF13(0,0)<1;1,0>\0Amax (M1_NM,16) RF15(0,0)<1> RF14(0,0)<1;1,0> RF15(0,0)<1;1,0>\0A(!INTERLEAVE_4) sel (M1_NM,16) RA0(1,0)<1>  RA2(0,14)<1;1,0>  RA0(0,0)<1;1,0>\0A (INTERLEAVE_4) sel (M1_NM,16) RA0(0,0)<1>  RA0(0,2)<1;1,0>   RA2(1,0)<1;1,0>\0A(!INTERLEAVE_4) sel (M1_NM,16) RA4(1,0)<1>  RA6(0,14)<1;1,0>  RA4(0,0)<1;1,0>\0A (INTERLEAVE_4) sel (M1_NM,16) RA4(0,0)<1>  RA4(0,2)<1;1,0>   RA6(1,0)<1;1,0>\0A(!INTERLEAVE_4) sel (M1_NM,16) RA8(1,0)<1>  RA10(0,14)<1;1,0> RA8(0,0)<1;1,0>\0A (INTERLEAVE_4) sel (M1_NM,16) RA8(0,0)<1>  RA8(0,2)<1;1,0>   RA10(1,0)<1;1,0>\0A(!INTERLEAVE_4) sel (M1_NM,16) RA12(1,0)<1> RA14(0,14)<1;1,0> RA12(0,0)<1;1,0>\0A (INTERLEAVE_4) sel (M1_NM,16) RA12(0,0)<1> RA12(0,2)<1;1,0>  RA14(1,0)<1;1,0>\0Amax (M1_NM,16) RF0(0,0)<1>  RF0(0,0)<1;1,0>  RF1(0,0)<1;1,0>\0Amax (M1_NM,16) RF5(0,0)<1>  RF4(0,0)<1;1,0>  RF5(0,0)<1;1,0>\0Amax (M1_NM,16) RF8(0,0)<1>  RF8(0,0)<1;1,0>  RF9(0,0)<1;1,0>\0Amax (M1_NM,16) RF13(0,0)<1> RF12(0,0)<1;1,0> RF13(0,0)<1;1,0>\0A(!INTERLEAVE_8) sel (M1_NM,16) RA0(1,0)<1> RA4(0,12)<1;1,0>  RA0(0,0)<1;1,0>\0A (INTERLEAVE_8) sel (M1_NM,16) RA0(0,0)<1> RA0(0,4)<1;1,0>   RA4(1,0)<1;1,0>\0A(!INTERLEAVE_8) sel (M1_NM,16) RA8(1,0)<1> RA12(0,12)<1;1,0> RA8(0,0)<1;1,0>\0A (INTERLEAVE_8) sel (M1_NM,16) RA8(0,0)<1> RA8(0,4)<1;1,0>   RA12(1,0)<1;1,0>\0Amax (M1_NM,16) RF0(0,0)<1> RF0(0,0)<1;1,0> RF1(0,0)<1;1,0>\0Amax (M1_NM,16) RF8(0,0)<1> RF8(0,0)<1;1,0> RF9(0,0)<1;1,0>\0Amov (M1_NM, 8) RA0(1,0)<1> RA0(0,8)<1;1,0>\0Amov (M1_NM, 8) RA8(1,8)<1> RA8(0,0)<1;1,0>\0Amax (M1_NM,8) $0(0,0)<1> RF0(0,0)<1;1,0> RF1(0,0)<1;1,0>\0Amax (M1_NM,8) $0(0,8)<1> RF8(0,8)<1;1,0> RF9(0,8)<1;1,0>\0A}\0A", "=rw,rw,rw,rw,rw,rw,rw,rw,rw,rw,rw,rw,rw,rw,rw,rw,rw"(float %633, float %637, float %641, float %645, float %649, float %653, float %657, float %661, float %665, float %669, float %673, float %677, float %681, float %685, float %689, float %693) #0		; visa id: 1214
  %695 = fmul reassoc nsz arcp contract float %694, %const_reg_fp32, !spirv.Decorations !1244		; visa id: 1214
  %696 = call float @llvm.maxnum.f32(float %.sroa.0215.1176, float %695)		; visa id: 1215
  %697 = fmul reassoc nsz arcp contract float %630, %const_reg_fp32, !spirv.Decorations !1244
  %simdBroadcast109 = call float @llvm.genx.GenISA.WaveBroadcast.f32(float %696, i32 0, i32 0)
  %698 = fsub reassoc nsz arcp contract float %697, %simdBroadcast109, !spirv.Decorations !1244		; visa id: 1216
  %699 = call float @llvm.exp2.f32(float %698)		; visa id: 1217
  %700 = fmul reassoc nsz arcp contract float %634, %const_reg_fp32, !spirv.Decorations !1244
  %simdBroadcast109.1 = call float @llvm.genx.GenISA.WaveBroadcast.f32(float %696, i32 1, i32 0)
  %701 = fsub reassoc nsz arcp contract float %700, %simdBroadcast109.1, !spirv.Decorations !1244		; visa id: 1218
  %702 = call float @llvm.exp2.f32(float %701)		; visa id: 1219
  %703 = fmul reassoc nsz arcp contract float %638, %const_reg_fp32, !spirv.Decorations !1244
  %simdBroadcast109.2 = call float @llvm.genx.GenISA.WaveBroadcast.f32(float %696, i32 2, i32 0)
  %704 = fsub reassoc nsz arcp contract float %703, %simdBroadcast109.2, !spirv.Decorations !1244		; visa id: 1220
  %705 = call float @llvm.exp2.f32(float %704)		; visa id: 1221
  %706 = fmul reassoc nsz arcp contract float %642, %const_reg_fp32, !spirv.Decorations !1244
  %simdBroadcast109.3 = call float @llvm.genx.GenISA.WaveBroadcast.f32(float %696, i32 3, i32 0)
  %707 = fsub reassoc nsz arcp contract float %706, %simdBroadcast109.3, !spirv.Decorations !1244		; visa id: 1222
  %708 = call float @llvm.exp2.f32(float %707)		; visa id: 1223
  %709 = fmul reassoc nsz arcp contract float %646, %const_reg_fp32, !spirv.Decorations !1244
  %simdBroadcast109.4 = call float @llvm.genx.GenISA.WaveBroadcast.f32(float %696, i32 4, i32 0)
  %710 = fsub reassoc nsz arcp contract float %709, %simdBroadcast109.4, !spirv.Decorations !1244		; visa id: 1224
  %711 = call float @llvm.exp2.f32(float %710)		; visa id: 1225
  %712 = fmul reassoc nsz arcp contract float %650, %const_reg_fp32, !spirv.Decorations !1244
  %simdBroadcast109.5 = call float @llvm.genx.GenISA.WaveBroadcast.f32(float %696, i32 5, i32 0)
  %713 = fsub reassoc nsz arcp contract float %712, %simdBroadcast109.5, !spirv.Decorations !1244		; visa id: 1226
  %714 = call float @llvm.exp2.f32(float %713)		; visa id: 1227
  %715 = fmul reassoc nsz arcp contract float %654, %const_reg_fp32, !spirv.Decorations !1244
  %simdBroadcast109.6 = call float @llvm.genx.GenISA.WaveBroadcast.f32(float %696, i32 6, i32 0)
  %716 = fsub reassoc nsz arcp contract float %715, %simdBroadcast109.6, !spirv.Decorations !1244		; visa id: 1228
  %717 = call float @llvm.exp2.f32(float %716)		; visa id: 1229
  %718 = fmul reassoc nsz arcp contract float %658, %const_reg_fp32, !spirv.Decorations !1244
  %simdBroadcast109.7 = call float @llvm.genx.GenISA.WaveBroadcast.f32(float %696, i32 7, i32 0)
  %719 = fsub reassoc nsz arcp contract float %718, %simdBroadcast109.7, !spirv.Decorations !1244		; visa id: 1230
  %720 = call float @llvm.exp2.f32(float %719)		; visa id: 1231
  %721 = fmul reassoc nsz arcp contract float %662, %const_reg_fp32, !spirv.Decorations !1244
  %simdBroadcast109.8 = call float @llvm.genx.GenISA.WaveBroadcast.f32(float %696, i32 8, i32 0)
  %722 = fsub reassoc nsz arcp contract float %721, %simdBroadcast109.8, !spirv.Decorations !1244		; visa id: 1232
  %723 = call float @llvm.exp2.f32(float %722)		; visa id: 1233
  %724 = fmul reassoc nsz arcp contract float %666, %const_reg_fp32, !spirv.Decorations !1244
  %simdBroadcast109.9 = call float @llvm.genx.GenISA.WaveBroadcast.f32(float %696, i32 9, i32 0)
  %725 = fsub reassoc nsz arcp contract float %724, %simdBroadcast109.9, !spirv.Decorations !1244		; visa id: 1234
  %726 = call float @llvm.exp2.f32(float %725)		; visa id: 1235
  %727 = fmul reassoc nsz arcp contract float %670, %const_reg_fp32, !spirv.Decorations !1244
  %simdBroadcast109.10 = call float @llvm.genx.GenISA.WaveBroadcast.f32(float %696, i32 10, i32 0)
  %728 = fsub reassoc nsz arcp contract float %727, %simdBroadcast109.10, !spirv.Decorations !1244		; visa id: 1236
  %729 = call float @llvm.exp2.f32(float %728)		; visa id: 1237
  %730 = fmul reassoc nsz arcp contract float %674, %const_reg_fp32, !spirv.Decorations !1244
  %simdBroadcast109.11 = call float @llvm.genx.GenISA.WaveBroadcast.f32(float %696, i32 11, i32 0)
  %731 = fsub reassoc nsz arcp contract float %730, %simdBroadcast109.11, !spirv.Decorations !1244		; visa id: 1238
  %732 = call float @llvm.exp2.f32(float %731)		; visa id: 1239
  %733 = fmul reassoc nsz arcp contract float %678, %const_reg_fp32, !spirv.Decorations !1244
  %simdBroadcast109.12 = call float @llvm.genx.GenISA.WaveBroadcast.f32(float %696, i32 12, i32 0)
  %734 = fsub reassoc nsz arcp contract float %733, %simdBroadcast109.12, !spirv.Decorations !1244		; visa id: 1240
  %735 = call float @llvm.exp2.f32(float %734)		; visa id: 1241
  %736 = fmul reassoc nsz arcp contract float %682, %const_reg_fp32, !spirv.Decorations !1244
  %simdBroadcast109.13 = call float @llvm.genx.GenISA.WaveBroadcast.f32(float %696, i32 13, i32 0)
  %737 = fsub reassoc nsz arcp contract float %736, %simdBroadcast109.13, !spirv.Decorations !1244		; visa id: 1242
  %738 = call float @llvm.exp2.f32(float %737)		; visa id: 1243
  %739 = fmul reassoc nsz arcp contract float %686, %const_reg_fp32, !spirv.Decorations !1244
  %simdBroadcast109.14 = call float @llvm.genx.GenISA.WaveBroadcast.f32(float %696, i32 14, i32 0)
  %740 = fsub reassoc nsz arcp contract float %739, %simdBroadcast109.14, !spirv.Decorations !1244		; visa id: 1244
  %741 = call float @llvm.exp2.f32(float %740)		; visa id: 1245
  %742 = fmul reassoc nsz arcp contract float %690, %const_reg_fp32, !spirv.Decorations !1244
  %simdBroadcast109.15 = call float @llvm.genx.GenISA.WaveBroadcast.f32(float %696, i32 15, i32 0)
  %743 = fsub reassoc nsz arcp contract float %742, %simdBroadcast109.15, !spirv.Decorations !1244		; visa id: 1246
  %744 = call float @llvm.exp2.f32(float %743)		; visa id: 1247
  %745 = fmul reassoc nsz arcp contract float %631, %const_reg_fp32, !spirv.Decorations !1244
  %746 = fsub reassoc nsz arcp contract float %745, %simdBroadcast109, !spirv.Decorations !1244		; visa id: 1248
  %747 = call float @llvm.exp2.f32(float %746)		; visa id: 1249
  %748 = fmul reassoc nsz arcp contract float %635, %const_reg_fp32, !spirv.Decorations !1244
  %749 = fsub reassoc nsz arcp contract float %748, %simdBroadcast109.1, !spirv.Decorations !1244		; visa id: 1250
  %750 = call float @llvm.exp2.f32(float %749)		; visa id: 1251
  %751 = fmul reassoc nsz arcp contract float %639, %const_reg_fp32, !spirv.Decorations !1244
  %752 = fsub reassoc nsz arcp contract float %751, %simdBroadcast109.2, !spirv.Decorations !1244		; visa id: 1252
  %753 = call float @llvm.exp2.f32(float %752)		; visa id: 1253
  %754 = fmul reassoc nsz arcp contract float %643, %const_reg_fp32, !spirv.Decorations !1244
  %755 = fsub reassoc nsz arcp contract float %754, %simdBroadcast109.3, !spirv.Decorations !1244		; visa id: 1254
  %756 = call float @llvm.exp2.f32(float %755)		; visa id: 1255
  %757 = fmul reassoc nsz arcp contract float %647, %const_reg_fp32, !spirv.Decorations !1244
  %758 = fsub reassoc nsz arcp contract float %757, %simdBroadcast109.4, !spirv.Decorations !1244		; visa id: 1256
  %759 = call float @llvm.exp2.f32(float %758)		; visa id: 1257
  %760 = fmul reassoc nsz arcp contract float %651, %const_reg_fp32, !spirv.Decorations !1244
  %761 = fsub reassoc nsz arcp contract float %760, %simdBroadcast109.5, !spirv.Decorations !1244		; visa id: 1258
  %762 = call float @llvm.exp2.f32(float %761)		; visa id: 1259
  %763 = fmul reassoc nsz arcp contract float %655, %const_reg_fp32, !spirv.Decorations !1244
  %764 = fsub reassoc nsz arcp contract float %763, %simdBroadcast109.6, !spirv.Decorations !1244		; visa id: 1260
  %765 = call float @llvm.exp2.f32(float %764)		; visa id: 1261
  %766 = fmul reassoc nsz arcp contract float %659, %const_reg_fp32, !spirv.Decorations !1244
  %767 = fsub reassoc nsz arcp contract float %766, %simdBroadcast109.7, !spirv.Decorations !1244		; visa id: 1262
  %768 = call float @llvm.exp2.f32(float %767)		; visa id: 1263
  %769 = fmul reassoc nsz arcp contract float %663, %const_reg_fp32, !spirv.Decorations !1244
  %770 = fsub reassoc nsz arcp contract float %769, %simdBroadcast109.8, !spirv.Decorations !1244		; visa id: 1264
  %771 = call float @llvm.exp2.f32(float %770)		; visa id: 1265
  %772 = fmul reassoc nsz arcp contract float %667, %const_reg_fp32, !spirv.Decorations !1244
  %773 = fsub reassoc nsz arcp contract float %772, %simdBroadcast109.9, !spirv.Decorations !1244		; visa id: 1266
  %774 = call float @llvm.exp2.f32(float %773)		; visa id: 1267
  %775 = fmul reassoc nsz arcp contract float %671, %const_reg_fp32, !spirv.Decorations !1244
  %776 = fsub reassoc nsz arcp contract float %775, %simdBroadcast109.10, !spirv.Decorations !1244		; visa id: 1268
  %777 = call float @llvm.exp2.f32(float %776)		; visa id: 1269
  %778 = fmul reassoc nsz arcp contract float %675, %const_reg_fp32, !spirv.Decorations !1244
  %779 = fsub reassoc nsz arcp contract float %778, %simdBroadcast109.11, !spirv.Decorations !1244		; visa id: 1270
  %780 = call float @llvm.exp2.f32(float %779)		; visa id: 1271
  %781 = fmul reassoc nsz arcp contract float %679, %const_reg_fp32, !spirv.Decorations !1244
  %782 = fsub reassoc nsz arcp contract float %781, %simdBroadcast109.12, !spirv.Decorations !1244		; visa id: 1272
  %783 = call float @llvm.exp2.f32(float %782)		; visa id: 1273
  %784 = fmul reassoc nsz arcp contract float %683, %const_reg_fp32, !spirv.Decorations !1244
  %785 = fsub reassoc nsz arcp contract float %784, %simdBroadcast109.13, !spirv.Decorations !1244		; visa id: 1274
  %786 = call float @llvm.exp2.f32(float %785)		; visa id: 1275
  %787 = fmul reassoc nsz arcp contract float %687, %const_reg_fp32, !spirv.Decorations !1244
  %788 = fsub reassoc nsz arcp contract float %787, %simdBroadcast109.14, !spirv.Decorations !1244		; visa id: 1276
  %789 = call float @llvm.exp2.f32(float %788)		; visa id: 1277
  %790 = fmul reassoc nsz arcp contract float %691, %const_reg_fp32, !spirv.Decorations !1244
  %791 = fsub reassoc nsz arcp contract float %790, %simdBroadcast109.15, !spirv.Decorations !1244		; visa id: 1278
  %792 = call float @llvm.exp2.f32(float %791)		; visa id: 1279
  %793 = icmp eq i32 %324, 0		; visa id: 1280
  br i1 %793, label %._crit_edge172..loopexit.i_crit_edge, label %.loopexit.i.loopexit, !stats.blockFrequency.digits !1219, !stats.blockFrequency.scale !1220		; visa id: 1281

._crit_edge172..loopexit.i_crit_edge:             ; preds = %._crit_edge172
; BB:
  br label %.loopexit.i, !stats.blockFrequency.digits !1237, !stats.blockFrequency.scale !1227

.loopexit.i.loopexit:                             ; preds = %._crit_edge172
; BB88 :
  %794 = fsub reassoc nsz arcp contract float %.sroa.0215.1176, %696, !spirv.Decorations !1244		; visa id: 1283
  %795 = call float @llvm.exp2.f32(float %794)		; visa id: 1284
  %simdBroadcast110 = call float @llvm.genx.GenISA.WaveBroadcast.f32(float %795, i32 0, i32 0)
  %796 = extractelement <8 x float> %.sroa.0.1, i32 0		; visa id: 1285
  %797 = fmul reassoc nsz arcp contract float %796, %simdBroadcast110, !spirv.Decorations !1244		; visa id: 1286
  %.sroa.0.0.vec.insert209 = insertelement <8 x float> poison, float %797, i64 0		; visa id: 1287
  %simdBroadcast110.1 = call float @llvm.genx.GenISA.WaveBroadcast.f32(float %795, i32 1, i32 0)
  %798 = extractelement <8 x float> %.sroa.0.1, i32 1		; visa id: 1288
  %799 = fmul reassoc nsz arcp contract float %798, %simdBroadcast110.1, !spirv.Decorations !1244		; visa id: 1289
  %.sroa.0.4.vec.insert218 = insertelement <8 x float> %.sroa.0.0.vec.insert209, float %799, i64 1		; visa id: 1290
  %simdBroadcast110.2 = call float @llvm.genx.GenISA.WaveBroadcast.f32(float %795, i32 2, i32 0)
  %800 = extractelement <8 x float> %.sroa.0.1, i32 2		; visa id: 1291
  %801 = fmul reassoc nsz arcp contract float %800, %simdBroadcast110.2, !spirv.Decorations !1244		; visa id: 1292
  %.sroa.0.8.vec.insert225 = insertelement <8 x float> %.sroa.0.4.vec.insert218, float %801, i64 2		; visa id: 1293
  %simdBroadcast110.3 = call float @llvm.genx.GenISA.WaveBroadcast.f32(float %795, i32 3, i32 0)
  %802 = extractelement <8 x float> %.sroa.0.1, i32 3		; visa id: 1294
  %803 = fmul reassoc nsz arcp contract float %802, %simdBroadcast110.3, !spirv.Decorations !1244		; visa id: 1295
  %.sroa.0.12.vec.insert232 = insertelement <8 x float> %.sroa.0.8.vec.insert225, float %803, i64 3		; visa id: 1296
  %simdBroadcast110.4 = call float @llvm.genx.GenISA.WaveBroadcast.f32(float %795, i32 4, i32 0)
  %804 = extractelement <8 x float> %.sroa.0.1, i32 4		; visa id: 1297
  %805 = fmul reassoc nsz arcp contract float %804, %simdBroadcast110.4, !spirv.Decorations !1244		; visa id: 1298
  %.sroa.0.16.vec.insert239 = insertelement <8 x float> %.sroa.0.12.vec.insert232, float %805, i64 4		; visa id: 1299
  %simdBroadcast110.5 = call float @llvm.genx.GenISA.WaveBroadcast.f32(float %795, i32 5, i32 0)
  %806 = extractelement <8 x float> %.sroa.0.1, i32 5		; visa id: 1300
  %807 = fmul reassoc nsz arcp contract float %806, %simdBroadcast110.5, !spirv.Decorations !1244		; visa id: 1301
  %.sroa.0.20.vec.insert246 = insertelement <8 x float> %.sroa.0.16.vec.insert239, float %807, i64 5		; visa id: 1302
  %simdBroadcast110.6 = call float @llvm.genx.GenISA.WaveBroadcast.f32(float %795, i32 6, i32 0)
  %808 = extractelement <8 x float> %.sroa.0.1, i32 6		; visa id: 1303
  %809 = fmul reassoc nsz arcp contract float %808, %simdBroadcast110.6, !spirv.Decorations !1244		; visa id: 1304
  %.sroa.0.24.vec.insert253 = insertelement <8 x float> %.sroa.0.20.vec.insert246, float %809, i64 6		; visa id: 1305
  %simdBroadcast110.7 = call float @llvm.genx.GenISA.WaveBroadcast.f32(float %795, i32 7, i32 0)
  %810 = extractelement <8 x float> %.sroa.0.1, i32 7		; visa id: 1306
  %811 = fmul reassoc nsz arcp contract float %810, %simdBroadcast110.7, !spirv.Decorations !1244		; visa id: 1307
  %.sroa.0.28.vec.insert260 = insertelement <8 x float> %.sroa.0.24.vec.insert253, float %811, i64 7		; visa id: 1308
  %simdBroadcast110.8 = call float @llvm.genx.GenISA.WaveBroadcast.f32(float %795, i32 8, i32 0)
  %812 = extractelement <8 x float> %.sroa.52.1, i32 0		; visa id: 1309
  %813 = fmul reassoc nsz arcp contract float %812, %simdBroadcast110.8, !spirv.Decorations !1244		; visa id: 1310
  %.sroa.52.32.vec.insert273 = insertelement <8 x float> poison, float %813, i64 0		; visa id: 1311
  %simdBroadcast110.9 = call float @llvm.genx.GenISA.WaveBroadcast.f32(float %795, i32 9, i32 0)
  %814 = extractelement <8 x float> %.sroa.52.1, i32 1		; visa id: 1312
  %815 = fmul reassoc nsz arcp contract float %814, %simdBroadcast110.9, !spirv.Decorations !1244		; visa id: 1313
  %.sroa.52.36.vec.insert280 = insertelement <8 x float> %.sroa.52.32.vec.insert273, float %815, i64 1		; visa id: 1314
  %simdBroadcast110.10 = call float @llvm.genx.GenISA.WaveBroadcast.f32(float %795, i32 10, i32 0)
  %816 = extractelement <8 x float> %.sroa.52.1, i32 2		; visa id: 1315
  %817 = fmul reassoc nsz arcp contract float %816, %simdBroadcast110.10, !spirv.Decorations !1244		; visa id: 1316
  %.sroa.52.40.vec.insert287 = insertelement <8 x float> %.sroa.52.36.vec.insert280, float %817, i64 2		; visa id: 1317
  %simdBroadcast110.11 = call float @llvm.genx.GenISA.WaveBroadcast.f32(float %795, i32 11, i32 0)
  %818 = extractelement <8 x float> %.sroa.52.1, i32 3		; visa id: 1318
  %819 = fmul reassoc nsz arcp contract float %818, %simdBroadcast110.11, !spirv.Decorations !1244		; visa id: 1319
  %.sroa.52.44.vec.insert294 = insertelement <8 x float> %.sroa.52.40.vec.insert287, float %819, i64 3		; visa id: 1320
  %simdBroadcast110.12 = call float @llvm.genx.GenISA.WaveBroadcast.f32(float %795, i32 12, i32 0)
  %820 = extractelement <8 x float> %.sroa.52.1, i32 4		; visa id: 1321
  %821 = fmul reassoc nsz arcp contract float %820, %simdBroadcast110.12, !spirv.Decorations !1244		; visa id: 1322
  %.sroa.52.48.vec.insert301 = insertelement <8 x float> %.sroa.52.44.vec.insert294, float %821, i64 4		; visa id: 1323
  %simdBroadcast110.13 = call float @llvm.genx.GenISA.WaveBroadcast.f32(float %795, i32 13, i32 0)
  %822 = extractelement <8 x float> %.sroa.52.1, i32 5		; visa id: 1324
  %823 = fmul reassoc nsz arcp contract float %822, %simdBroadcast110.13, !spirv.Decorations !1244		; visa id: 1325
  %.sroa.52.52.vec.insert308 = insertelement <8 x float> %.sroa.52.48.vec.insert301, float %823, i64 5		; visa id: 1326
  %simdBroadcast110.14 = call float @llvm.genx.GenISA.WaveBroadcast.f32(float %795, i32 14, i32 0)
  %824 = extractelement <8 x float> %.sroa.52.1, i32 6		; visa id: 1327
  %825 = fmul reassoc nsz arcp contract float %824, %simdBroadcast110.14, !spirv.Decorations !1244		; visa id: 1328
  %.sroa.52.56.vec.insert315 = insertelement <8 x float> %.sroa.52.52.vec.insert308, float %825, i64 6		; visa id: 1329
  %simdBroadcast110.15 = call float @llvm.genx.GenISA.WaveBroadcast.f32(float %795, i32 15, i32 0)
  %826 = extractelement <8 x float> %.sroa.52.1, i32 7		; visa id: 1330
  %827 = fmul reassoc nsz arcp contract float %826, %simdBroadcast110.15, !spirv.Decorations !1244		; visa id: 1331
  %.sroa.52.60.vec.insert322 = insertelement <8 x float> %.sroa.52.56.vec.insert315, float %827, i64 7		; visa id: 1332
  %828 = extractelement <8 x float> %.sroa.100.1, i32 0		; visa id: 1333
  %829 = fmul reassoc nsz arcp contract float %828, %simdBroadcast110, !spirv.Decorations !1244		; visa id: 1334
  %.sroa.100.64.vec.insert335 = insertelement <8 x float> poison, float %829, i64 0		; visa id: 1335
  %830 = extractelement <8 x float> %.sroa.100.1, i32 1		; visa id: 1336
  %831 = fmul reassoc nsz arcp contract float %830, %simdBroadcast110.1, !spirv.Decorations !1244		; visa id: 1337
  %.sroa.100.68.vec.insert342 = insertelement <8 x float> %.sroa.100.64.vec.insert335, float %831, i64 1		; visa id: 1338
  %832 = extractelement <8 x float> %.sroa.100.1, i32 2		; visa id: 1339
  %833 = fmul reassoc nsz arcp contract float %832, %simdBroadcast110.2, !spirv.Decorations !1244		; visa id: 1340
  %.sroa.100.72.vec.insert349 = insertelement <8 x float> %.sroa.100.68.vec.insert342, float %833, i64 2		; visa id: 1341
  %834 = extractelement <8 x float> %.sroa.100.1, i32 3		; visa id: 1342
  %835 = fmul reassoc nsz arcp contract float %834, %simdBroadcast110.3, !spirv.Decorations !1244		; visa id: 1343
  %.sroa.100.76.vec.insert356 = insertelement <8 x float> %.sroa.100.72.vec.insert349, float %835, i64 3		; visa id: 1344
  %836 = extractelement <8 x float> %.sroa.100.1, i32 4		; visa id: 1345
  %837 = fmul reassoc nsz arcp contract float %836, %simdBroadcast110.4, !spirv.Decorations !1244		; visa id: 1346
  %.sroa.100.80.vec.insert363 = insertelement <8 x float> %.sroa.100.76.vec.insert356, float %837, i64 4		; visa id: 1347
  %838 = extractelement <8 x float> %.sroa.100.1, i32 5		; visa id: 1348
  %839 = fmul reassoc nsz arcp contract float %838, %simdBroadcast110.5, !spirv.Decorations !1244		; visa id: 1349
  %.sroa.100.84.vec.insert370 = insertelement <8 x float> %.sroa.100.80.vec.insert363, float %839, i64 5		; visa id: 1350
  %840 = extractelement <8 x float> %.sroa.100.1, i32 6		; visa id: 1351
  %841 = fmul reassoc nsz arcp contract float %840, %simdBroadcast110.6, !spirv.Decorations !1244		; visa id: 1352
  %.sroa.100.88.vec.insert377 = insertelement <8 x float> %.sroa.100.84.vec.insert370, float %841, i64 6		; visa id: 1353
  %842 = extractelement <8 x float> %.sroa.100.1, i32 7		; visa id: 1354
  %843 = fmul reassoc nsz arcp contract float %842, %simdBroadcast110.7, !spirv.Decorations !1244		; visa id: 1355
  %.sroa.100.92.vec.insert384 = insertelement <8 x float> %.sroa.100.88.vec.insert377, float %843, i64 7		; visa id: 1356
  %844 = extractelement <8 x float> %.sroa.148.1, i32 0		; visa id: 1357
  %845 = fmul reassoc nsz arcp contract float %844, %simdBroadcast110.8, !spirv.Decorations !1244		; visa id: 1358
  %.sroa.148.96.vec.insert397 = insertelement <8 x float> poison, float %845, i64 0		; visa id: 1359
  %846 = extractelement <8 x float> %.sroa.148.1, i32 1		; visa id: 1360
  %847 = fmul reassoc nsz arcp contract float %846, %simdBroadcast110.9, !spirv.Decorations !1244		; visa id: 1361
  %.sroa.148.100.vec.insert404 = insertelement <8 x float> %.sroa.148.96.vec.insert397, float %847, i64 1		; visa id: 1362
  %848 = extractelement <8 x float> %.sroa.148.1, i32 2		; visa id: 1363
  %849 = fmul reassoc nsz arcp contract float %848, %simdBroadcast110.10, !spirv.Decorations !1244		; visa id: 1364
  %.sroa.148.104.vec.insert411 = insertelement <8 x float> %.sroa.148.100.vec.insert404, float %849, i64 2		; visa id: 1365
  %850 = extractelement <8 x float> %.sroa.148.1, i32 3		; visa id: 1366
  %851 = fmul reassoc nsz arcp contract float %850, %simdBroadcast110.11, !spirv.Decorations !1244		; visa id: 1367
  %.sroa.148.108.vec.insert418 = insertelement <8 x float> %.sroa.148.104.vec.insert411, float %851, i64 3		; visa id: 1368
  %852 = extractelement <8 x float> %.sroa.148.1, i32 4		; visa id: 1369
  %853 = fmul reassoc nsz arcp contract float %852, %simdBroadcast110.12, !spirv.Decorations !1244		; visa id: 1370
  %.sroa.148.112.vec.insert425 = insertelement <8 x float> %.sroa.148.108.vec.insert418, float %853, i64 4		; visa id: 1371
  %854 = extractelement <8 x float> %.sroa.148.1, i32 5		; visa id: 1372
  %855 = fmul reassoc nsz arcp contract float %854, %simdBroadcast110.13, !spirv.Decorations !1244		; visa id: 1373
  %.sroa.148.116.vec.insert432 = insertelement <8 x float> %.sroa.148.112.vec.insert425, float %855, i64 5		; visa id: 1374
  %856 = extractelement <8 x float> %.sroa.148.1, i32 6		; visa id: 1375
  %857 = fmul reassoc nsz arcp contract float %856, %simdBroadcast110.14, !spirv.Decorations !1244		; visa id: 1376
  %.sroa.148.120.vec.insert439 = insertelement <8 x float> %.sroa.148.116.vec.insert432, float %857, i64 6		; visa id: 1377
  %858 = extractelement <8 x float> %.sroa.148.1, i32 7		; visa id: 1378
  %859 = fmul reassoc nsz arcp contract float %858, %simdBroadcast110.15, !spirv.Decorations !1244		; visa id: 1379
  %.sroa.148.124.vec.insert446 = insertelement <8 x float> %.sroa.148.120.vec.insert439, float %859, i64 7		; visa id: 1380
  %860 = extractelement <8 x float> %.sroa.196.1, i32 0		; visa id: 1381
  %861 = fmul reassoc nsz arcp contract float %860, %simdBroadcast110, !spirv.Decorations !1244		; visa id: 1382
  %.sroa.196.128.vec.insert459 = insertelement <8 x float> poison, float %861, i64 0		; visa id: 1383
  %862 = extractelement <8 x float> %.sroa.196.1, i32 1		; visa id: 1384
  %863 = fmul reassoc nsz arcp contract float %862, %simdBroadcast110.1, !spirv.Decorations !1244		; visa id: 1385
  %.sroa.196.132.vec.insert466 = insertelement <8 x float> %.sroa.196.128.vec.insert459, float %863, i64 1		; visa id: 1386
  %864 = extractelement <8 x float> %.sroa.196.1, i32 2		; visa id: 1387
  %865 = fmul reassoc nsz arcp contract float %864, %simdBroadcast110.2, !spirv.Decorations !1244		; visa id: 1388
  %.sroa.196.136.vec.insert473 = insertelement <8 x float> %.sroa.196.132.vec.insert466, float %865, i64 2		; visa id: 1389
  %866 = extractelement <8 x float> %.sroa.196.1, i32 3		; visa id: 1390
  %867 = fmul reassoc nsz arcp contract float %866, %simdBroadcast110.3, !spirv.Decorations !1244		; visa id: 1391
  %.sroa.196.140.vec.insert480 = insertelement <8 x float> %.sroa.196.136.vec.insert473, float %867, i64 3		; visa id: 1392
  %868 = extractelement <8 x float> %.sroa.196.1, i32 4		; visa id: 1393
  %869 = fmul reassoc nsz arcp contract float %868, %simdBroadcast110.4, !spirv.Decorations !1244		; visa id: 1394
  %.sroa.196.144.vec.insert487 = insertelement <8 x float> %.sroa.196.140.vec.insert480, float %869, i64 4		; visa id: 1395
  %870 = extractelement <8 x float> %.sroa.196.1, i32 5		; visa id: 1396
  %871 = fmul reassoc nsz arcp contract float %870, %simdBroadcast110.5, !spirv.Decorations !1244		; visa id: 1397
  %.sroa.196.148.vec.insert494 = insertelement <8 x float> %.sroa.196.144.vec.insert487, float %871, i64 5		; visa id: 1398
  %872 = extractelement <8 x float> %.sroa.196.1, i32 6		; visa id: 1399
  %873 = fmul reassoc nsz arcp contract float %872, %simdBroadcast110.6, !spirv.Decorations !1244		; visa id: 1400
  %.sroa.196.152.vec.insert501 = insertelement <8 x float> %.sroa.196.148.vec.insert494, float %873, i64 6		; visa id: 1401
  %874 = extractelement <8 x float> %.sroa.196.1, i32 7		; visa id: 1402
  %875 = fmul reassoc nsz arcp contract float %874, %simdBroadcast110.7, !spirv.Decorations !1244		; visa id: 1403
  %.sroa.196.156.vec.insert508 = insertelement <8 x float> %.sroa.196.152.vec.insert501, float %875, i64 7		; visa id: 1404
  %876 = extractelement <8 x float> %.sroa.244.1, i32 0		; visa id: 1405
  %877 = fmul reassoc nsz arcp contract float %876, %simdBroadcast110.8, !spirv.Decorations !1244		; visa id: 1406
  %.sroa.244.160.vec.insert521 = insertelement <8 x float> poison, float %877, i64 0		; visa id: 1407
  %878 = extractelement <8 x float> %.sroa.244.1, i32 1		; visa id: 1408
  %879 = fmul reassoc nsz arcp contract float %878, %simdBroadcast110.9, !spirv.Decorations !1244		; visa id: 1409
  %.sroa.244.164.vec.insert528 = insertelement <8 x float> %.sroa.244.160.vec.insert521, float %879, i64 1		; visa id: 1410
  %880 = extractelement <8 x float> %.sroa.244.1, i32 2		; visa id: 1411
  %881 = fmul reassoc nsz arcp contract float %880, %simdBroadcast110.10, !spirv.Decorations !1244		; visa id: 1412
  %.sroa.244.168.vec.insert535 = insertelement <8 x float> %.sroa.244.164.vec.insert528, float %881, i64 2		; visa id: 1413
  %882 = extractelement <8 x float> %.sroa.244.1, i32 3		; visa id: 1414
  %883 = fmul reassoc nsz arcp contract float %882, %simdBroadcast110.11, !spirv.Decorations !1244		; visa id: 1415
  %.sroa.244.172.vec.insert542 = insertelement <8 x float> %.sroa.244.168.vec.insert535, float %883, i64 3		; visa id: 1416
  %884 = extractelement <8 x float> %.sroa.244.1, i32 4		; visa id: 1417
  %885 = fmul reassoc nsz arcp contract float %884, %simdBroadcast110.12, !spirv.Decorations !1244		; visa id: 1418
  %.sroa.244.176.vec.insert549 = insertelement <8 x float> %.sroa.244.172.vec.insert542, float %885, i64 4		; visa id: 1419
  %886 = extractelement <8 x float> %.sroa.244.1, i32 5		; visa id: 1420
  %887 = fmul reassoc nsz arcp contract float %886, %simdBroadcast110.13, !spirv.Decorations !1244		; visa id: 1421
  %.sroa.244.180.vec.insert556 = insertelement <8 x float> %.sroa.244.176.vec.insert549, float %887, i64 5		; visa id: 1422
  %888 = extractelement <8 x float> %.sroa.244.1, i32 6		; visa id: 1423
  %889 = fmul reassoc nsz arcp contract float %888, %simdBroadcast110.14, !spirv.Decorations !1244		; visa id: 1424
  %.sroa.244.184.vec.insert563 = insertelement <8 x float> %.sroa.244.180.vec.insert556, float %889, i64 6		; visa id: 1425
  %890 = extractelement <8 x float> %.sroa.244.1, i32 7		; visa id: 1426
  %891 = fmul reassoc nsz arcp contract float %890, %simdBroadcast110.15, !spirv.Decorations !1244		; visa id: 1427
  %.sroa.244.188.vec.insert570 = insertelement <8 x float> %.sroa.244.184.vec.insert563, float %891, i64 7		; visa id: 1428
  %892 = extractelement <8 x float> %.sroa.292.1, i32 0		; visa id: 1429
  %893 = fmul reassoc nsz arcp contract float %892, %simdBroadcast110, !spirv.Decorations !1244		; visa id: 1430
  %.sroa.292.192.vec.insert583 = insertelement <8 x float> poison, float %893, i64 0		; visa id: 1431
  %894 = extractelement <8 x float> %.sroa.292.1, i32 1		; visa id: 1432
  %895 = fmul reassoc nsz arcp contract float %894, %simdBroadcast110.1, !spirv.Decorations !1244		; visa id: 1433
  %.sroa.292.196.vec.insert590 = insertelement <8 x float> %.sroa.292.192.vec.insert583, float %895, i64 1		; visa id: 1434
  %896 = extractelement <8 x float> %.sroa.292.1, i32 2		; visa id: 1435
  %897 = fmul reassoc nsz arcp contract float %896, %simdBroadcast110.2, !spirv.Decorations !1244		; visa id: 1436
  %.sroa.292.200.vec.insert597 = insertelement <8 x float> %.sroa.292.196.vec.insert590, float %897, i64 2		; visa id: 1437
  %898 = extractelement <8 x float> %.sroa.292.1, i32 3		; visa id: 1438
  %899 = fmul reassoc nsz arcp contract float %898, %simdBroadcast110.3, !spirv.Decorations !1244		; visa id: 1439
  %.sroa.292.204.vec.insert604 = insertelement <8 x float> %.sroa.292.200.vec.insert597, float %899, i64 3		; visa id: 1440
  %900 = extractelement <8 x float> %.sroa.292.1, i32 4		; visa id: 1441
  %901 = fmul reassoc nsz arcp contract float %900, %simdBroadcast110.4, !spirv.Decorations !1244		; visa id: 1442
  %.sroa.292.208.vec.insert611 = insertelement <8 x float> %.sroa.292.204.vec.insert604, float %901, i64 4		; visa id: 1443
  %902 = extractelement <8 x float> %.sroa.292.1, i32 5		; visa id: 1444
  %903 = fmul reassoc nsz arcp contract float %902, %simdBroadcast110.5, !spirv.Decorations !1244		; visa id: 1445
  %.sroa.292.212.vec.insert618 = insertelement <8 x float> %.sroa.292.208.vec.insert611, float %903, i64 5		; visa id: 1446
  %904 = extractelement <8 x float> %.sroa.292.1, i32 6		; visa id: 1447
  %905 = fmul reassoc nsz arcp contract float %904, %simdBroadcast110.6, !spirv.Decorations !1244		; visa id: 1448
  %.sroa.292.216.vec.insert625 = insertelement <8 x float> %.sroa.292.212.vec.insert618, float %905, i64 6		; visa id: 1449
  %906 = extractelement <8 x float> %.sroa.292.1, i32 7		; visa id: 1450
  %907 = fmul reassoc nsz arcp contract float %906, %simdBroadcast110.7, !spirv.Decorations !1244		; visa id: 1451
  %.sroa.292.220.vec.insert632 = insertelement <8 x float> %.sroa.292.216.vec.insert625, float %907, i64 7		; visa id: 1452
  %908 = extractelement <8 x float> %.sroa.340.1, i32 0		; visa id: 1453
  %909 = fmul reassoc nsz arcp contract float %908, %simdBroadcast110.8, !spirv.Decorations !1244		; visa id: 1454
  %.sroa.340.224.vec.insert645 = insertelement <8 x float> poison, float %909, i64 0		; visa id: 1455
  %910 = extractelement <8 x float> %.sroa.340.1, i32 1		; visa id: 1456
  %911 = fmul reassoc nsz arcp contract float %910, %simdBroadcast110.9, !spirv.Decorations !1244		; visa id: 1457
  %.sroa.340.228.vec.insert652 = insertelement <8 x float> %.sroa.340.224.vec.insert645, float %911, i64 1		; visa id: 1458
  %912 = extractelement <8 x float> %.sroa.340.1, i32 2		; visa id: 1459
  %913 = fmul reassoc nsz arcp contract float %912, %simdBroadcast110.10, !spirv.Decorations !1244		; visa id: 1460
  %.sroa.340.232.vec.insert659 = insertelement <8 x float> %.sroa.340.228.vec.insert652, float %913, i64 2		; visa id: 1461
  %914 = extractelement <8 x float> %.sroa.340.1, i32 3		; visa id: 1462
  %915 = fmul reassoc nsz arcp contract float %914, %simdBroadcast110.11, !spirv.Decorations !1244		; visa id: 1463
  %.sroa.340.236.vec.insert666 = insertelement <8 x float> %.sroa.340.232.vec.insert659, float %915, i64 3		; visa id: 1464
  %916 = extractelement <8 x float> %.sroa.340.1, i32 4		; visa id: 1465
  %917 = fmul reassoc nsz arcp contract float %916, %simdBroadcast110.12, !spirv.Decorations !1244		; visa id: 1466
  %.sroa.340.240.vec.insert673 = insertelement <8 x float> %.sroa.340.236.vec.insert666, float %917, i64 4		; visa id: 1467
  %918 = extractelement <8 x float> %.sroa.340.1, i32 5		; visa id: 1468
  %919 = fmul reassoc nsz arcp contract float %918, %simdBroadcast110.13, !spirv.Decorations !1244		; visa id: 1469
  %.sroa.340.244.vec.insert680 = insertelement <8 x float> %.sroa.340.240.vec.insert673, float %919, i64 5		; visa id: 1470
  %920 = extractelement <8 x float> %.sroa.340.1, i32 6		; visa id: 1471
  %921 = fmul reassoc nsz arcp contract float %920, %simdBroadcast110.14, !spirv.Decorations !1244		; visa id: 1472
  %.sroa.340.248.vec.insert687 = insertelement <8 x float> %.sroa.340.244.vec.insert680, float %921, i64 6		; visa id: 1473
  %922 = extractelement <8 x float> %.sroa.340.1, i32 7		; visa id: 1474
  %923 = fmul reassoc nsz arcp contract float %922, %simdBroadcast110.15, !spirv.Decorations !1244		; visa id: 1475
  %.sroa.340.252.vec.insert694 = insertelement <8 x float> %.sroa.340.248.vec.insert687, float %923, i64 7		; visa id: 1476
  %924 = extractelement <8 x float> %.sroa.388.1, i32 0		; visa id: 1477
  %925 = fmul reassoc nsz arcp contract float %924, %simdBroadcast110, !spirv.Decorations !1244		; visa id: 1478
  %.sroa.388.256.vec.insert707 = insertelement <8 x float> poison, float %925, i64 0		; visa id: 1479
  %926 = extractelement <8 x float> %.sroa.388.1, i32 1		; visa id: 1480
  %927 = fmul reassoc nsz arcp contract float %926, %simdBroadcast110.1, !spirv.Decorations !1244		; visa id: 1481
  %.sroa.388.260.vec.insert714 = insertelement <8 x float> %.sroa.388.256.vec.insert707, float %927, i64 1		; visa id: 1482
  %928 = extractelement <8 x float> %.sroa.388.1, i32 2		; visa id: 1483
  %929 = fmul reassoc nsz arcp contract float %928, %simdBroadcast110.2, !spirv.Decorations !1244		; visa id: 1484
  %.sroa.388.264.vec.insert721 = insertelement <8 x float> %.sroa.388.260.vec.insert714, float %929, i64 2		; visa id: 1485
  %930 = extractelement <8 x float> %.sroa.388.1, i32 3		; visa id: 1486
  %931 = fmul reassoc nsz arcp contract float %930, %simdBroadcast110.3, !spirv.Decorations !1244		; visa id: 1487
  %.sroa.388.268.vec.insert728 = insertelement <8 x float> %.sroa.388.264.vec.insert721, float %931, i64 3		; visa id: 1488
  %932 = extractelement <8 x float> %.sroa.388.1, i32 4		; visa id: 1489
  %933 = fmul reassoc nsz arcp contract float %932, %simdBroadcast110.4, !spirv.Decorations !1244		; visa id: 1490
  %.sroa.388.272.vec.insert735 = insertelement <8 x float> %.sroa.388.268.vec.insert728, float %933, i64 4		; visa id: 1491
  %934 = extractelement <8 x float> %.sroa.388.1, i32 5		; visa id: 1492
  %935 = fmul reassoc nsz arcp contract float %934, %simdBroadcast110.5, !spirv.Decorations !1244		; visa id: 1493
  %.sroa.388.276.vec.insert742 = insertelement <8 x float> %.sroa.388.272.vec.insert735, float %935, i64 5		; visa id: 1494
  %936 = extractelement <8 x float> %.sroa.388.1, i32 6		; visa id: 1495
  %937 = fmul reassoc nsz arcp contract float %936, %simdBroadcast110.6, !spirv.Decorations !1244		; visa id: 1496
  %.sroa.388.280.vec.insert749 = insertelement <8 x float> %.sroa.388.276.vec.insert742, float %937, i64 6		; visa id: 1497
  %938 = extractelement <8 x float> %.sroa.388.1, i32 7		; visa id: 1498
  %939 = fmul reassoc nsz arcp contract float %938, %simdBroadcast110.7, !spirv.Decorations !1244		; visa id: 1499
  %.sroa.388.284.vec.insert756 = insertelement <8 x float> %.sroa.388.280.vec.insert749, float %939, i64 7		; visa id: 1500
  %940 = extractelement <8 x float> %.sroa.436.1, i32 0		; visa id: 1501
  %941 = fmul reassoc nsz arcp contract float %940, %simdBroadcast110.8, !spirv.Decorations !1244		; visa id: 1502
  %.sroa.436.288.vec.insert769 = insertelement <8 x float> poison, float %941, i64 0		; visa id: 1503
  %942 = extractelement <8 x float> %.sroa.436.1, i32 1		; visa id: 1504
  %943 = fmul reassoc nsz arcp contract float %942, %simdBroadcast110.9, !spirv.Decorations !1244		; visa id: 1505
  %.sroa.436.292.vec.insert776 = insertelement <8 x float> %.sroa.436.288.vec.insert769, float %943, i64 1		; visa id: 1506
  %944 = extractelement <8 x float> %.sroa.436.1, i32 2		; visa id: 1507
  %945 = fmul reassoc nsz arcp contract float %944, %simdBroadcast110.10, !spirv.Decorations !1244		; visa id: 1508
  %.sroa.436.296.vec.insert783 = insertelement <8 x float> %.sroa.436.292.vec.insert776, float %945, i64 2		; visa id: 1509
  %946 = extractelement <8 x float> %.sroa.436.1, i32 3		; visa id: 1510
  %947 = fmul reassoc nsz arcp contract float %946, %simdBroadcast110.11, !spirv.Decorations !1244		; visa id: 1511
  %.sroa.436.300.vec.insert790 = insertelement <8 x float> %.sroa.436.296.vec.insert783, float %947, i64 3		; visa id: 1512
  %948 = extractelement <8 x float> %.sroa.436.1, i32 4		; visa id: 1513
  %949 = fmul reassoc nsz arcp contract float %948, %simdBroadcast110.12, !spirv.Decorations !1244		; visa id: 1514
  %.sroa.436.304.vec.insert797 = insertelement <8 x float> %.sroa.436.300.vec.insert790, float %949, i64 4		; visa id: 1515
  %950 = extractelement <8 x float> %.sroa.436.1, i32 5		; visa id: 1516
  %951 = fmul reassoc nsz arcp contract float %950, %simdBroadcast110.13, !spirv.Decorations !1244		; visa id: 1517
  %.sroa.436.308.vec.insert804 = insertelement <8 x float> %.sroa.436.304.vec.insert797, float %951, i64 5		; visa id: 1518
  %952 = extractelement <8 x float> %.sroa.436.1, i32 6		; visa id: 1519
  %953 = fmul reassoc nsz arcp contract float %952, %simdBroadcast110.14, !spirv.Decorations !1244		; visa id: 1520
  %.sroa.436.312.vec.insert811 = insertelement <8 x float> %.sroa.436.308.vec.insert804, float %953, i64 6		; visa id: 1521
  %954 = extractelement <8 x float> %.sroa.436.1, i32 7		; visa id: 1522
  %955 = fmul reassoc nsz arcp contract float %954, %simdBroadcast110.15, !spirv.Decorations !1244		; visa id: 1523
  %.sroa.436.316.vec.insert818 = insertelement <8 x float> %.sroa.436.312.vec.insert811, float %955, i64 7		; visa id: 1524
  %956 = extractelement <8 x float> %.sroa.484.1, i32 0		; visa id: 1525
  %957 = fmul reassoc nsz arcp contract float %956, %simdBroadcast110, !spirv.Decorations !1244		; visa id: 1526
  %.sroa.484.320.vec.insert831 = insertelement <8 x float> poison, float %957, i64 0		; visa id: 1527
  %958 = extractelement <8 x float> %.sroa.484.1, i32 1		; visa id: 1528
  %959 = fmul reassoc nsz arcp contract float %958, %simdBroadcast110.1, !spirv.Decorations !1244		; visa id: 1529
  %.sroa.484.324.vec.insert838 = insertelement <8 x float> %.sroa.484.320.vec.insert831, float %959, i64 1		; visa id: 1530
  %960 = extractelement <8 x float> %.sroa.484.1, i32 2		; visa id: 1531
  %961 = fmul reassoc nsz arcp contract float %960, %simdBroadcast110.2, !spirv.Decorations !1244		; visa id: 1532
  %.sroa.484.328.vec.insert845 = insertelement <8 x float> %.sroa.484.324.vec.insert838, float %961, i64 2		; visa id: 1533
  %962 = extractelement <8 x float> %.sroa.484.1, i32 3		; visa id: 1534
  %963 = fmul reassoc nsz arcp contract float %962, %simdBroadcast110.3, !spirv.Decorations !1244		; visa id: 1535
  %.sroa.484.332.vec.insert852 = insertelement <8 x float> %.sroa.484.328.vec.insert845, float %963, i64 3		; visa id: 1536
  %964 = extractelement <8 x float> %.sroa.484.1, i32 4		; visa id: 1537
  %965 = fmul reassoc nsz arcp contract float %964, %simdBroadcast110.4, !spirv.Decorations !1244		; visa id: 1538
  %.sroa.484.336.vec.insert859 = insertelement <8 x float> %.sroa.484.332.vec.insert852, float %965, i64 4		; visa id: 1539
  %966 = extractelement <8 x float> %.sroa.484.1, i32 5		; visa id: 1540
  %967 = fmul reassoc nsz arcp contract float %966, %simdBroadcast110.5, !spirv.Decorations !1244		; visa id: 1541
  %.sroa.484.340.vec.insert866 = insertelement <8 x float> %.sroa.484.336.vec.insert859, float %967, i64 5		; visa id: 1542
  %968 = extractelement <8 x float> %.sroa.484.1, i32 6		; visa id: 1543
  %969 = fmul reassoc nsz arcp contract float %968, %simdBroadcast110.6, !spirv.Decorations !1244		; visa id: 1544
  %.sroa.484.344.vec.insert873 = insertelement <8 x float> %.sroa.484.340.vec.insert866, float %969, i64 6		; visa id: 1545
  %970 = extractelement <8 x float> %.sroa.484.1, i32 7		; visa id: 1546
  %971 = fmul reassoc nsz arcp contract float %970, %simdBroadcast110.7, !spirv.Decorations !1244		; visa id: 1547
  %.sroa.484.348.vec.insert880 = insertelement <8 x float> %.sroa.484.344.vec.insert873, float %971, i64 7		; visa id: 1548
  %972 = extractelement <8 x float> %.sroa.532.1, i32 0		; visa id: 1549
  %973 = fmul reassoc nsz arcp contract float %972, %simdBroadcast110.8, !spirv.Decorations !1244		; visa id: 1550
  %.sroa.532.352.vec.insert893 = insertelement <8 x float> poison, float %973, i64 0		; visa id: 1551
  %974 = extractelement <8 x float> %.sroa.532.1, i32 1		; visa id: 1552
  %975 = fmul reassoc nsz arcp contract float %974, %simdBroadcast110.9, !spirv.Decorations !1244		; visa id: 1553
  %.sroa.532.356.vec.insert900 = insertelement <8 x float> %.sroa.532.352.vec.insert893, float %975, i64 1		; visa id: 1554
  %976 = extractelement <8 x float> %.sroa.532.1, i32 2		; visa id: 1555
  %977 = fmul reassoc nsz arcp contract float %976, %simdBroadcast110.10, !spirv.Decorations !1244		; visa id: 1556
  %.sroa.532.360.vec.insert907 = insertelement <8 x float> %.sroa.532.356.vec.insert900, float %977, i64 2		; visa id: 1557
  %978 = extractelement <8 x float> %.sroa.532.1, i32 3		; visa id: 1558
  %979 = fmul reassoc nsz arcp contract float %978, %simdBroadcast110.11, !spirv.Decorations !1244		; visa id: 1559
  %.sroa.532.364.vec.insert914 = insertelement <8 x float> %.sroa.532.360.vec.insert907, float %979, i64 3		; visa id: 1560
  %980 = extractelement <8 x float> %.sroa.532.1, i32 4		; visa id: 1561
  %981 = fmul reassoc nsz arcp contract float %980, %simdBroadcast110.12, !spirv.Decorations !1244		; visa id: 1562
  %.sroa.532.368.vec.insert921 = insertelement <8 x float> %.sroa.532.364.vec.insert914, float %981, i64 4		; visa id: 1563
  %982 = extractelement <8 x float> %.sroa.532.1, i32 5		; visa id: 1564
  %983 = fmul reassoc nsz arcp contract float %982, %simdBroadcast110.13, !spirv.Decorations !1244		; visa id: 1565
  %.sroa.532.372.vec.insert928 = insertelement <8 x float> %.sroa.532.368.vec.insert921, float %983, i64 5		; visa id: 1566
  %984 = extractelement <8 x float> %.sroa.532.1, i32 6		; visa id: 1567
  %985 = fmul reassoc nsz arcp contract float %984, %simdBroadcast110.14, !spirv.Decorations !1244		; visa id: 1568
  %.sroa.532.376.vec.insert935 = insertelement <8 x float> %.sroa.532.372.vec.insert928, float %985, i64 6		; visa id: 1569
  %986 = extractelement <8 x float> %.sroa.532.1, i32 7		; visa id: 1570
  %987 = fmul reassoc nsz arcp contract float %986, %simdBroadcast110.15, !spirv.Decorations !1244		; visa id: 1571
  %.sroa.532.380.vec.insert942 = insertelement <8 x float> %.sroa.532.376.vec.insert935, float %987, i64 7		; visa id: 1572
  %988 = extractelement <8 x float> %.sroa.580.1, i32 0		; visa id: 1573
  %989 = fmul reassoc nsz arcp contract float %988, %simdBroadcast110, !spirv.Decorations !1244		; visa id: 1574
  %.sroa.580.384.vec.insert955 = insertelement <8 x float> poison, float %989, i64 0		; visa id: 1575
  %990 = extractelement <8 x float> %.sroa.580.1, i32 1		; visa id: 1576
  %991 = fmul reassoc nsz arcp contract float %990, %simdBroadcast110.1, !spirv.Decorations !1244		; visa id: 1577
  %.sroa.580.388.vec.insert962 = insertelement <8 x float> %.sroa.580.384.vec.insert955, float %991, i64 1		; visa id: 1578
  %992 = extractelement <8 x float> %.sroa.580.1, i32 2		; visa id: 1579
  %993 = fmul reassoc nsz arcp contract float %992, %simdBroadcast110.2, !spirv.Decorations !1244		; visa id: 1580
  %.sroa.580.392.vec.insert969 = insertelement <8 x float> %.sroa.580.388.vec.insert962, float %993, i64 2		; visa id: 1581
  %994 = extractelement <8 x float> %.sroa.580.1, i32 3		; visa id: 1582
  %995 = fmul reassoc nsz arcp contract float %994, %simdBroadcast110.3, !spirv.Decorations !1244		; visa id: 1583
  %.sroa.580.396.vec.insert976 = insertelement <8 x float> %.sroa.580.392.vec.insert969, float %995, i64 3		; visa id: 1584
  %996 = extractelement <8 x float> %.sroa.580.1, i32 4		; visa id: 1585
  %997 = fmul reassoc nsz arcp contract float %996, %simdBroadcast110.4, !spirv.Decorations !1244		; visa id: 1586
  %.sroa.580.400.vec.insert983 = insertelement <8 x float> %.sroa.580.396.vec.insert976, float %997, i64 4		; visa id: 1587
  %998 = extractelement <8 x float> %.sroa.580.1, i32 5		; visa id: 1588
  %999 = fmul reassoc nsz arcp contract float %998, %simdBroadcast110.5, !spirv.Decorations !1244		; visa id: 1589
  %.sroa.580.404.vec.insert990 = insertelement <8 x float> %.sroa.580.400.vec.insert983, float %999, i64 5		; visa id: 1590
  %1000 = extractelement <8 x float> %.sroa.580.1, i32 6		; visa id: 1591
  %1001 = fmul reassoc nsz arcp contract float %1000, %simdBroadcast110.6, !spirv.Decorations !1244		; visa id: 1592
  %.sroa.580.408.vec.insert997 = insertelement <8 x float> %.sroa.580.404.vec.insert990, float %1001, i64 6		; visa id: 1593
  %1002 = extractelement <8 x float> %.sroa.580.1, i32 7		; visa id: 1594
  %1003 = fmul reassoc nsz arcp contract float %1002, %simdBroadcast110.7, !spirv.Decorations !1244		; visa id: 1595
  %.sroa.580.412.vec.insert1004 = insertelement <8 x float> %.sroa.580.408.vec.insert997, float %1003, i64 7		; visa id: 1596
  %1004 = extractelement <8 x float> %.sroa.628.1, i32 0		; visa id: 1597
  %1005 = fmul reassoc nsz arcp contract float %1004, %simdBroadcast110.8, !spirv.Decorations !1244		; visa id: 1598
  %.sroa.628.416.vec.insert1017 = insertelement <8 x float> poison, float %1005, i64 0		; visa id: 1599
  %1006 = extractelement <8 x float> %.sroa.628.1, i32 1		; visa id: 1600
  %1007 = fmul reassoc nsz arcp contract float %1006, %simdBroadcast110.9, !spirv.Decorations !1244		; visa id: 1601
  %.sroa.628.420.vec.insert1024 = insertelement <8 x float> %.sroa.628.416.vec.insert1017, float %1007, i64 1		; visa id: 1602
  %1008 = extractelement <8 x float> %.sroa.628.1, i32 2		; visa id: 1603
  %1009 = fmul reassoc nsz arcp contract float %1008, %simdBroadcast110.10, !spirv.Decorations !1244		; visa id: 1604
  %.sroa.628.424.vec.insert1031 = insertelement <8 x float> %.sroa.628.420.vec.insert1024, float %1009, i64 2		; visa id: 1605
  %1010 = extractelement <8 x float> %.sroa.628.1, i32 3		; visa id: 1606
  %1011 = fmul reassoc nsz arcp contract float %1010, %simdBroadcast110.11, !spirv.Decorations !1244		; visa id: 1607
  %.sroa.628.428.vec.insert1038 = insertelement <8 x float> %.sroa.628.424.vec.insert1031, float %1011, i64 3		; visa id: 1608
  %1012 = extractelement <8 x float> %.sroa.628.1, i32 4		; visa id: 1609
  %1013 = fmul reassoc nsz arcp contract float %1012, %simdBroadcast110.12, !spirv.Decorations !1244		; visa id: 1610
  %.sroa.628.432.vec.insert1045 = insertelement <8 x float> %.sroa.628.428.vec.insert1038, float %1013, i64 4		; visa id: 1611
  %1014 = extractelement <8 x float> %.sroa.628.1, i32 5		; visa id: 1612
  %1015 = fmul reassoc nsz arcp contract float %1014, %simdBroadcast110.13, !spirv.Decorations !1244		; visa id: 1613
  %.sroa.628.436.vec.insert1052 = insertelement <8 x float> %.sroa.628.432.vec.insert1045, float %1015, i64 5		; visa id: 1614
  %1016 = extractelement <8 x float> %.sroa.628.1, i32 6		; visa id: 1615
  %1017 = fmul reassoc nsz arcp contract float %1016, %simdBroadcast110.14, !spirv.Decorations !1244		; visa id: 1616
  %.sroa.628.440.vec.insert1059 = insertelement <8 x float> %.sroa.628.436.vec.insert1052, float %1017, i64 6		; visa id: 1617
  %1018 = extractelement <8 x float> %.sroa.628.1, i32 7		; visa id: 1618
  %1019 = fmul reassoc nsz arcp contract float %1018, %simdBroadcast110.15, !spirv.Decorations !1244		; visa id: 1619
  %.sroa.628.444.vec.insert1066 = insertelement <8 x float> %.sroa.628.440.vec.insert1059, float %1019, i64 7		; visa id: 1620
  %1020 = extractelement <8 x float> %.sroa.676.1, i32 0		; visa id: 1621
  %1021 = fmul reassoc nsz arcp contract float %1020, %simdBroadcast110, !spirv.Decorations !1244		; visa id: 1622
  %.sroa.676.448.vec.insert1079 = insertelement <8 x float> poison, float %1021, i64 0		; visa id: 1623
  %1022 = extractelement <8 x float> %.sroa.676.1, i32 1		; visa id: 1624
  %1023 = fmul reassoc nsz arcp contract float %1022, %simdBroadcast110.1, !spirv.Decorations !1244		; visa id: 1625
  %.sroa.676.452.vec.insert1086 = insertelement <8 x float> %.sroa.676.448.vec.insert1079, float %1023, i64 1		; visa id: 1626
  %1024 = extractelement <8 x float> %.sroa.676.1, i32 2		; visa id: 1627
  %1025 = fmul reassoc nsz arcp contract float %1024, %simdBroadcast110.2, !spirv.Decorations !1244		; visa id: 1628
  %.sroa.676.456.vec.insert1093 = insertelement <8 x float> %.sroa.676.452.vec.insert1086, float %1025, i64 2		; visa id: 1629
  %1026 = extractelement <8 x float> %.sroa.676.1, i32 3		; visa id: 1630
  %1027 = fmul reassoc nsz arcp contract float %1026, %simdBroadcast110.3, !spirv.Decorations !1244		; visa id: 1631
  %.sroa.676.460.vec.insert1100 = insertelement <8 x float> %.sroa.676.456.vec.insert1093, float %1027, i64 3		; visa id: 1632
  %1028 = extractelement <8 x float> %.sroa.676.1, i32 4		; visa id: 1633
  %1029 = fmul reassoc nsz arcp contract float %1028, %simdBroadcast110.4, !spirv.Decorations !1244		; visa id: 1634
  %.sroa.676.464.vec.insert1107 = insertelement <8 x float> %.sroa.676.460.vec.insert1100, float %1029, i64 4		; visa id: 1635
  %1030 = extractelement <8 x float> %.sroa.676.1, i32 5		; visa id: 1636
  %1031 = fmul reassoc nsz arcp contract float %1030, %simdBroadcast110.5, !spirv.Decorations !1244		; visa id: 1637
  %.sroa.676.468.vec.insert1114 = insertelement <8 x float> %.sroa.676.464.vec.insert1107, float %1031, i64 5		; visa id: 1638
  %1032 = extractelement <8 x float> %.sroa.676.1, i32 6		; visa id: 1639
  %1033 = fmul reassoc nsz arcp contract float %1032, %simdBroadcast110.6, !spirv.Decorations !1244		; visa id: 1640
  %.sroa.676.472.vec.insert1121 = insertelement <8 x float> %.sroa.676.468.vec.insert1114, float %1033, i64 6		; visa id: 1641
  %1034 = extractelement <8 x float> %.sroa.676.1, i32 7		; visa id: 1642
  %1035 = fmul reassoc nsz arcp contract float %1034, %simdBroadcast110.7, !spirv.Decorations !1244		; visa id: 1643
  %.sroa.676.476.vec.insert1128 = insertelement <8 x float> %.sroa.676.472.vec.insert1121, float %1035, i64 7		; visa id: 1644
  %1036 = extractelement <8 x float> %.sroa.724.1, i32 0		; visa id: 1645
  %1037 = fmul reassoc nsz arcp contract float %1036, %simdBroadcast110.8, !spirv.Decorations !1244		; visa id: 1646
  %.sroa.724.480.vec.insert1141 = insertelement <8 x float> poison, float %1037, i64 0		; visa id: 1647
  %1038 = extractelement <8 x float> %.sroa.724.1, i32 1		; visa id: 1648
  %1039 = fmul reassoc nsz arcp contract float %1038, %simdBroadcast110.9, !spirv.Decorations !1244		; visa id: 1649
  %.sroa.724.484.vec.insert1148 = insertelement <8 x float> %.sroa.724.480.vec.insert1141, float %1039, i64 1		; visa id: 1650
  %1040 = extractelement <8 x float> %.sroa.724.1, i32 2		; visa id: 1651
  %1041 = fmul reassoc nsz arcp contract float %1040, %simdBroadcast110.10, !spirv.Decorations !1244		; visa id: 1652
  %.sroa.724.488.vec.insert1155 = insertelement <8 x float> %.sroa.724.484.vec.insert1148, float %1041, i64 2		; visa id: 1653
  %1042 = extractelement <8 x float> %.sroa.724.1, i32 3		; visa id: 1654
  %1043 = fmul reassoc nsz arcp contract float %1042, %simdBroadcast110.11, !spirv.Decorations !1244		; visa id: 1655
  %.sroa.724.492.vec.insert1162 = insertelement <8 x float> %.sroa.724.488.vec.insert1155, float %1043, i64 3		; visa id: 1656
  %1044 = extractelement <8 x float> %.sroa.724.1, i32 4		; visa id: 1657
  %1045 = fmul reassoc nsz arcp contract float %1044, %simdBroadcast110.12, !spirv.Decorations !1244		; visa id: 1658
  %.sroa.724.496.vec.insert1169 = insertelement <8 x float> %.sroa.724.492.vec.insert1162, float %1045, i64 4		; visa id: 1659
  %1046 = extractelement <8 x float> %.sroa.724.1, i32 5		; visa id: 1660
  %1047 = fmul reassoc nsz arcp contract float %1046, %simdBroadcast110.13, !spirv.Decorations !1244		; visa id: 1661
  %.sroa.724.500.vec.insert1176 = insertelement <8 x float> %.sroa.724.496.vec.insert1169, float %1047, i64 5		; visa id: 1662
  %1048 = extractelement <8 x float> %.sroa.724.1, i32 6		; visa id: 1663
  %1049 = fmul reassoc nsz arcp contract float %1048, %simdBroadcast110.14, !spirv.Decorations !1244		; visa id: 1664
  %.sroa.724.504.vec.insert1183 = insertelement <8 x float> %.sroa.724.500.vec.insert1176, float %1049, i64 6		; visa id: 1665
  %1050 = extractelement <8 x float> %.sroa.724.1, i32 7		; visa id: 1666
  %1051 = fmul reassoc nsz arcp contract float %1050, %simdBroadcast110.15, !spirv.Decorations !1244		; visa id: 1667
  %.sroa.724.508.vec.insert1190 = insertelement <8 x float> %.sroa.724.504.vec.insert1183, float %1051, i64 7		; visa id: 1668
  %1052 = fmul reassoc nsz arcp contract float %.sroa.0206.1175, %795, !spirv.Decorations !1244		; visa id: 1669
  br label %.loopexit.i, !stats.blockFrequency.digits !1238, !stats.blockFrequency.scale !1227		; visa id: 1798

.loopexit.i:                                      ; preds = %._crit_edge172..loopexit.i_crit_edge, %.loopexit.i.loopexit
; BB89 :
  %.sroa.724.2 = phi <8 x float> [ %.sroa.724.508.vec.insert1190, %.loopexit.i.loopexit ], [ %.sroa.724.1, %._crit_edge172..loopexit.i_crit_edge ]
  %.sroa.676.2 = phi <8 x float> [ %.sroa.676.476.vec.insert1128, %.loopexit.i.loopexit ], [ %.sroa.676.1, %._crit_edge172..loopexit.i_crit_edge ]
  %.sroa.628.2 = phi <8 x float> [ %.sroa.628.444.vec.insert1066, %.loopexit.i.loopexit ], [ %.sroa.628.1, %._crit_edge172..loopexit.i_crit_edge ]
  %.sroa.580.2 = phi <8 x float> [ %.sroa.580.412.vec.insert1004, %.loopexit.i.loopexit ], [ %.sroa.580.1, %._crit_edge172..loopexit.i_crit_edge ]
  %.sroa.532.2 = phi <8 x float> [ %.sroa.532.380.vec.insert942, %.loopexit.i.loopexit ], [ %.sroa.532.1, %._crit_edge172..loopexit.i_crit_edge ]
  %.sroa.484.2 = phi <8 x float> [ %.sroa.484.348.vec.insert880, %.loopexit.i.loopexit ], [ %.sroa.484.1, %._crit_edge172..loopexit.i_crit_edge ]
  %.sroa.436.2 = phi <8 x float> [ %.sroa.436.316.vec.insert818, %.loopexit.i.loopexit ], [ %.sroa.436.1, %._crit_edge172..loopexit.i_crit_edge ]
  %.sroa.388.2 = phi <8 x float> [ %.sroa.388.284.vec.insert756, %.loopexit.i.loopexit ], [ %.sroa.388.1, %._crit_edge172..loopexit.i_crit_edge ]
  %.sroa.340.2 = phi <8 x float> [ %.sroa.340.252.vec.insert694, %.loopexit.i.loopexit ], [ %.sroa.340.1, %._crit_edge172..loopexit.i_crit_edge ]
  %.sroa.292.2 = phi <8 x float> [ %.sroa.292.220.vec.insert632, %.loopexit.i.loopexit ], [ %.sroa.292.1, %._crit_edge172..loopexit.i_crit_edge ]
  %.sroa.244.2 = phi <8 x float> [ %.sroa.244.188.vec.insert570, %.loopexit.i.loopexit ], [ %.sroa.244.1, %._crit_edge172..loopexit.i_crit_edge ]
  %.sroa.196.2 = phi <8 x float> [ %.sroa.196.156.vec.insert508, %.loopexit.i.loopexit ], [ %.sroa.196.1, %._crit_edge172..loopexit.i_crit_edge ]
  %.sroa.148.2 = phi <8 x float> [ %.sroa.148.124.vec.insert446, %.loopexit.i.loopexit ], [ %.sroa.148.1, %._crit_edge172..loopexit.i_crit_edge ]
  %.sroa.100.2 = phi <8 x float> [ %.sroa.100.92.vec.insert384, %.loopexit.i.loopexit ], [ %.sroa.100.1, %._crit_edge172..loopexit.i_crit_edge ]
  %.sroa.52.2 = phi <8 x float> [ %.sroa.52.60.vec.insert322, %.loopexit.i.loopexit ], [ %.sroa.52.1, %._crit_edge172..loopexit.i_crit_edge ]
  %.sroa.0.2 = phi <8 x float> [ %.sroa.0.28.vec.insert260, %.loopexit.i.loopexit ], [ %.sroa.0.1, %._crit_edge172..loopexit.i_crit_edge ]
  %.sroa.0206.2 = phi float [ %1052, %.loopexit.i.loopexit ], [ %.sroa.0206.1175, %._crit_edge172..loopexit.i_crit_edge ]
  %1053 = fadd reassoc nsz arcp contract float %699, %747, !spirv.Decorations !1244		; visa id: 1799
  %1054 = fadd reassoc nsz arcp contract float %702, %750, !spirv.Decorations !1244		; visa id: 1800
  %1055 = fadd reassoc nsz arcp contract float %705, %753, !spirv.Decorations !1244		; visa id: 1801
  %1056 = fadd reassoc nsz arcp contract float %708, %756, !spirv.Decorations !1244		; visa id: 1802
  %1057 = fadd reassoc nsz arcp contract float %711, %759, !spirv.Decorations !1244		; visa id: 1803
  %1058 = fadd reassoc nsz arcp contract float %714, %762, !spirv.Decorations !1244		; visa id: 1804
  %1059 = fadd reassoc nsz arcp contract float %717, %765, !spirv.Decorations !1244		; visa id: 1805
  %1060 = fadd reassoc nsz arcp contract float %720, %768, !spirv.Decorations !1244		; visa id: 1806
  %1061 = fadd reassoc nsz arcp contract float %723, %771, !spirv.Decorations !1244		; visa id: 1807
  %1062 = fadd reassoc nsz arcp contract float %726, %774, !spirv.Decorations !1244		; visa id: 1808
  %1063 = fadd reassoc nsz arcp contract float %729, %777, !spirv.Decorations !1244		; visa id: 1809
  %1064 = fadd reassoc nsz arcp contract float %732, %780, !spirv.Decorations !1244		; visa id: 1810
  %1065 = fadd reassoc nsz arcp contract float %735, %783, !spirv.Decorations !1244		; visa id: 1811
  %1066 = fadd reassoc nsz arcp contract float %738, %786, !spirv.Decorations !1244		; visa id: 1812
  %1067 = fadd reassoc nsz arcp contract float %741, %789, !spirv.Decorations !1244		; visa id: 1813
  %1068 = fadd reassoc nsz arcp contract float %744, %792, !spirv.Decorations !1244		; visa id: 1814
  %1069 = call float asm "{\0A.decl INTERLEAVE_2 v_type=P num_elts=16\0A.decl INTERLEAVE_4 v_type=P num_elts=16\0A.decl INTERLEAVE_8 v_type=P num_elts=16\0A.decl IN0 v_type=G type=UD num_elts=16 alias=<$1,0>\0A.decl IN1 v_type=G type=UD num_elts=16 alias=<$2,0>\0A.decl IN2 v_type=G type=UD num_elts=16 alias=<$3,0>\0A.decl IN3 v_type=G type=UD num_elts=16 alias=<$4,0>\0A.decl IN4 v_type=G type=UD num_elts=16 alias=<$5,0>\0A.decl IN5 v_type=G type=UD num_elts=16 alias=<$6,0>\0A.decl IN6 v_type=G type=UD num_elts=16 alias=<$7,0>\0A.decl IN7 v_type=G type=UD num_elts=16 alias=<$8,0>\0A.decl IN8 v_type=G type=UD num_elts=16 alias=<$9,0>\0A.decl IN9 v_type=G type=UD num_elts=16 alias=<$10,0>\0A.decl IN10 v_type=G type=UD num_elts=16 alias=<$11,0>\0A.decl IN11 v_type=G type=UD num_elts=16 alias=<$12,0>\0A.decl IN12 v_type=G type=UD num_elts=16 alias=<$13,0>\0A.decl IN13 v_type=G type=UD num_elts=16 alias=<$14,0>\0A.decl IN14 v_type=G type=UD num_elts=16 alias=<$15,0>\0A.decl IN15 v_type=G type=UD num_elts=16 alias=<$16,0>\0A.decl RA0 v_type=G type=UD num_elts=32 align=64\0A.decl RA2 v_type=G type=UD num_elts=32 align=64\0A.decl RA4 v_type=G type=UD num_elts=32 align=64\0A.decl RA6 v_type=G type=UD num_elts=32 align=64\0A.decl RA8 v_type=G type=UD num_elts=32 align=64\0A.decl RA10 v_type=G type=UD num_elts=32 align=64\0A.decl RA12 v_type=G type=UD num_elts=32 align=64\0A.decl RA14 v_type=G type=UD num_elts=32 align=64\0A.decl RF0 v_type=G type=F num_elts=16 alias=<RA0,0>\0A.decl RF1 v_type=G type=F num_elts=16 alias=<RA0,64>\0A.decl RF2 v_type=G type=F num_elts=16 alias=<RA2,0>\0A.decl RF3 v_type=G type=F num_elts=16 alias=<RA2,64>\0A.decl RF4 v_type=G type=F num_elts=16 alias=<RA4,0>\0A.decl RF5 v_type=G type=F num_elts=16 alias=<RA4,64>\0A.decl RF6 v_type=G type=F num_elts=16 alias=<RA6,0>\0A.decl RF7 v_type=G type=F num_elts=16 alias=<RA6,64>\0A.decl RF8 v_type=G type=F num_elts=16 alias=<RA8,0>\0A.decl RF9 v_type=G type=F num_elts=16 alias=<RA8,64>\0A.decl RF10 v_type=G type=F num_elts=16 alias=<RA10,0>\0A.decl RF11 v_type=G type=F num_elts=16 alias=<RA10,64>\0A.decl RF12 v_type=G type=F num_elts=16 alias=<RA12,0>\0A.decl RF13 v_type=G type=F num_elts=16 alias=<RA12,64>\0A.decl RF14 v_type=G type=F num_elts=16 alias=<RA14,0>\0A.decl RF15 v_type=G type=F num_elts=16 alias=<RA14,64>\0Asetp (M1_NM,16) INTERLEAVE_2 0x5555:uw\0Asetp (M1_NM,16) INTERLEAVE_4 0x3333:uw\0Asetp (M1_NM,16) INTERLEAVE_8 0x0F0F:uw\0A(!INTERLEAVE_2) sel (M1_NM,16) RA0(0,0)<1>  IN1(0,0)<2;2,0>  IN0(0,0)<1;1,0>\0A (INTERLEAVE_2) sel (M1_NM,16) RA0(1,0)<1>  IN0(0,1)<2;2,0>  IN1(0,0)<1;1,0>\0A(!INTERLEAVE_2) sel (M1_NM,16) RA2(0,0)<1>  IN3(0,0)<2;2,0>  IN2(0,0)<1;1,0>\0A (INTERLEAVE_2) sel (M1_NM,16) RA2(1,0)<1>  IN2(0,1)<2;2,0>  IN3(0,0)<1;1,0>\0A(!INTERLEAVE_2) sel (M1_NM,16) RA4(0,0)<1>  IN5(0,0)<2;2,0>  IN4(0,0)<1;1,0>\0A (INTERLEAVE_2) sel (M1_NM,16) RA4(1,0)<1>  IN4(0,1)<2;2,0>  IN5(0,0)<1;1,0>\0A(!INTERLEAVE_2) sel (M1_NM,16) RA6(0,0)<1>  IN7(0,0)<2;2,0>  IN6(0,0)<1;1,0>\0A (INTERLEAVE_2) sel (M1_NM,16) RA6(1,0)<1>  IN6(0,1)<2;2,0>  IN7(0,0)<1;1,0>\0A(!INTERLEAVE_2) sel (M1_NM,16) RA8(0,0)<1>  IN9(0,0)<2;2,0>  IN8(0,0)<1;1,0>\0A (INTERLEAVE_2) sel (M1_NM,16) RA8(1,0)<1>  IN8(0,1)<2;2,0>  IN9(0,0)<1;1,0>\0A(!INTERLEAVE_2) sel (M1_NM,16) RA10(0,0)<1> IN11(0,0)<2;2,0> IN10(0,0)<1;1,0>\0A (INTERLEAVE_2) sel (M1_NM,16) RA10(1,0)<1> IN10(0,1)<2;2,0> IN11(0,0)<1;1,0>\0A(!INTERLEAVE_2) sel (M1_NM,16) RA12(0,0)<1> IN13(0,0)<2;2,0> IN12(0,0)<1;1,0>\0A (INTERLEAVE_2) sel (M1_NM,16) RA12(1,0)<1> IN12(0,1)<2;2,0> IN13(0,0)<1;1,0>\0A(!INTERLEAVE_2) sel (M1_NM,16) RA14(0,0)<1> IN15(0,0)<2;2,0> IN14(0,0)<1;1,0>\0A (INTERLEAVE_2) sel (M1_NM,16) RA14(1,0)<1> IN14(0,1)<2;2,0> IN15(0,0)<1;1,0>\0Aadd (M1_NM,16) RF0(0,0)<1> RF0(0,0)<1;1,0> RF1(0,0)<1;1,0>\0Aadd (M1_NM,16) RF3(0,0)<1> RF2(0,0)<1;1,0> RF3(0,0)<1;1,0>\0Aadd (M1_NM,16) RF4(0,0)<1> RF4(0,0)<1;1,0> RF5(0,0)<1;1,0>\0Aadd (M1_NM,16) RF7(0,0)<1> RF6(0,0)<1;1,0> RF7(0,0)<1;1,0>\0Aadd (M1_NM,16) RF8(0,0)<1> RF8(0,0)<1;1,0> RF9(0,0)<1;1,0>\0Aadd (M1_NM,16) RF11(0,0)<1> RF10(0,0)<1;1,0> RF11(0,0)<1;1,0>\0Aadd (M1_NM,16) RF12(0,0)<1> RF12(0,0)<1;1,0> RF13(0,0)<1;1,0>\0Aadd (M1_NM,16) RF15(0,0)<1> RF14(0,0)<1;1,0> RF15(0,0)<1;1,0>\0A(!INTERLEAVE_4) sel (M1_NM,16) RA0(1,0)<1>  RA2(0,14)<1;1,0>  RA0(0,0)<1;1,0>\0A (INTERLEAVE_4) sel (M1_NM,16) RA0(0,0)<1>  RA0(0,2)<1;1,0>   RA2(1,0)<1;1,0>\0A(!INTERLEAVE_4) sel (M1_NM,16) RA4(1,0)<1>  RA6(0,14)<1;1,0>  RA4(0,0)<1;1,0>\0A (INTERLEAVE_4) sel (M1_NM,16) RA4(0,0)<1>  RA4(0,2)<1;1,0>   RA6(1,0)<1;1,0>\0A(!INTERLEAVE_4) sel (M1_NM,16) RA8(1,0)<1>  RA10(0,14)<1;1,0> RA8(0,0)<1;1,0>\0A (INTERLEAVE_4) sel (M1_NM,16) RA8(0,0)<1>  RA8(0,2)<1;1,0>   RA10(1,0)<1;1,0>\0A(!INTERLEAVE_4) sel (M1_NM,16) RA12(1,0)<1> RA14(0,14)<1;1,0> RA12(0,0)<1;1,0>\0A (INTERLEAVE_4) sel (M1_NM,16) RA12(0,0)<1> RA12(0,2)<1;1,0>  RA14(1,0)<1;1,0>\0Aadd (M1_NM,16) RF0(0,0)<1>  RF0(0,0)<1;1,0>  RF1(0,0)<1;1,0>\0Aadd (M1_NM,16) RF5(0,0)<1>  RF4(0,0)<1;1,0>  RF5(0,0)<1;1,0>\0Aadd (M1_NM,16) RF8(0,0)<1>  RF8(0,0)<1;1,0>  RF9(0,0)<1;1,0>\0Aadd (M1_NM,16) RF13(0,0)<1> RF12(0,0)<1;1,0> RF13(0,0)<1;1,0>\0A(!INTERLEAVE_8) sel (M1_NM,16) RA0(1,0)<1> RA4(0,12)<1;1,0>  RA0(0,0)<1;1,0>\0A (INTERLEAVE_8) sel (M1_NM,16) RA0(0,0)<1> RA0(0,4)<1;1,0>   RA4(1,0)<1;1,0>\0A(!INTERLEAVE_8) sel (M1_NM,16) RA8(1,0)<1> RA12(0,12)<1;1,0> RA8(0,0)<1;1,0>\0A (INTERLEAVE_8) sel (M1_NM,16) RA8(0,0)<1> RA8(0,4)<1;1,0>   RA12(1,0)<1;1,0>\0Aadd (M1_NM,16) RF0(0,0)<1> RF0(0,0)<1;1,0> RF1(0,0)<1;1,0>\0Aadd (M1_NM,16) RF8(0,0)<1> RF8(0,0)<1;1,0> RF9(0,0)<1;1,0>\0Amov (M1_NM, 8) RA0(1,0)<1> RA0(0,8)<1;1,0>\0Amov (M1_NM, 8) RA8(1,8)<1> RA8(0,0)<1;1,0>\0Aadd (M1_NM,8) $0(0,0)<1> RF0(0,0)<1;1,0> RF1(0,0)<1;1,0>\0Aadd (M1_NM,8) $0(0,8)<1> RF8(0,8)<1;1,0> RF9(0,8)<1;1,0>\0A}\0A", "=rw,rw,rw,rw,rw,rw,rw,rw,rw,rw,rw,rw,rw,rw,rw,rw,rw"(float %1053, float %1054, float %1055, float %1056, float %1057, float %1058, float %1059, float %1060, float %1061, float %1062, float %1063, float %1064, float %1065, float %1066, float %1067, float %1068) #0		; visa id: 1815
  %bf_cvt = call i16 @llvm.genx.GenISA.ftobf.i16.f32(float %699, i32 0)		; visa id: 1815
  %.sroa.03025.0.vec.insert3043 = insertelement <8 x i16> poison, i16 %bf_cvt, i64 0		; visa id: 1816
  %bf_cvt.1 = call i16 @llvm.genx.GenISA.ftobf.i16.f32(float %702, i32 0)		; visa id: 1817
  %.sroa.03025.2.vec.insert3046 = insertelement <8 x i16> %.sroa.03025.0.vec.insert3043, i16 %bf_cvt.1, i64 1		; visa id: 1818
  %bf_cvt.2 = call i16 @llvm.genx.GenISA.ftobf.i16.f32(float %705, i32 0)		; visa id: 1819
  %.sroa.03025.4.vec.insert3048 = insertelement <8 x i16> %.sroa.03025.2.vec.insert3046, i16 %bf_cvt.2, i64 2		; visa id: 1820
  %bf_cvt.3 = call i16 @llvm.genx.GenISA.ftobf.i16.f32(float %708, i32 0)		; visa id: 1821
  %.sroa.03025.6.vec.insert3050 = insertelement <8 x i16> %.sroa.03025.4.vec.insert3048, i16 %bf_cvt.3, i64 3		; visa id: 1822
  %bf_cvt.4 = call i16 @llvm.genx.GenISA.ftobf.i16.f32(float %711, i32 0)		; visa id: 1823
  %.sroa.03025.8.vec.insert3052 = insertelement <8 x i16> %.sroa.03025.6.vec.insert3050, i16 %bf_cvt.4, i64 4		; visa id: 1824
  %bf_cvt.5 = call i16 @llvm.genx.GenISA.ftobf.i16.f32(float %714, i32 0)		; visa id: 1825
  %.sroa.03025.10.vec.insert3054 = insertelement <8 x i16> %.sroa.03025.8.vec.insert3052, i16 %bf_cvt.5, i64 5		; visa id: 1826
  %bf_cvt.6 = call i16 @llvm.genx.GenISA.ftobf.i16.f32(float %717, i32 0)		; visa id: 1827
  %.sroa.03025.12.vec.insert3056 = insertelement <8 x i16> %.sroa.03025.10.vec.insert3054, i16 %bf_cvt.6, i64 6		; visa id: 1828
  %bf_cvt.7 = call i16 @llvm.genx.GenISA.ftobf.i16.f32(float %720, i32 0)		; visa id: 1829
  %.sroa.03025.14.vec.insert3058 = insertelement <8 x i16> %.sroa.03025.12.vec.insert3056, i16 %bf_cvt.7, i64 7		; visa id: 1830
  %bf_cvt.8 = call i16 @llvm.genx.GenISA.ftobf.i16.f32(float %723, i32 0)		; visa id: 1831
  %.sroa.35.16.vec.insert3077 = insertelement <8 x i16> poison, i16 %bf_cvt.8, i64 0		; visa id: 1832
  %bf_cvt.9 = call i16 @llvm.genx.GenISA.ftobf.i16.f32(float %726, i32 0)		; visa id: 1833
  %.sroa.35.18.vec.insert3079 = insertelement <8 x i16> %.sroa.35.16.vec.insert3077, i16 %bf_cvt.9, i64 1		; visa id: 1834
  %bf_cvt.10 = call i16 @llvm.genx.GenISA.ftobf.i16.f32(float %729, i32 0)		; visa id: 1835
  %.sroa.35.20.vec.insert3081 = insertelement <8 x i16> %.sroa.35.18.vec.insert3079, i16 %bf_cvt.10, i64 2		; visa id: 1836
  %bf_cvt.11 = call i16 @llvm.genx.GenISA.ftobf.i16.f32(float %732, i32 0)		; visa id: 1837
  %.sroa.35.22.vec.insert3083 = insertelement <8 x i16> %.sroa.35.20.vec.insert3081, i16 %bf_cvt.11, i64 3		; visa id: 1838
  %bf_cvt.12 = call i16 @llvm.genx.GenISA.ftobf.i16.f32(float %735, i32 0)		; visa id: 1839
  %.sroa.35.24.vec.insert3085 = insertelement <8 x i16> %.sroa.35.22.vec.insert3083, i16 %bf_cvt.12, i64 4		; visa id: 1840
  %bf_cvt.13 = call i16 @llvm.genx.GenISA.ftobf.i16.f32(float %738, i32 0)		; visa id: 1841
  %.sroa.35.26.vec.insert3087 = insertelement <8 x i16> %.sroa.35.24.vec.insert3085, i16 %bf_cvt.13, i64 5		; visa id: 1842
  %bf_cvt.14 = call i16 @llvm.genx.GenISA.ftobf.i16.f32(float %741, i32 0)		; visa id: 1843
  %.sroa.35.28.vec.insert3089 = insertelement <8 x i16> %.sroa.35.26.vec.insert3087, i16 %bf_cvt.14, i64 6		; visa id: 1844
  %bf_cvt.15 = call i16 @llvm.genx.GenISA.ftobf.i16.f32(float %744, i32 0)		; visa id: 1845
  %.sroa.35.30.vec.insert3091 = insertelement <8 x i16> %.sroa.35.28.vec.insert3089, i16 %bf_cvt.15, i64 7		; visa id: 1846
  %bf_cvt.16 = call i16 @llvm.genx.GenISA.ftobf.i16.f32(float %747, i32 0)		; visa id: 1847
  %.sroa.67.32.vec.insert3110 = insertelement <8 x i16> poison, i16 %bf_cvt.16, i64 0		; visa id: 1848
  %bf_cvt.17 = call i16 @llvm.genx.GenISA.ftobf.i16.f32(float %750, i32 0)		; visa id: 1849
  %.sroa.67.34.vec.insert3112 = insertelement <8 x i16> %.sroa.67.32.vec.insert3110, i16 %bf_cvt.17, i64 1		; visa id: 1850
  %bf_cvt.18 = call i16 @llvm.genx.GenISA.ftobf.i16.f32(float %753, i32 0)		; visa id: 1851
  %.sroa.67.36.vec.insert3114 = insertelement <8 x i16> %.sroa.67.34.vec.insert3112, i16 %bf_cvt.18, i64 2		; visa id: 1852
  %bf_cvt.19 = call i16 @llvm.genx.GenISA.ftobf.i16.f32(float %756, i32 0)		; visa id: 1853
  %.sroa.67.38.vec.insert3116 = insertelement <8 x i16> %.sroa.67.36.vec.insert3114, i16 %bf_cvt.19, i64 3		; visa id: 1854
  %bf_cvt.20 = call i16 @llvm.genx.GenISA.ftobf.i16.f32(float %759, i32 0)		; visa id: 1855
  %.sroa.67.40.vec.insert3118 = insertelement <8 x i16> %.sroa.67.38.vec.insert3116, i16 %bf_cvt.20, i64 4		; visa id: 1856
  %bf_cvt.21 = call i16 @llvm.genx.GenISA.ftobf.i16.f32(float %762, i32 0)		; visa id: 1857
  %.sroa.67.42.vec.insert3120 = insertelement <8 x i16> %.sroa.67.40.vec.insert3118, i16 %bf_cvt.21, i64 5		; visa id: 1858
  %bf_cvt.22 = call i16 @llvm.genx.GenISA.ftobf.i16.f32(float %765, i32 0)		; visa id: 1859
  %.sroa.67.44.vec.insert3122 = insertelement <8 x i16> %.sroa.67.42.vec.insert3120, i16 %bf_cvt.22, i64 6		; visa id: 1860
  %bf_cvt.23 = call i16 @llvm.genx.GenISA.ftobf.i16.f32(float %768, i32 0)		; visa id: 1861
  %.sroa.67.46.vec.insert3124 = insertelement <8 x i16> %.sroa.67.44.vec.insert3122, i16 %bf_cvt.23, i64 7		; visa id: 1862
  %bf_cvt.24 = call i16 @llvm.genx.GenISA.ftobf.i16.f32(float %771, i32 0)		; visa id: 1863
  %.sroa.99.48.vec.insert3143 = insertelement <8 x i16> poison, i16 %bf_cvt.24, i64 0		; visa id: 1864
  %bf_cvt.25 = call i16 @llvm.genx.GenISA.ftobf.i16.f32(float %774, i32 0)		; visa id: 1865
  %.sroa.99.50.vec.insert3145 = insertelement <8 x i16> %.sroa.99.48.vec.insert3143, i16 %bf_cvt.25, i64 1		; visa id: 1866
  %bf_cvt.26 = call i16 @llvm.genx.GenISA.ftobf.i16.f32(float %777, i32 0)		; visa id: 1867
  %.sroa.99.52.vec.insert3147 = insertelement <8 x i16> %.sroa.99.50.vec.insert3145, i16 %bf_cvt.26, i64 2		; visa id: 1868
  %bf_cvt.27 = call i16 @llvm.genx.GenISA.ftobf.i16.f32(float %780, i32 0)		; visa id: 1869
  %.sroa.99.54.vec.insert3149 = insertelement <8 x i16> %.sroa.99.52.vec.insert3147, i16 %bf_cvt.27, i64 3		; visa id: 1870
  %bf_cvt.28 = call i16 @llvm.genx.GenISA.ftobf.i16.f32(float %783, i32 0)		; visa id: 1871
  %.sroa.99.56.vec.insert3151 = insertelement <8 x i16> %.sroa.99.54.vec.insert3149, i16 %bf_cvt.28, i64 4		; visa id: 1872
  %bf_cvt.29 = call i16 @llvm.genx.GenISA.ftobf.i16.f32(float %786, i32 0)		; visa id: 1873
  %.sroa.99.58.vec.insert3153 = insertelement <8 x i16> %.sroa.99.56.vec.insert3151, i16 %bf_cvt.29, i64 5		; visa id: 1874
  %bf_cvt.30 = call i16 @llvm.genx.GenISA.ftobf.i16.f32(float %789, i32 0)		; visa id: 1875
  %.sroa.99.60.vec.insert3155 = insertelement <8 x i16> %.sroa.99.58.vec.insert3153, i16 %bf_cvt.30, i64 6		; visa id: 1876
  %bf_cvt.31 = call i16 @llvm.genx.GenISA.ftobf.i16.f32(float %792, i32 0)		; visa id: 1877
  %.sroa.99.62.vec.insert3157 = insertelement <8 x i16> %.sroa.99.60.vec.insert3155, i16 %bf_cvt.31, i64 7		; visa id: 1878
  call void @llvm.genx.GenISA.LSC2DBlockSetAddrPayloadField.p4i8.i32(i8 addrspace(4)* %Block2D_AddrPayload118, i32 5, i32 %319, i1 false)		; visa id: 1879
  call void @llvm.genx.GenISA.LSC2DBlockSetAddrPayloadField.p4i8.i32(i8 addrspace(4)* %Block2D_AddrPayload118, i32 6, i32 %384, i1 false)		; visa id: 1880
  %1070 = call <32 x i16> asm "lsc_load_block2d.ugm (M1, 1)  $0:d$2.$3x$4x$5nt flat[$1+(0,0)]", "=rw,rw.u,P,P,P,P"(i8 addrspace(4)* %Block2D_AddrPayload118, i32 16, i32 2, i32 16, i32 16) #0		; visa id: 1881
  %1071 = add i32 %384, 16		; visa id: 1881
  call void @llvm.genx.GenISA.LSC2DBlockSetAddrPayloadField.p4i8.i32(i8 addrspace(4)* %Block2D_AddrPayload118, i32 5, i32 %319, i1 false)		; visa id: 1882
  call void @llvm.genx.GenISA.LSC2DBlockSetAddrPayloadField.p4i8.i32(i8 addrspace(4)* %Block2D_AddrPayload118, i32 6, i32 %1071, i1 false)		; visa id: 1883
  %1072 = call <32 x i16> asm "lsc_load_block2d.ugm (M1, 1)  $0:d$2.$3x$4x$5nt flat[$1+(0,0)]", "=rw,rw.u,P,P,P,P"(i8 addrspace(4)* %Block2D_AddrPayload118, i32 16, i32 2, i32 16, i32 16) #0		; visa id: 1884
  %1073 = extractelement <32 x i16> %1070, i32 0		; visa id: 1884
  %1074 = insertelement <16 x i16> undef, i16 %1073, i32 0		; visa id: 1884
  %1075 = extractelement <32 x i16> %1070, i32 1		; visa id: 1884
  %1076 = insertelement <16 x i16> %1074, i16 %1075, i32 1		; visa id: 1884
  %1077 = extractelement <32 x i16> %1070, i32 2		; visa id: 1884
  %1078 = insertelement <16 x i16> %1076, i16 %1077, i32 2		; visa id: 1884
  %1079 = extractelement <32 x i16> %1070, i32 3		; visa id: 1884
  %1080 = insertelement <16 x i16> %1078, i16 %1079, i32 3		; visa id: 1884
  %1081 = extractelement <32 x i16> %1070, i32 4		; visa id: 1884
  %1082 = insertelement <16 x i16> %1080, i16 %1081, i32 4		; visa id: 1884
  %1083 = extractelement <32 x i16> %1070, i32 5		; visa id: 1884
  %1084 = insertelement <16 x i16> %1082, i16 %1083, i32 5		; visa id: 1884
  %1085 = extractelement <32 x i16> %1070, i32 6		; visa id: 1884
  %1086 = insertelement <16 x i16> %1084, i16 %1085, i32 6		; visa id: 1884
  %1087 = extractelement <32 x i16> %1070, i32 7		; visa id: 1884
  %1088 = insertelement <16 x i16> %1086, i16 %1087, i32 7		; visa id: 1884
  %1089 = extractelement <32 x i16> %1070, i32 8		; visa id: 1884
  %1090 = insertelement <16 x i16> %1088, i16 %1089, i32 8		; visa id: 1884
  %1091 = extractelement <32 x i16> %1070, i32 9		; visa id: 1884
  %1092 = insertelement <16 x i16> %1090, i16 %1091, i32 9		; visa id: 1884
  %1093 = extractelement <32 x i16> %1070, i32 10		; visa id: 1884
  %1094 = insertelement <16 x i16> %1092, i16 %1093, i32 10		; visa id: 1884
  %1095 = extractelement <32 x i16> %1070, i32 11		; visa id: 1884
  %1096 = insertelement <16 x i16> %1094, i16 %1095, i32 11		; visa id: 1884
  %1097 = extractelement <32 x i16> %1070, i32 12		; visa id: 1884
  %1098 = insertelement <16 x i16> %1096, i16 %1097, i32 12		; visa id: 1884
  %1099 = extractelement <32 x i16> %1070, i32 13		; visa id: 1884
  %1100 = insertelement <16 x i16> %1098, i16 %1099, i32 13		; visa id: 1884
  %1101 = extractelement <32 x i16> %1070, i32 14		; visa id: 1884
  %1102 = insertelement <16 x i16> %1100, i16 %1101, i32 14		; visa id: 1884
  %1103 = extractelement <32 x i16> %1070, i32 15		; visa id: 1884
  %1104 = insertelement <16 x i16> %1102, i16 %1103, i32 15		; visa id: 1884
  %1105 = extractelement <32 x i16> %1070, i32 16		; visa id: 1884
  %1106 = insertelement <16 x i16> undef, i16 %1105, i32 0		; visa id: 1884
  %1107 = extractelement <32 x i16> %1070, i32 17		; visa id: 1884
  %1108 = insertelement <16 x i16> %1106, i16 %1107, i32 1		; visa id: 1884
  %1109 = extractelement <32 x i16> %1070, i32 18		; visa id: 1884
  %1110 = insertelement <16 x i16> %1108, i16 %1109, i32 2		; visa id: 1884
  %1111 = extractelement <32 x i16> %1070, i32 19		; visa id: 1884
  %1112 = insertelement <16 x i16> %1110, i16 %1111, i32 3		; visa id: 1884
  %1113 = extractelement <32 x i16> %1070, i32 20		; visa id: 1884
  %1114 = insertelement <16 x i16> %1112, i16 %1113, i32 4		; visa id: 1884
  %1115 = extractelement <32 x i16> %1070, i32 21		; visa id: 1884
  %1116 = insertelement <16 x i16> %1114, i16 %1115, i32 5		; visa id: 1884
  %1117 = extractelement <32 x i16> %1070, i32 22		; visa id: 1884
  %1118 = insertelement <16 x i16> %1116, i16 %1117, i32 6		; visa id: 1884
  %1119 = extractelement <32 x i16> %1070, i32 23		; visa id: 1884
  %1120 = insertelement <16 x i16> %1118, i16 %1119, i32 7		; visa id: 1884
  %1121 = extractelement <32 x i16> %1070, i32 24		; visa id: 1884
  %1122 = insertelement <16 x i16> %1120, i16 %1121, i32 8		; visa id: 1884
  %1123 = extractelement <32 x i16> %1070, i32 25		; visa id: 1884
  %1124 = insertelement <16 x i16> %1122, i16 %1123, i32 9		; visa id: 1884
  %1125 = extractelement <32 x i16> %1070, i32 26		; visa id: 1884
  %1126 = insertelement <16 x i16> %1124, i16 %1125, i32 10		; visa id: 1884
  %1127 = extractelement <32 x i16> %1070, i32 27		; visa id: 1884
  %1128 = insertelement <16 x i16> %1126, i16 %1127, i32 11		; visa id: 1884
  %1129 = extractelement <32 x i16> %1070, i32 28		; visa id: 1884
  %1130 = insertelement <16 x i16> %1128, i16 %1129, i32 12		; visa id: 1884
  %1131 = extractelement <32 x i16> %1070, i32 29		; visa id: 1884
  %1132 = insertelement <16 x i16> %1130, i16 %1131, i32 13		; visa id: 1884
  %1133 = extractelement <32 x i16> %1070, i32 30		; visa id: 1884
  %1134 = insertelement <16 x i16> %1132, i16 %1133, i32 14		; visa id: 1884
  %1135 = extractelement <32 x i16> %1070, i32 31		; visa id: 1884
  %1136 = insertelement <16 x i16> %1134, i16 %1135, i32 15		; visa id: 1884
  %1137 = extractelement <32 x i16> %1072, i32 0		; visa id: 1884
  %1138 = insertelement <16 x i16> undef, i16 %1137, i32 0		; visa id: 1884
  %1139 = extractelement <32 x i16> %1072, i32 1		; visa id: 1884
  %1140 = insertelement <16 x i16> %1138, i16 %1139, i32 1		; visa id: 1884
  %1141 = extractelement <32 x i16> %1072, i32 2		; visa id: 1884
  %1142 = insertelement <16 x i16> %1140, i16 %1141, i32 2		; visa id: 1884
  %1143 = extractelement <32 x i16> %1072, i32 3		; visa id: 1884
  %1144 = insertelement <16 x i16> %1142, i16 %1143, i32 3		; visa id: 1884
  %1145 = extractelement <32 x i16> %1072, i32 4		; visa id: 1884
  %1146 = insertelement <16 x i16> %1144, i16 %1145, i32 4		; visa id: 1884
  %1147 = extractelement <32 x i16> %1072, i32 5		; visa id: 1884
  %1148 = insertelement <16 x i16> %1146, i16 %1147, i32 5		; visa id: 1884
  %1149 = extractelement <32 x i16> %1072, i32 6		; visa id: 1884
  %1150 = insertelement <16 x i16> %1148, i16 %1149, i32 6		; visa id: 1884
  %1151 = extractelement <32 x i16> %1072, i32 7		; visa id: 1884
  %1152 = insertelement <16 x i16> %1150, i16 %1151, i32 7		; visa id: 1884
  %1153 = extractelement <32 x i16> %1072, i32 8		; visa id: 1884
  %1154 = insertelement <16 x i16> %1152, i16 %1153, i32 8		; visa id: 1884
  %1155 = extractelement <32 x i16> %1072, i32 9		; visa id: 1884
  %1156 = insertelement <16 x i16> %1154, i16 %1155, i32 9		; visa id: 1884
  %1157 = extractelement <32 x i16> %1072, i32 10		; visa id: 1884
  %1158 = insertelement <16 x i16> %1156, i16 %1157, i32 10		; visa id: 1884
  %1159 = extractelement <32 x i16> %1072, i32 11		; visa id: 1884
  %1160 = insertelement <16 x i16> %1158, i16 %1159, i32 11		; visa id: 1884
  %1161 = extractelement <32 x i16> %1072, i32 12		; visa id: 1884
  %1162 = insertelement <16 x i16> %1160, i16 %1161, i32 12		; visa id: 1884
  %1163 = extractelement <32 x i16> %1072, i32 13		; visa id: 1884
  %1164 = insertelement <16 x i16> %1162, i16 %1163, i32 13		; visa id: 1884
  %1165 = extractelement <32 x i16> %1072, i32 14		; visa id: 1884
  %1166 = insertelement <16 x i16> %1164, i16 %1165, i32 14		; visa id: 1884
  %1167 = extractelement <32 x i16> %1072, i32 15		; visa id: 1884
  %1168 = insertelement <16 x i16> %1166, i16 %1167, i32 15		; visa id: 1884
  %1169 = extractelement <32 x i16> %1072, i32 16		; visa id: 1884
  %1170 = insertelement <16 x i16> undef, i16 %1169, i32 0		; visa id: 1884
  %1171 = extractelement <32 x i16> %1072, i32 17		; visa id: 1884
  %1172 = insertelement <16 x i16> %1170, i16 %1171, i32 1		; visa id: 1884
  %1173 = extractelement <32 x i16> %1072, i32 18		; visa id: 1884
  %1174 = insertelement <16 x i16> %1172, i16 %1173, i32 2		; visa id: 1884
  %1175 = extractelement <32 x i16> %1072, i32 19		; visa id: 1884
  %1176 = insertelement <16 x i16> %1174, i16 %1175, i32 3		; visa id: 1884
  %1177 = extractelement <32 x i16> %1072, i32 20		; visa id: 1884
  %1178 = insertelement <16 x i16> %1176, i16 %1177, i32 4		; visa id: 1884
  %1179 = extractelement <32 x i16> %1072, i32 21		; visa id: 1884
  %1180 = insertelement <16 x i16> %1178, i16 %1179, i32 5		; visa id: 1884
  %1181 = extractelement <32 x i16> %1072, i32 22		; visa id: 1884
  %1182 = insertelement <16 x i16> %1180, i16 %1181, i32 6		; visa id: 1884
  %1183 = extractelement <32 x i16> %1072, i32 23		; visa id: 1884
  %1184 = insertelement <16 x i16> %1182, i16 %1183, i32 7		; visa id: 1884
  %1185 = extractelement <32 x i16> %1072, i32 24		; visa id: 1884
  %1186 = insertelement <16 x i16> %1184, i16 %1185, i32 8		; visa id: 1884
  %1187 = extractelement <32 x i16> %1072, i32 25		; visa id: 1884
  %1188 = insertelement <16 x i16> %1186, i16 %1187, i32 9		; visa id: 1884
  %1189 = extractelement <32 x i16> %1072, i32 26		; visa id: 1884
  %1190 = insertelement <16 x i16> %1188, i16 %1189, i32 10		; visa id: 1884
  %1191 = extractelement <32 x i16> %1072, i32 27		; visa id: 1884
  %1192 = insertelement <16 x i16> %1190, i16 %1191, i32 11		; visa id: 1884
  %1193 = extractelement <32 x i16> %1072, i32 28		; visa id: 1884
  %1194 = insertelement <16 x i16> %1192, i16 %1193, i32 12		; visa id: 1884
  %1195 = extractelement <32 x i16> %1072, i32 29		; visa id: 1884
  %1196 = insertelement <16 x i16> %1194, i16 %1195, i32 13		; visa id: 1884
  %1197 = extractelement <32 x i16> %1072, i32 30		; visa id: 1884
  %1198 = insertelement <16 x i16> %1196, i16 %1197, i32 14		; visa id: 1884
  %1199 = extractelement <32 x i16> %1072, i32 31		; visa id: 1884
  %1200 = insertelement <16 x i16> %1198, i16 %1199, i32 15		; visa id: 1884
  %1201 = call <8 x float> asm "{\0A.decl DST     v_type=G type=f num_elts=$5 alias=<$0,0>\0A.decl SRC1_UD v_type=G type=UD num_elts=128 alias=<$2,0>\0A.decl SRC2_UD v_type=G type=UD num_elts=$4 alias=<$1,0>\0Adpas.bf.bf.8.$3 (M1, 16) DST.0 DST.0 SRC1_UD.0 SRC2_UD(0,0)\0A}\0A", "=rw,rw,rw,P,P,P,0"(<8 x i16> %.sroa.03025.14.vec.insert3058, <16 x i16> %1104, i32 8, i32 64, i32 128, <8 x float> %.sroa.0.2) #0		; visa id: 1884
  %1202 = call <8 x float> asm "{\0A.decl DST     v_type=G type=f num_elts=$5 alias=<$0,0>\0A.decl SRC1_UD v_type=G type=UD num_elts=128 alias=<$2,0>\0A.decl SRC2_UD v_type=G type=UD num_elts=$4 alias=<$1,0>\0Adpas.bf.bf.8.$3 (M1, 16) DST.0 DST.0 SRC1_UD.0 SRC2_UD(0,0)\0A}\0A", "=rw,rw,rw,P,P,P,0"(<8 x i16> %.sroa.35.30.vec.insert3091, <16 x i16> %1104, i32 8, i32 64, i32 128, <8 x float> %.sroa.52.2) #0		; visa id: 1884
  %1203 = call <8 x float> asm "{\0A.decl DST     v_type=G type=f num_elts=$5 alias=<$0,0>\0A.decl SRC1_UD v_type=G type=UD num_elts=128 alias=<$2,0>\0A.decl SRC2_UD v_type=G type=UD num_elts=$4 alias=<$1,0>\0Adpas.bf.bf.8.$3 (M1, 16) DST.0 DST.0 SRC1_UD.0 SRC2_UD(0,0)\0A}\0A", "=rw,rw,rw,P,P,P,0"(<8 x i16> %.sroa.35.30.vec.insert3091, <16 x i16> %1136, i32 8, i32 64, i32 128, <8 x float> %.sroa.148.2) #0		; visa id: 1884
  %1204 = call <8 x float> asm "{\0A.decl DST     v_type=G type=f num_elts=$5 alias=<$0,0>\0A.decl SRC1_UD v_type=G type=UD num_elts=128 alias=<$2,0>\0A.decl SRC2_UD v_type=G type=UD num_elts=$4 alias=<$1,0>\0Adpas.bf.bf.8.$3 (M1, 16) DST.0 DST.0 SRC1_UD.0 SRC2_UD(0,0)\0A}\0A", "=rw,rw,rw,P,P,P,0"(<8 x i16> %.sroa.03025.14.vec.insert3058, <16 x i16> %1136, i32 8, i32 64, i32 128, <8 x float> %.sroa.100.2) #0		; visa id: 1884
  %1205 = call <8 x float> asm "{\0A.decl DST     v_type=G type=f num_elts=$5 alias=<$0,0>\0A.decl SRC1_UD v_type=G type=UD num_elts=128 alias=<$2,0>\0A.decl SRC2_UD v_type=G type=UD num_elts=$4 alias=<$1,0>\0Adpas.bf.bf.8.$3 (M1, 16) DST.0 DST.0 SRC1_UD.0 SRC2_UD(0,0)\0A}\0A", "=rw,rw,rw,P,P,P,0"(<8 x i16> %.sroa.67.46.vec.insert3124, <16 x i16> %1168, i32 8, i32 64, i32 128, <8 x float> %1201) #0		; visa id: 1884
  %1206 = call <8 x float> asm "{\0A.decl DST     v_type=G type=f num_elts=$5 alias=<$0,0>\0A.decl SRC1_UD v_type=G type=UD num_elts=128 alias=<$2,0>\0A.decl SRC2_UD v_type=G type=UD num_elts=$4 alias=<$1,0>\0Adpas.bf.bf.8.$3 (M1, 16) DST.0 DST.0 SRC1_UD.0 SRC2_UD(0,0)\0A}\0A", "=rw,rw,rw,P,P,P,0"(<8 x i16> %.sroa.99.62.vec.insert3157, <16 x i16> %1168, i32 8, i32 64, i32 128, <8 x float> %1202) #0		; visa id: 1884
  %1207 = call <8 x float> asm "{\0A.decl DST     v_type=G type=f num_elts=$5 alias=<$0,0>\0A.decl SRC1_UD v_type=G type=UD num_elts=128 alias=<$2,0>\0A.decl SRC2_UD v_type=G type=UD num_elts=$4 alias=<$1,0>\0Adpas.bf.bf.8.$3 (M1, 16) DST.0 DST.0 SRC1_UD.0 SRC2_UD(0,0)\0A}\0A", "=rw,rw,rw,P,P,P,0"(<8 x i16> %.sroa.99.62.vec.insert3157, <16 x i16> %1200, i32 8, i32 64, i32 128, <8 x float> %1203) #0		; visa id: 1884
  %1208 = call <8 x float> asm "{\0A.decl DST     v_type=G type=f num_elts=$5 alias=<$0,0>\0A.decl SRC1_UD v_type=G type=UD num_elts=128 alias=<$2,0>\0A.decl SRC2_UD v_type=G type=UD num_elts=$4 alias=<$1,0>\0Adpas.bf.bf.8.$3 (M1, 16) DST.0 DST.0 SRC1_UD.0 SRC2_UD(0,0)\0A}\0A", "=rw,rw,rw,P,P,P,0"(<8 x i16> %.sroa.67.46.vec.insert3124, <16 x i16> %1200, i32 8, i32 64, i32 128, <8 x float> %1204) #0		; visa id: 1884
  call void @llvm.genx.GenISA.LSC2DBlockSetAddrPayloadField.p4i8.i32(i8 addrspace(4)* %Block2D_AddrPayload118, i32 5, i32 %320, i1 false)		; visa id: 1884
  call void @llvm.genx.GenISA.LSC2DBlockSetAddrPayloadField.p4i8.i32(i8 addrspace(4)* %Block2D_AddrPayload118, i32 6, i32 %384, i1 false)		; visa id: 1885
  %1209 = call <32 x i16> asm "lsc_load_block2d.ugm (M1, 1)  $0:d$2.$3x$4x$5nt flat[$1+(0,0)]", "=rw,rw.u,P,P,P,P"(i8 addrspace(4)* %Block2D_AddrPayload118, i32 16, i32 2, i32 16, i32 16) #0		; visa id: 1886
  call void @llvm.genx.GenISA.LSC2DBlockSetAddrPayloadField.p4i8.i32(i8 addrspace(4)* %Block2D_AddrPayload118, i32 5, i32 %320, i1 false)		; visa id: 1886
  call void @llvm.genx.GenISA.LSC2DBlockSetAddrPayloadField.p4i8.i32(i8 addrspace(4)* %Block2D_AddrPayload118, i32 6, i32 %1071, i1 false)		; visa id: 1887
  %1210 = call <32 x i16> asm "lsc_load_block2d.ugm (M1, 1)  $0:d$2.$3x$4x$5nt flat[$1+(0,0)]", "=rw,rw.u,P,P,P,P"(i8 addrspace(4)* %Block2D_AddrPayload118, i32 16, i32 2, i32 16, i32 16) #0		; visa id: 1888
  %1211 = extractelement <32 x i16> %1209, i32 0		; visa id: 1888
  %1212 = insertelement <16 x i16> undef, i16 %1211, i32 0		; visa id: 1888
  %1213 = extractelement <32 x i16> %1209, i32 1		; visa id: 1888
  %1214 = insertelement <16 x i16> %1212, i16 %1213, i32 1		; visa id: 1888
  %1215 = extractelement <32 x i16> %1209, i32 2		; visa id: 1888
  %1216 = insertelement <16 x i16> %1214, i16 %1215, i32 2		; visa id: 1888
  %1217 = extractelement <32 x i16> %1209, i32 3		; visa id: 1888
  %1218 = insertelement <16 x i16> %1216, i16 %1217, i32 3		; visa id: 1888
  %1219 = extractelement <32 x i16> %1209, i32 4		; visa id: 1888
  %1220 = insertelement <16 x i16> %1218, i16 %1219, i32 4		; visa id: 1888
  %1221 = extractelement <32 x i16> %1209, i32 5		; visa id: 1888
  %1222 = insertelement <16 x i16> %1220, i16 %1221, i32 5		; visa id: 1888
  %1223 = extractelement <32 x i16> %1209, i32 6		; visa id: 1888
  %1224 = insertelement <16 x i16> %1222, i16 %1223, i32 6		; visa id: 1888
  %1225 = extractelement <32 x i16> %1209, i32 7		; visa id: 1888
  %1226 = insertelement <16 x i16> %1224, i16 %1225, i32 7		; visa id: 1888
  %1227 = extractelement <32 x i16> %1209, i32 8		; visa id: 1888
  %1228 = insertelement <16 x i16> %1226, i16 %1227, i32 8		; visa id: 1888
  %1229 = extractelement <32 x i16> %1209, i32 9		; visa id: 1888
  %1230 = insertelement <16 x i16> %1228, i16 %1229, i32 9		; visa id: 1888
  %1231 = extractelement <32 x i16> %1209, i32 10		; visa id: 1888
  %1232 = insertelement <16 x i16> %1230, i16 %1231, i32 10		; visa id: 1888
  %1233 = extractelement <32 x i16> %1209, i32 11		; visa id: 1888
  %1234 = insertelement <16 x i16> %1232, i16 %1233, i32 11		; visa id: 1888
  %1235 = extractelement <32 x i16> %1209, i32 12		; visa id: 1888
  %1236 = insertelement <16 x i16> %1234, i16 %1235, i32 12		; visa id: 1888
  %1237 = extractelement <32 x i16> %1209, i32 13		; visa id: 1888
  %1238 = insertelement <16 x i16> %1236, i16 %1237, i32 13		; visa id: 1888
  %1239 = extractelement <32 x i16> %1209, i32 14		; visa id: 1888
  %1240 = insertelement <16 x i16> %1238, i16 %1239, i32 14		; visa id: 1888
  %1241 = extractelement <32 x i16> %1209, i32 15		; visa id: 1888
  %1242 = insertelement <16 x i16> %1240, i16 %1241, i32 15		; visa id: 1888
  %1243 = extractelement <32 x i16> %1209, i32 16		; visa id: 1888
  %1244 = insertelement <16 x i16> undef, i16 %1243, i32 0		; visa id: 1888
  %1245 = extractelement <32 x i16> %1209, i32 17		; visa id: 1888
  %1246 = insertelement <16 x i16> %1244, i16 %1245, i32 1		; visa id: 1888
  %1247 = extractelement <32 x i16> %1209, i32 18		; visa id: 1888
  %1248 = insertelement <16 x i16> %1246, i16 %1247, i32 2		; visa id: 1888
  %1249 = extractelement <32 x i16> %1209, i32 19		; visa id: 1888
  %1250 = insertelement <16 x i16> %1248, i16 %1249, i32 3		; visa id: 1888
  %1251 = extractelement <32 x i16> %1209, i32 20		; visa id: 1888
  %1252 = insertelement <16 x i16> %1250, i16 %1251, i32 4		; visa id: 1888
  %1253 = extractelement <32 x i16> %1209, i32 21		; visa id: 1888
  %1254 = insertelement <16 x i16> %1252, i16 %1253, i32 5		; visa id: 1888
  %1255 = extractelement <32 x i16> %1209, i32 22		; visa id: 1888
  %1256 = insertelement <16 x i16> %1254, i16 %1255, i32 6		; visa id: 1888
  %1257 = extractelement <32 x i16> %1209, i32 23		; visa id: 1888
  %1258 = insertelement <16 x i16> %1256, i16 %1257, i32 7		; visa id: 1888
  %1259 = extractelement <32 x i16> %1209, i32 24		; visa id: 1888
  %1260 = insertelement <16 x i16> %1258, i16 %1259, i32 8		; visa id: 1888
  %1261 = extractelement <32 x i16> %1209, i32 25		; visa id: 1888
  %1262 = insertelement <16 x i16> %1260, i16 %1261, i32 9		; visa id: 1888
  %1263 = extractelement <32 x i16> %1209, i32 26		; visa id: 1888
  %1264 = insertelement <16 x i16> %1262, i16 %1263, i32 10		; visa id: 1888
  %1265 = extractelement <32 x i16> %1209, i32 27		; visa id: 1888
  %1266 = insertelement <16 x i16> %1264, i16 %1265, i32 11		; visa id: 1888
  %1267 = extractelement <32 x i16> %1209, i32 28		; visa id: 1888
  %1268 = insertelement <16 x i16> %1266, i16 %1267, i32 12		; visa id: 1888
  %1269 = extractelement <32 x i16> %1209, i32 29		; visa id: 1888
  %1270 = insertelement <16 x i16> %1268, i16 %1269, i32 13		; visa id: 1888
  %1271 = extractelement <32 x i16> %1209, i32 30		; visa id: 1888
  %1272 = insertelement <16 x i16> %1270, i16 %1271, i32 14		; visa id: 1888
  %1273 = extractelement <32 x i16> %1209, i32 31		; visa id: 1888
  %1274 = insertelement <16 x i16> %1272, i16 %1273, i32 15		; visa id: 1888
  %1275 = extractelement <32 x i16> %1210, i32 0		; visa id: 1888
  %1276 = insertelement <16 x i16> undef, i16 %1275, i32 0		; visa id: 1888
  %1277 = extractelement <32 x i16> %1210, i32 1		; visa id: 1888
  %1278 = insertelement <16 x i16> %1276, i16 %1277, i32 1		; visa id: 1888
  %1279 = extractelement <32 x i16> %1210, i32 2		; visa id: 1888
  %1280 = insertelement <16 x i16> %1278, i16 %1279, i32 2		; visa id: 1888
  %1281 = extractelement <32 x i16> %1210, i32 3		; visa id: 1888
  %1282 = insertelement <16 x i16> %1280, i16 %1281, i32 3		; visa id: 1888
  %1283 = extractelement <32 x i16> %1210, i32 4		; visa id: 1888
  %1284 = insertelement <16 x i16> %1282, i16 %1283, i32 4		; visa id: 1888
  %1285 = extractelement <32 x i16> %1210, i32 5		; visa id: 1888
  %1286 = insertelement <16 x i16> %1284, i16 %1285, i32 5		; visa id: 1888
  %1287 = extractelement <32 x i16> %1210, i32 6		; visa id: 1888
  %1288 = insertelement <16 x i16> %1286, i16 %1287, i32 6		; visa id: 1888
  %1289 = extractelement <32 x i16> %1210, i32 7		; visa id: 1888
  %1290 = insertelement <16 x i16> %1288, i16 %1289, i32 7		; visa id: 1888
  %1291 = extractelement <32 x i16> %1210, i32 8		; visa id: 1888
  %1292 = insertelement <16 x i16> %1290, i16 %1291, i32 8		; visa id: 1888
  %1293 = extractelement <32 x i16> %1210, i32 9		; visa id: 1888
  %1294 = insertelement <16 x i16> %1292, i16 %1293, i32 9		; visa id: 1888
  %1295 = extractelement <32 x i16> %1210, i32 10		; visa id: 1888
  %1296 = insertelement <16 x i16> %1294, i16 %1295, i32 10		; visa id: 1888
  %1297 = extractelement <32 x i16> %1210, i32 11		; visa id: 1888
  %1298 = insertelement <16 x i16> %1296, i16 %1297, i32 11		; visa id: 1888
  %1299 = extractelement <32 x i16> %1210, i32 12		; visa id: 1888
  %1300 = insertelement <16 x i16> %1298, i16 %1299, i32 12		; visa id: 1888
  %1301 = extractelement <32 x i16> %1210, i32 13		; visa id: 1888
  %1302 = insertelement <16 x i16> %1300, i16 %1301, i32 13		; visa id: 1888
  %1303 = extractelement <32 x i16> %1210, i32 14		; visa id: 1888
  %1304 = insertelement <16 x i16> %1302, i16 %1303, i32 14		; visa id: 1888
  %1305 = extractelement <32 x i16> %1210, i32 15		; visa id: 1888
  %1306 = insertelement <16 x i16> %1304, i16 %1305, i32 15		; visa id: 1888
  %1307 = extractelement <32 x i16> %1210, i32 16		; visa id: 1888
  %1308 = insertelement <16 x i16> undef, i16 %1307, i32 0		; visa id: 1888
  %1309 = extractelement <32 x i16> %1210, i32 17		; visa id: 1888
  %1310 = insertelement <16 x i16> %1308, i16 %1309, i32 1		; visa id: 1888
  %1311 = extractelement <32 x i16> %1210, i32 18		; visa id: 1888
  %1312 = insertelement <16 x i16> %1310, i16 %1311, i32 2		; visa id: 1888
  %1313 = extractelement <32 x i16> %1210, i32 19		; visa id: 1888
  %1314 = insertelement <16 x i16> %1312, i16 %1313, i32 3		; visa id: 1888
  %1315 = extractelement <32 x i16> %1210, i32 20		; visa id: 1888
  %1316 = insertelement <16 x i16> %1314, i16 %1315, i32 4		; visa id: 1888
  %1317 = extractelement <32 x i16> %1210, i32 21		; visa id: 1888
  %1318 = insertelement <16 x i16> %1316, i16 %1317, i32 5		; visa id: 1888
  %1319 = extractelement <32 x i16> %1210, i32 22		; visa id: 1888
  %1320 = insertelement <16 x i16> %1318, i16 %1319, i32 6		; visa id: 1888
  %1321 = extractelement <32 x i16> %1210, i32 23		; visa id: 1888
  %1322 = insertelement <16 x i16> %1320, i16 %1321, i32 7		; visa id: 1888
  %1323 = extractelement <32 x i16> %1210, i32 24		; visa id: 1888
  %1324 = insertelement <16 x i16> %1322, i16 %1323, i32 8		; visa id: 1888
  %1325 = extractelement <32 x i16> %1210, i32 25		; visa id: 1888
  %1326 = insertelement <16 x i16> %1324, i16 %1325, i32 9		; visa id: 1888
  %1327 = extractelement <32 x i16> %1210, i32 26		; visa id: 1888
  %1328 = insertelement <16 x i16> %1326, i16 %1327, i32 10		; visa id: 1888
  %1329 = extractelement <32 x i16> %1210, i32 27		; visa id: 1888
  %1330 = insertelement <16 x i16> %1328, i16 %1329, i32 11		; visa id: 1888
  %1331 = extractelement <32 x i16> %1210, i32 28		; visa id: 1888
  %1332 = insertelement <16 x i16> %1330, i16 %1331, i32 12		; visa id: 1888
  %1333 = extractelement <32 x i16> %1210, i32 29		; visa id: 1888
  %1334 = insertelement <16 x i16> %1332, i16 %1333, i32 13		; visa id: 1888
  %1335 = extractelement <32 x i16> %1210, i32 30		; visa id: 1888
  %1336 = insertelement <16 x i16> %1334, i16 %1335, i32 14		; visa id: 1888
  %1337 = extractelement <32 x i16> %1210, i32 31		; visa id: 1888
  %1338 = insertelement <16 x i16> %1336, i16 %1337, i32 15		; visa id: 1888
  %1339 = call <8 x float> asm "{\0A.decl DST     v_type=G type=f num_elts=$5 alias=<$0,0>\0A.decl SRC1_UD v_type=G type=UD num_elts=128 alias=<$2,0>\0A.decl SRC2_UD v_type=G type=UD num_elts=$4 alias=<$1,0>\0Adpas.bf.bf.8.$3 (M1, 16) DST.0 DST.0 SRC1_UD.0 SRC2_UD(0,0)\0A}\0A", "=rw,rw,rw,P,P,P,0"(<8 x i16> %.sroa.03025.14.vec.insert3058, <16 x i16> %1242, i32 8, i32 64, i32 128, <8 x float> %.sroa.196.2) #0		; visa id: 1888
  %1340 = call <8 x float> asm "{\0A.decl DST     v_type=G type=f num_elts=$5 alias=<$0,0>\0A.decl SRC1_UD v_type=G type=UD num_elts=128 alias=<$2,0>\0A.decl SRC2_UD v_type=G type=UD num_elts=$4 alias=<$1,0>\0Adpas.bf.bf.8.$3 (M1, 16) DST.0 DST.0 SRC1_UD.0 SRC2_UD(0,0)\0A}\0A", "=rw,rw,rw,P,P,P,0"(<8 x i16> %.sroa.35.30.vec.insert3091, <16 x i16> %1242, i32 8, i32 64, i32 128, <8 x float> %.sroa.244.2) #0		; visa id: 1888
  %1341 = call <8 x float> asm "{\0A.decl DST     v_type=G type=f num_elts=$5 alias=<$0,0>\0A.decl SRC1_UD v_type=G type=UD num_elts=128 alias=<$2,0>\0A.decl SRC2_UD v_type=G type=UD num_elts=$4 alias=<$1,0>\0Adpas.bf.bf.8.$3 (M1, 16) DST.0 DST.0 SRC1_UD.0 SRC2_UD(0,0)\0A}\0A", "=rw,rw,rw,P,P,P,0"(<8 x i16> %.sroa.35.30.vec.insert3091, <16 x i16> %1274, i32 8, i32 64, i32 128, <8 x float> %.sroa.340.2) #0		; visa id: 1888
  %1342 = call <8 x float> asm "{\0A.decl DST     v_type=G type=f num_elts=$5 alias=<$0,0>\0A.decl SRC1_UD v_type=G type=UD num_elts=128 alias=<$2,0>\0A.decl SRC2_UD v_type=G type=UD num_elts=$4 alias=<$1,0>\0Adpas.bf.bf.8.$3 (M1, 16) DST.0 DST.0 SRC1_UD.0 SRC2_UD(0,0)\0A}\0A", "=rw,rw,rw,P,P,P,0"(<8 x i16> %.sroa.03025.14.vec.insert3058, <16 x i16> %1274, i32 8, i32 64, i32 128, <8 x float> %.sroa.292.2) #0		; visa id: 1888
  %1343 = call <8 x float> asm "{\0A.decl DST     v_type=G type=f num_elts=$5 alias=<$0,0>\0A.decl SRC1_UD v_type=G type=UD num_elts=128 alias=<$2,0>\0A.decl SRC2_UD v_type=G type=UD num_elts=$4 alias=<$1,0>\0Adpas.bf.bf.8.$3 (M1, 16) DST.0 DST.0 SRC1_UD.0 SRC2_UD(0,0)\0A}\0A", "=rw,rw,rw,P,P,P,0"(<8 x i16> %.sroa.67.46.vec.insert3124, <16 x i16> %1306, i32 8, i32 64, i32 128, <8 x float> %1339) #0		; visa id: 1888
  %1344 = call <8 x float> asm "{\0A.decl DST     v_type=G type=f num_elts=$5 alias=<$0,0>\0A.decl SRC1_UD v_type=G type=UD num_elts=128 alias=<$2,0>\0A.decl SRC2_UD v_type=G type=UD num_elts=$4 alias=<$1,0>\0Adpas.bf.bf.8.$3 (M1, 16) DST.0 DST.0 SRC1_UD.0 SRC2_UD(0,0)\0A}\0A", "=rw,rw,rw,P,P,P,0"(<8 x i16> %.sroa.99.62.vec.insert3157, <16 x i16> %1306, i32 8, i32 64, i32 128, <8 x float> %1340) #0		; visa id: 1888
  %1345 = call <8 x float> asm "{\0A.decl DST     v_type=G type=f num_elts=$5 alias=<$0,0>\0A.decl SRC1_UD v_type=G type=UD num_elts=128 alias=<$2,0>\0A.decl SRC2_UD v_type=G type=UD num_elts=$4 alias=<$1,0>\0Adpas.bf.bf.8.$3 (M1, 16) DST.0 DST.0 SRC1_UD.0 SRC2_UD(0,0)\0A}\0A", "=rw,rw,rw,P,P,P,0"(<8 x i16> %.sroa.99.62.vec.insert3157, <16 x i16> %1338, i32 8, i32 64, i32 128, <8 x float> %1341) #0		; visa id: 1888
  %1346 = call <8 x float> asm "{\0A.decl DST     v_type=G type=f num_elts=$5 alias=<$0,0>\0A.decl SRC1_UD v_type=G type=UD num_elts=128 alias=<$2,0>\0A.decl SRC2_UD v_type=G type=UD num_elts=$4 alias=<$1,0>\0Adpas.bf.bf.8.$3 (M1, 16) DST.0 DST.0 SRC1_UD.0 SRC2_UD(0,0)\0A}\0A", "=rw,rw,rw,P,P,P,0"(<8 x i16> %.sroa.67.46.vec.insert3124, <16 x i16> %1338, i32 8, i32 64, i32 128, <8 x float> %1342) #0		; visa id: 1888
  call void @llvm.genx.GenISA.LSC2DBlockSetAddrPayloadField.p4i8.i32(i8 addrspace(4)* %Block2D_AddrPayload118, i32 5, i32 %321, i1 false)		; visa id: 1888
  call void @llvm.genx.GenISA.LSC2DBlockSetAddrPayloadField.p4i8.i32(i8 addrspace(4)* %Block2D_AddrPayload118, i32 6, i32 %384, i1 false)		; visa id: 1889
  %1347 = call <32 x i16> asm "lsc_load_block2d.ugm (M1, 1)  $0:d$2.$3x$4x$5nt flat[$1+(0,0)]", "=rw,rw.u,P,P,P,P"(i8 addrspace(4)* %Block2D_AddrPayload118, i32 16, i32 2, i32 16, i32 16) #0		; visa id: 1890
  call void @llvm.genx.GenISA.LSC2DBlockSetAddrPayloadField.p4i8.i32(i8 addrspace(4)* %Block2D_AddrPayload118, i32 5, i32 %321, i1 false)		; visa id: 1890
  call void @llvm.genx.GenISA.LSC2DBlockSetAddrPayloadField.p4i8.i32(i8 addrspace(4)* %Block2D_AddrPayload118, i32 6, i32 %1071, i1 false)		; visa id: 1891
  %1348 = call <32 x i16> asm "lsc_load_block2d.ugm (M1, 1)  $0:d$2.$3x$4x$5nt flat[$1+(0,0)]", "=rw,rw.u,P,P,P,P"(i8 addrspace(4)* %Block2D_AddrPayload118, i32 16, i32 2, i32 16, i32 16) #0		; visa id: 1892
  %1349 = extractelement <32 x i16> %1347, i32 0		; visa id: 1892
  %1350 = insertelement <16 x i16> undef, i16 %1349, i32 0		; visa id: 1892
  %1351 = extractelement <32 x i16> %1347, i32 1		; visa id: 1892
  %1352 = insertelement <16 x i16> %1350, i16 %1351, i32 1		; visa id: 1892
  %1353 = extractelement <32 x i16> %1347, i32 2		; visa id: 1892
  %1354 = insertelement <16 x i16> %1352, i16 %1353, i32 2		; visa id: 1892
  %1355 = extractelement <32 x i16> %1347, i32 3		; visa id: 1892
  %1356 = insertelement <16 x i16> %1354, i16 %1355, i32 3		; visa id: 1892
  %1357 = extractelement <32 x i16> %1347, i32 4		; visa id: 1892
  %1358 = insertelement <16 x i16> %1356, i16 %1357, i32 4		; visa id: 1892
  %1359 = extractelement <32 x i16> %1347, i32 5		; visa id: 1892
  %1360 = insertelement <16 x i16> %1358, i16 %1359, i32 5		; visa id: 1892
  %1361 = extractelement <32 x i16> %1347, i32 6		; visa id: 1892
  %1362 = insertelement <16 x i16> %1360, i16 %1361, i32 6		; visa id: 1892
  %1363 = extractelement <32 x i16> %1347, i32 7		; visa id: 1892
  %1364 = insertelement <16 x i16> %1362, i16 %1363, i32 7		; visa id: 1892
  %1365 = extractelement <32 x i16> %1347, i32 8		; visa id: 1892
  %1366 = insertelement <16 x i16> %1364, i16 %1365, i32 8		; visa id: 1892
  %1367 = extractelement <32 x i16> %1347, i32 9		; visa id: 1892
  %1368 = insertelement <16 x i16> %1366, i16 %1367, i32 9		; visa id: 1892
  %1369 = extractelement <32 x i16> %1347, i32 10		; visa id: 1892
  %1370 = insertelement <16 x i16> %1368, i16 %1369, i32 10		; visa id: 1892
  %1371 = extractelement <32 x i16> %1347, i32 11		; visa id: 1892
  %1372 = insertelement <16 x i16> %1370, i16 %1371, i32 11		; visa id: 1892
  %1373 = extractelement <32 x i16> %1347, i32 12		; visa id: 1892
  %1374 = insertelement <16 x i16> %1372, i16 %1373, i32 12		; visa id: 1892
  %1375 = extractelement <32 x i16> %1347, i32 13		; visa id: 1892
  %1376 = insertelement <16 x i16> %1374, i16 %1375, i32 13		; visa id: 1892
  %1377 = extractelement <32 x i16> %1347, i32 14		; visa id: 1892
  %1378 = insertelement <16 x i16> %1376, i16 %1377, i32 14		; visa id: 1892
  %1379 = extractelement <32 x i16> %1347, i32 15		; visa id: 1892
  %1380 = insertelement <16 x i16> %1378, i16 %1379, i32 15		; visa id: 1892
  %1381 = extractelement <32 x i16> %1347, i32 16		; visa id: 1892
  %1382 = insertelement <16 x i16> undef, i16 %1381, i32 0		; visa id: 1892
  %1383 = extractelement <32 x i16> %1347, i32 17		; visa id: 1892
  %1384 = insertelement <16 x i16> %1382, i16 %1383, i32 1		; visa id: 1892
  %1385 = extractelement <32 x i16> %1347, i32 18		; visa id: 1892
  %1386 = insertelement <16 x i16> %1384, i16 %1385, i32 2		; visa id: 1892
  %1387 = extractelement <32 x i16> %1347, i32 19		; visa id: 1892
  %1388 = insertelement <16 x i16> %1386, i16 %1387, i32 3		; visa id: 1892
  %1389 = extractelement <32 x i16> %1347, i32 20		; visa id: 1892
  %1390 = insertelement <16 x i16> %1388, i16 %1389, i32 4		; visa id: 1892
  %1391 = extractelement <32 x i16> %1347, i32 21		; visa id: 1892
  %1392 = insertelement <16 x i16> %1390, i16 %1391, i32 5		; visa id: 1892
  %1393 = extractelement <32 x i16> %1347, i32 22		; visa id: 1892
  %1394 = insertelement <16 x i16> %1392, i16 %1393, i32 6		; visa id: 1892
  %1395 = extractelement <32 x i16> %1347, i32 23		; visa id: 1892
  %1396 = insertelement <16 x i16> %1394, i16 %1395, i32 7		; visa id: 1892
  %1397 = extractelement <32 x i16> %1347, i32 24		; visa id: 1892
  %1398 = insertelement <16 x i16> %1396, i16 %1397, i32 8		; visa id: 1892
  %1399 = extractelement <32 x i16> %1347, i32 25		; visa id: 1892
  %1400 = insertelement <16 x i16> %1398, i16 %1399, i32 9		; visa id: 1892
  %1401 = extractelement <32 x i16> %1347, i32 26		; visa id: 1892
  %1402 = insertelement <16 x i16> %1400, i16 %1401, i32 10		; visa id: 1892
  %1403 = extractelement <32 x i16> %1347, i32 27		; visa id: 1892
  %1404 = insertelement <16 x i16> %1402, i16 %1403, i32 11		; visa id: 1892
  %1405 = extractelement <32 x i16> %1347, i32 28		; visa id: 1892
  %1406 = insertelement <16 x i16> %1404, i16 %1405, i32 12		; visa id: 1892
  %1407 = extractelement <32 x i16> %1347, i32 29		; visa id: 1892
  %1408 = insertelement <16 x i16> %1406, i16 %1407, i32 13		; visa id: 1892
  %1409 = extractelement <32 x i16> %1347, i32 30		; visa id: 1892
  %1410 = insertelement <16 x i16> %1408, i16 %1409, i32 14		; visa id: 1892
  %1411 = extractelement <32 x i16> %1347, i32 31		; visa id: 1892
  %1412 = insertelement <16 x i16> %1410, i16 %1411, i32 15		; visa id: 1892
  %1413 = extractelement <32 x i16> %1348, i32 0		; visa id: 1892
  %1414 = insertelement <16 x i16> undef, i16 %1413, i32 0		; visa id: 1892
  %1415 = extractelement <32 x i16> %1348, i32 1		; visa id: 1892
  %1416 = insertelement <16 x i16> %1414, i16 %1415, i32 1		; visa id: 1892
  %1417 = extractelement <32 x i16> %1348, i32 2		; visa id: 1892
  %1418 = insertelement <16 x i16> %1416, i16 %1417, i32 2		; visa id: 1892
  %1419 = extractelement <32 x i16> %1348, i32 3		; visa id: 1892
  %1420 = insertelement <16 x i16> %1418, i16 %1419, i32 3		; visa id: 1892
  %1421 = extractelement <32 x i16> %1348, i32 4		; visa id: 1892
  %1422 = insertelement <16 x i16> %1420, i16 %1421, i32 4		; visa id: 1892
  %1423 = extractelement <32 x i16> %1348, i32 5		; visa id: 1892
  %1424 = insertelement <16 x i16> %1422, i16 %1423, i32 5		; visa id: 1892
  %1425 = extractelement <32 x i16> %1348, i32 6		; visa id: 1892
  %1426 = insertelement <16 x i16> %1424, i16 %1425, i32 6		; visa id: 1892
  %1427 = extractelement <32 x i16> %1348, i32 7		; visa id: 1892
  %1428 = insertelement <16 x i16> %1426, i16 %1427, i32 7		; visa id: 1892
  %1429 = extractelement <32 x i16> %1348, i32 8		; visa id: 1892
  %1430 = insertelement <16 x i16> %1428, i16 %1429, i32 8		; visa id: 1892
  %1431 = extractelement <32 x i16> %1348, i32 9		; visa id: 1892
  %1432 = insertelement <16 x i16> %1430, i16 %1431, i32 9		; visa id: 1892
  %1433 = extractelement <32 x i16> %1348, i32 10		; visa id: 1892
  %1434 = insertelement <16 x i16> %1432, i16 %1433, i32 10		; visa id: 1892
  %1435 = extractelement <32 x i16> %1348, i32 11		; visa id: 1892
  %1436 = insertelement <16 x i16> %1434, i16 %1435, i32 11		; visa id: 1892
  %1437 = extractelement <32 x i16> %1348, i32 12		; visa id: 1892
  %1438 = insertelement <16 x i16> %1436, i16 %1437, i32 12		; visa id: 1892
  %1439 = extractelement <32 x i16> %1348, i32 13		; visa id: 1892
  %1440 = insertelement <16 x i16> %1438, i16 %1439, i32 13		; visa id: 1892
  %1441 = extractelement <32 x i16> %1348, i32 14		; visa id: 1892
  %1442 = insertelement <16 x i16> %1440, i16 %1441, i32 14		; visa id: 1892
  %1443 = extractelement <32 x i16> %1348, i32 15		; visa id: 1892
  %1444 = insertelement <16 x i16> %1442, i16 %1443, i32 15		; visa id: 1892
  %1445 = extractelement <32 x i16> %1348, i32 16		; visa id: 1892
  %1446 = insertelement <16 x i16> undef, i16 %1445, i32 0		; visa id: 1892
  %1447 = extractelement <32 x i16> %1348, i32 17		; visa id: 1892
  %1448 = insertelement <16 x i16> %1446, i16 %1447, i32 1		; visa id: 1892
  %1449 = extractelement <32 x i16> %1348, i32 18		; visa id: 1892
  %1450 = insertelement <16 x i16> %1448, i16 %1449, i32 2		; visa id: 1892
  %1451 = extractelement <32 x i16> %1348, i32 19		; visa id: 1892
  %1452 = insertelement <16 x i16> %1450, i16 %1451, i32 3		; visa id: 1892
  %1453 = extractelement <32 x i16> %1348, i32 20		; visa id: 1892
  %1454 = insertelement <16 x i16> %1452, i16 %1453, i32 4		; visa id: 1892
  %1455 = extractelement <32 x i16> %1348, i32 21		; visa id: 1892
  %1456 = insertelement <16 x i16> %1454, i16 %1455, i32 5		; visa id: 1892
  %1457 = extractelement <32 x i16> %1348, i32 22		; visa id: 1892
  %1458 = insertelement <16 x i16> %1456, i16 %1457, i32 6		; visa id: 1892
  %1459 = extractelement <32 x i16> %1348, i32 23		; visa id: 1892
  %1460 = insertelement <16 x i16> %1458, i16 %1459, i32 7		; visa id: 1892
  %1461 = extractelement <32 x i16> %1348, i32 24		; visa id: 1892
  %1462 = insertelement <16 x i16> %1460, i16 %1461, i32 8		; visa id: 1892
  %1463 = extractelement <32 x i16> %1348, i32 25		; visa id: 1892
  %1464 = insertelement <16 x i16> %1462, i16 %1463, i32 9		; visa id: 1892
  %1465 = extractelement <32 x i16> %1348, i32 26		; visa id: 1892
  %1466 = insertelement <16 x i16> %1464, i16 %1465, i32 10		; visa id: 1892
  %1467 = extractelement <32 x i16> %1348, i32 27		; visa id: 1892
  %1468 = insertelement <16 x i16> %1466, i16 %1467, i32 11		; visa id: 1892
  %1469 = extractelement <32 x i16> %1348, i32 28		; visa id: 1892
  %1470 = insertelement <16 x i16> %1468, i16 %1469, i32 12		; visa id: 1892
  %1471 = extractelement <32 x i16> %1348, i32 29		; visa id: 1892
  %1472 = insertelement <16 x i16> %1470, i16 %1471, i32 13		; visa id: 1892
  %1473 = extractelement <32 x i16> %1348, i32 30		; visa id: 1892
  %1474 = insertelement <16 x i16> %1472, i16 %1473, i32 14		; visa id: 1892
  %1475 = extractelement <32 x i16> %1348, i32 31		; visa id: 1892
  %1476 = insertelement <16 x i16> %1474, i16 %1475, i32 15		; visa id: 1892
  %1477 = call <8 x float> asm "{\0A.decl DST     v_type=G type=f num_elts=$5 alias=<$0,0>\0A.decl SRC1_UD v_type=G type=UD num_elts=128 alias=<$2,0>\0A.decl SRC2_UD v_type=G type=UD num_elts=$4 alias=<$1,0>\0Adpas.bf.bf.8.$3 (M1, 16) DST.0 DST.0 SRC1_UD.0 SRC2_UD(0,0)\0A}\0A", "=rw,rw,rw,P,P,P,0"(<8 x i16> %.sroa.03025.14.vec.insert3058, <16 x i16> %1380, i32 8, i32 64, i32 128, <8 x float> %.sroa.388.2) #0		; visa id: 1892
  %1478 = call <8 x float> asm "{\0A.decl DST     v_type=G type=f num_elts=$5 alias=<$0,0>\0A.decl SRC1_UD v_type=G type=UD num_elts=128 alias=<$2,0>\0A.decl SRC2_UD v_type=G type=UD num_elts=$4 alias=<$1,0>\0Adpas.bf.bf.8.$3 (M1, 16) DST.0 DST.0 SRC1_UD.0 SRC2_UD(0,0)\0A}\0A", "=rw,rw,rw,P,P,P,0"(<8 x i16> %.sroa.35.30.vec.insert3091, <16 x i16> %1380, i32 8, i32 64, i32 128, <8 x float> %.sroa.436.2) #0		; visa id: 1892
  %1479 = call <8 x float> asm "{\0A.decl DST     v_type=G type=f num_elts=$5 alias=<$0,0>\0A.decl SRC1_UD v_type=G type=UD num_elts=128 alias=<$2,0>\0A.decl SRC2_UD v_type=G type=UD num_elts=$4 alias=<$1,0>\0Adpas.bf.bf.8.$3 (M1, 16) DST.0 DST.0 SRC1_UD.0 SRC2_UD(0,0)\0A}\0A", "=rw,rw,rw,P,P,P,0"(<8 x i16> %.sroa.35.30.vec.insert3091, <16 x i16> %1412, i32 8, i32 64, i32 128, <8 x float> %.sroa.532.2) #0		; visa id: 1892
  %1480 = call <8 x float> asm "{\0A.decl DST     v_type=G type=f num_elts=$5 alias=<$0,0>\0A.decl SRC1_UD v_type=G type=UD num_elts=128 alias=<$2,0>\0A.decl SRC2_UD v_type=G type=UD num_elts=$4 alias=<$1,0>\0Adpas.bf.bf.8.$3 (M1, 16) DST.0 DST.0 SRC1_UD.0 SRC2_UD(0,0)\0A}\0A", "=rw,rw,rw,P,P,P,0"(<8 x i16> %.sroa.03025.14.vec.insert3058, <16 x i16> %1412, i32 8, i32 64, i32 128, <8 x float> %.sroa.484.2) #0		; visa id: 1892
  %1481 = call <8 x float> asm "{\0A.decl DST     v_type=G type=f num_elts=$5 alias=<$0,0>\0A.decl SRC1_UD v_type=G type=UD num_elts=128 alias=<$2,0>\0A.decl SRC2_UD v_type=G type=UD num_elts=$4 alias=<$1,0>\0Adpas.bf.bf.8.$3 (M1, 16) DST.0 DST.0 SRC1_UD.0 SRC2_UD(0,0)\0A}\0A", "=rw,rw,rw,P,P,P,0"(<8 x i16> %.sroa.67.46.vec.insert3124, <16 x i16> %1444, i32 8, i32 64, i32 128, <8 x float> %1477) #0		; visa id: 1892
  %1482 = call <8 x float> asm "{\0A.decl DST     v_type=G type=f num_elts=$5 alias=<$0,0>\0A.decl SRC1_UD v_type=G type=UD num_elts=128 alias=<$2,0>\0A.decl SRC2_UD v_type=G type=UD num_elts=$4 alias=<$1,0>\0Adpas.bf.bf.8.$3 (M1, 16) DST.0 DST.0 SRC1_UD.0 SRC2_UD(0,0)\0A}\0A", "=rw,rw,rw,P,P,P,0"(<8 x i16> %.sroa.99.62.vec.insert3157, <16 x i16> %1444, i32 8, i32 64, i32 128, <8 x float> %1478) #0		; visa id: 1892
  %1483 = call <8 x float> asm "{\0A.decl DST     v_type=G type=f num_elts=$5 alias=<$0,0>\0A.decl SRC1_UD v_type=G type=UD num_elts=128 alias=<$2,0>\0A.decl SRC2_UD v_type=G type=UD num_elts=$4 alias=<$1,0>\0Adpas.bf.bf.8.$3 (M1, 16) DST.0 DST.0 SRC1_UD.0 SRC2_UD(0,0)\0A}\0A", "=rw,rw,rw,P,P,P,0"(<8 x i16> %.sroa.99.62.vec.insert3157, <16 x i16> %1476, i32 8, i32 64, i32 128, <8 x float> %1479) #0		; visa id: 1892
  %1484 = call <8 x float> asm "{\0A.decl DST     v_type=G type=f num_elts=$5 alias=<$0,0>\0A.decl SRC1_UD v_type=G type=UD num_elts=128 alias=<$2,0>\0A.decl SRC2_UD v_type=G type=UD num_elts=$4 alias=<$1,0>\0Adpas.bf.bf.8.$3 (M1, 16) DST.0 DST.0 SRC1_UD.0 SRC2_UD(0,0)\0A}\0A", "=rw,rw,rw,P,P,P,0"(<8 x i16> %.sroa.67.46.vec.insert3124, <16 x i16> %1476, i32 8, i32 64, i32 128, <8 x float> %1480) #0		; visa id: 1892
  call void @llvm.genx.GenISA.LSC2DBlockSetAddrPayloadField.p4i8.i32(i8 addrspace(4)* %Block2D_AddrPayload118, i32 5, i32 %322, i1 false)		; visa id: 1892
  call void @llvm.genx.GenISA.LSC2DBlockSetAddrPayloadField.p4i8.i32(i8 addrspace(4)* %Block2D_AddrPayload118, i32 6, i32 %384, i1 false)		; visa id: 1893
  %1485 = call <32 x i16> asm "lsc_load_block2d.ugm (M1, 1)  $0:d$2.$3x$4x$5nt flat[$1+(0,0)]", "=rw,rw.u,P,P,P,P"(i8 addrspace(4)* %Block2D_AddrPayload118, i32 16, i32 2, i32 16, i32 16) #0		; visa id: 1894
  call void @llvm.genx.GenISA.LSC2DBlockSetAddrPayloadField.p4i8.i32(i8 addrspace(4)* %Block2D_AddrPayload118, i32 5, i32 %322, i1 false)		; visa id: 1894
  call void @llvm.genx.GenISA.LSC2DBlockSetAddrPayloadField.p4i8.i32(i8 addrspace(4)* %Block2D_AddrPayload118, i32 6, i32 %1071, i1 false)		; visa id: 1895
  %1486 = call <32 x i16> asm "lsc_load_block2d.ugm (M1, 1)  $0:d$2.$3x$4x$5nt flat[$1+(0,0)]", "=rw,rw.u,P,P,P,P"(i8 addrspace(4)* %Block2D_AddrPayload118, i32 16, i32 2, i32 16, i32 16) #0		; visa id: 1896
  %1487 = extractelement <32 x i16> %1485, i32 0		; visa id: 1896
  %1488 = insertelement <16 x i16> undef, i16 %1487, i32 0		; visa id: 1896
  %1489 = extractelement <32 x i16> %1485, i32 1		; visa id: 1896
  %1490 = insertelement <16 x i16> %1488, i16 %1489, i32 1		; visa id: 1896
  %1491 = extractelement <32 x i16> %1485, i32 2		; visa id: 1896
  %1492 = insertelement <16 x i16> %1490, i16 %1491, i32 2		; visa id: 1896
  %1493 = extractelement <32 x i16> %1485, i32 3		; visa id: 1896
  %1494 = insertelement <16 x i16> %1492, i16 %1493, i32 3		; visa id: 1896
  %1495 = extractelement <32 x i16> %1485, i32 4		; visa id: 1896
  %1496 = insertelement <16 x i16> %1494, i16 %1495, i32 4		; visa id: 1896
  %1497 = extractelement <32 x i16> %1485, i32 5		; visa id: 1896
  %1498 = insertelement <16 x i16> %1496, i16 %1497, i32 5		; visa id: 1896
  %1499 = extractelement <32 x i16> %1485, i32 6		; visa id: 1896
  %1500 = insertelement <16 x i16> %1498, i16 %1499, i32 6		; visa id: 1896
  %1501 = extractelement <32 x i16> %1485, i32 7		; visa id: 1896
  %1502 = insertelement <16 x i16> %1500, i16 %1501, i32 7		; visa id: 1896
  %1503 = extractelement <32 x i16> %1485, i32 8		; visa id: 1896
  %1504 = insertelement <16 x i16> %1502, i16 %1503, i32 8		; visa id: 1896
  %1505 = extractelement <32 x i16> %1485, i32 9		; visa id: 1896
  %1506 = insertelement <16 x i16> %1504, i16 %1505, i32 9		; visa id: 1896
  %1507 = extractelement <32 x i16> %1485, i32 10		; visa id: 1896
  %1508 = insertelement <16 x i16> %1506, i16 %1507, i32 10		; visa id: 1896
  %1509 = extractelement <32 x i16> %1485, i32 11		; visa id: 1896
  %1510 = insertelement <16 x i16> %1508, i16 %1509, i32 11		; visa id: 1896
  %1511 = extractelement <32 x i16> %1485, i32 12		; visa id: 1896
  %1512 = insertelement <16 x i16> %1510, i16 %1511, i32 12		; visa id: 1896
  %1513 = extractelement <32 x i16> %1485, i32 13		; visa id: 1896
  %1514 = insertelement <16 x i16> %1512, i16 %1513, i32 13		; visa id: 1896
  %1515 = extractelement <32 x i16> %1485, i32 14		; visa id: 1896
  %1516 = insertelement <16 x i16> %1514, i16 %1515, i32 14		; visa id: 1896
  %1517 = extractelement <32 x i16> %1485, i32 15		; visa id: 1896
  %1518 = insertelement <16 x i16> %1516, i16 %1517, i32 15		; visa id: 1896
  %1519 = extractelement <32 x i16> %1485, i32 16		; visa id: 1896
  %1520 = insertelement <16 x i16> undef, i16 %1519, i32 0		; visa id: 1896
  %1521 = extractelement <32 x i16> %1485, i32 17		; visa id: 1896
  %1522 = insertelement <16 x i16> %1520, i16 %1521, i32 1		; visa id: 1896
  %1523 = extractelement <32 x i16> %1485, i32 18		; visa id: 1896
  %1524 = insertelement <16 x i16> %1522, i16 %1523, i32 2		; visa id: 1896
  %1525 = extractelement <32 x i16> %1485, i32 19		; visa id: 1896
  %1526 = insertelement <16 x i16> %1524, i16 %1525, i32 3		; visa id: 1896
  %1527 = extractelement <32 x i16> %1485, i32 20		; visa id: 1896
  %1528 = insertelement <16 x i16> %1526, i16 %1527, i32 4		; visa id: 1896
  %1529 = extractelement <32 x i16> %1485, i32 21		; visa id: 1896
  %1530 = insertelement <16 x i16> %1528, i16 %1529, i32 5		; visa id: 1896
  %1531 = extractelement <32 x i16> %1485, i32 22		; visa id: 1896
  %1532 = insertelement <16 x i16> %1530, i16 %1531, i32 6		; visa id: 1896
  %1533 = extractelement <32 x i16> %1485, i32 23		; visa id: 1896
  %1534 = insertelement <16 x i16> %1532, i16 %1533, i32 7		; visa id: 1896
  %1535 = extractelement <32 x i16> %1485, i32 24		; visa id: 1896
  %1536 = insertelement <16 x i16> %1534, i16 %1535, i32 8		; visa id: 1896
  %1537 = extractelement <32 x i16> %1485, i32 25		; visa id: 1896
  %1538 = insertelement <16 x i16> %1536, i16 %1537, i32 9		; visa id: 1896
  %1539 = extractelement <32 x i16> %1485, i32 26		; visa id: 1896
  %1540 = insertelement <16 x i16> %1538, i16 %1539, i32 10		; visa id: 1896
  %1541 = extractelement <32 x i16> %1485, i32 27		; visa id: 1896
  %1542 = insertelement <16 x i16> %1540, i16 %1541, i32 11		; visa id: 1896
  %1543 = extractelement <32 x i16> %1485, i32 28		; visa id: 1896
  %1544 = insertelement <16 x i16> %1542, i16 %1543, i32 12		; visa id: 1896
  %1545 = extractelement <32 x i16> %1485, i32 29		; visa id: 1896
  %1546 = insertelement <16 x i16> %1544, i16 %1545, i32 13		; visa id: 1896
  %1547 = extractelement <32 x i16> %1485, i32 30		; visa id: 1896
  %1548 = insertelement <16 x i16> %1546, i16 %1547, i32 14		; visa id: 1896
  %1549 = extractelement <32 x i16> %1485, i32 31		; visa id: 1896
  %1550 = insertelement <16 x i16> %1548, i16 %1549, i32 15		; visa id: 1896
  %1551 = extractelement <32 x i16> %1486, i32 0		; visa id: 1896
  %1552 = insertelement <16 x i16> undef, i16 %1551, i32 0		; visa id: 1896
  %1553 = extractelement <32 x i16> %1486, i32 1		; visa id: 1896
  %1554 = insertelement <16 x i16> %1552, i16 %1553, i32 1		; visa id: 1896
  %1555 = extractelement <32 x i16> %1486, i32 2		; visa id: 1896
  %1556 = insertelement <16 x i16> %1554, i16 %1555, i32 2		; visa id: 1896
