; ------------------------------------------------
; OCL_asm02a05bd857049a6b_simd16_entry_0005.visa.ll
; LLVM major version: 16
; ------------------------------------------------
; Function Attrs: convergent nounwind
define spir_kernel void @_ZTSN7cutlass4fmha6kernel15XeFMHAFwdKernelINS1_16FMHAProblemShapeILb0EEENS0_10collective15FMHAFwdMainloopINS0_9XeDefaultILi2EEELb1ELb1ELb0EN4cute8TiledMMAINS9_8MMA_AtomIJNS9_10XE_DPAS_TTILi8EfNS_10bfloat16_tESD_fEEEEENS9_6LayoutINS9_5tupleIJNS9_1CILi16EEENSI_ILi1EEESK_EEENSH_IJSK_NSI_ILi0EEESM_EEEEEKNSH_IJNSG_INSH_IJNSI_ILi8EEESJ_NSI_ILi2EEEEEENSH_IJSK_SJ_SP_EEEEENSG_INSI_ILi32EEESK_EESV_EEEEESY_Li4ENS9_6TensorINS9_10ViewEngineINS9_8gmem_ptrIPSD_EEEENSG_INSH_IJiiiiEEENSH_IJiSK_iiEEEEEEES18_NSZ_IS14_NSG_IS15_NSH_IJSK_iiiEEEEEEES18_S1B_vvvvvEENS5_15FMHAFwdEpilogueIS1C_NSH_IJNSI_ILi256EEENSI_ILi128EEEEEENSZ_INS10_INS11_IPfEEEES17_EEvEENS1_29XeFHMAIndividualTileSchedulerEEE(%"class.std::__generated_tuple"* byval(%"class.std::__generated_tuple") align 8 %0, i8 addrspace(3)* noalias align 1 %1, <8 x i32> %r0, <3 x i32> %globalOffset, i16 %localIdX, i16 %localIdY, i16 %localIdZ, i8 addrspace(2)* %constBase, i8* %privateBase, i32 %const_reg_dword, i32 %const_reg_dword1, i32 %const_reg_dword2, i32 %const_reg_dword3, i32 %const_reg_dword4, i32 %const_reg_dword5, i32 %const_reg_dword6, i32 %const_reg_dword7, i64 %const_reg_qword, i32 %const_reg_dword8, i32 %const_reg_dword9, i32 %const_reg_dword10, i8 %const_reg_byte, i8 %const_reg_byte11, i8 %const_reg_byte12, i8 %const_reg_byte13, i64 %const_reg_qword14, i32 %const_reg_dword15, i32 %const_reg_dword16, i32 %const_reg_dword17, i8 %const_reg_byte18, i8 %const_reg_byte19, i8 %const_reg_byte20, i8 %const_reg_byte21, i64 %const_reg_qword22, i32 %const_reg_dword23, i32 %const_reg_dword24, i32 %const_reg_dword25, i8 %const_reg_byte26, i8 %const_reg_byte27, i8 %const_reg_byte28, i8 %const_reg_byte29, i64 %const_reg_qword30, i32 %const_reg_dword31, i32 %const_reg_dword32, i32 %const_reg_dword33, i8 %const_reg_byte34, i8 %const_reg_byte35, i8 %const_reg_byte36, i8 %const_reg_byte37, i64 %const_reg_qword38, i32 %const_reg_dword39, i32 %const_reg_dword40, i32 %const_reg_dword41, i8 %const_reg_byte42, i8 %const_reg_byte43, i8 %const_reg_byte44, i8 %const_reg_byte45, i64 %const_reg_qword46, i32 %const_reg_dword47, i32 %const_reg_dword48, i32 %const_reg_dword49, i8 %const_reg_byte50, i8 %const_reg_byte51, i8 %const_reg_byte52, i8 %const_reg_byte53, float %const_reg_fp32, i64 %const_reg_qword54, i32 %const_reg_dword55, i64 %const_reg_qword56, i8 %const_reg_byte57, i8 %const_reg_byte58, i8 %const_reg_byte59, i8 %const_reg_byte60, i32 %const_reg_dword61, i32 %const_reg_dword62, i32 %const_reg_dword63, i32 %const_reg_dword64, i32 %const_reg_dword65, i32 %const_reg_dword66, i8 %const_reg_byte67, i8 %const_reg_byte68, i8 %const_reg_byte69, i8 %const_reg_byte70, i32 %bindlessOffset) #1 {
; BB0 :
  %3 = extractelement <8 x i32> %r0, i32 6		; visa id: 2
  %4 = extractelement <8 x i32> %r0, i32 7		; visa id: 2
  %tobool.i = icmp eq i32 %const_reg_dword2, 0		; visa id: 2
  br i1 %tobool.i, label %if.then.i, label %if.end.i, !stats.blockFrequency.digits !1203, !stats.blockFrequency.scale !1204		; visa id: 3

if.then.i:                                        ; preds = %2
; BB1 :
  br label %precompiled_s32divrem_sp.exit, !stats.blockFrequency.digits !1205, !stats.blockFrequency.scale !1206		; visa id: 6

if.end.i:                                         ; preds = %2
; BB2 :
  %shr.i = ashr i32 %const_reg_dword2, 31		; visa id: 8
  %shr1.i = ashr i32 %const_reg_dword1, 31		; visa id: 9
  %add.i = add nsw i32 %shr.i, %const_reg_dword2		; visa id: 10
  %xor.i = xor i32 %add.i, %shr.i		; visa id: 11
  %add2.i = add nsw i32 %shr1.i, %const_reg_dword1		; visa id: 12
  %xor3.i = xor i32 %add2.i, %shr1.i		; visa id: 13
  %5 = call float @llvm.genx.GenISA.uitof.rtz.f32.i32(i32 %xor.i)		; visa id: 14
  %conv.i = fptoui float %5 to i32		; visa id: 16
  %sub.i = sub i32 %xor.i, %conv.i		; visa id: 17
  %6 = call float @llvm.genx.GenISA.uitof.rtz.f32.i32(i32 %xor3.i)		; visa id: 18
  %div.i = fdiv float 1.000000e+00, %5, !fpmath !1207		; visa id: 19
  %7 = call float @llvm.genx.GenISA.fma.rtz.f32.f32.f32.f32(float %div.i, float 0xBE98000000000000, float %div.i)		; visa id: 20
  %8 = call float @llvm.genx.GenISA.mul.rtz.f32.f32.f32(float %6, float %7)		; visa id: 21
  %conv6.i = fptoui float %6 to i32		; visa id: 22
  %sub7.i = sub i32 %xor3.i, %conv6.i		; visa id: 23
  %conv11.i = fptoui float %8 to i32		; visa id: 24
  %9 = call float @llvm.genx.GenISA.uitof.rtz.f32.i32(i32 %sub.i)		; visa id: 25
  %10 = call float @llvm.genx.GenISA.uitof.rtz.f32.i32(i32 %sub7.i)		; visa id: 26
  %11 = call float @llvm.genx.GenISA.uitof.rtz.f32.i32(i32 %conv11.i)		; visa id: 27
  %12 = fsub float 0.000000e+00, %5		; visa id: 28
  %13 = call float @llvm.genx.GenISA.fma.rtz.f32.f32.f32.f32(float %12, float %11, float %6)		; visa id: 29
  %14 = fsub float 0.000000e+00, %9		; visa id: 30
  %15 = call float @llvm.genx.GenISA.fma.rtz.f32.f32.f32.f32(float %14, float %11, float %10)		; visa id: 31
  %16 = call float @llvm.genx.GenISA.add.rtz.f32.f32.f32(float %13, float %15)		; visa id: 32
  %17 = call float @llvm.genx.GenISA.mul.rtz.f32.f32.f32(float %7, float %16)		; visa id: 33
  %conv19.i = fptoui float %17 to i32		; visa id: 35
  %add20.i = add i32 %conv19.i, %conv11.i		; visa id: 36
  %xor21.i = xor i32 %shr.i, %shr1.i		; visa id: 37
  %mul.i = mul i32 %add20.i, %xor.i		; visa id: 38
  %sub22.i = sub i32 %xor3.i, %mul.i		; visa id: 39
  %cmp.i = icmp uge i32 %sub22.i, %xor.i
  %18 = sext i1 %cmp.i to i32		; visa id: 40
  %19 = sub i32 0, %18
  %add24.i = add i32 %add20.i, %xor21.i
  %add29.i = add i32 %add24.i, %19		; visa id: 41
  %xor30.i = xor i32 %add29.i, %xor21.i		; visa id: 42
  br label %precompiled_s32divrem_sp.exit, !stats.blockFrequency.digits !1208, !stats.blockFrequency.scale !1209		; visa id: 43

precompiled_s32divrem_sp.exit:                    ; preds = %if.then.i, %if.end.i
; BB3 :
  %retval.0.i = phi i32 [ %xor30.i, %if.end.i ], [ -1, %if.then.i ]
  %20 = zext i16 %localIdX to i32		; visa id: 44
  %21 = and i32 %20, 240		; visa id: 45
  %simdBroadcast = call i32 @llvm.genx.GenISA.WaveBroadcast.i32(i32 %21, i32 0, i32 0)
  %22 = call { i32, i32 } @llvm.genx.GenISA.mul.pair(i32 %4, i32 0, i32 %const_reg_dword65, i32 0)
  %23 = extractvalue { i32, i32 } %22, 1		; visa id: 46
  %24 = lshr i32 %23, %const_reg_dword66		; visa id: 51
  %25 = icmp eq i32 %const_reg_dword64, 1
  %26 = select i1 %25, i32 %4, i32 %24		; visa id: 52
  %27 = mul nsw i32 %26, %const_reg_dword64, !spirv.Decorations !1210		; visa id: 54
  %28 = sub nsw i32 %4, %27, !spirv.Decorations !1210		; visa id: 55
  %tobool.i6722 = icmp eq i32 %retval.0.i, 0		; visa id: 56
  br i1 %tobool.i6722, label %if.then.i6723, label %if.end.i6753, !stats.blockFrequency.digits !1203, !stats.blockFrequency.scale !1204		; visa id: 57

if.then.i6723:                                    ; preds = %precompiled_s32divrem_sp.exit
; BB4 :
  br label %precompiled_s32divrem_sp.exit6755, !stats.blockFrequency.digits !1205, !stats.blockFrequency.scale !1206		; visa id: 60

if.end.i6753:                                     ; preds = %precompiled_s32divrem_sp.exit
; BB5 :
  %shr.i6724 = ashr i32 %retval.0.i, 31		; visa id: 62
  %shr1.i6725 = ashr i32 %28, 31		; visa id: 63
  %add.i6726 = add nsw i32 %shr.i6724, %retval.0.i		; visa id: 64
  %xor.i6727 = xor i32 %add.i6726, %shr.i6724		; visa id: 65
  %add2.i6728 = add nsw i32 %shr1.i6725, %28		; visa id: 66
  %xor3.i6729 = xor i32 %add2.i6728, %shr1.i6725		; visa id: 67
  %29 = call float @llvm.genx.GenISA.uitof.rtz.f32.i32(i32 %xor.i6727)		; visa id: 68
  %conv.i6730 = fptoui float %29 to i32		; visa id: 70
  %sub.i6731 = sub i32 %xor.i6727, %conv.i6730		; visa id: 71
  %30 = call float @llvm.genx.GenISA.uitof.rtz.f32.i32(i32 %xor3.i6729)		; visa id: 72
  %div.i6734 = fdiv float 1.000000e+00, %29, !fpmath !1207		; visa id: 73
  %31 = call float @llvm.genx.GenISA.fma.rtz.f32.f32.f32.f32(float %div.i6734, float 0xBE98000000000000, float %div.i6734)		; visa id: 74
  %32 = call float @llvm.genx.GenISA.mul.rtz.f32.f32.f32(float %30, float %31)		; visa id: 75
  %conv6.i6732 = fptoui float %30 to i32		; visa id: 76
  %sub7.i6733 = sub i32 %xor3.i6729, %conv6.i6732		; visa id: 77
  %conv11.i6735 = fptoui float %32 to i32		; visa id: 78
  %33 = call float @llvm.genx.GenISA.uitof.rtz.f32.i32(i32 %sub.i6731)		; visa id: 79
  %34 = call float @llvm.genx.GenISA.uitof.rtz.f32.i32(i32 %sub7.i6733)		; visa id: 80
  %35 = call float @llvm.genx.GenISA.uitof.rtz.f32.i32(i32 %conv11.i6735)		; visa id: 81
  %36 = fsub float 0.000000e+00, %29		; visa id: 82
  %37 = call float @llvm.genx.GenISA.fma.rtz.f32.f32.f32.f32(float %36, float %35, float %30)		; visa id: 83
  %38 = fsub float 0.000000e+00, %33		; visa id: 84
  %39 = call float @llvm.genx.GenISA.fma.rtz.f32.f32.f32.f32(float %38, float %35, float %34)		; visa id: 85
  %40 = call float @llvm.genx.GenISA.add.rtz.f32.f32.f32(float %37, float %39)		; visa id: 86
  %41 = call float @llvm.genx.GenISA.mul.rtz.f32.f32.f32(float %31, float %40)		; visa id: 87
  %conv19.i6738 = fptoui float %41 to i32		; visa id: 89
  %add20.i6739 = add i32 %conv19.i6738, %conv11.i6735		; visa id: 90
  %xor21.i6740 = xor i32 %shr.i6724, %shr1.i6725		; visa id: 91
  %mul.i6741 = mul i32 %add20.i6739, %xor.i6727		; visa id: 92
  %sub22.i6742 = sub i32 %xor3.i6729, %mul.i6741		; visa id: 93
  %cmp.i6743 = icmp uge i32 %sub22.i6742, %xor.i6727
  %42 = sext i1 %cmp.i6743 to i32		; visa id: 94
  %43 = sub i32 0, %42
  %add24.i6750 = add i32 %add20.i6739, %xor21.i6740
  %add29.i6751 = add i32 %add24.i6750, %43		; visa id: 95
  %xor30.i6752 = xor i32 %add29.i6751, %xor21.i6740		; visa id: 96
  br label %precompiled_s32divrem_sp.exit6755, !stats.blockFrequency.digits !1208, !stats.blockFrequency.scale !1209		; visa id: 97

precompiled_s32divrem_sp.exit6755:                ; preds = %if.then.i6723, %if.end.i6753
; BB6 :
  %retval.0.i6754 = phi i32 [ %xor30.i6752, %if.end.i6753 ], [ -1, %if.then.i6723 ]
  %44 = shl i32 %3, 8		; visa id: 98
  %45 = icmp ult i32 %44, %const_reg_dword3		; visa id: 99
  br i1 %45, label %46, label %precompiled_s32divrem_sp.exit6755.._crit_edge_crit_edge, !stats.blockFrequency.digits !1203, !stats.blockFrequency.scale !1204		; visa id: 100

precompiled_s32divrem_sp.exit6755.._crit_edge_crit_edge: ; preds = %precompiled_s32divrem_sp.exit6755
; BB:
  br label %._crit_edge, !stats.blockFrequency.digits !1203, !stats.blockFrequency.scale !1212

46:                                               ; preds = %precompiled_s32divrem_sp.exit6755
; BB8 :
  %47 = call i32 @llvm.smin.i32(i32 %const_reg_dword3, i32 %const_reg_dword4)		; visa id: 102
  %48 = sub nsw i32 %const_reg_dword3, %47, !spirv.Decorations !1210		; visa id: 103
  %49 = add i32 %44, %simdBroadcast		; visa id: 104
  %50 = call i32 @llvm.umin.i32(i32 %const_reg_dword3, i32 %49)		; visa id: 105
  %51 = icmp slt i32 %50, %48		; visa id: 106
  br i1 %51, label %.._crit_edge_crit_edge, label %52, !stats.blockFrequency.digits !1203, !stats.blockFrequency.scale !1212		; visa id: 107

.._crit_edge_crit_edge:                           ; preds = %46
; BB:
  br label %._crit_edge, !stats.blockFrequency.digits !1213, !stats.blockFrequency.scale !1206

52:                                               ; preds = %46
; BB10 :
  %53 = sub nsw i32 %const_reg_dword4, %47, !spirv.Decorations !1210		; visa id: 109
  %54 = sub nsw i32 %50, %48, !spirv.Decorations !1210		; visa id: 110
  %55 = call i32 @llvm.smin.i32(i32 %const_reg_dword4, i32 %54)		; visa id: 111
  %56 = add nsw i32 %53, %55, !spirv.Decorations !1210		; visa id: 112
  %57 = add nsw i32 %56, 16, !spirv.Decorations !1210		; visa id: 113
  %58 = add nsw i32 %57, %const_reg_dword5, !spirv.Decorations !1210		; visa id: 114
  %is-neg = icmp slt i32 %58, -31		; visa id: 115
  br i1 %is-neg, label %cond-add, label %.cond-add-join_crit_edge, !stats.blockFrequency.digits !1213, !stats.blockFrequency.scale !1206		; visa id: 116

.cond-add-join_crit_edge:                         ; preds = %52
; BB11 :
  %59 = add nsw i32 %58, 31, !spirv.Decorations !1210		; visa id: 118
  br label %cond-add-join, !stats.blockFrequency.digits !1214, !stats.blockFrequency.scale !1215		; visa id: 119

cond-add:                                         ; preds = %52
; BB12 :
  %60 = add i32 %58, 62		; visa id: 121
  br label %cond-add-join, !stats.blockFrequency.digits !1214, !stats.blockFrequency.scale !1215		; visa id: 122

cond-add-join:                                    ; preds = %.cond-add-join_crit_edge, %cond-add
; BB13 :
  %61 = phi i32 [ %59, %.cond-add-join_crit_edge ], [ %60, %cond-add ]
  %qot = ashr i32 %61, 5		; visa id: 123
  %62 = mul nsw i32 %28, %const_reg_dword9, !spirv.Decorations !1210		; visa id: 124
  %63 = mul nsw i32 %26, %const_reg_dword10, !spirv.Decorations !1210		; visa id: 125
  %64 = add nsw i32 %62, %63, !spirv.Decorations !1210		; visa id: 126
  %65 = sext i32 %64 to i64		; visa id: 127
  %66 = shl nsw i64 %65, 1		; visa id: 128
  %67 = add i64 %66, %const_reg_qword		; visa id: 129
  %68 = mul nsw i32 %retval.0.i6754, %const_reg_dword16, !spirv.Decorations !1210		; visa id: 130
  %69 = mul nsw i32 %26, %const_reg_dword17, !spirv.Decorations !1210		; visa id: 131
  %70 = add nsw i32 %68, %69, !spirv.Decorations !1210		; visa id: 132
  %71 = sext i32 %70 to i64		; visa id: 133
  %72 = shl nsw i64 %71, 1		; visa id: 134
  %73 = add i64 %72, %const_reg_qword14		; visa id: 135
  %74 = mul nsw i32 %retval.0.i6754, %const_reg_dword24, !spirv.Decorations !1210		; visa id: 136
  %75 = mul nsw i32 %26, %const_reg_dword25, !spirv.Decorations !1210		; visa id: 137
  %76 = add nsw i32 %74, %75, !spirv.Decorations !1210		; visa id: 138
  %77 = sext i32 %76 to i64		; visa id: 139
  %78 = shl nsw i64 %77, 1		; visa id: 140
  %79 = add i64 %78, %const_reg_qword22		; visa id: 141
  %80 = mul nsw i32 %retval.0.i6754, %const_reg_dword40, !spirv.Decorations !1210		; visa id: 142
  %81 = mul nsw i32 %26, %const_reg_dword41, !spirv.Decorations !1210		; visa id: 143
  %82 = add nsw i32 %80, %81, !spirv.Decorations !1210		; visa id: 144
  %83 = sext i32 %82 to i64		; visa id: 145
  %84 = shl nsw i64 %83, 1		; visa id: 146
  %85 = add i64 %84, %const_reg_qword38		; visa id: 147
  %86 = mul nsw i32 %retval.0.i6754, %const_reg_dword48, !spirv.Decorations !1210		; visa id: 148
  %87 = mul nsw i32 %26, %const_reg_dword49, !spirv.Decorations !1210		; visa id: 149
  %88 = add nsw i32 %86, %87, !spirv.Decorations !1210		; visa id: 150
  %89 = sext i32 %88 to i64		; visa id: 151
  %90 = shl nsw i64 %89, 1		; visa id: 152
  %91 = add i64 %90, %const_reg_qword46		; visa id: 153
  %is-neg6713 = icmp slt i32 %const_reg_dword6, -31		; visa id: 154
  br i1 %is-neg6713, label %cond-add6714, label %cond-add-join.cond-add-join6715_crit_edge, !stats.blockFrequency.digits !1213, !stats.blockFrequency.scale !1206		; visa id: 155

cond-add-join.cond-add-join6715_crit_edge:        ; preds = %cond-add-join
; BB14 :
  %92 = add nsw i32 %const_reg_dword6, 31, !spirv.Decorations !1210		; visa id: 157
  br label %cond-add-join6715, !stats.blockFrequency.digits !1214, !stats.blockFrequency.scale !1215		; visa id: 158

cond-add6714:                                     ; preds = %cond-add-join
; BB15 :
  %93 = add i32 %const_reg_dword6, 62		; visa id: 160
  br label %cond-add-join6715, !stats.blockFrequency.digits !1214, !stats.blockFrequency.scale !1215		; visa id: 161

cond-add-join6715:                                ; preds = %cond-add-join.cond-add-join6715_crit_edge, %cond-add6714
; BB16 :
  %94 = phi i32 [ %92, %cond-add-join.cond-add-join6715_crit_edge ], [ %93, %cond-add6714 ]
  %95 = extractelement <8 x i32> %r0, i32 1		; visa id: 162
  %qot6716 = ashr i32 %94, 5		; visa id: 162
  %96 = shl i32 %95, 7		; visa id: 163
  %97 = shl nsw i32 %const_reg_dword6, 1, !spirv.Decorations !1210		; visa id: 164
  %98 = shl nsw i32 %const_reg_dword8, 1, !spirv.Decorations !1210		; visa id: 165
  %99 = add i32 %97, -1		; visa id: 166
  %100 = add i32 %const_reg_dword3, -1		; visa id: 167
  %101 = add i32 %98, -1		; visa id: 168
  %Block2D_AddrPayload = call i8 addrspace(4)* @llvm.genx.GenISA.LSC2DBlockCreateAddrPayload.p4i8(i64 %67, i32 %99, i32 %100, i32 %101, i32 0, i32 0, i32 16, i32 16, i32 2)		; visa id: 169
  %102 = shl nsw i32 %const_reg_dword15, 1, !spirv.Decorations !1210		; visa id: 176
  %103 = add i32 %const_reg_dword4, -1		; visa id: 177
  %104 = add i32 %102, -1		; visa id: 178
  %Block2D_AddrPayload112 = call i8 addrspace(4)* @llvm.genx.GenISA.LSC2DBlockCreateAddrPayload.p4i8(i64 %73, i32 %99, i32 %103, i32 %104, i32 0, i32 0, i32 8, i32 16, i32 1)		; visa id: 179
  %105 = shl nsw i32 %const_reg_dword7, 1, !spirv.Decorations !1210		; visa id: 186
  %106 = shl nsw i32 %const_reg_dword23, 1, !spirv.Decorations !1210		; visa id: 187
  %107 = add i32 %105, -1		; visa id: 188
  %108 = add i32 %106, -1		; visa id: 189
  %Block2D_AddrPayload113 = call i8 addrspace(4)* @llvm.genx.GenISA.LSC2DBlockCreateAddrPayload.p4i8(i64 %79, i32 %107, i32 %103, i32 %108, i32 0, i32 0, i32 16, i32 16, i32 2)		; visa id: 190
  %109 = shl nsw i32 %const_reg_dword39, 1, !spirv.Decorations !1210		; visa id: 197
  %110 = add i32 %const_reg_dword5, -1		; visa id: 198
  %111 = add i32 %109, -1		; visa id: 199
  %Block2D_AddrPayload114 = call i8 addrspace(4)* @llvm.genx.GenISA.LSC2DBlockCreateAddrPayload.p4i8(i64 %85, i32 %99, i32 %110, i32 %111, i32 0, i32 0, i32 8, i32 16, i32 1)		; visa id: 200
  %112 = shl nsw i32 %const_reg_dword47, 1, !spirv.Decorations !1210		; visa id: 207
  %113 = add i32 %112, -1		; visa id: 208
  %Block2D_AddrPayload115 = call i8 addrspace(4)* @llvm.genx.GenISA.LSC2DBlockCreateAddrPayload.p4i8(i64 %91, i32 %107, i32 %110, i32 %113, i32 0, i32 0, i32 16, i32 16, i32 2)		; visa id: 209
  %114 = and i32 %20, 65520		; visa id: 216
  %115 = add i32 %44, %114		; visa id: 217
  %Block2D_AddrPayload116 = call i8 addrspace(4)* @llvm.genx.GenISA.LSC2DBlockCreateAddrPayload.p4i8(i64 %67, i32 %99, i32 %100, i32 %101, i32 0, i32 0, i32 32, i32 16, i32 1)		; visa id: 218
  %Block2D_AddrPayload117 = call i8 addrspace(4)* @llvm.genx.GenISA.LSC2DBlockCreateAddrPayload.p4i8(i64 %73, i32 %99, i32 %103, i32 %104, i32 0, i32 0, i32 32, i32 2, i32 1)		; visa id: 225
  %Block2D_AddrPayload118 = call i8 addrspace(4)* @llvm.genx.GenISA.LSC2DBlockCreateAddrPayload.p4i8(i64 %79, i32 %107, i32 %103, i32 %108, i32 0, i32 0, i32 32, i32 2, i32 1)		; visa id: 232
  %Block2D_AddrPayload119 = call i8 addrspace(4)* @llvm.genx.GenISA.LSC2DBlockCreateAddrPayload.p4i8(i64 %85, i32 %99, i32 %110, i32 %111, i32 0, i32 0, i32 32, i32 2, i32 1)		; visa id: 239
  %Block2D_AddrPayload120 = call i8 addrspace(4)* @llvm.genx.GenISA.LSC2DBlockCreateAddrPayload.p4i8(i64 %91, i32 %107, i32 %110, i32 %113, i32 0, i32 0, i32 32, i32 2, i32 1)		; visa id: 246
  %116 = lshr i32 %20, 3		; visa id: 253
  %117 = and i32 %116, 8190		; visa id: 254
  %is-neg6717 = icmp slt i32 %const_reg_dword5, -31		; visa id: 255
  br i1 %is-neg6717, label %cond-add6718, label %cond-add-join6715.cond-add-join6719_crit_edge, !stats.blockFrequency.digits !1213, !stats.blockFrequency.scale !1206		; visa id: 256

cond-add-join6715.cond-add-join6719_crit_edge:    ; preds = %cond-add-join6715
; BB17 :
  %118 = add nsw i32 %const_reg_dword5, 31, !spirv.Decorations !1210		; visa id: 258
  br label %cond-add-join6719, !stats.blockFrequency.digits !1214, !stats.blockFrequency.scale !1215		; visa id: 259

cond-add6718:                                     ; preds = %cond-add-join6715
; BB18 :
  %119 = add i32 %const_reg_dword5, 62		; visa id: 261
  br label %cond-add-join6719, !stats.blockFrequency.digits !1214, !stats.blockFrequency.scale !1215		; visa id: 262

cond-add-join6719:                                ; preds = %cond-add-join6715.cond-add-join6719_crit_edge, %cond-add6718
; BB19 :
  %120 = phi i32 [ %118, %cond-add-join6715.cond-add-join6719_crit_edge ], [ %119, %cond-add6718 ]
  %qot6720 = ashr i32 %120, 5		; visa id: 263
  %121 = icmp sgt i32 %const_reg_dword6, 0		; visa id: 264
  br i1 %121, label %.lr.ph172.preheader, label %cond-add-join6719..preheader.preheader_crit_edge, !stats.blockFrequency.digits !1213, !stats.blockFrequency.scale !1206		; visa id: 265

cond-add-join6719..preheader.preheader_crit_edge: ; preds = %cond-add-join6719
; BB:
  br label %.preheader.preheader, !stats.blockFrequency.digits !1216, !stats.blockFrequency.scale !1217

.lr.ph172.preheader:                              ; preds = %cond-add-join6719
; BB21 :
  br label %.lr.ph172, !stats.blockFrequency.digits !1218, !stats.blockFrequency.scale !1215		; visa id: 268

.lr.ph172:                                        ; preds = %.lr.ph172..lr.ph172_crit_edge, %.lr.ph172.preheader
; BB22 :
  %122 = phi i32 [ %124, %.lr.ph172..lr.ph172_crit_edge ], [ 0, %.lr.ph172.preheader ]
  %123 = shl nsw i32 %122, 5, !spirv.Decorations !1210		; visa id: 269
  call void @llvm.genx.GenISA.LSC2DBlockSetAddrPayloadField.p4i8.i32(i8 addrspace(4)* %Block2D_AddrPayload116, i32 5, i32 %123, i1 false)		; visa id: 270
  call void @llvm.genx.GenISA.LSC2DBlockSetAddrPayloadField.p4i8.i32(i8 addrspace(4)* %Block2D_AddrPayload116, i32 6, i32 %115, i1 false)		; visa id: 271
  call void asm sideeffect "lsc_load_block2d.ugm.ca.ca (M1, 1)  %null:d$1.$2x$3nn flat[$0+(0,0)]", "rw.u,P,P,P"(i8 addrspace(4)* %Block2D_AddrPayload116, i32 16, i32 32, i32 16) #0		; visa id: 272
  %124 = add nuw nsw i32 %122, 1, !spirv.Decorations !1219		; visa id: 272
  %125 = icmp slt i32 %124, %qot6716		; visa id: 273
  br i1 %125, label %.lr.ph172..lr.ph172_crit_edge, label %.preheader1.preheader, !stats.blockFrequency.digits !1221, !stats.blockFrequency.scale !1204		; visa id: 274

.lr.ph172..lr.ph172_crit_edge:                    ; preds = %.lr.ph172
; BB:
  br label %.lr.ph172, !stats.blockFrequency.digits !1222, !stats.blockFrequency.scale !1204

.preheader1.preheader:                            ; preds = %.lr.ph172
; BB24 :
  br i1 true, label %.lr.ph169, label %.preheader1.preheader..preheader.preheader_crit_edge, !stats.blockFrequency.digits !1218, !stats.blockFrequency.scale !1215		; visa id: 276

.preheader1.preheader..preheader.preheader_crit_edge: ; preds = %.preheader1.preheader
; BB:
  br label %.preheader.preheader, !stats.blockFrequency.digits !1223, !stats.blockFrequency.scale !1217

.lr.ph169:                                        ; preds = %.preheader1.preheader
; BB26 :
  %126 = icmp sgt i32 %const_reg_dword5, 0		; visa id: 279
  %127 = and i32 %120, -32		; visa id: 280
  %128 = sub i32 %117, %127		; visa id: 281
  %129 = icmp sgt i32 %const_reg_dword5, 32		; visa id: 282
  %130 = sub i32 32, %127
  %131 = add nuw nsw i32 %117, %130		; visa id: 283
  %132 = add nuw nsw i32 %117, 32		; visa id: 284
  br label %133, !stats.blockFrequency.digits !1223, !stats.blockFrequency.scale !1217		; visa id: 286

133:                                              ; preds = %.preheader1._crit_edge, %.lr.ph169
; BB27 :
  %134 = phi i32 [ 0, %.lr.ph169 ], [ %141, %.preheader1._crit_edge ]
  %135 = shl nsw i32 %134, 5, !spirv.Decorations !1210		; visa id: 287
  br i1 %126, label %137, label %136, !stats.blockFrequency.digits !1223, !stats.blockFrequency.scale !1212		; visa id: 288

136:                                              ; preds = %133
; BB28 :
  call void @llvm.genx.GenISA.LSC2DBlockSetAddrPayloadField.p4i8.i32(i8 addrspace(4)* %Block2D_AddrPayload117, i32 5, i32 %135, i1 false)		; visa id: 290
  call void @llvm.genx.GenISA.LSC2DBlockSetAddrPayloadField.p4i8.i32(i8 addrspace(4)* %Block2D_AddrPayload117, i32 6, i32 %128, i1 false)		; visa id: 291
  call void asm sideeffect "lsc_load_block2d.ugm.ca.ca (M1, 1)  %null:d$1.$2x$3nn flat[$0+(0,0)]", "rw.u,P,P,P"(i8 addrspace(4)* %Block2D_AddrPayload117, i32 16, i32 32, i32 2) #0		; visa id: 292
  br label %138, !stats.blockFrequency.digits !1214, !stats.blockFrequency.scale !1224		; visa id: 292

137:                                              ; preds = %133
; BB29 :
  call void @llvm.genx.GenISA.LSC2DBlockSetAddrPayloadField.p4i8.i32(i8 addrspace(4)* %Block2D_AddrPayload119, i32 5, i32 %135, i1 false)		; visa id: 294
  call void @llvm.genx.GenISA.LSC2DBlockSetAddrPayloadField.p4i8.i32(i8 addrspace(4)* %Block2D_AddrPayload119, i32 6, i32 %117, i1 false)		; visa id: 295
  call void asm sideeffect "lsc_load_block2d.ugm.ca.ca (M1, 1)  %null:d$1.$2x$3nn flat[$0+(0,0)]", "rw.u,P,P,P"(i8 addrspace(4)* %Block2D_AddrPayload119, i32 16, i32 32, i32 2) #0		; visa id: 296
  br label %138, !stats.blockFrequency.digits !1225, !stats.blockFrequency.scale !1224		; visa id: 296

138:                                              ; preds = %136, %137
; BB30 :
  br i1 %129, label %140, label %139, !stats.blockFrequency.digits !1223, !stats.blockFrequency.scale !1212		; visa id: 297

139:                                              ; preds = %138
; BB31 :
  call void @llvm.genx.GenISA.LSC2DBlockSetAddrPayloadField.p4i8.i32(i8 addrspace(4)* %Block2D_AddrPayload117, i32 5, i32 %135, i1 false)		; visa id: 299
  call void @llvm.genx.GenISA.LSC2DBlockSetAddrPayloadField.p4i8.i32(i8 addrspace(4)* %Block2D_AddrPayload117, i32 6, i32 %131, i1 false)		; visa id: 300
  call void asm sideeffect "lsc_load_block2d.ugm.ca.ca (M1, 1)  %null:d$1.$2x$3nn flat[$0+(0,0)]", "rw.u,P,P,P"(i8 addrspace(4)* %Block2D_AddrPayload117, i32 16, i32 32, i32 2) #0		; visa id: 301
  br label %.preheader1, !stats.blockFrequency.digits !1223, !stats.blockFrequency.scale !1224		; visa id: 301

140:                                              ; preds = %138
; BB32 :
  call void @llvm.genx.GenISA.LSC2DBlockSetAddrPayloadField.p4i8.i32(i8 addrspace(4)* %Block2D_AddrPayload119, i32 5, i32 %135, i1 false)		; visa id: 303
  call void @llvm.genx.GenISA.LSC2DBlockSetAddrPayloadField.p4i8.i32(i8 addrspace(4)* %Block2D_AddrPayload119, i32 6, i32 %132, i1 false)		; visa id: 304
  call void asm sideeffect "lsc_load_block2d.ugm.ca.ca (M1, 1)  %null:d$1.$2x$3nn flat[$0+(0,0)]", "rw.u,P,P,P"(i8 addrspace(4)* %Block2D_AddrPayload119, i32 16, i32 32, i32 2) #0		; visa id: 305
  br label %.preheader1, !stats.blockFrequency.digits !1223, !stats.blockFrequency.scale !1224		; visa id: 305

.preheader1:                                      ; preds = %140, %139
; BB33 :
  %141 = add nuw nsw i32 %134, 1, !spirv.Decorations !1219		; visa id: 306
  %142 = icmp slt i32 %141, %qot6716		; visa id: 307
  br i1 %142, label %.preheader1._crit_edge, label %.preheader.preheader.loopexit, !stats.blockFrequency.digits !1223, !stats.blockFrequency.scale !1212		; visa id: 308

.preheader.preheader.loopexit:                    ; preds = %.preheader1
; BB:
  br label %.preheader.preheader, !stats.blockFrequency.digits !1223, !stats.blockFrequency.scale !1217

.preheader1._crit_edge:                           ; preds = %.preheader1
; BB:
  br label %133, !stats.blockFrequency.digits !1226, !stats.blockFrequency.scale !1212

.preheader.preheader:                             ; preds = %.preheader1.preheader..preheader.preheader_crit_edge, %cond-add-join6719..preheader.preheader_crit_edge, %.preheader.preheader.loopexit
; BB36 :
  %143 = icmp sgt i32 %const_reg_dword5, 0		; visa id: 310
  br i1 %143, label %.preheader146.lr.ph, label %.preheader.preheader.._crit_edge166_crit_edge, !stats.blockFrequency.digits !1213, !stats.blockFrequency.scale !1206		; visa id: 311

.preheader.preheader.._crit_edge166_crit_edge:    ; preds = %.preheader.preheader
; BB37 :
  br label %._crit_edge166, !stats.blockFrequency.digits !1216, !stats.blockFrequency.scale !1217		; visa id: 443

.preheader146.lr.ph:                              ; preds = %.preheader.preheader
; BB38 :
  %smax183 = call i32 @llvm.smax.i32(i32 %qot6716, i32 1)		; visa id: 445
  %xtraiter184 = and i32 %smax183, 1
  %144 = icmp slt i32 %const_reg_dword6, 33		; visa id: 446
  %unroll_iter187 = and i32 %smax183, 2147483646		; visa id: 447
  %lcmp.mod186.not = icmp eq i32 %xtraiter184, 0		; visa id: 448
  %145 = and i32 %96, 268435328		; visa id: 450
  %146 = or i32 %145, 32		; visa id: 451
  %147 = or i32 %145, 64		; visa id: 452
  %148 = or i32 %145, 96		; visa id: 453
  br label %.preheader146, !stats.blockFrequency.digits !1218, !stats.blockFrequency.scale !1215		; visa id: 585

.preheader146:                                    ; preds = %_ZZN7cutlass4fmha10collective15FMHAFwdMainloopINS0_9XeDefaultILi2EEELb1ELb1ELb0EN4cute8TiledMMAINS5_8MMA_AtomIJNS5_10XE_DPAS_TTILi8EfNS_10bfloat16_tES9_fEEEEENS5_6LayoutINS5_5tupleIJNS5_1CILi16EEENSE_ILi1EEESG_EEENSD_IJSG_NSE_ILi0EEESI_EEEEEKNSD_IJNSC_INSD_IJNSE_ILi8EEESF_NSE_ILi2EEEEEENSD_IJSG_SF_SL_EEEEENSC_INSE_ILi32EEESG_EESR_EEEEESU_Li4ENS5_6TensorINS5_10ViewEngineINS5_8gmem_ptrIPS9_EEEENSC_INSD_IJiiiiEEENSD_IJiSG_iiEEEEEEES14_NSV_IS10_NSC_IS11_NSD_IJSG_iiiEEEEEEES14_S17_vvvvvEclINSD_IJjjEEEEEvRKNSV_IS10_NSC_INSD_IJiiEEENSD_IJiSG_EEEEEEES1G_RKNSV_IS10_NSC_IS1B_NSD_IJSG_iEEEEEEERNS5_14SubgroupTensorINS5_11ArrayEngineIfLm128EEENSC_INSD_IJSL_SM_SM_NSE_ILi4EEEEEENSD_IJSG_SL_SF_SQ_EEEEENSC_INSD_IJSF_NSD_IJSL_NSD_IJSM_SM_EEES1P_EEEEEENSD_IJNS5_11ScaledBasisISG_JLi1EEEENSD_IJNS1W_ISG_JLi0EEEENSD_IJNS1W_ISL_JLi0EEEENS1W_ISF_JLi1EEEEEEENS1W_ISQ_JLi1EEEEEEEEEEEEEERNSV_INS1N_IfLm1EEENSC_ISG_SI_EEEES2B_T_iiiiiiiiiS1G_S1L_ENKUlS2C_iRT0_RT1_RT2_RT3_RT4_RT5_E_clISt17integral_constantIbLb1EENS5_9TiledCopyINS5_9Copy_Atom..preheader146_crit_edge, %.preheader146.lr.ph
; BB39 :
  %.sroa.724.0 = phi <8 x float> [ zeroinitializer, %.preheader146.lr.ph ], [ %1387, %_ZZN7cutlass4fmha10collective15FMHAFwdMainloopINS0_9XeDefaultILi2EEELb1ELb1ELb0EN4cute8TiledMMAINS5_8MMA_AtomIJNS5_10XE_DPAS_TTILi8EfNS_10bfloat16_tES9_fEEEEENS5_6LayoutINS5_5tupleIJNS5_1CILi16EEENSE_ILi1EEESG_EEENSD_IJSG_NSE_ILi0EEESI_EEEEEKNSD_IJNSC_INSD_IJNSE_ILi8EEESF_NSE_ILi2EEEEEENSD_IJSG_SF_SL_EEEEENSC_INSE_ILi32EEESG_EESR_EEEEESU_Li4ENS5_6TensorINS5_10ViewEngineINS5_8gmem_ptrIPS9_EEEENSC_INSD_IJiiiiEEENSD_IJiSG_iiEEEEEEES14_NSV_IS10_NSC_IS11_NSD_IJSG_iiiEEEEEEES14_S17_vvvvvEclINSD_IJjjEEEEEvRKNSV_IS10_NSC_INSD_IJiiEEENSD_IJiSG_EEEEEEES1G_RKNSV_IS10_NSC_IS1B_NSD_IJSG_iEEEEEEERNS5_14SubgroupTensorINS5_11ArrayEngineIfLm128EEENSC_INSD_IJSL_SM_SM_NSE_ILi4EEEEEENSD_IJSG_SL_SF_SQ_EEEEENSC_INSD_IJSF_NSD_IJSL_NSD_IJSM_SM_EEES1P_EEEEEENSD_IJNS5_11ScaledBasisISG_JLi1EEEENSD_IJNS1W_ISG_JLi0EEEENSD_IJNS1W_ISL_JLi0EEEENS1W_ISF_JLi1EEEEEEENS1W_ISQ_JLi1EEEEEEEEEEEEEERNSV_INS1N_IfLm1EEENSC_ISG_SI_EEEES2B_T_iiiiiiiiiS1G_S1L_ENKUlS2C_iRT0_RT1_RT2_RT3_RT4_RT5_E_clISt17integral_constantIbLb1EENS5_9TiledCopyINS5_9Copy_Atom..preheader146_crit_edge ]
  %.sroa.676.0 = phi <8 x float> [ zeroinitializer, %.preheader146.lr.ph ], [ %1388, %_ZZN7cutlass4fmha10collective15FMHAFwdMainloopINS0_9XeDefaultILi2EEELb1ELb1ELb0EN4cute8TiledMMAINS5_8MMA_AtomIJNS5_10XE_DPAS_TTILi8EfNS_10bfloat16_tES9_fEEEEENS5_6LayoutINS5_5tupleIJNS5_1CILi16EEENSE_ILi1EEESG_EEENSD_IJSG_NSE_ILi0EEESI_EEEEEKNSD_IJNSC_INSD_IJNSE_ILi8EEESF_NSE_ILi2EEEEEENSD_IJSG_SF_SL_EEEEENSC_INSE_ILi32EEESG_EESR_EEEEESU_Li4ENS5_6TensorINS5_10ViewEngineINS5_8gmem_ptrIPS9_EEEENSC_INSD_IJiiiiEEENSD_IJiSG_iiEEEEEEES14_NSV_IS10_NSC_IS11_NSD_IJSG_iiiEEEEEEES14_S17_vvvvvEclINSD_IJjjEEEEEvRKNSV_IS10_NSC_INSD_IJiiEEENSD_IJiSG_EEEEEEES1G_RKNSV_IS10_NSC_IS1B_NSD_IJSG_iEEEEEEERNS5_14SubgroupTensorINS5_11ArrayEngineIfLm128EEENSC_INSD_IJSL_SM_SM_NSE_ILi4EEEEEENSD_IJSG_SL_SF_SQ_EEEEENSC_INSD_IJSF_NSD_IJSL_NSD_IJSM_SM_EEES1P_EEEEEENSD_IJNS5_11ScaledBasisISG_JLi1EEEENSD_IJNS1W_ISG_JLi0EEEENSD_IJNS1W_ISL_JLi0EEEENS1W_ISF_JLi1EEEEEEENS1W_ISQ_JLi1EEEEEEEEEEEEEERNSV_INS1N_IfLm1EEENSC_ISG_SI_EEEES2B_T_iiiiiiiiiS1G_S1L_ENKUlS2C_iRT0_RT1_RT2_RT3_RT4_RT5_E_clISt17integral_constantIbLb1EENS5_9TiledCopyINS5_9Copy_Atom..preheader146_crit_edge ]
  %.sroa.628.0 = phi <8 x float> [ zeroinitializer, %.preheader146.lr.ph ], [ %1386, %_ZZN7cutlass4fmha10collective15FMHAFwdMainloopINS0_9XeDefaultILi2EEELb1ELb1ELb0EN4cute8TiledMMAINS5_8MMA_AtomIJNS5_10XE_DPAS_TTILi8EfNS_10bfloat16_tES9_fEEEEENS5_6LayoutINS5_5tupleIJNS5_1CILi16EEENSE_ILi1EEESG_EEENSD_IJSG_NSE_ILi0EEESI_EEEEEKNSD_IJNSC_INSD_IJNSE_ILi8EEESF_NSE_ILi2EEEEEENSD_IJSG_SF_SL_EEEEENSC_INSE_ILi32EEESG_EESR_EEEEESU_Li4ENS5_6TensorINS5_10ViewEngineINS5_8gmem_ptrIPS9_EEEENSC_INSD_IJiiiiEEENSD_IJiSG_iiEEEEEEES14_NSV_IS10_NSC_IS11_NSD_IJSG_iiiEEEEEEES14_S17_vvvvvEclINSD_IJjjEEEEEvRKNSV_IS10_NSC_INSD_IJiiEEENSD_IJiSG_EEEEEEES1G_RKNSV_IS10_NSC_IS1B_NSD_IJSG_iEEEEEEERNS5_14SubgroupTensorINS5_11ArrayEngineIfLm128EEENSC_INSD_IJSL_SM_SM_NSE_ILi4EEEEEENSD_IJSG_SL_SF_SQ_EEEEENSC_INSD_IJSF_NSD_IJSL_NSD_IJSM_SM_EEES1P_EEEEEENSD_IJNS5_11ScaledBasisISG_JLi1EEEENSD_IJNS1W_ISG_JLi0EEEENSD_IJNS1W_ISL_JLi0EEEENS1W_ISF_JLi1EEEEEEENS1W_ISQ_JLi1EEEEEEEEEEEEEERNSV_INS1N_IfLm1EEENSC_ISG_SI_EEEES2B_T_iiiiiiiiiS1G_S1L_ENKUlS2C_iRT0_RT1_RT2_RT3_RT4_RT5_E_clISt17integral_constantIbLb1EENS5_9TiledCopyINS5_9Copy_Atom..preheader146_crit_edge ]
  %.sroa.580.0 = phi <8 x float> [ zeroinitializer, %.preheader146.lr.ph ], [ %1385, %_ZZN7cutlass4fmha10collective15FMHAFwdMainloopINS0_9XeDefaultILi2EEELb1ELb1ELb0EN4cute8TiledMMAINS5_8MMA_AtomIJNS5_10XE_DPAS_TTILi8EfNS_10bfloat16_tES9_fEEEEENS5_6LayoutINS5_5tupleIJNS5_1CILi16EEENSE_ILi1EEESG_EEENSD_IJSG_NSE_ILi0EEESI_EEEEEKNSD_IJNSC_INSD_IJNSE_ILi8EEESF_NSE_ILi2EEEEEENSD_IJSG_SF_SL_EEEEENSC_INSE_ILi32EEESG_EESR_EEEEESU_Li4ENS5_6TensorINS5_10ViewEngineINS5_8gmem_ptrIPS9_EEEENSC_INSD_IJiiiiEEENSD_IJiSG_iiEEEEEEES14_NSV_IS10_NSC_IS11_NSD_IJSG_iiiEEEEEEES14_S17_vvvvvEclINSD_IJjjEEEEEvRKNSV_IS10_NSC_INSD_IJiiEEENSD_IJiSG_EEEEEEES1G_RKNSV_IS10_NSC_IS1B_NSD_IJSG_iEEEEEEERNS5_14SubgroupTensorINS5_11ArrayEngineIfLm128EEENSC_INSD_IJSL_SM_SM_NSE_ILi4EEEEEENSD_IJSG_SL_SF_SQ_EEEEENSC_INSD_IJSF_NSD_IJSL_NSD_IJSM_SM_EEES1P_EEEEEENSD_IJNS5_11ScaledBasisISG_JLi1EEEENSD_IJNS1W_ISG_JLi0EEEENSD_IJNS1W_ISL_JLi0EEEENS1W_ISF_JLi1EEEEEEENS1W_ISQ_JLi1EEEEEEEEEEEEEERNSV_INS1N_IfLm1EEENSC_ISG_SI_EEEES2B_T_iiiiiiiiiS1G_S1L_ENKUlS2C_iRT0_RT1_RT2_RT3_RT4_RT5_E_clISt17integral_constantIbLb1EENS5_9TiledCopyINS5_9Copy_Atom..preheader146_crit_edge ]
  %.sroa.532.0 = phi <8 x float> [ zeroinitializer, %.preheader146.lr.ph ], [ %1249, %_ZZN7cutlass4fmha10collective15FMHAFwdMainloopINS0_9XeDefaultILi2EEELb1ELb1ELb0EN4cute8TiledMMAINS5_8MMA_AtomIJNS5_10XE_DPAS_TTILi8EfNS_10bfloat16_tES9_fEEEEENS5_6LayoutINS5_5tupleIJNS5_1CILi16EEENSE_ILi1EEESG_EEENSD_IJSG_NSE_ILi0EEESI_EEEEEKNSD_IJNSC_INSD_IJNSE_ILi8EEESF_NSE_ILi2EEEEEENSD_IJSG_SF_SL_EEEEENSC_INSE_ILi32EEESG_EESR_EEEEESU_Li4ENS5_6TensorINS5_10ViewEngineINS5_8gmem_ptrIPS9_EEEENSC_INSD_IJiiiiEEENSD_IJiSG_iiEEEEEEES14_NSV_IS10_NSC_IS11_NSD_IJSG_iiiEEEEEEES14_S17_vvvvvEclINSD_IJjjEEEEEvRKNSV_IS10_NSC_INSD_IJiiEEENSD_IJiSG_EEEEEEES1G_RKNSV_IS10_NSC_IS1B_NSD_IJSG_iEEEEEEERNS5_14SubgroupTensorINS5_11ArrayEngineIfLm128EEENSC_INSD_IJSL_SM_SM_NSE_ILi4EEEEEENSD_IJSG_SL_SF_SQ_EEEEENSC_INSD_IJSF_NSD_IJSL_NSD_IJSM_SM_EEES1P_EEEEEENSD_IJNS5_11ScaledBasisISG_JLi1EEEENSD_IJNS1W_ISG_JLi0EEEENSD_IJNS1W_ISL_JLi0EEEENS1W_ISF_JLi1EEEEEEENS1W_ISQ_JLi1EEEEEEEEEEEEEERNSV_INS1N_IfLm1EEENSC_ISG_SI_EEEES2B_T_iiiiiiiiiS1G_S1L_ENKUlS2C_iRT0_RT1_RT2_RT3_RT4_RT5_E_clISt17integral_constantIbLb1EENS5_9TiledCopyINS5_9Copy_Atom..preheader146_crit_edge ]
  %.sroa.484.0 = phi <8 x float> [ zeroinitializer, %.preheader146.lr.ph ], [ %1250, %_ZZN7cutlass4fmha10collective15FMHAFwdMainloopINS0_9XeDefaultILi2EEELb1ELb1ELb0EN4cute8TiledMMAINS5_8MMA_AtomIJNS5_10XE_DPAS_TTILi8EfNS_10bfloat16_tES9_fEEEEENS5_6LayoutINS5_5tupleIJNS5_1CILi16EEENSE_ILi1EEESG_EEENSD_IJSG_NSE_ILi0EEESI_EEEEEKNSD_IJNSC_INSD_IJNSE_ILi8EEESF_NSE_ILi2EEEEEENSD_IJSG_SF_SL_EEEEENSC_INSE_ILi32EEESG_EESR_EEEEESU_Li4ENS5_6TensorINS5_10ViewEngineINS5_8gmem_ptrIPS9_EEEENSC_INSD_IJiiiiEEENSD_IJiSG_iiEEEEEEES14_NSV_IS10_NSC_IS11_NSD_IJSG_iiiEEEEEEES14_S17_vvvvvEclINSD_IJjjEEEEEvRKNSV_IS10_NSC_INSD_IJiiEEENSD_IJiSG_EEEEEEES1G_RKNSV_IS10_NSC_IS1B_NSD_IJSG_iEEEEEEERNS5_14SubgroupTensorINS5_11ArrayEngineIfLm128EEENSC_INSD_IJSL_SM_SM_NSE_ILi4EEEEEENSD_IJSG_SL_SF_SQ_EEEEENSC_INSD_IJSF_NSD_IJSL_NSD_IJSM_SM_EEES1P_EEEEEENSD_IJNS5_11ScaledBasisISG_JLi1EEEENSD_IJNS1W_ISG_JLi0EEEENSD_IJNS1W_ISL_JLi0EEEENS1W_ISF_JLi1EEEEEEENS1W_ISQ_JLi1EEEEEEEEEEEEEERNSV_INS1N_IfLm1EEENSC_ISG_SI_EEEES2B_T_iiiiiiiiiS1G_S1L_ENKUlS2C_iRT0_RT1_RT2_RT3_RT4_RT5_E_clISt17integral_constantIbLb1EENS5_9TiledCopyINS5_9Copy_Atom..preheader146_crit_edge ]
  %.sroa.436.0 = phi <8 x float> [ zeroinitializer, %.preheader146.lr.ph ], [ %1248, %_ZZN7cutlass4fmha10collective15FMHAFwdMainloopINS0_9XeDefaultILi2EEELb1ELb1ELb0EN4cute8TiledMMAINS5_8MMA_AtomIJNS5_10XE_DPAS_TTILi8EfNS_10bfloat16_tES9_fEEEEENS5_6LayoutINS5_5tupleIJNS5_1CILi16EEENSE_ILi1EEESG_EEENSD_IJSG_NSE_ILi0EEESI_EEEEEKNSD_IJNSC_INSD_IJNSE_ILi8EEESF_NSE_ILi2EEEEEENSD_IJSG_SF_SL_EEEEENSC_INSE_ILi32EEESG_EESR_EEEEESU_Li4ENS5_6TensorINS5_10ViewEngineINS5_8gmem_ptrIPS9_EEEENSC_INSD_IJiiiiEEENSD_IJiSG_iiEEEEEEES14_NSV_IS10_NSC_IS11_NSD_IJSG_iiiEEEEEEES14_S17_vvvvvEclINSD_IJjjEEEEEvRKNSV_IS10_NSC_INSD_IJiiEEENSD_IJiSG_EEEEEEES1G_RKNSV_IS10_NSC_IS1B_NSD_IJSG_iEEEEEEERNS5_14SubgroupTensorINS5_11ArrayEngineIfLm128EEENSC_INSD_IJSL_SM_SM_NSE_ILi4EEEEEENSD_IJSG_SL_SF_SQ_EEEEENSC_INSD_IJSF_NSD_IJSL_NSD_IJSM_SM_EEES1P_EEEEEENSD_IJNS5_11ScaledBasisISG_JLi1EEEENSD_IJNS1W_ISG_JLi0EEEENSD_IJNS1W_ISL_JLi0EEEENS1W_ISF_JLi1EEEEEEENS1W_ISQ_JLi1EEEEEEEEEEEEEERNSV_INS1N_IfLm1EEENSC_ISG_SI_EEEES2B_T_iiiiiiiiiS1G_S1L_ENKUlS2C_iRT0_RT1_RT2_RT3_RT4_RT5_E_clISt17integral_constantIbLb1EENS5_9TiledCopyINS5_9Copy_Atom..preheader146_crit_edge ]
  %.sroa.388.0 = phi <8 x float> [ zeroinitializer, %.preheader146.lr.ph ], [ %1247, %_ZZN7cutlass4fmha10collective15FMHAFwdMainloopINS0_9XeDefaultILi2EEELb1ELb1ELb0EN4cute8TiledMMAINS5_8MMA_AtomIJNS5_10XE_DPAS_TTILi8EfNS_10bfloat16_tES9_fEEEEENS5_6LayoutINS5_5tupleIJNS5_1CILi16EEENSE_ILi1EEESG_EEENSD_IJSG_NSE_ILi0EEESI_EEEEEKNSD_IJNSC_INSD_IJNSE_ILi8EEESF_NSE_ILi2EEEEEENSD_IJSG_SF_SL_EEEEENSC_INSE_ILi32EEESG_EESR_EEEEESU_Li4ENS5_6TensorINS5_10ViewEngineINS5_8gmem_ptrIPS9_EEEENSC_INSD_IJiiiiEEENSD_IJiSG_iiEEEEEEES14_NSV_IS10_NSC_IS11_NSD_IJSG_iiiEEEEEEES14_S17_vvvvvEclINSD_IJjjEEEEEvRKNSV_IS10_NSC_INSD_IJiiEEENSD_IJiSG_EEEEEEES1G_RKNSV_IS10_NSC_IS1B_NSD_IJSG_iEEEEEEERNS5_14SubgroupTensorINS5_11ArrayEngineIfLm128EEENSC_INSD_IJSL_SM_SM_NSE_ILi4EEEEEENSD_IJSG_SL_SF_SQ_EEEEENSC_INSD_IJSF_NSD_IJSL_NSD_IJSM_SM_EEES1P_EEEEEENSD_IJNS5_11ScaledBasisISG_JLi1EEEENSD_IJNS1W_ISG_JLi0EEEENSD_IJNS1W_ISL_JLi0EEEENS1W_ISF_JLi1EEEEEEENS1W_ISQ_JLi1EEEEEEEEEEEEEERNSV_INS1N_IfLm1EEENSC_ISG_SI_EEEES2B_T_iiiiiiiiiS1G_S1L_ENKUlS2C_iRT0_RT1_RT2_RT3_RT4_RT5_E_clISt17integral_constantIbLb1EENS5_9TiledCopyINS5_9Copy_Atom..preheader146_crit_edge ]
  %.sroa.340.0 = phi <8 x float> [ zeroinitializer, %.preheader146.lr.ph ], [ %1111, %_ZZN7cutlass4fmha10collective15FMHAFwdMainloopINS0_9XeDefaultILi2EEELb1ELb1ELb0EN4cute8TiledMMAINS5_8MMA_AtomIJNS5_10XE_DPAS_TTILi8EfNS_10bfloat16_tES9_fEEEEENS5_6LayoutINS5_5tupleIJNS5_1CILi16EEENSE_ILi1EEESG_EEENSD_IJSG_NSE_ILi0EEESI_EEEEEKNSD_IJNSC_INSD_IJNSE_ILi8EEESF_NSE_ILi2EEEEEENSD_IJSG_SF_SL_EEEEENSC_INSE_ILi32EEESG_EESR_EEEEESU_Li4ENS5_6TensorINS5_10ViewEngineINS5_8gmem_ptrIPS9_EEEENSC_INSD_IJiiiiEEENSD_IJiSG_iiEEEEEEES14_NSV_IS10_NSC_IS11_NSD_IJSG_iiiEEEEEEES14_S17_vvvvvEclINSD_IJjjEEEEEvRKNSV_IS10_NSC_INSD_IJiiEEENSD_IJiSG_EEEEEEES1G_RKNSV_IS10_NSC_IS1B_NSD_IJSG_iEEEEEEERNS5_14SubgroupTensorINS5_11ArrayEngineIfLm128EEENSC_INSD_IJSL_SM_SM_NSE_ILi4EEEEEENSD_IJSG_SL_SF_SQ_EEEEENSC_INSD_IJSF_NSD_IJSL_NSD_IJSM_SM_EEES1P_EEEEEENSD_IJNS5_11ScaledBasisISG_JLi1EEEENSD_IJNS1W_ISG_JLi0EEEENSD_IJNS1W_ISL_JLi0EEEENS1W_ISF_JLi1EEEEEEENS1W_ISQ_JLi1EEEEEEEEEEEEEERNSV_INS1N_IfLm1EEENSC_ISG_SI_EEEES2B_T_iiiiiiiiiS1G_S1L_ENKUlS2C_iRT0_RT1_RT2_RT3_RT4_RT5_E_clISt17integral_constantIbLb1EENS5_9TiledCopyINS5_9Copy_Atom..preheader146_crit_edge ]
  %.sroa.292.0 = phi <8 x float> [ zeroinitializer, %.preheader146.lr.ph ], [ %1112, %_ZZN7cutlass4fmha10collective15FMHAFwdMainloopINS0_9XeDefaultILi2EEELb1ELb1ELb0EN4cute8TiledMMAINS5_8MMA_AtomIJNS5_10XE_DPAS_TTILi8EfNS_10bfloat16_tES9_fEEEEENS5_6LayoutINS5_5tupleIJNS5_1CILi16EEENSE_ILi1EEESG_EEENSD_IJSG_NSE_ILi0EEESI_EEEEEKNSD_IJNSC_INSD_IJNSE_ILi8EEESF_NSE_ILi2EEEEEENSD_IJSG_SF_SL_EEEEENSC_INSE_ILi32EEESG_EESR_EEEEESU_Li4ENS5_6TensorINS5_10ViewEngineINS5_8gmem_ptrIPS9_EEEENSC_INSD_IJiiiiEEENSD_IJiSG_iiEEEEEEES14_NSV_IS10_NSC_IS11_NSD_IJSG_iiiEEEEEEES14_S17_vvvvvEclINSD_IJjjEEEEEvRKNSV_IS10_NSC_INSD_IJiiEEENSD_IJiSG_EEEEEEES1G_RKNSV_IS10_NSC_IS1B_NSD_IJSG_iEEEEEEERNS5_14SubgroupTensorINS5_11ArrayEngineIfLm128EEENSC_INSD_IJSL_SM_SM_NSE_ILi4EEEEEENSD_IJSG_SL_SF_SQ_EEEEENSC_INSD_IJSF_NSD_IJSL_NSD_IJSM_SM_EEES1P_EEEEEENSD_IJNS5_11ScaledBasisISG_JLi1EEEENSD_IJNS1W_ISG_JLi0EEEENSD_IJNS1W_ISL_JLi0EEEENS1W_ISF_JLi1EEEEEEENS1W_ISQ_JLi1EEEEEEEEEEEEEERNSV_INS1N_IfLm1EEENSC_ISG_SI_EEEES2B_T_iiiiiiiiiS1G_S1L_ENKUlS2C_iRT0_RT1_RT2_RT3_RT4_RT5_E_clISt17integral_constantIbLb1EENS5_9TiledCopyINS5_9Copy_Atom..preheader146_crit_edge ]
  %.sroa.244.0 = phi <8 x float> [ zeroinitializer, %.preheader146.lr.ph ], [ %1110, %_ZZN7cutlass4fmha10collective15FMHAFwdMainloopINS0_9XeDefaultILi2EEELb1ELb1ELb0EN4cute8TiledMMAINS5_8MMA_AtomIJNS5_10XE_DPAS_TTILi8EfNS_10bfloat16_tES9_fEEEEENS5_6LayoutINS5_5tupleIJNS5_1CILi16EEENSE_ILi1EEESG_EEENSD_IJSG_NSE_ILi0EEESI_EEEEEKNSD_IJNSC_INSD_IJNSE_ILi8EEESF_NSE_ILi2EEEEEENSD_IJSG_SF_SL_EEEEENSC_INSE_ILi32EEESG_EESR_EEEEESU_Li4ENS5_6TensorINS5_10ViewEngineINS5_8gmem_ptrIPS9_EEEENSC_INSD_IJiiiiEEENSD_IJiSG_iiEEEEEEES14_NSV_IS10_NSC_IS11_NSD_IJSG_iiiEEEEEEES14_S17_vvvvvEclINSD_IJjjEEEEEvRKNSV_IS10_NSC_INSD_IJiiEEENSD_IJiSG_EEEEEEES1G_RKNSV_IS10_NSC_IS1B_NSD_IJSG_iEEEEEEERNS5_14SubgroupTensorINS5_11ArrayEngineIfLm128EEENSC_INSD_IJSL_SM_SM_NSE_ILi4EEEEEENSD_IJSG_SL_SF_SQ_EEEEENSC_INSD_IJSF_NSD_IJSL_NSD_IJSM_SM_EEES1P_EEEEEENSD_IJNS5_11ScaledBasisISG_JLi1EEEENSD_IJNS1W_ISG_JLi0EEEENSD_IJNS1W_ISL_JLi0EEEENS1W_ISF_JLi1EEEEEEENS1W_ISQ_JLi1EEEEEEEEEEEEEERNSV_INS1N_IfLm1EEENSC_ISG_SI_EEEES2B_T_iiiiiiiiiS1G_S1L_ENKUlS2C_iRT0_RT1_RT2_RT3_RT4_RT5_E_clISt17integral_constantIbLb1EENS5_9TiledCopyINS5_9Copy_Atom..preheader146_crit_edge ]
  %.sroa.196.0 = phi <8 x float> [ zeroinitializer, %.preheader146.lr.ph ], [ %1109, %_ZZN7cutlass4fmha10collective15FMHAFwdMainloopINS0_9XeDefaultILi2EEELb1ELb1ELb0EN4cute8TiledMMAINS5_8MMA_AtomIJNS5_10XE_DPAS_TTILi8EfNS_10bfloat16_tES9_fEEEEENS5_6LayoutINS5_5tupleIJNS5_1CILi16EEENSE_ILi1EEESG_EEENSD_IJSG_NSE_ILi0EEESI_EEEEEKNSD_IJNSC_INSD_IJNSE_ILi8EEESF_NSE_ILi2EEEEEENSD_IJSG_SF_SL_EEEEENSC_INSE_ILi32EEESG_EESR_EEEEESU_Li4ENS5_6TensorINS5_10ViewEngineINS5_8gmem_ptrIPS9_EEEENSC_INSD_IJiiiiEEENSD_IJiSG_iiEEEEEEES14_NSV_IS10_NSC_IS11_NSD_IJSG_iiiEEEEEEES14_S17_vvvvvEclINSD_IJjjEEEEEvRKNSV_IS10_NSC_INSD_IJiiEEENSD_IJiSG_EEEEEEES1G_RKNSV_IS10_NSC_IS1B_NSD_IJSG_iEEEEEEERNS5_14SubgroupTensorINS5_11ArrayEngineIfLm128EEENSC_INSD_IJSL_SM_SM_NSE_ILi4EEEEEENSD_IJSG_SL_SF_SQ_EEEEENSC_INSD_IJSF_NSD_IJSL_NSD_IJSM_SM_EEES1P_EEEEEENSD_IJNS5_11ScaledBasisISG_JLi1EEEENSD_IJNS1W_ISG_JLi0EEEENSD_IJNS1W_ISL_JLi0EEEENS1W_ISF_JLi1EEEEEEENS1W_ISQ_JLi1EEEEEEEEEEEEEERNSV_INS1N_IfLm1EEENSC_ISG_SI_EEEES2B_T_iiiiiiiiiS1G_S1L_ENKUlS2C_iRT0_RT1_RT2_RT3_RT4_RT5_E_clISt17integral_constantIbLb1EENS5_9TiledCopyINS5_9Copy_Atom..preheader146_crit_edge ]
  %.sroa.148.0 = phi <8 x float> [ zeroinitializer, %.preheader146.lr.ph ], [ %973, %_ZZN7cutlass4fmha10collective15FMHAFwdMainloopINS0_9XeDefaultILi2EEELb1ELb1ELb0EN4cute8TiledMMAINS5_8MMA_AtomIJNS5_10XE_DPAS_TTILi8EfNS_10bfloat16_tES9_fEEEEENS5_6LayoutINS5_5tupleIJNS5_1CILi16EEENSE_ILi1EEESG_EEENSD_IJSG_NSE_ILi0EEESI_EEEEEKNSD_IJNSC_INSD_IJNSE_ILi8EEESF_NSE_ILi2EEEEEENSD_IJSG_SF_SL_EEEEENSC_INSE_ILi32EEESG_EESR_EEEEESU_Li4ENS5_6TensorINS5_10ViewEngineINS5_8gmem_ptrIPS9_EEEENSC_INSD_IJiiiiEEENSD_IJiSG_iiEEEEEEES14_NSV_IS10_NSC_IS11_NSD_IJSG_iiiEEEEEEES14_S17_vvvvvEclINSD_IJjjEEEEEvRKNSV_IS10_NSC_INSD_IJiiEEENSD_IJiSG_EEEEEEES1G_RKNSV_IS10_NSC_IS1B_NSD_IJSG_iEEEEEEERNS5_14SubgroupTensorINS5_11ArrayEngineIfLm128EEENSC_INSD_IJSL_SM_SM_NSE_ILi4EEEEEENSD_IJSG_SL_SF_SQ_EEEEENSC_INSD_IJSF_NSD_IJSL_NSD_IJSM_SM_EEES1P_EEEEEENSD_IJNS5_11ScaledBasisISG_JLi1EEEENSD_IJNS1W_ISG_JLi0EEEENSD_IJNS1W_ISL_JLi0EEEENS1W_ISF_JLi1EEEEEEENS1W_ISQ_JLi1EEEEEEEEEEEEEERNSV_INS1N_IfLm1EEENSC_ISG_SI_EEEES2B_T_iiiiiiiiiS1G_S1L_ENKUlS2C_iRT0_RT1_RT2_RT3_RT4_RT5_E_clISt17integral_constantIbLb1EENS5_9TiledCopyINS5_9Copy_Atom..preheader146_crit_edge ]
  %.sroa.100.0 = phi <8 x float> [ zeroinitializer, %.preheader146.lr.ph ], [ %974, %_ZZN7cutlass4fmha10collective15FMHAFwdMainloopINS0_9XeDefaultILi2EEELb1ELb1ELb0EN4cute8TiledMMAINS5_8MMA_AtomIJNS5_10XE_DPAS_TTILi8EfNS_10bfloat16_tES9_fEEEEENS5_6LayoutINS5_5tupleIJNS5_1CILi16EEENSE_ILi1EEESG_EEENSD_IJSG_NSE_ILi0EEESI_EEEEEKNSD_IJNSC_INSD_IJNSE_ILi8EEESF_NSE_ILi2EEEEEENSD_IJSG_SF_SL_EEEEENSC_INSE_ILi32EEESG_EESR_EEEEESU_Li4ENS5_6TensorINS5_10ViewEngineINS5_8gmem_ptrIPS9_EEEENSC_INSD_IJiiiiEEENSD_IJiSG_iiEEEEEEES14_NSV_IS10_NSC_IS11_NSD_IJSG_iiiEEEEEEES14_S17_vvvvvEclINSD_IJjjEEEEEvRKNSV_IS10_NSC_INSD_IJiiEEENSD_IJiSG_EEEEEEES1G_RKNSV_IS10_NSC_IS1B_NSD_IJSG_iEEEEEEERNS5_14SubgroupTensorINS5_11ArrayEngineIfLm128EEENSC_INSD_IJSL_SM_SM_NSE_ILi4EEEEEENSD_IJSG_SL_SF_SQ_EEEEENSC_INSD_IJSF_NSD_IJSL_NSD_IJSM_SM_EEES1P_EEEEEENSD_IJNS5_11ScaledBasisISG_JLi1EEEENSD_IJNS1W_ISG_JLi0EEEENSD_IJNS1W_ISL_JLi0EEEENS1W_ISF_JLi1EEEEEEENS1W_ISQ_JLi1EEEEEEEEEEEEEERNSV_INS1N_IfLm1EEENSC_ISG_SI_EEEES2B_T_iiiiiiiiiS1G_S1L_ENKUlS2C_iRT0_RT1_RT2_RT3_RT4_RT5_E_clISt17integral_constantIbLb1EENS5_9TiledCopyINS5_9Copy_Atom..preheader146_crit_edge ]
  %.sroa.52.0 = phi <8 x float> [ zeroinitializer, %.preheader146.lr.ph ], [ %972, %_ZZN7cutlass4fmha10collective15FMHAFwdMainloopINS0_9XeDefaultILi2EEELb1ELb1ELb0EN4cute8TiledMMAINS5_8MMA_AtomIJNS5_10XE_DPAS_TTILi8EfNS_10bfloat16_tES9_fEEEEENS5_6LayoutINS5_5tupleIJNS5_1CILi16EEENSE_ILi1EEESG_EEENSD_IJSG_NSE_ILi0EEESI_EEEEEKNSD_IJNSC_INSD_IJNSE_ILi8EEESF_NSE_ILi2EEEEEENSD_IJSG_SF_SL_EEEEENSC_INSE_ILi32EEESG_EESR_EEEEESU_Li4ENS5_6TensorINS5_10ViewEngineINS5_8gmem_ptrIPS9_EEEENSC_INSD_IJiiiiEEENSD_IJiSG_iiEEEEEEES14_NSV_IS10_NSC_IS11_NSD_IJSG_iiiEEEEEEES14_S17_vvvvvEclINSD_IJjjEEEEEvRKNSV_IS10_NSC_INSD_IJiiEEENSD_IJiSG_EEEEEEES1G_RKNSV_IS10_NSC_IS1B_NSD_IJSG_iEEEEEEERNS5_14SubgroupTensorINS5_11ArrayEngineIfLm128EEENSC_INSD_IJSL_SM_SM_NSE_ILi4EEEEEENSD_IJSG_SL_SF_SQ_EEEEENSC_INSD_IJSF_NSD_IJSL_NSD_IJSM_SM_EEES1P_EEEEEENSD_IJNS5_11ScaledBasisISG_JLi1EEEENSD_IJNS1W_ISG_JLi0EEEENSD_IJNS1W_ISL_JLi0EEEENS1W_ISF_JLi1EEEEEEENS1W_ISQ_JLi1EEEEEEEEEEEEEERNSV_INS1N_IfLm1EEENSC_ISG_SI_EEEES2B_T_iiiiiiiiiS1G_S1L_ENKUlS2C_iRT0_RT1_RT2_RT3_RT4_RT5_E_clISt17integral_constantIbLb1EENS5_9TiledCopyINS5_9Copy_Atom..preheader146_crit_edge ]
  %.sroa.0.0 = phi <8 x float> [ zeroinitializer, %.preheader146.lr.ph ], [ %971, %_ZZN7cutlass4fmha10collective15FMHAFwdMainloopINS0_9XeDefaultILi2EEELb1ELb1ELb0EN4cute8TiledMMAINS5_8MMA_AtomIJNS5_10XE_DPAS_TTILi8EfNS_10bfloat16_tES9_fEEEEENS5_6LayoutINS5_5tupleIJNS5_1CILi16EEENSE_ILi1EEESG_EEENSD_IJSG_NSE_ILi0EEESI_EEEEEKNSD_IJNSC_INSD_IJNSE_ILi8EEESF_NSE_ILi2EEEEEENSD_IJSG_SF_SL_EEEEENSC_INSE_ILi32EEESG_EESR_EEEEESU_Li4ENS5_6TensorINS5_10ViewEngineINS5_8gmem_ptrIPS9_EEEENSC_INSD_IJiiiiEEENSD_IJiSG_iiEEEEEEES14_NSV_IS10_NSC_IS11_NSD_IJSG_iiiEEEEEEES14_S17_vvvvvEclINSD_IJjjEEEEEvRKNSV_IS10_NSC_INSD_IJiiEEENSD_IJiSG_EEEEEEES1G_RKNSV_IS10_NSC_IS1B_NSD_IJSG_iEEEEEEERNS5_14SubgroupTensorINS5_11ArrayEngineIfLm128EEENSC_INSD_IJSL_SM_SM_NSE_ILi4EEEEEENSD_IJSG_SL_SF_SQ_EEEEENSC_INSD_IJSF_NSD_IJSL_NSD_IJSM_SM_EEES1P_EEEEEENSD_IJNS5_11ScaledBasisISG_JLi1EEEENSD_IJNS1W_ISG_JLi0EEEENSD_IJNS1W_ISL_JLi0EEEENS1W_ISF_JLi1EEEEEEENS1W_ISQ_JLi1EEEEEEEEEEEEEERNSV_INS1N_IfLm1EEENSC_ISG_SI_EEEES2B_T_iiiiiiiiiS1G_S1L_ENKUlS2C_iRT0_RT1_RT2_RT3_RT4_RT5_E_clISt17integral_constantIbLb1EENS5_9TiledCopyINS5_9Copy_Atom..preheader146_crit_edge ]
  %149 = phi i32 [ 0, %.preheader146.lr.ph ], [ %1406, %_ZZN7cutlass4fmha10collective15FMHAFwdMainloopINS0_9XeDefaultILi2EEELb1ELb1ELb0EN4cute8TiledMMAINS5_8MMA_AtomIJNS5_10XE_DPAS_TTILi8EfNS_10bfloat16_tES9_fEEEEENS5_6LayoutINS5_5tupleIJNS5_1CILi16EEENSE_ILi1EEESG_EEENSD_IJSG_NSE_ILi0EEESI_EEEEEKNSD_IJNSC_INSD_IJNSE_ILi8EEESF_NSE_ILi2EEEEEENSD_IJSG_SF_SL_EEEEENSC_INSE_ILi32EEESG_EESR_EEEEESU_Li4ENS5_6TensorINS5_10ViewEngineINS5_8gmem_ptrIPS9_EEEENSC_INSD_IJiiiiEEENSD_IJiSG_iiEEEEEEES14_NSV_IS10_NSC_IS11_NSD_IJSG_iiiEEEEEEES14_S17_vvvvvEclINSD_IJjjEEEEEvRKNSV_IS10_NSC_INSD_IJiiEEENSD_IJiSG_EEEEEEES1G_RKNSV_IS10_NSC_IS1B_NSD_IJSG_iEEEEEEERNS5_14SubgroupTensorINS5_11ArrayEngineIfLm128EEENSC_INSD_IJSL_SM_SM_NSE_ILi4EEEEEENSD_IJSG_SL_SF_SQ_EEEEENSC_INSD_IJSF_NSD_IJSL_NSD_IJSM_SM_EEES1P_EEEEEENSD_IJNS5_11ScaledBasisISG_JLi1EEEENSD_IJNS1W_ISG_JLi0EEEENSD_IJNS1W_ISL_JLi0EEEENS1W_ISF_JLi1EEEEEEENS1W_ISQ_JLi1EEEEEEEEEEEEEERNSV_INS1N_IfLm1EEENSC_ISG_SI_EEEES2B_T_iiiiiiiiiS1G_S1L_ENKUlS2C_iRT0_RT1_RT2_RT3_RT4_RT5_E_clISt17integral_constantIbLb1EENS5_9TiledCopyINS5_9Copy_Atom..preheader146_crit_edge ]
  %.sroa.0209.1165 = phi float [ 0xC7EFFFFFE0000000, %.preheader146.lr.ph ], [ %462, %_ZZN7cutlass4fmha10collective15FMHAFwdMainloopINS0_9XeDefaultILi2EEELb1ELb1ELb0EN4cute8TiledMMAINS5_8MMA_AtomIJNS5_10XE_DPAS_TTILi8EfNS_10bfloat16_tES9_fEEEEENS5_6LayoutINS5_5tupleIJNS5_1CILi16EEENSE_ILi1EEESG_EEENSD_IJSG_NSE_ILi0EEESI_EEEEEKNSD_IJNSC_INSD_IJNSE_ILi8EEESF_NSE_ILi2EEEEEENSD_IJSG_SF_SL_EEEEENSC_INSE_ILi32EEESG_EESR_EEEEESU_Li4ENS5_6TensorINS5_10ViewEngineINS5_8gmem_ptrIPS9_EEEENSC_INSD_IJiiiiEEENSD_IJiSG_iiEEEEEEES14_NSV_IS10_NSC_IS11_NSD_IJSG_iiiEEEEEEES14_S17_vvvvvEclINSD_IJjjEEEEEvRKNSV_IS10_NSC_INSD_IJiiEEENSD_IJiSG_EEEEEEES1G_RKNSV_IS10_NSC_IS1B_NSD_IJSG_iEEEEEEERNS5_14SubgroupTensorINS5_11ArrayEngineIfLm128EEENSC_INSD_IJSL_SM_SM_NSE_ILi4EEEEEENSD_IJSG_SL_SF_SQ_EEEEENSC_INSD_IJSF_NSD_IJSL_NSD_IJSM_SM_EEES1P_EEEEEENSD_IJNS5_11ScaledBasisISG_JLi1EEEENSD_IJNS1W_ISG_JLi0EEEENSD_IJNS1W_ISL_JLi0EEEENS1W_ISF_JLi1EEEEEEENS1W_ISQ_JLi1EEEEEEEEEEEEEERNSV_INS1N_IfLm1EEENSC_ISG_SI_EEEES2B_T_iiiiiiiiiS1G_S1L_ENKUlS2C_iRT0_RT1_RT2_RT3_RT4_RT5_E_clISt17integral_constantIbLb1EENS5_9TiledCopyINS5_9Copy_Atom..preheader146_crit_edge ]
  %.sroa.0200.1164 = phi float [ 0.000000e+00, %.preheader146.lr.ph ], [ %1389, %_ZZN7cutlass4fmha10collective15FMHAFwdMainloopINS0_9XeDefaultILi2EEELb1ELb1ELb0EN4cute8TiledMMAINS5_8MMA_AtomIJNS5_10XE_DPAS_TTILi8EfNS_10bfloat16_tES9_fEEEEENS5_6LayoutINS5_5tupleIJNS5_1CILi16EEENSE_ILi1EEESG_EEENSD_IJSG_NSE_ILi0EEESI_EEEEEKNSD_IJNSC_INSD_IJNSE_ILi8EEESF_NSE_ILi2EEEEEENSD_IJSG_SF_SL_EEEEENSC_INSE_ILi32EEESG_EESR_EEEEESU_Li4ENS5_6TensorINS5_10ViewEngineINS5_8gmem_ptrIPS9_EEEENSC_INSD_IJiiiiEEENSD_IJiSG_iiEEEEEEES14_NSV_IS10_NSC_IS11_NSD_IJSG_iiiEEEEEEES14_S17_vvvvvEclINSD_IJjjEEEEEvRKNSV_IS10_NSC_INSD_IJiiEEENSD_IJiSG_EEEEEEES1G_RKNSV_IS10_NSC_IS1B_NSD_IJSG_iEEEEEEERNS5_14SubgroupTensorINS5_11ArrayEngineIfLm128EEENSC_INSD_IJSL_SM_SM_NSE_ILi4EEEEEENSD_IJSG_SL_SF_SQ_EEEEENSC_INSD_IJSF_NSD_IJSL_NSD_IJSM_SM_EEES1P_EEEEEENSD_IJNS5_11ScaledBasisISG_JLi1EEEENSD_IJNS1W_ISG_JLi0EEEENSD_IJNS1W_ISL_JLi0EEEENS1W_ISF_JLi1EEEEEEENS1W_ISQ_JLi1EEEEEEEEEEEEEERNSV_INS1N_IfLm1EEENSC_ISG_SI_EEEES2B_T_iiiiiiiiiS1G_S1L_ENKUlS2C_iRT0_RT1_RT2_RT3_RT4_RT5_E_clISt17integral_constantIbLb1EENS5_9TiledCopyINS5_9Copy_Atom..preheader146_crit_edge ]
  %150 = shl nsw i32 %149, 5, !spirv.Decorations !1210		; visa id: 586
  br i1 %121, label %.lr.ph160, label %.preheader146.._crit_edge161_crit_edge, !stats.blockFrequency.digits !1221, !stats.blockFrequency.scale !1204		; visa id: 587

.preheader146.._crit_edge161_crit_edge:           ; preds = %.preheader146
; BB40 :
  br label %._crit_edge161, !stats.blockFrequency.digits !1227, !stats.blockFrequency.scale !1212		; visa id: 621

.lr.ph160:                                        ; preds = %.preheader146
; BB41 :
  br i1 %144, label %.lr.ph160..epil.preheader182_crit_edge, label %.lr.ph160.new, !stats.blockFrequency.digits !1228, !stats.blockFrequency.scale !1212		; visa id: 623

.lr.ph160..epil.preheader182_crit_edge:           ; preds = %.lr.ph160
; BB42 :
  br label %.epil.preheader182, !stats.blockFrequency.digits !1229, !stats.blockFrequency.scale !1224		; visa id: 658

.lr.ph160.new:                                    ; preds = %.lr.ph160
; BB43 :
  %151 = add i32 %150, 16		; visa id: 660
  br label %.preheader144, !stats.blockFrequency.digits !1229, !stats.blockFrequency.scale !1224		; visa id: 695

.preheader144:                                    ; preds = %.preheader144..preheader144_crit_edge, %.lr.ph160.new
; BB44 :
  %.sroa.435.5 = phi <8 x float> [ zeroinitializer, %.lr.ph160.new ], [ %311, %.preheader144..preheader144_crit_edge ]
  %.sroa.291.5 = phi <8 x float> [ zeroinitializer, %.lr.ph160.new ], [ %312, %.preheader144..preheader144_crit_edge ]
  %.sroa.147.5 = phi <8 x float> [ zeroinitializer, %.lr.ph160.new ], [ %310, %.preheader144..preheader144_crit_edge ]
  %.sroa.03146.5 = phi <8 x float> [ zeroinitializer, %.lr.ph160.new ], [ %309, %.preheader144..preheader144_crit_edge ]
  %152 = phi i32 [ 0, %.lr.ph160.new ], [ %313, %.preheader144..preheader144_crit_edge ]
  %niter188 = phi i32 [ 0, %.lr.ph160.new ], [ %niter188.next.1, %.preheader144..preheader144_crit_edge ]
  %153 = shl i32 %152, 5, !spirv.Decorations !1210		; visa id: 696
  call void @llvm.genx.GenISA.LSC2DBlockSetAddrPayloadField.p4i8.i32(i8 addrspace(4)* %Block2D_AddrPayload, i32 5, i32 %153, i1 false)		; visa id: 697
  call void @llvm.genx.GenISA.LSC2DBlockSetAddrPayloadField.p4i8.i32(i8 addrspace(4)* %Block2D_AddrPayload, i32 6, i32 %115, i1 false)		; visa id: 698
  %154 = call <32 x i16> asm "lsc_load_block2d.ugm (M1, 1)  $0:d$2.$3x$4x$5nn flat[$1+(0,0)]", "=rw,rw.u,P,P,P,P"(i8 addrspace(4)* %Block2D_AddrPayload, i32 16, i32 2, i32 16, i32 16) #0		; visa id: 699
  %155 = lshr exact i32 %153, 1		; visa id: 699
  call void @llvm.genx.GenISA.LSC2DBlockSetAddrPayloadField.p4i8.i32(i8 addrspace(4)* %Block2D_AddrPayload114, i32 5, i32 %155, i1 false)		; visa id: 700
  call void @llvm.genx.GenISA.LSC2DBlockSetAddrPayloadField.p4i8.i32(i8 addrspace(4)* %Block2D_AddrPayload114, i32 6, i32 %150, i1 false)		; visa id: 701
  %156 = call <16 x i16> asm "lsc_load_block2d.ugm (M1, 1)  $0:d$2.$3x$4tn flat[$1+(0,0)]", "=rw,rw.u,P,P,P"(i8 addrspace(4)* %Block2D_AddrPayload114, i32 32, i32 8, i32 16) #0		; visa id: 702
  call void @llvm.genx.GenISA.LSC2DBlockSetAddrPayloadField.p4i8.i32(i8 addrspace(4)* %Block2D_AddrPayload114, i32 5, i32 %155, i1 false)		; visa id: 702
  call void @llvm.genx.GenISA.LSC2DBlockSetAddrPayloadField.p4i8.i32(i8 addrspace(4)* %Block2D_AddrPayload114, i32 6, i32 %151, i1 false)		; visa id: 703
  %157 = call <16 x i16> asm "lsc_load_block2d.ugm (M1, 1)  $0:d$2.$3x$4tn flat[$1+(0,0)]", "=rw,rw.u,P,P,P"(i8 addrspace(4)* %Block2D_AddrPayload114, i32 32, i32 8, i32 16) #0		; visa id: 704
  %158 = or i32 %155, 8		; visa id: 704
  call void @llvm.genx.GenISA.LSC2DBlockSetAddrPayloadField.p4i8.i32(i8 addrspace(4)* %Block2D_AddrPayload114, i32 5, i32 %158, i1 false)		; visa id: 705
  call void @llvm.genx.GenISA.LSC2DBlockSetAddrPayloadField.p4i8.i32(i8 addrspace(4)* %Block2D_AddrPayload114, i32 6, i32 %150, i1 false)		; visa id: 706
  %159 = call <16 x i16> asm "lsc_load_block2d.ugm (M1, 1)  $0:d$2.$3x$4tn flat[$1+(0,0)]", "=rw,rw.u,P,P,P"(i8 addrspace(4)* %Block2D_AddrPayload114, i32 32, i32 8, i32 16) #0		; visa id: 707
  call void @llvm.genx.GenISA.LSC2DBlockSetAddrPayloadField.p4i8.i32(i8 addrspace(4)* %Block2D_AddrPayload114, i32 5, i32 %158, i1 false)		; visa id: 707
  call void @llvm.genx.GenISA.LSC2DBlockSetAddrPayloadField.p4i8.i32(i8 addrspace(4)* %Block2D_AddrPayload114, i32 6, i32 %151, i1 false)		; visa id: 708
  %160 = call <16 x i16> asm "lsc_load_block2d.ugm (M1, 1)  $0:d$2.$3x$4tn flat[$1+(0,0)]", "=rw,rw.u,P,P,P"(i8 addrspace(4)* %Block2D_AddrPayload114, i32 32, i32 8, i32 16) #0		; visa id: 709
  %161 = extractelement <32 x i16> %154, i32 0		; visa id: 709
  %162 = insertelement <8 x i16> undef, i16 %161, i32 0		; visa id: 709
  %163 = extractelement <32 x i16> %154, i32 1		; visa id: 709
  %164 = insertelement <8 x i16> %162, i16 %163, i32 1		; visa id: 709
  %165 = extractelement <32 x i16> %154, i32 2		; visa id: 709
  %166 = insertelement <8 x i16> %164, i16 %165, i32 2		; visa id: 709
  %167 = extractelement <32 x i16> %154, i32 3		; visa id: 709
  %168 = insertelement <8 x i16> %166, i16 %167, i32 3		; visa id: 709
  %169 = extractelement <32 x i16> %154, i32 4		; visa id: 709
  %170 = insertelement <8 x i16> %168, i16 %169, i32 4		; visa id: 709
  %171 = extractelement <32 x i16> %154, i32 5		; visa id: 709
  %172 = insertelement <8 x i16> %170, i16 %171, i32 5		; visa id: 709
  %173 = extractelement <32 x i16> %154, i32 6		; visa id: 709
  %174 = insertelement <8 x i16> %172, i16 %173, i32 6		; visa id: 709
  %175 = extractelement <32 x i16> %154, i32 7		; visa id: 709
  %176 = insertelement <8 x i16> %174, i16 %175, i32 7		; visa id: 709
  %177 = extractelement <32 x i16> %154, i32 8		; visa id: 709
  %178 = insertelement <8 x i16> undef, i16 %177, i32 0		; visa id: 709
  %179 = extractelement <32 x i16> %154, i32 9		; visa id: 709
  %180 = insertelement <8 x i16> %178, i16 %179, i32 1		; visa id: 709
  %181 = extractelement <32 x i16> %154, i32 10		; visa id: 709
  %182 = insertelement <8 x i16> %180, i16 %181, i32 2		; visa id: 709
  %183 = extractelement <32 x i16> %154, i32 11		; visa id: 709
  %184 = insertelement <8 x i16> %182, i16 %183, i32 3		; visa id: 709
  %185 = extractelement <32 x i16> %154, i32 12		; visa id: 709
  %186 = insertelement <8 x i16> %184, i16 %185, i32 4		; visa id: 709
  %187 = extractelement <32 x i16> %154, i32 13		; visa id: 709
  %188 = insertelement <8 x i16> %186, i16 %187, i32 5		; visa id: 709
  %189 = extractelement <32 x i16> %154, i32 14		; visa id: 709
  %190 = insertelement <8 x i16> %188, i16 %189, i32 6		; visa id: 709
  %191 = extractelement <32 x i16> %154, i32 15		; visa id: 709
  %192 = insertelement <8 x i16> %190, i16 %191, i32 7		; visa id: 709
  %193 = extractelement <32 x i16> %154, i32 16		; visa id: 709
  %194 = insertelement <8 x i16> undef, i16 %193, i32 0		; visa id: 709
  %195 = extractelement <32 x i16> %154, i32 17		; visa id: 709
  %196 = insertelement <8 x i16> %194, i16 %195, i32 1		; visa id: 709
  %197 = extractelement <32 x i16> %154, i32 18		; visa id: 709
  %198 = insertelement <8 x i16> %196, i16 %197, i32 2		; visa id: 709
  %199 = extractelement <32 x i16> %154, i32 19		; visa id: 709
  %200 = insertelement <8 x i16> %198, i16 %199, i32 3		; visa id: 709
  %201 = extractelement <32 x i16> %154, i32 20		; visa id: 709
  %202 = insertelement <8 x i16> %200, i16 %201, i32 4		; visa id: 709
  %203 = extractelement <32 x i16> %154, i32 21		; visa id: 709
  %204 = insertelement <8 x i16> %202, i16 %203, i32 5		; visa id: 709
  %205 = extractelement <32 x i16> %154, i32 22		; visa id: 709
  %206 = insertelement <8 x i16> %204, i16 %205, i32 6		; visa id: 709
  %207 = extractelement <32 x i16> %154, i32 23		; visa id: 709
  %208 = insertelement <8 x i16> %206, i16 %207, i32 7		; visa id: 709
  %209 = extractelement <32 x i16> %154, i32 24		; visa id: 709
  %210 = insertelement <8 x i16> undef, i16 %209, i32 0		; visa id: 709
  %211 = extractelement <32 x i16> %154, i32 25		; visa id: 709
  %212 = insertelement <8 x i16> %210, i16 %211, i32 1		; visa id: 709
  %213 = extractelement <32 x i16> %154, i32 26		; visa id: 709
  %214 = insertelement <8 x i16> %212, i16 %213, i32 2		; visa id: 709
  %215 = extractelement <32 x i16> %154, i32 27		; visa id: 709
  %216 = insertelement <8 x i16> %214, i16 %215, i32 3		; visa id: 709
  %217 = extractelement <32 x i16> %154, i32 28		; visa id: 709
  %218 = insertelement <8 x i16> %216, i16 %217, i32 4		; visa id: 709
  %219 = extractelement <32 x i16> %154, i32 29		; visa id: 709
  %220 = insertelement <8 x i16> %218, i16 %219, i32 5		; visa id: 709
  %221 = extractelement <32 x i16> %154, i32 30		; visa id: 709
  %222 = insertelement <8 x i16> %220, i16 %221, i32 6		; visa id: 709
  %223 = extractelement <32 x i16> %154, i32 31		; visa id: 709
  %224 = insertelement <8 x i16> %222, i16 %223, i32 7		; visa id: 709
  %225 = call <8 x float> asm "{\0A.decl DST     v_type=G type=f num_elts=$5 alias=<$0,0>\0A.decl SRC1_UD v_type=G type=UD num_elts=128 alias=<$2,0>\0A.decl SRC2_UD v_type=G type=UD num_elts=$4 alias=<$1,0>\0Adpas.bf.bf.8.$3 (M1, 16) DST.0 DST.0 SRC1_UD.0 SRC2_UD(0,0)\0A}\0A", "=rw,rw,rw,P,P,P,0"(<8 x i16> %176, <16 x i16> %156, i32 8, i32 64, i32 128, <8 x float> %.sroa.03146.5) #0		; visa id: 709
  %226 = call <8 x float> asm "{\0A.decl DST     v_type=G type=f num_elts=$5 alias=<$0,0>\0A.decl SRC1_UD v_type=G type=UD num_elts=128 alias=<$2,0>\0A.decl SRC2_UD v_type=G type=UD num_elts=$4 alias=<$1,0>\0Adpas.bf.bf.8.$3 (M1, 16) DST.0 DST.0 SRC1_UD.0 SRC2_UD(0,0)\0A}\0A", "=rw,rw,rw,P,P,P,0"(<8 x i16> %192, <16 x i16> %156, i32 8, i32 64, i32 128, <8 x float> %.sroa.147.5) #0		; visa id: 709
  %227 = call <8 x float> asm "{\0A.decl DST     v_type=G type=f num_elts=$5 alias=<$0,0>\0A.decl SRC1_UD v_type=G type=UD num_elts=128 alias=<$2,0>\0A.decl SRC2_UD v_type=G type=UD num_elts=$4 alias=<$1,0>\0Adpas.bf.bf.8.$3 (M1, 16) DST.0 DST.0 SRC1_UD.0 SRC2_UD(0,0)\0A}\0A", "=rw,rw,rw,P,P,P,0"(<8 x i16> %192, <16 x i16> %157, i32 8, i32 64, i32 128, <8 x float> %.sroa.435.5) #0		; visa id: 709
  %228 = call <8 x float> asm "{\0A.decl DST     v_type=G type=f num_elts=$5 alias=<$0,0>\0A.decl SRC1_UD v_type=G type=UD num_elts=128 alias=<$2,0>\0A.decl SRC2_UD v_type=G type=UD num_elts=$4 alias=<$1,0>\0Adpas.bf.bf.8.$3 (M1, 16) DST.0 DST.0 SRC1_UD.0 SRC2_UD(0,0)\0A}\0A", "=rw,rw,rw,P,P,P,0"(<8 x i16> %176, <16 x i16> %157, i32 8, i32 64, i32 128, <8 x float> %.sroa.291.5) #0		; visa id: 709
  %229 = call <8 x float> asm "{\0A.decl DST     v_type=G type=f num_elts=$5 alias=<$0,0>\0A.decl SRC1_UD v_type=G type=UD num_elts=128 alias=<$2,0>\0A.decl SRC2_UD v_type=G type=UD num_elts=$4 alias=<$1,0>\0Adpas.bf.bf.8.$3 (M1, 16) DST.0 DST.0 SRC1_UD.0 SRC2_UD(0,0)\0A}\0A", "=rw,rw,rw,P,P,P,0"(<8 x i16> %208, <16 x i16> %159, i32 8, i32 64, i32 128, <8 x float> %225) #0		; visa id: 709
  %230 = call <8 x float> asm "{\0A.decl DST     v_type=G type=f num_elts=$5 alias=<$0,0>\0A.decl SRC1_UD v_type=G type=UD num_elts=128 alias=<$2,0>\0A.decl SRC2_UD v_type=G type=UD num_elts=$4 alias=<$1,0>\0Adpas.bf.bf.8.$3 (M1, 16) DST.0 DST.0 SRC1_UD.0 SRC2_UD(0,0)\0A}\0A", "=rw,rw,rw,P,P,P,0"(<8 x i16> %224, <16 x i16> %159, i32 8, i32 64, i32 128, <8 x float> %226) #0		; visa id: 709
  %231 = call <8 x float> asm "{\0A.decl DST     v_type=G type=f num_elts=$5 alias=<$0,0>\0A.decl SRC1_UD v_type=G type=UD num_elts=128 alias=<$2,0>\0A.decl SRC2_UD v_type=G type=UD num_elts=$4 alias=<$1,0>\0Adpas.bf.bf.8.$3 (M1, 16) DST.0 DST.0 SRC1_UD.0 SRC2_UD(0,0)\0A}\0A", "=rw,rw,rw,P,P,P,0"(<8 x i16> %224, <16 x i16> %160, i32 8, i32 64, i32 128, <8 x float> %227) #0		; visa id: 709
  %232 = call <8 x float> asm "{\0A.decl DST     v_type=G type=f num_elts=$5 alias=<$0,0>\0A.decl SRC1_UD v_type=G type=UD num_elts=128 alias=<$2,0>\0A.decl SRC2_UD v_type=G type=UD num_elts=$4 alias=<$1,0>\0Adpas.bf.bf.8.$3 (M1, 16) DST.0 DST.0 SRC1_UD.0 SRC2_UD(0,0)\0A}\0A", "=rw,rw,rw,P,P,P,0"(<8 x i16> %208, <16 x i16> %160, i32 8, i32 64, i32 128, <8 x float> %228) #0		; visa id: 709
  %233 = or i32 %153, 32		; visa id: 709
  call void @llvm.genx.GenISA.LSC2DBlockSetAddrPayloadField.p4i8.i32(i8 addrspace(4)* %Block2D_AddrPayload, i32 5, i32 %233, i1 false)		; visa id: 710
  call void @llvm.genx.GenISA.LSC2DBlockSetAddrPayloadField.p4i8.i32(i8 addrspace(4)* %Block2D_AddrPayload, i32 6, i32 %115, i1 false)		; visa id: 711
  %234 = call <32 x i16> asm "lsc_load_block2d.ugm (M1, 1)  $0:d$2.$3x$4x$5nn flat[$1+(0,0)]", "=rw,rw.u,P,P,P,P"(i8 addrspace(4)* %Block2D_AddrPayload, i32 16, i32 2, i32 16, i32 16) #0		; visa id: 712
  %235 = lshr exact i32 %233, 1		; visa id: 712
  call void @llvm.genx.GenISA.LSC2DBlockSetAddrPayloadField.p4i8.i32(i8 addrspace(4)* %Block2D_AddrPayload114, i32 5, i32 %235, i1 false)		; visa id: 713
  call void @llvm.genx.GenISA.LSC2DBlockSetAddrPayloadField.p4i8.i32(i8 addrspace(4)* %Block2D_AddrPayload114, i32 6, i32 %150, i1 false)		; visa id: 714
  %236 = call <16 x i16> asm "lsc_load_block2d.ugm (M1, 1)  $0:d$2.$3x$4tn flat[$1+(0,0)]", "=rw,rw.u,P,P,P"(i8 addrspace(4)* %Block2D_AddrPayload114, i32 32, i32 8, i32 16) #0		; visa id: 715
  call void @llvm.genx.GenISA.LSC2DBlockSetAddrPayloadField.p4i8.i32(i8 addrspace(4)* %Block2D_AddrPayload114, i32 5, i32 %235, i1 false)		; visa id: 715
  call void @llvm.genx.GenISA.LSC2DBlockSetAddrPayloadField.p4i8.i32(i8 addrspace(4)* %Block2D_AddrPayload114, i32 6, i32 %151, i1 false)		; visa id: 716
  %237 = call <16 x i16> asm "lsc_load_block2d.ugm (M1, 1)  $0:d$2.$3x$4tn flat[$1+(0,0)]", "=rw,rw.u,P,P,P"(i8 addrspace(4)* %Block2D_AddrPayload114, i32 32, i32 8, i32 16) #0		; visa id: 717
  %238 = or i32 %235, 8		; visa id: 717
  call void @llvm.genx.GenISA.LSC2DBlockSetAddrPayloadField.p4i8.i32(i8 addrspace(4)* %Block2D_AddrPayload114, i32 5, i32 %238, i1 false)		; visa id: 718
  call void @llvm.genx.GenISA.LSC2DBlockSetAddrPayloadField.p4i8.i32(i8 addrspace(4)* %Block2D_AddrPayload114, i32 6, i32 %150, i1 false)		; visa id: 719
  %239 = call <16 x i16> asm "lsc_load_block2d.ugm (M1, 1)  $0:d$2.$3x$4tn flat[$1+(0,0)]", "=rw,rw.u,P,P,P"(i8 addrspace(4)* %Block2D_AddrPayload114, i32 32, i32 8, i32 16) #0		; visa id: 720
  call void @llvm.genx.GenISA.LSC2DBlockSetAddrPayloadField.p4i8.i32(i8 addrspace(4)* %Block2D_AddrPayload114, i32 5, i32 %238, i1 false)		; visa id: 720
  call void @llvm.genx.GenISA.LSC2DBlockSetAddrPayloadField.p4i8.i32(i8 addrspace(4)* %Block2D_AddrPayload114, i32 6, i32 %151, i1 false)		; visa id: 721
  %240 = call <16 x i16> asm "lsc_load_block2d.ugm (M1, 1)  $0:d$2.$3x$4tn flat[$1+(0,0)]", "=rw,rw.u,P,P,P"(i8 addrspace(4)* %Block2D_AddrPayload114, i32 32, i32 8, i32 16) #0		; visa id: 722
  %241 = extractelement <32 x i16> %234, i32 0		; visa id: 722
  %242 = insertelement <8 x i16> undef, i16 %241, i32 0		; visa id: 722
  %243 = extractelement <32 x i16> %234, i32 1		; visa id: 722
  %244 = insertelement <8 x i16> %242, i16 %243, i32 1		; visa id: 722
  %245 = extractelement <32 x i16> %234, i32 2		; visa id: 722
  %246 = insertelement <8 x i16> %244, i16 %245, i32 2		; visa id: 722
  %247 = extractelement <32 x i16> %234, i32 3		; visa id: 722
  %248 = insertelement <8 x i16> %246, i16 %247, i32 3		; visa id: 722
  %249 = extractelement <32 x i16> %234, i32 4		; visa id: 722
  %250 = insertelement <8 x i16> %248, i16 %249, i32 4		; visa id: 722
  %251 = extractelement <32 x i16> %234, i32 5		; visa id: 722
  %252 = insertelement <8 x i16> %250, i16 %251, i32 5		; visa id: 722
  %253 = extractelement <32 x i16> %234, i32 6		; visa id: 722
  %254 = insertelement <8 x i16> %252, i16 %253, i32 6		; visa id: 722
  %255 = extractelement <32 x i16> %234, i32 7		; visa id: 722
  %256 = insertelement <8 x i16> %254, i16 %255, i32 7		; visa id: 722
  %257 = extractelement <32 x i16> %234, i32 8		; visa id: 722
  %258 = insertelement <8 x i16> undef, i16 %257, i32 0		; visa id: 722
  %259 = extractelement <32 x i16> %234, i32 9		; visa id: 722
  %260 = insertelement <8 x i16> %258, i16 %259, i32 1		; visa id: 722
  %261 = extractelement <32 x i16> %234, i32 10		; visa id: 722
  %262 = insertelement <8 x i16> %260, i16 %261, i32 2		; visa id: 722
  %263 = extractelement <32 x i16> %234, i32 11		; visa id: 722
  %264 = insertelement <8 x i16> %262, i16 %263, i32 3		; visa id: 722
  %265 = extractelement <32 x i16> %234, i32 12		; visa id: 722
  %266 = insertelement <8 x i16> %264, i16 %265, i32 4		; visa id: 722
  %267 = extractelement <32 x i16> %234, i32 13		; visa id: 722
  %268 = insertelement <8 x i16> %266, i16 %267, i32 5		; visa id: 722
  %269 = extractelement <32 x i16> %234, i32 14		; visa id: 722
  %270 = insertelement <8 x i16> %268, i16 %269, i32 6		; visa id: 722
  %271 = extractelement <32 x i16> %234, i32 15		; visa id: 722
  %272 = insertelement <8 x i16> %270, i16 %271, i32 7		; visa id: 722
  %273 = extractelement <32 x i16> %234, i32 16		; visa id: 722
  %274 = insertelement <8 x i16> undef, i16 %273, i32 0		; visa id: 722
  %275 = extractelement <32 x i16> %234, i32 17		; visa id: 722
  %276 = insertelement <8 x i16> %274, i16 %275, i32 1		; visa id: 722
  %277 = extractelement <32 x i16> %234, i32 18		; visa id: 722
  %278 = insertelement <8 x i16> %276, i16 %277, i32 2		; visa id: 722
  %279 = extractelement <32 x i16> %234, i32 19		; visa id: 722
  %280 = insertelement <8 x i16> %278, i16 %279, i32 3		; visa id: 722
  %281 = extractelement <32 x i16> %234, i32 20		; visa id: 722
  %282 = insertelement <8 x i16> %280, i16 %281, i32 4		; visa id: 722
  %283 = extractelement <32 x i16> %234, i32 21		; visa id: 722
  %284 = insertelement <8 x i16> %282, i16 %283, i32 5		; visa id: 722
  %285 = extractelement <32 x i16> %234, i32 22		; visa id: 722
  %286 = insertelement <8 x i16> %284, i16 %285, i32 6		; visa id: 722
  %287 = extractelement <32 x i16> %234, i32 23		; visa id: 722
  %288 = insertelement <8 x i16> %286, i16 %287, i32 7		; visa id: 722
  %289 = extractelement <32 x i16> %234, i32 24		; visa id: 722
  %290 = insertelement <8 x i16> undef, i16 %289, i32 0		; visa id: 722
  %291 = extractelement <32 x i16> %234, i32 25		; visa id: 722
  %292 = insertelement <8 x i16> %290, i16 %291, i32 1		; visa id: 722
  %293 = extractelement <32 x i16> %234, i32 26		; visa id: 722
  %294 = insertelement <8 x i16> %292, i16 %293, i32 2		; visa id: 722
  %295 = extractelement <32 x i16> %234, i32 27		; visa id: 722
  %296 = insertelement <8 x i16> %294, i16 %295, i32 3		; visa id: 722
  %297 = extractelement <32 x i16> %234, i32 28		; visa id: 722
  %298 = insertelement <8 x i16> %296, i16 %297, i32 4		; visa id: 722
  %299 = extractelement <32 x i16> %234, i32 29		; visa id: 722
  %300 = insertelement <8 x i16> %298, i16 %299, i32 5		; visa id: 722
  %301 = extractelement <32 x i16> %234, i32 30		; visa id: 722
  %302 = insertelement <8 x i16> %300, i16 %301, i32 6		; visa id: 722
  %303 = extractelement <32 x i16> %234, i32 31		; visa id: 722
  %304 = insertelement <8 x i16> %302, i16 %303, i32 7		; visa id: 722
  %305 = call <8 x float> asm "{\0A.decl DST     v_type=G type=f num_elts=$5 alias=<$0,0>\0A.decl SRC1_UD v_type=G type=UD num_elts=128 alias=<$2,0>\0A.decl SRC2_UD v_type=G type=UD num_elts=$4 alias=<$1,0>\0Adpas.bf.bf.8.$3 (M1, 16) DST.0 DST.0 SRC1_UD.0 SRC2_UD(0,0)\0A}\0A", "=rw,rw,rw,P,P,P,0"(<8 x i16> %256, <16 x i16> %236, i32 8, i32 64, i32 128, <8 x float> %229) #0		; visa id: 722
  %306 = call <8 x float> asm "{\0A.decl DST     v_type=G type=f num_elts=$5 alias=<$0,0>\0A.decl SRC1_UD v_type=G type=UD num_elts=128 alias=<$2,0>\0A.decl SRC2_UD v_type=G type=UD num_elts=$4 alias=<$1,0>\0Adpas.bf.bf.8.$3 (M1, 16) DST.0 DST.0 SRC1_UD.0 SRC2_UD(0,0)\0A}\0A", "=rw,rw,rw,P,P,P,0"(<8 x i16> %272, <16 x i16> %236, i32 8, i32 64, i32 128, <8 x float> %230) #0		; visa id: 722
  %307 = call <8 x float> asm "{\0A.decl DST     v_type=G type=f num_elts=$5 alias=<$0,0>\0A.decl SRC1_UD v_type=G type=UD num_elts=128 alias=<$2,0>\0A.decl SRC2_UD v_type=G type=UD num_elts=$4 alias=<$1,0>\0Adpas.bf.bf.8.$3 (M1, 16) DST.0 DST.0 SRC1_UD.0 SRC2_UD(0,0)\0A}\0A", "=rw,rw,rw,P,P,P,0"(<8 x i16> %272, <16 x i16> %237, i32 8, i32 64, i32 128, <8 x float> %231) #0		; visa id: 722
  %308 = call <8 x float> asm "{\0A.decl DST     v_type=G type=f num_elts=$5 alias=<$0,0>\0A.decl SRC1_UD v_type=G type=UD num_elts=128 alias=<$2,0>\0A.decl SRC2_UD v_type=G type=UD num_elts=$4 alias=<$1,0>\0Adpas.bf.bf.8.$3 (M1, 16) DST.0 DST.0 SRC1_UD.0 SRC2_UD(0,0)\0A}\0A", "=rw,rw,rw,P,P,P,0"(<8 x i16> %256, <16 x i16> %237, i32 8, i32 64, i32 128, <8 x float> %232) #0		; visa id: 722
  %309 = call <8 x float> asm "{\0A.decl DST     v_type=G type=f num_elts=$5 alias=<$0,0>\0A.decl SRC1_UD v_type=G type=UD num_elts=128 alias=<$2,0>\0A.decl SRC2_UD v_type=G type=UD num_elts=$4 alias=<$1,0>\0Adpas.bf.bf.8.$3 (M1, 16) DST.0 DST.0 SRC1_UD.0 SRC2_UD(0,0)\0A}\0A", "=rw,rw,rw,P,P,P,0"(<8 x i16> %288, <16 x i16> %239, i32 8, i32 64, i32 128, <8 x float> %305) #0		; visa id: 722
  %310 = call <8 x float> asm "{\0A.decl DST     v_type=G type=f num_elts=$5 alias=<$0,0>\0A.decl SRC1_UD v_type=G type=UD num_elts=128 alias=<$2,0>\0A.decl SRC2_UD v_type=G type=UD num_elts=$4 alias=<$1,0>\0Adpas.bf.bf.8.$3 (M1, 16) DST.0 DST.0 SRC1_UD.0 SRC2_UD(0,0)\0A}\0A", "=rw,rw,rw,P,P,P,0"(<8 x i16> %304, <16 x i16> %239, i32 8, i32 64, i32 128, <8 x float> %306) #0		; visa id: 722
  %311 = call <8 x float> asm "{\0A.decl DST     v_type=G type=f num_elts=$5 alias=<$0,0>\0A.decl SRC1_UD v_type=G type=UD num_elts=128 alias=<$2,0>\0A.decl SRC2_UD v_type=G type=UD num_elts=$4 alias=<$1,0>\0Adpas.bf.bf.8.$3 (M1, 16) DST.0 DST.0 SRC1_UD.0 SRC2_UD(0,0)\0A}\0A", "=rw,rw,rw,P,P,P,0"(<8 x i16> %304, <16 x i16> %240, i32 8, i32 64, i32 128, <8 x float> %307) #0		; visa id: 722
  %312 = call <8 x float> asm "{\0A.decl DST     v_type=G type=f num_elts=$5 alias=<$0,0>\0A.decl SRC1_UD v_type=G type=UD num_elts=128 alias=<$2,0>\0A.decl SRC2_UD v_type=G type=UD num_elts=$4 alias=<$1,0>\0Adpas.bf.bf.8.$3 (M1, 16) DST.0 DST.0 SRC1_UD.0 SRC2_UD(0,0)\0A}\0A", "=rw,rw,rw,P,P,P,0"(<8 x i16> %288, <16 x i16> %240, i32 8, i32 64, i32 128, <8 x float> %308) #0		; visa id: 722
  %313 = add nuw nsw i32 %152, 2, !spirv.Decorations !1219		; visa id: 722
  %niter188.next.1 = add i32 %niter188, 2		; visa id: 723
  %niter188.ncmp.1.not = icmp eq i32 %niter188.next.1, %unroll_iter187		; visa id: 724
  br i1 %niter188.ncmp.1.not, label %._crit_edge161.unr-lcssa, label %.preheader144..preheader144_crit_edge, !llvm.loop !1230, !stats.blockFrequency.digits !1232, !stats.blockFrequency.scale !1233		; visa id: 725

.preheader144..preheader144_crit_edge:            ; preds = %.preheader144
; BB:
  br label %.preheader144, !stats.blockFrequency.digits !1234, !stats.blockFrequency.scale !1233

._crit_edge161.unr-lcssa:                         ; preds = %.preheader144
; BB46 :
  %.lcssa6840 = phi <8 x float> [ %309, %.preheader144 ]
  %.lcssa6839 = phi <8 x float> [ %310, %.preheader144 ]
  %.lcssa6838 = phi <8 x float> [ %311, %.preheader144 ]
  %.lcssa6837 = phi <8 x float> [ %312, %.preheader144 ]
  %.lcssa6836 = phi i32 [ %313, %.preheader144 ]
  br i1 %lcmp.mod186.not, label %._crit_edge161.unr-lcssa.._crit_edge161_crit_edge, label %._crit_edge161.unr-lcssa..epil.preheader182_crit_edge, !stats.blockFrequency.digits !1229, !stats.blockFrequency.scale !1224		; visa id: 727

._crit_edge161.unr-lcssa..epil.preheader182_crit_edge: ; preds = %._crit_edge161.unr-lcssa
; BB:
  br label %.epil.preheader182, !stats.blockFrequency.digits !1225, !stats.blockFrequency.scale !1209

.epil.preheader182:                               ; preds = %._crit_edge161.unr-lcssa..epil.preheader182_crit_edge, %.lr.ph160..epil.preheader182_crit_edge
; BB48 :
  %.unr1856686 = phi i32 [ %.lcssa6836, %._crit_edge161.unr-lcssa..epil.preheader182_crit_edge ], [ 0, %.lr.ph160..epil.preheader182_crit_edge ]
  %.sroa.03146.26685 = phi <8 x float> [ %.lcssa6840, %._crit_edge161.unr-lcssa..epil.preheader182_crit_edge ], [ zeroinitializer, %.lr.ph160..epil.preheader182_crit_edge ]
  %.sroa.147.26684 = phi <8 x float> [ %.lcssa6839, %._crit_edge161.unr-lcssa..epil.preheader182_crit_edge ], [ zeroinitializer, %.lr.ph160..epil.preheader182_crit_edge ]
  %.sroa.291.26683 = phi <8 x float> [ %.lcssa6837, %._crit_edge161.unr-lcssa..epil.preheader182_crit_edge ], [ zeroinitializer, %.lr.ph160..epil.preheader182_crit_edge ]
  %.sroa.435.26682 = phi <8 x float> [ %.lcssa6838, %._crit_edge161.unr-lcssa..epil.preheader182_crit_edge ], [ zeroinitializer, %.lr.ph160..epil.preheader182_crit_edge ]
  %314 = shl nsw i32 %.unr1856686, 5, !spirv.Decorations !1210		; visa id: 729
  call void @llvm.genx.GenISA.LSC2DBlockSetAddrPayloadField.p4i8.i32(i8 addrspace(4)* %Block2D_AddrPayload, i32 5, i32 %314, i1 false)		; visa id: 730
  call void @llvm.genx.GenISA.LSC2DBlockSetAddrPayloadField.p4i8.i32(i8 addrspace(4)* %Block2D_AddrPayload, i32 6, i32 %115, i1 false)		; visa id: 731
  %315 = call <32 x i16> asm "lsc_load_block2d.ugm (M1, 1)  $0:d$2.$3x$4x$5nn flat[$1+(0,0)]", "=rw,rw.u,P,P,P,P"(i8 addrspace(4)* %Block2D_AddrPayload, i32 16, i32 2, i32 16, i32 16) #0		; visa id: 732
  %316 = lshr exact i32 %314, 1		; visa id: 732
  call void @llvm.genx.GenISA.LSC2DBlockSetAddrPayloadField.p4i8.i32(i8 addrspace(4)* %Block2D_AddrPayload114, i32 5, i32 %316, i1 false)		; visa id: 733
  call void @llvm.genx.GenISA.LSC2DBlockSetAddrPayloadField.p4i8.i32(i8 addrspace(4)* %Block2D_AddrPayload114, i32 6, i32 %150, i1 false)		; visa id: 734
  %317 = call <16 x i16> asm "lsc_load_block2d.ugm (M1, 1)  $0:d$2.$3x$4tn flat[$1+(0,0)]", "=rw,rw.u,P,P,P"(i8 addrspace(4)* %Block2D_AddrPayload114, i32 32, i32 8, i32 16) #0		; visa id: 735
  %318 = add i32 %150, 16		; visa id: 735
  call void @llvm.genx.GenISA.LSC2DBlockSetAddrPayloadField.p4i8.i32(i8 addrspace(4)* %Block2D_AddrPayload114, i32 5, i32 %316, i1 false)		; visa id: 736
  call void @llvm.genx.GenISA.LSC2DBlockSetAddrPayloadField.p4i8.i32(i8 addrspace(4)* %Block2D_AddrPayload114, i32 6, i32 %318, i1 false)		; visa id: 737
  %319 = call <16 x i16> asm "lsc_load_block2d.ugm (M1, 1)  $0:d$2.$3x$4tn flat[$1+(0,0)]", "=rw,rw.u,P,P,P"(i8 addrspace(4)* %Block2D_AddrPayload114, i32 32, i32 8, i32 16) #0		; visa id: 738
  %320 = or i32 %316, 8		; visa id: 738
  call void @llvm.genx.GenISA.LSC2DBlockSetAddrPayloadField.p4i8.i32(i8 addrspace(4)* %Block2D_AddrPayload114, i32 5, i32 %320, i1 false)		; visa id: 739
  call void @llvm.genx.GenISA.LSC2DBlockSetAddrPayloadField.p4i8.i32(i8 addrspace(4)* %Block2D_AddrPayload114, i32 6, i32 %150, i1 false)		; visa id: 740
  %321 = call <16 x i16> asm "lsc_load_block2d.ugm (M1, 1)  $0:d$2.$3x$4tn flat[$1+(0,0)]", "=rw,rw.u,P,P,P"(i8 addrspace(4)* %Block2D_AddrPayload114, i32 32, i32 8, i32 16) #0		; visa id: 741
  call void @llvm.genx.GenISA.LSC2DBlockSetAddrPayloadField.p4i8.i32(i8 addrspace(4)* %Block2D_AddrPayload114, i32 5, i32 %320, i1 false)		; visa id: 741
  call void @llvm.genx.GenISA.LSC2DBlockSetAddrPayloadField.p4i8.i32(i8 addrspace(4)* %Block2D_AddrPayload114, i32 6, i32 %318, i1 false)		; visa id: 742
  %322 = call <16 x i16> asm "lsc_load_block2d.ugm (M1, 1)  $0:d$2.$3x$4tn flat[$1+(0,0)]", "=rw,rw.u,P,P,P"(i8 addrspace(4)* %Block2D_AddrPayload114, i32 32, i32 8, i32 16) #0		; visa id: 743
  %323 = extractelement <32 x i16> %315, i32 0		; visa id: 743
  %324 = insertelement <8 x i16> undef, i16 %323, i32 0		; visa id: 743
  %325 = extractelement <32 x i16> %315, i32 1		; visa id: 743
  %326 = insertelement <8 x i16> %324, i16 %325, i32 1		; visa id: 743
  %327 = extractelement <32 x i16> %315, i32 2		; visa id: 743
  %328 = insertelement <8 x i16> %326, i16 %327, i32 2		; visa id: 743
  %329 = extractelement <32 x i16> %315, i32 3		; visa id: 743
  %330 = insertelement <8 x i16> %328, i16 %329, i32 3		; visa id: 743
  %331 = extractelement <32 x i16> %315, i32 4		; visa id: 743
  %332 = insertelement <8 x i16> %330, i16 %331, i32 4		; visa id: 743
  %333 = extractelement <32 x i16> %315, i32 5		; visa id: 743
  %334 = insertelement <8 x i16> %332, i16 %333, i32 5		; visa id: 743
  %335 = extractelement <32 x i16> %315, i32 6		; visa id: 743
  %336 = insertelement <8 x i16> %334, i16 %335, i32 6		; visa id: 743
  %337 = extractelement <32 x i16> %315, i32 7		; visa id: 743
  %338 = insertelement <8 x i16> %336, i16 %337, i32 7		; visa id: 743
  %339 = extractelement <32 x i16> %315, i32 8		; visa id: 743
  %340 = insertelement <8 x i16> undef, i16 %339, i32 0		; visa id: 743
  %341 = extractelement <32 x i16> %315, i32 9		; visa id: 743
  %342 = insertelement <8 x i16> %340, i16 %341, i32 1		; visa id: 743
  %343 = extractelement <32 x i16> %315, i32 10		; visa id: 743
  %344 = insertelement <8 x i16> %342, i16 %343, i32 2		; visa id: 743
  %345 = extractelement <32 x i16> %315, i32 11		; visa id: 743
  %346 = insertelement <8 x i16> %344, i16 %345, i32 3		; visa id: 743
  %347 = extractelement <32 x i16> %315, i32 12		; visa id: 743
  %348 = insertelement <8 x i16> %346, i16 %347, i32 4		; visa id: 743
  %349 = extractelement <32 x i16> %315, i32 13		; visa id: 743
  %350 = insertelement <8 x i16> %348, i16 %349, i32 5		; visa id: 743
  %351 = extractelement <32 x i16> %315, i32 14		; visa id: 743
  %352 = insertelement <8 x i16> %350, i16 %351, i32 6		; visa id: 743
  %353 = extractelement <32 x i16> %315, i32 15		; visa id: 743
  %354 = insertelement <8 x i16> %352, i16 %353, i32 7		; visa id: 743
  %355 = extractelement <32 x i16> %315, i32 16		; visa id: 743
  %356 = insertelement <8 x i16> undef, i16 %355, i32 0		; visa id: 743
  %357 = extractelement <32 x i16> %315, i32 17		; visa id: 743
  %358 = insertelement <8 x i16> %356, i16 %357, i32 1		; visa id: 743
  %359 = extractelement <32 x i16> %315, i32 18		; visa id: 743
  %360 = insertelement <8 x i16> %358, i16 %359, i32 2		; visa id: 743
  %361 = extractelement <32 x i16> %315, i32 19		; visa id: 743
  %362 = insertelement <8 x i16> %360, i16 %361, i32 3		; visa id: 743
  %363 = extractelement <32 x i16> %315, i32 20		; visa id: 743
  %364 = insertelement <8 x i16> %362, i16 %363, i32 4		; visa id: 743
  %365 = extractelement <32 x i16> %315, i32 21		; visa id: 743
  %366 = insertelement <8 x i16> %364, i16 %365, i32 5		; visa id: 743
  %367 = extractelement <32 x i16> %315, i32 22		; visa id: 743
  %368 = insertelement <8 x i16> %366, i16 %367, i32 6		; visa id: 743
  %369 = extractelement <32 x i16> %315, i32 23		; visa id: 743
  %370 = insertelement <8 x i16> %368, i16 %369, i32 7		; visa id: 743
  %371 = extractelement <32 x i16> %315, i32 24		; visa id: 743
  %372 = insertelement <8 x i16> undef, i16 %371, i32 0		; visa id: 743
  %373 = extractelement <32 x i16> %315, i32 25		; visa id: 743
  %374 = insertelement <8 x i16> %372, i16 %373, i32 1		; visa id: 743
  %375 = extractelement <32 x i16> %315, i32 26		; visa id: 743
  %376 = insertelement <8 x i16> %374, i16 %375, i32 2		; visa id: 743
  %377 = extractelement <32 x i16> %315, i32 27		; visa id: 743
  %378 = insertelement <8 x i16> %376, i16 %377, i32 3		; visa id: 743
  %379 = extractelement <32 x i16> %315, i32 28		; visa id: 743
  %380 = insertelement <8 x i16> %378, i16 %379, i32 4		; visa id: 743
  %381 = extractelement <32 x i16> %315, i32 29		; visa id: 743
  %382 = insertelement <8 x i16> %380, i16 %381, i32 5		; visa id: 743
  %383 = extractelement <32 x i16> %315, i32 30		; visa id: 743
  %384 = insertelement <8 x i16> %382, i16 %383, i32 6		; visa id: 743
  %385 = extractelement <32 x i16> %315, i32 31		; visa id: 743
  %386 = insertelement <8 x i16> %384, i16 %385, i32 7		; visa id: 743
  %387 = call <8 x float> asm "{\0A.decl DST     v_type=G type=f num_elts=$5 alias=<$0,0>\0A.decl SRC1_UD v_type=G type=UD num_elts=128 alias=<$2,0>\0A.decl SRC2_UD v_type=G type=UD num_elts=$4 alias=<$1,0>\0Adpas.bf.bf.8.$3 (M1, 16) DST.0 DST.0 SRC1_UD.0 SRC2_UD(0,0)\0A}\0A", "=rw,rw,rw,P,P,P,0"(<8 x i16> %338, <16 x i16> %317, i32 8, i32 64, i32 128, <8 x float> %.sroa.03146.26685) #0		; visa id: 743
  %388 = call <8 x float> asm "{\0A.decl DST     v_type=G type=f num_elts=$5 alias=<$0,0>\0A.decl SRC1_UD v_type=G type=UD num_elts=128 alias=<$2,0>\0A.decl SRC2_UD v_type=G type=UD num_elts=$4 alias=<$1,0>\0Adpas.bf.bf.8.$3 (M1, 16) DST.0 DST.0 SRC1_UD.0 SRC2_UD(0,0)\0A}\0A", "=rw,rw,rw,P,P,P,0"(<8 x i16> %354, <16 x i16> %317, i32 8, i32 64, i32 128, <8 x float> %.sroa.147.26684) #0		; visa id: 743
  %389 = call <8 x float> asm "{\0A.decl DST     v_type=G type=f num_elts=$5 alias=<$0,0>\0A.decl SRC1_UD v_type=G type=UD num_elts=128 alias=<$2,0>\0A.decl SRC2_UD v_type=G type=UD num_elts=$4 alias=<$1,0>\0Adpas.bf.bf.8.$3 (M1, 16) DST.0 DST.0 SRC1_UD.0 SRC2_UD(0,0)\0A}\0A", "=rw,rw,rw,P,P,P,0"(<8 x i16> %354, <16 x i16> %319, i32 8, i32 64, i32 128, <8 x float> %.sroa.435.26682) #0		; visa id: 743
  %390 = call <8 x float> asm "{\0A.decl DST     v_type=G type=f num_elts=$5 alias=<$0,0>\0A.decl SRC1_UD v_type=G type=UD num_elts=128 alias=<$2,0>\0A.decl SRC2_UD v_type=G type=UD num_elts=$4 alias=<$1,0>\0Adpas.bf.bf.8.$3 (M1, 16) DST.0 DST.0 SRC1_UD.0 SRC2_UD(0,0)\0A}\0A", "=rw,rw,rw,P,P,P,0"(<8 x i16> %338, <16 x i16> %319, i32 8, i32 64, i32 128, <8 x float> %.sroa.291.26683) #0		; visa id: 743
  %391 = call <8 x float> asm "{\0A.decl DST     v_type=G type=f num_elts=$5 alias=<$0,0>\0A.decl SRC1_UD v_type=G type=UD num_elts=128 alias=<$2,0>\0A.decl SRC2_UD v_type=G type=UD num_elts=$4 alias=<$1,0>\0Adpas.bf.bf.8.$3 (M1, 16) DST.0 DST.0 SRC1_UD.0 SRC2_UD(0,0)\0A}\0A", "=rw,rw,rw,P,P,P,0"(<8 x i16> %370, <16 x i16> %321, i32 8, i32 64, i32 128, <8 x float> %387) #0		; visa id: 743
  %392 = call <8 x float> asm "{\0A.decl DST     v_type=G type=f num_elts=$5 alias=<$0,0>\0A.decl SRC1_UD v_type=G type=UD num_elts=128 alias=<$2,0>\0A.decl SRC2_UD v_type=G type=UD num_elts=$4 alias=<$1,0>\0Adpas.bf.bf.8.$3 (M1, 16) DST.0 DST.0 SRC1_UD.0 SRC2_UD(0,0)\0A}\0A", "=rw,rw,rw,P,P,P,0"(<8 x i16> %386, <16 x i16> %321, i32 8, i32 64, i32 128, <8 x float> %388) #0		; visa id: 743
  %393 = call <8 x float> asm "{\0A.decl DST     v_type=G type=f num_elts=$5 alias=<$0,0>\0A.decl SRC1_UD v_type=G type=UD num_elts=128 alias=<$2,0>\0A.decl SRC2_UD v_type=G type=UD num_elts=$4 alias=<$1,0>\0Adpas.bf.bf.8.$3 (M1, 16) DST.0 DST.0 SRC1_UD.0 SRC2_UD(0,0)\0A}\0A", "=rw,rw,rw,P,P,P,0"(<8 x i16> %386, <16 x i16> %322, i32 8, i32 64, i32 128, <8 x float> %389) #0		; visa id: 743
  %394 = call <8 x float> asm "{\0A.decl DST     v_type=G type=f num_elts=$5 alias=<$0,0>\0A.decl SRC1_UD v_type=G type=UD num_elts=128 alias=<$2,0>\0A.decl SRC2_UD v_type=G type=UD num_elts=$4 alias=<$1,0>\0Adpas.bf.bf.8.$3 (M1, 16) DST.0 DST.0 SRC1_UD.0 SRC2_UD(0,0)\0A}\0A", "=rw,rw,rw,P,P,P,0"(<8 x i16> %370, <16 x i16> %322, i32 8, i32 64, i32 128, <8 x float> %390) #0		; visa id: 743
  br label %._crit_edge161, !stats.blockFrequency.digits !1235, !stats.blockFrequency.scale !1212		; visa id: 743

._crit_edge161.unr-lcssa.._crit_edge161_crit_edge: ; preds = %._crit_edge161.unr-lcssa
; BB:
  br label %._crit_edge161, !stats.blockFrequency.digits !1225, !stats.blockFrequency.scale !1209

._crit_edge161:                                   ; preds = %._crit_edge161.unr-lcssa.._crit_edge161_crit_edge, %.preheader146.._crit_edge161_crit_edge, %.epil.preheader182
; BB50 :
  %.sroa.435.4 = phi <8 x float> [ zeroinitializer, %.preheader146.._crit_edge161_crit_edge ], [ %393, %.epil.preheader182 ], [ %.lcssa6838, %._crit_edge161.unr-lcssa.._crit_edge161_crit_edge ]
  %.sroa.291.4 = phi <8 x float> [ zeroinitializer, %.preheader146.._crit_edge161_crit_edge ], [ %394, %.epil.preheader182 ], [ %.lcssa6837, %._crit_edge161.unr-lcssa.._crit_edge161_crit_edge ]
  %.sroa.147.4 = phi <8 x float> [ zeroinitializer, %.preheader146.._crit_edge161_crit_edge ], [ %392, %.epil.preheader182 ], [ %.lcssa6839, %._crit_edge161.unr-lcssa.._crit_edge161_crit_edge ]
  %.sroa.03146.4 = phi <8 x float> [ zeroinitializer, %.preheader146.._crit_edge161_crit_edge ], [ %391, %.epil.preheader182 ], [ %.lcssa6840, %._crit_edge161.unr-lcssa.._crit_edge161_crit_edge ]
  %395 = add nuw nsw i32 %150, %117, !spirv.Decorations !1210		; visa id: 744
  call void @llvm.genx.GenISA.LSC2DBlockSetAddrPayloadField.p4i8.i32(i8 addrspace(4)* %Block2D_AddrPayload120, i32 5, i32 %145, i1 false)		; visa id: 745
  call void @llvm.genx.GenISA.LSC2DBlockSetAddrPayloadField.p4i8.i32(i8 addrspace(4)* %Block2D_AddrPayload120, i32 6, i32 %395, i1 false)		; visa id: 746
  call void asm sideeffect "lsc_load_block2d.ugm.ca.ca (M1, 1)  %null:d$1.$2x$3nn flat[$0+(0,0)]", "rw.u,P,P,P"(i8 addrspace(4)* %Block2D_AddrPayload120, i32 16, i32 32, i32 2) #0		; visa id: 747
  call void @llvm.genx.GenISA.LSC2DBlockSetAddrPayloadField.p4i8.i32(i8 addrspace(4)* %Block2D_AddrPayload120, i32 5, i32 %146, i1 false)		; visa id: 747
  call void @llvm.genx.GenISA.LSC2DBlockSetAddrPayloadField.p4i8.i32(i8 addrspace(4)* %Block2D_AddrPayload120, i32 6, i32 %395, i1 false)		; visa id: 748
  call void asm sideeffect "lsc_load_block2d.ugm.ca.ca (M1, 1)  %null:d$1.$2x$3nn flat[$0+(0,0)]", "rw.u,P,P,P"(i8 addrspace(4)* %Block2D_AddrPayload120, i32 16, i32 32, i32 2) #0		; visa id: 749
  call void @llvm.genx.GenISA.LSC2DBlockSetAddrPayloadField.p4i8.i32(i8 addrspace(4)* %Block2D_AddrPayload120, i32 5, i32 %147, i1 false)		; visa id: 749
  call void @llvm.genx.GenISA.LSC2DBlockSetAddrPayloadField.p4i8.i32(i8 addrspace(4)* %Block2D_AddrPayload120, i32 6, i32 %395, i1 false)		; visa id: 750
  call void asm sideeffect "lsc_load_block2d.ugm.ca.ca (M1, 1)  %null:d$1.$2x$3nn flat[$0+(0,0)]", "rw.u,P,P,P"(i8 addrspace(4)* %Block2D_AddrPayload120, i32 16, i32 32, i32 2) #0		; visa id: 751
  call void @llvm.genx.GenISA.LSC2DBlockSetAddrPayloadField.p4i8.i32(i8 addrspace(4)* %Block2D_AddrPayload120, i32 5, i32 %148, i1 false)		; visa id: 751
  call void @llvm.genx.GenISA.LSC2DBlockSetAddrPayloadField.p4i8.i32(i8 addrspace(4)* %Block2D_AddrPayload120, i32 6, i32 %395, i1 false)		; visa id: 752
  call void asm sideeffect "lsc_load_block2d.ugm.ca.ca (M1, 1)  %null:d$1.$2x$3nn flat[$0+(0,0)]", "rw.u,P,P,P"(i8 addrspace(4)* %Block2D_AddrPayload120, i32 16, i32 32, i32 2) #0		; visa id: 753
  %396 = extractelement <8 x float> %.sroa.03146.4, i32 0		; visa id: 753
  %397 = extractelement <8 x float> %.sroa.291.4, i32 0		; visa id: 754
  %398 = fcmp reassoc nsz arcp contract olt float %396, %397, !spirv.Decorations !1236		; visa id: 755
  %399 = select i1 %398, float %397, float %396		; visa id: 756
  %400 = extractelement <8 x float> %.sroa.03146.4, i32 1		; visa id: 757
  %401 = extractelement <8 x float> %.sroa.291.4, i32 1		; visa id: 758
  %402 = fcmp reassoc nsz arcp contract olt float %400, %401, !spirv.Decorations !1236		; visa id: 759
  %403 = select i1 %402, float %401, float %400		; visa id: 760
  %404 = extractelement <8 x float> %.sroa.03146.4, i32 2		; visa id: 761
  %405 = extractelement <8 x float> %.sroa.291.4, i32 2		; visa id: 762
  %406 = fcmp reassoc nsz arcp contract olt float %404, %405, !spirv.Decorations !1236		; visa id: 763
  %407 = select i1 %406, float %405, float %404		; visa id: 764
  %408 = extractelement <8 x float> %.sroa.03146.4, i32 3		; visa id: 765
  %409 = extractelement <8 x float> %.sroa.291.4, i32 3		; visa id: 766
  %410 = fcmp reassoc nsz arcp contract olt float %408, %409, !spirv.Decorations !1236		; visa id: 767
  %411 = select i1 %410, float %409, float %408		; visa id: 768
  %412 = extractelement <8 x float> %.sroa.03146.4, i32 4		; visa id: 769
  %413 = extractelement <8 x float> %.sroa.291.4, i32 4		; visa id: 770
  %414 = fcmp reassoc nsz arcp contract olt float %412, %413, !spirv.Decorations !1236		; visa id: 771
  %415 = select i1 %414, float %413, float %412		; visa id: 772
  %416 = extractelement <8 x float> %.sroa.03146.4, i32 5		; visa id: 773
  %417 = extractelement <8 x float> %.sroa.291.4, i32 5		; visa id: 774
  %418 = fcmp reassoc nsz arcp contract olt float %416, %417, !spirv.Decorations !1236		; visa id: 775
  %419 = select i1 %418, float %417, float %416		; visa id: 776
  %420 = extractelement <8 x float> %.sroa.03146.4, i32 6		; visa id: 777
  %421 = extractelement <8 x float> %.sroa.291.4, i32 6		; visa id: 778
  %422 = fcmp reassoc nsz arcp contract olt float %420, %421, !spirv.Decorations !1236		; visa id: 779
  %423 = select i1 %422, float %421, float %420		; visa id: 780
  %424 = extractelement <8 x float> %.sroa.03146.4, i32 7		; visa id: 781
  %425 = extractelement <8 x float> %.sroa.291.4, i32 7		; visa id: 782
  %426 = fcmp reassoc nsz arcp contract olt float %424, %425, !spirv.Decorations !1236		; visa id: 783
  %427 = select i1 %426, float %425, float %424		; visa id: 784
  %428 = extractelement <8 x float> %.sroa.147.4, i32 0		; visa id: 785
  %429 = extractelement <8 x float> %.sroa.435.4, i32 0		; visa id: 786
  %430 = fcmp reassoc nsz arcp contract olt float %428, %429, !spirv.Decorations !1236		; visa id: 787
  %431 = select i1 %430, float %429, float %428		; visa id: 788
  %432 = extractelement <8 x float> %.sroa.147.4, i32 1		; visa id: 789
  %433 = extractelement <8 x float> %.sroa.435.4, i32 1		; visa id: 790
  %434 = fcmp reassoc nsz arcp contract olt float %432, %433, !spirv.Decorations !1236		; visa id: 791
  %435 = select i1 %434, float %433, float %432		; visa id: 792
  %436 = extractelement <8 x float> %.sroa.147.4, i32 2		; visa id: 793
  %437 = extractelement <8 x float> %.sroa.435.4, i32 2		; visa id: 794
  %438 = fcmp reassoc nsz arcp contract olt float %436, %437, !spirv.Decorations !1236		; visa id: 795
  %439 = select i1 %438, float %437, float %436		; visa id: 796
  %440 = extractelement <8 x float> %.sroa.147.4, i32 3		; visa id: 797
  %441 = extractelement <8 x float> %.sroa.435.4, i32 3		; visa id: 798
  %442 = fcmp reassoc nsz arcp contract olt float %440, %441, !spirv.Decorations !1236		; visa id: 799
  %443 = select i1 %442, float %441, float %440		; visa id: 800
  %444 = extractelement <8 x float> %.sroa.147.4, i32 4		; visa id: 801
  %445 = extractelement <8 x float> %.sroa.435.4, i32 4		; visa id: 802
  %446 = fcmp reassoc nsz arcp contract olt float %444, %445, !spirv.Decorations !1236		; visa id: 803
  %447 = select i1 %446, float %445, float %444		; visa id: 804
  %448 = extractelement <8 x float> %.sroa.147.4, i32 5		; visa id: 805
  %449 = extractelement <8 x float> %.sroa.435.4, i32 5		; visa id: 806
  %450 = fcmp reassoc nsz arcp contract olt float %448, %449, !spirv.Decorations !1236		; visa id: 807
  %451 = select i1 %450, float %449, float %448		; visa id: 808
  %452 = extractelement <8 x float> %.sroa.147.4, i32 6		; visa id: 809
  %453 = extractelement <8 x float> %.sroa.435.4, i32 6		; visa id: 810
  %454 = fcmp reassoc nsz arcp contract olt float %452, %453, !spirv.Decorations !1236		; visa id: 811
  %455 = select i1 %454, float %453, float %452		; visa id: 812
  %456 = extractelement <8 x float> %.sroa.147.4, i32 7		; visa id: 813
  %457 = extractelement <8 x float> %.sroa.435.4, i32 7		; visa id: 814
  %458 = fcmp reassoc nsz arcp contract olt float %456, %457, !spirv.Decorations !1236		; visa id: 815
  %459 = select i1 %458, float %457, float %456		; visa id: 816
  %460 = call float asm "{\0A.decl INTERLEAVE_2 v_type=P num_elts=16\0A.decl INTERLEAVE_4 v_type=P num_elts=16\0A.decl INTERLEAVE_8 v_type=P num_elts=16\0A.decl IN0 v_type=G type=UD num_elts=16 alias=<$1,0>\0A.decl IN1 v_type=G type=UD num_elts=16 alias=<$2,0>\0A.decl IN2 v_type=G type=UD num_elts=16 alias=<$3,0>\0A.decl IN3 v_type=G type=UD num_elts=16 alias=<$4,0>\0A.decl IN4 v_type=G type=UD num_elts=16 alias=<$5,0>\0A.decl IN5 v_type=G type=UD num_elts=16 alias=<$6,0>\0A.decl IN6 v_type=G type=UD num_elts=16 alias=<$7,0>\0A.decl IN7 v_type=G type=UD num_elts=16 alias=<$8,0>\0A.decl IN8 v_type=G type=UD num_elts=16 alias=<$9,0>\0A.decl IN9 v_type=G type=UD num_elts=16 alias=<$10,0>\0A.decl IN10 v_type=G type=UD num_elts=16 alias=<$11,0>\0A.decl IN11 v_type=G type=UD num_elts=16 alias=<$12,0>\0A.decl IN12 v_type=G type=UD num_elts=16 alias=<$13,0>\0A.decl IN13 v_type=G type=UD num_elts=16 alias=<$14,0>\0A.decl IN14 v_type=G type=UD num_elts=16 alias=<$15,0>\0A.decl IN15 v_type=G type=UD num_elts=16 alias=<$16,0>\0A.decl RA0 v_type=G type=UD num_elts=32 align=64\0A.decl RA2 v_type=G type=UD num_elts=32 align=64\0A.decl RA4 v_type=G type=UD num_elts=32 align=64\0A.decl RA6 v_type=G type=UD num_elts=32 align=64\0A.decl RA8 v_type=G type=UD num_elts=32 align=64\0A.decl RA10 v_type=G type=UD num_elts=32 align=64\0A.decl RA12 v_type=G type=UD num_elts=32 align=64\0A.decl RA14 v_type=G type=UD num_elts=32 align=64\0A.decl RF0 v_type=G type=F num_elts=16 alias=<RA0,0>\0A.decl RF1 v_type=G type=F num_elts=16 alias=<RA0,64>\0A.decl RF2 v_type=G type=F num_elts=16 alias=<RA2,0>\0A.decl RF3 v_type=G type=F num_elts=16 alias=<RA2,64>\0A.decl RF4 v_type=G type=F num_elts=16 alias=<RA4,0>\0A.decl RF5 v_type=G type=F num_elts=16 alias=<RA4,64>\0A.decl RF6 v_type=G type=F num_elts=16 alias=<RA6,0>\0A.decl RF7 v_type=G type=F num_elts=16 alias=<RA6,64>\0A.decl RF8 v_type=G type=F num_elts=16 alias=<RA8,0>\0A.decl RF9 v_type=G type=F num_elts=16 alias=<RA8,64>\0A.decl RF10 v_type=G type=F num_elts=16 alias=<RA10,0>\0A.decl RF11 v_type=G type=F num_elts=16 alias=<RA10,64>\0A.decl RF12 v_type=G type=F num_elts=16 alias=<RA12,0>\0A.decl RF13 v_type=G type=F num_elts=16 alias=<RA12,64>\0A.decl RF14 v_type=G type=F num_elts=16 alias=<RA14,0>\0A.decl RF15 v_type=G type=F num_elts=16 alias=<RA14,64>\0Asetp (M1_NM,16) INTERLEAVE_2 0x5555:uw\0Asetp (M1_NM,16) INTERLEAVE_4 0x3333:uw\0Asetp (M1_NM,16) INTERLEAVE_8 0x0F0F:uw\0A(!INTERLEAVE_2) sel (M1_NM,16) RA0(0,0)<1>  IN1(0,0)<2;2,0>  IN0(0,0)<1;1,0>\0A (INTERLEAVE_2) sel (M1_NM,16) RA0(1,0)<1>  IN0(0,1)<2;2,0>  IN1(0,0)<1;1,0>\0A(!INTERLEAVE_2) sel (M1_NM,16) RA2(0,0)<1>  IN3(0,0)<2;2,0>  IN2(0,0)<1;1,0>\0A (INTERLEAVE_2) sel (M1_NM,16) RA2(1,0)<1>  IN2(0,1)<2;2,0>  IN3(0,0)<1;1,0>\0A(!INTERLEAVE_2) sel (M1_NM,16) RA4(0,0)<1>  IN5(0,0)<2;2,0>  IN4(0,0)<1;1,0>\0A (INTERLEAVE_2) sel (M1_NM,16) RA4(1,0)<1>  IN4(0,1)<2;2,0>  IN5(0,0)<1;1,0>\0A(!INTERLEAVE_2) sel (M1_NM,16) RA6(0,0)<1>  IN7(0,0)<2;2,0>  IN6(0,0)<1;1,0>\0A (INTERLEAVE_2) sel (M1_NM,16) RA6(1,0)<1>  IN6(0,1)<2;2,0>  IN7(0,0)<1;1,0>\0A(!INTERLEAVE_2) sel (M1_NM,16) RA8(0,0)<1>  IN9(0,0)<2;2,0>  IN8(0,0)<1;1,0>\0A (INTERLEAVE_2) sel (M1_NM,16) RA8(1,0)<1>  IN8(0,1)<2;2,0>  IN9(0,0)<1;1,0>\0A(!INTERLEAVE_2) sel (M1_NM,16) RA10(0,0)<1> IN11(0,0)<2;2,0> IN10(0,0)<1;1,0>\0A (INTERLEAVE_2) sel (M1_NM,16) RA10(1,0)<1> IN10(0,1)<2;2,0> IN11(0,0)<1;1,0>\0A(!INTERLEAVE_2) sel (M1_NM,16) RA12(0,0)<1> IN13(0,0)<2;2,0> IN12(0,0)<1;1,0>\0A (INTERLEAVE_2) sel (M1_NM,16) RA12(1,0)<1> IN12(0,1)<2;2,0> IN13(0,0)<1;1,0>\0A(!INTERLEAVE_2) sel (M1_NM,16) RA14(0,0)<1> IN15(0,0)<2;2,0> IN14(0,0)<1;1,0>\0A (INTERLEAVE_2) sel (M1_NM,16) RA14(1,0)<1> IN14(0,1)<2;2,0> IN15(0,0)<1;1,0>\0Amax (M1_NM,16) RF0(0,0)<1> RF0(0,0)<1;1,0> RF1(0,0)<1;1,0>\0Amax (M1_NM,16) RF3(0,0)<1> RF2(0,0)<1;1,0> RF3(0,0)<1;1,0>\0Amax (M1_NM,16) RF4(0,0)<1> RF4(0,0)<1;1,0> RF5(0,0)<1;1,0>\0Amax (M1_NM,16) RF7(0,0)<1> RF6(0,0)<1;1,0> RF7(0,0)<1;1,0>\0Amax (M1_NM,16) RF8(0,0)<1> RF8(0,0)<1;1,0> RF9(0,0)<1;1,0>\0Amax (M1_NM,16) RF11(0,0)<1> RF10(0,0)<1;1,0> RF11(0,0)<1;1,0>\0Amax (M1_NM,16) RF12(0,0)<1> RF12(0,0)<1;1,0> RF13(0,0)<1;1,0>\0Amax (M1_NM,16) RF15(0,0)<1> RF14(0,0)<1;1,0> RF15(0,0)<1;1,0>\0A(!INTERLEAVE_4) sel (M1_NM,16) RA0(1,0)<1>  RA2(0,14)<1;1,0>  RA0(0,0)<1;1,0>\0A (INTERLEAVE_4) sel (M1_NM,16) RA0(0,0)<1>  RA0(0,2)<1;1,0>   RA2(1,0)<1;1,0>\0A(!INTERLEAVE_4) sel (M1_NM,16) RA4(1,0)<1>  RA6(0,14)<1;1,0>  RA4(0,0)<1;1,0>\0A (INTERLEAVE_4) sel (M1_NM,16) RA4(0,0)<1>  RA4(0,2)<1;1,0>   RA6(1,0)<1;1,0>\0A(!INTERLEAVE_4) sel (M1_NM,16) RA8(1,0)<1>  RA10(0,14)<1;1,0> RA8(0,0)<1;1,0>\0A (INTERLEAVE_4) sel (M1_NM,16) RA8(0,0)<1>  RA8(0,2)<1;1,0>   RA10(1,0)<1;1,0>\0A(!INTERLEAVE_4) sel (M1_NM,16) RA12(1,0)<1> RA14(0,14)<1;1,0> RA12(0,0)<1;1,0>\0A (INTERLEAVE_4) sel (M1_NM,16) RA12(0,0)<1> RA12(0,2)<1;1,0>  RA14(1,0)<1;1,0>\0Amax (M1_NM,16) RF0(0,0)<1>  RF0(0,0)<1;1,0>  RF1(0,0)<1;1,0>\0Amax (M1_NM,16) RF5(0,0)<1>  RF4(0,0)<1;1,0>  RF5(0,0)<1;1,0>\0Amax (M1_NM,16) RF8(0,0)<1>  RF8(0,0)<1;1,0>  RF9(0,0)<1;1,0>\0Amax (M1_NM,16) RF13(0,0)<1> RF12(0,0)<1;1,0> RF13(0,0)<1;1,0>\0A(!INTERLEAVE_8) sel (M1_NM,16) RA0(1,0)<1> RA4(0,12)<1;1,0>  RA0(0,0)<1;1,0>\0A (INTERLEAVE_8) sel (M1_NM,16) RA0(0,0)<1> RA0(0,4)<1;1,0>   RA4(1,0)<1;1,0>\0A(!INTERLEAVE_8) sel (M1_NM,16) RA8(1,0)<1> RA12(0,12)<1;1,0> RA8(0,0)<1;1,0>\0A (INTERLEAVE_8) sel (M1_NM,16) RA8(0,0)<1> RA8(0,4)<1;1,0>   RA12(1,0)<1;1,0>\0Amax (M1_NM,16) RF0(0,0)<1> RF0(0,0)<1;1,0> RF1(0,0)<1;1,0>\0Amax (M1_NM,16) RF8(0,0)<1> RF8(0,0)<1;1,0> RF9(0,0)<1;1,0>\0Amov (M1_NM, 8) RA0(1,0)<1> RA0(0,8)<1;1,0>\0Amov (M1_NM, 8) RA8(1,8)<1> RA8(0,0)<1;1,0>\0Amax (M1_NM,8) $0(0,0)<1> RF0(0,0)<1;1,0> RF1(0,0)<1;1,0>\0Amax (M1_NM,8) $0(0,8)<1> RF8(0,8)<1;1,0> RF9(0,8)<1;1,0>\0A}\0A", "=rw,rw,rw,rw,rw,rw,rw,rw,rw,rw,rw,rw,rw,rw,rw,rw,rw"(float %399, float %403, float %407, float %411, float %415, float %419, float %423, float %427, float %431, float %435, float %439, float %443, float %447, float %451, float %455, float %459) #0		; visa id: 817
  %461 = fmul reassoc nsz arcp contract float %460, %const_reg_fp32, !spirv.Decorations !1236		; visa id: 817
  %462 = call float @llvm.maxnum.f32(float %.sroa.0209.1165, float %461)		; visa id: 818
  %463 = fmul reassoc nsz arcp contract float %396, %const_reg_fp32, !spirv.Decorations !1236
  %simdBroadcast106 = call float @llvm.genx.GenISA.WaveBroadcast.f32(float %462, i32 0, i32 0)
  %464 = fsub reassoc nsz arcp contract float %463, %simdBroadcast106, !spirv.Decorations !1236		; visa id: 819
  %465 = call float @llvm.exp2.f32(float %464)		; visa id: 820
  %466 = fmul reassoc nsz arcp contract float %400, %const_reg_fp32, !spirv.Decorations !1236
  %simdBroadcast106.1 = call float @llvm.genx.GenISA.WaveBroadcast.f32(float %462, i32 1, i32 0)
  %467 = fsub reassoc nsz arcp contract float %466, %simdBroadcast106.1, !spirv.Decorations !1236		; visa id: 821
  %468 = call float @llvm.exp2.f32(float %467)		; visa id: 822
  %469 = fmul reassoc nsz arcp contract float %404, %const_reg_fp32, !spirv.Decorations !1236
  %simdBroadcast106.2 = call float @llvm.genx.GenISA.WaveBroadcast.f32(float %462, i32 2, i32 0)
  %470 = fsub reassoc nsz arcp contract float %469, %simdBroadcast106.2, !spirv.Decorations !1236		; visa id: 823
  %471 = call float @llvm.exp2.f32(float %470)		; visa id: 824
  %472 = fmul reassoc nsz arcp contract float %408, %const_reg_fp32, !spirv.Decorations !1236
  %simdBroadcast106.3 = call float @llvm.genx.GenISA.WaveBroadcast.f32(float %462, i32 3, i32 0)
  %473 = fsub reassoc nsz arcp contract float %472, %simdBroadcast106.3, !spirv.Decorations !1236		; visa id: 825
  %474 = call float @llvm.exp2.f32(float %473)		; visa id: 826
  %475 = fmul reassoc nsz arcp contract float %412, %const_reg_fp32, !spirv.Decorations !1236
  %simdBroadcast106.4 = call float @llvm.genx.GenISA.WaveBroadcast.f32(float %462, i32 4, i32 0)
  %476 = fsub reassoc nsz arcp contract float %475, %simdBroadcast106.4, !spirv.Decorations !1236		; visa id: 827
  %477 = call float @llvm.exp2.f32(float %476)		; visa id: 828
  %478 = fmul reassoc nsz arcp contract float %416, %const_reg_fp32, !spirv.Decorations !1236
  %simdBroadcast106.5 = call float @llvm.genx.GenISA.WaveBroadcast.f32(float %462, i32 5, i32 0)
  %479 = fsub reassoc nsz arcp contract float %478, %simdBroadcast106.5, !spirv.Decorations !1236		; visa id: 829
  %480 = call float @llvm.exp2.f32(float %479)		; visa id: 830
  %481 = fmul reassoc nsz arcp contract float %420, %const_reg_fp32, !spirv.Decorations !1236
  %simdBroadcast106.6 = call float @llvm.genx.GenISA.WaveBroadcast.f32(float %462, i32 6, i32 0)
  %482 = fsub reassoc nsz arcp contract float %481, %simdBroadcast106.6, !spirv.Decorations !1236		; visa id: 831
  %483 = call float @llvm.exp2.f32(float %482)		; visa id: 832
  %484 = fmul reassoc nsz arcp contract float %424, %const_reg_fp32, !spirv.Decorations !1236
  %simdBroadcast106.7 = call float @llvm.genx.GenISA.WaveBroadcast.f32(float %462, i32 7, i32 0)
  %485 = fsub reassoc nsz arcp contract float %484, %simdBroadcast106.7, !spirv.Decorations !1236		; visa id: 833
  %486 = call float @llvm.exp2.f32(float %485)		; visa id: 834
  %487 = fmul reassoc nsz arcp contract float %428, %const_reg_fp32, !spirv.Decorations !1236
  %simdBroadcast106.8 = call float @llvm.genx.GenISA.WaveBroadcast.f32(float %462, i32 8, i32 0)
  %488 = fsub reassoc nsz arcp contract float %487, %simdBroadcast106.8, !spirv.Decorations !1236		; visa id: 835
  %489 = call float @llvm.exp2.f32(float %488)		; visa id: 836
  %490 = fmul reassoc nsz arcp contract float %432, %const_reg_fp32, !spirv.Decorations !1236
  %simdBroadcast106.9 = call float @llvm.genx.GenISA.WaveBroadcast.f32(float %462, i32 9, i32 0)
  %491 = fsub reassoc nsz arcp contract float %490, %simdBroadcast106.9, !spirv.Decorations !1236		; visa id: 837
  %492 = call float @llvm.exp2.f32(float %491)		; visa id: 838
  %493 = fmul reassoc nsz arcp contract float %436, %const_reg_fp32, !spirv.Decorations !1236
  %simdBroadcast106.10 = call float @llvm.genx.GenISA.WaveBroadcast.f32(float %462, i32 10, i32 0)
  %494 = fsub reassoc nsz arcp contract float %493, %simdBroadcast106.10, !spirv.Decorations !1236		; visa id: 839
  %495 = call float @llvm.exp2.f32(float %494)		; visa id: 840
  %496 = fmul reassoc nsz arcp contract float %440, %const_reg_fp32, !spirv.Decorations !1236
  %simdBroadcast106.11 = call float @llvm.genx.GenISA.WaveBroadcast.f32(float %462, i32 11, i32 0)
  %497 = fsub reassoc nsz arcp contract float %496, %simdBroadcast106.11, !spirv.Decorations !1236		; visa id: 841
  %498 = call float @llvm.exp2.f32(float %497)		; visa id: 842
  %499 = fmul reassoc nsz arcp contract float %444, %const_reg_fp32, !spirv.Decorations !1236
  %simdBroadcast106.12 = call float @llvm.genx.GenISA.WaveBroadcast.f32(float %462, i32 12, i32 0)
  %500 = fsub reassoc nsz arcp contract float %499, %simdBroadcast106.12, !spirv.Decorations !1236		; visa id: 843
  %501 = call float @llvm.exp2.f32(float %500)		; visa id: 844
  %502 = fmul reassoc nsz arcp contract float %448, %const_reg_fp32, !spirv.Decorations !1236
  %simdBroadcast106.13 = call float @llvm.genx.GenISA.WaveBroadcast.f32(float %462, i32 13, i32 0)
  %503 = fsub reassoc nsz arcp contract float %502, %simdBroadcast106.13, !spirv.Decorations !1236		; visa id: 845
  %504 = call float @llvm.exp2.f32(float %503)		; visa id: 846
  %505 = fmul reassoc nsz arcp contract float %452, %const_reg_fp32, !spirv.Decorations !1236
  %simdBroadcast106.14 = call float @llvm.genx.GenISA.WaveBroadcast.f32(float %462, i32 14, i32 0)
  %506 = fsub reassoc nsz arcp contract float %505, %simdBroadcast106.14, !spirv.Decorations !1236		; visa id: 847
  %507 = call float @llvm.exp2.f32(float %506)		; visa id: 848
  %508 = fmul reassoc nsz arcp contract float %456, %const_reg_fp32, !spirv.Decorations !1236
  %simdBroadcast106.15 = call float @llvm.genx.GenISA.WaveBroadcast.f32(float %462, i32 15, i32 0)
  %509 = fsub reassoc nsz arcp contract float %508, %simdBroadcast106.15, !spirv.Decorations !1236		; visa id: 849
  %510 = call float @llvm.exp2.f32(float %509)		; visa id: 850
  %511 = fmul reassoc nsz arcp contract float %397, %const_reg_fp32, !spirv.Decorations !1236
  %512 = fsub reassoc nsz arcp contract float %511, %simdBroadcast106, !spirv.Decorations !1236		; visa id: 851
  %513 = call float @llvm.exp2.f32(float %512)		; visa id: 852
  %514 = fmul reassoc nsz arcp contract float %401, %const_reg_fp32, !spirv.Decorations !1236
  %515 = fsub reassoc nsz arcp contract float %514, %simdBroadcast106.1, !spirv.Decorations !1236		; visa id: 853
  %516 = call float @llvm.exp2.f32(float %515)		; visa id: 854
  %517 = fmul reassoc nsz arcp contract float %405, %const_reg_fp32, !spirv.Decorations !1236
  %518 = fsub reassoc nsz arcp contract float %517, %simdBroadcast106.2, !spirv.Decorations !1236		; visa id: 855
  %519 = call float @llvm.exp2.f32(float %518)		; visa id: 856
  %520 = fmul reassoc nsz arcp contract float %409, %const_reg_fp32, !spirv.Decorations !1236
  %521 = fsub reassoc nsz arcp contract float %520, %simdBroadcast106.3, !spirv.Decorations !1236		; visa id: 857
  %522 = call float @llvm.exp2.f32(float %521)		; visa id: 858
  %523 = fmul reassoc nsz arcp contract float %413, %const_reg_fp32, !spirv.Decorations !1236
  %524 = fsub reassoc nsz arcp contract float %523, %simdBroadcast106.4, !spirv.Decorations !1236		; visa id: 859
  %525 = call float @llvm.exp2.f32(float %524)		; visa id: 860
  %526 = fmul reassoc nsz arcp contract float %417, %const_reg_fp32, !spirv.Decorations !1236
  %527 = fsub reassoc nsz arcp contract float %526, %simdBroadcast106.5, !spirv.Decorations !1236		; visa id: 861
  %528 = call float @llvm.exp2.f32(float %527)		; visa id: 862
  %529 = fmul reassoc nsz arcp contract float %421, %const_reg_fp32, !spirv.Decorations !1236
  %530 = fsub reassoc nsz arcp contract float %529, %simdBroadcast106.6, !spirv.Decorations !1236		; visa id: 863
  %531 = call float @llvm.exp2.f32(float %530)		; visa id: 864
  %532 = fmul reassoc nsz arcp contract float %425, %const_reg_fp32, !spirv.Decorations !1236
  %533 = fsub reassoc nsz arcp contract float %532, %simdBroadcast106.7, !spirv.Decorations !1236		; visa id: 865
  %534 = call float @llvm.exp2.f32(float %533)		; visa id: 866
  %535 = fmul reassoc nsz arcp contract float %429, %const_reg_fp32, !spirv.Decorations !1236
  %536 = fsub reassoc nsz arcp contract float %535, %simdBroadcast106.8, !spirv.Decorations !1236		; visa id: 867
  %537 = call float @llvm.exp2.f32(float %536)		; visa id: 868
  %538 = fmul reassoc nsz arcp contract float %433, %const_reg_fp32, !spirv.Decorations !1236
  %539 = fsub reassoc nsz arcp contract float %538, %simdBroadcast106.9, !spirv.Decorations !1236		; visa id: 869
  %540 = call float @llvm.exp2.f32(float %539)		; visa id: 870
  %541 = fmul reassoc nsz arcp contract float %437, %const_reg_fp32, !spirv.Decorations !1236
  %542 = fsub reassoc nsz arcp contract float %541, %simdBroadcast106.10, !spirv.Decorations !1236		; visa id: 871
  %543 = call float @llvm.exp2.f32(float %542)		; visa id: 872
  %544 = fmul reassoc nsz arcp contract float %441, %const_reg_fp32, !spirv.Decorations !1236
  %545 = fsub reassoc nsz arcp contract float %544, %simdBroadcast106.11, !spirv.Decorations !1236		; visa id: 873
  %546 = call float @llvm.exp2.f32(float %545)		; visa id: 874
  %547 = fmul reassoc nsz arcp contract float %445, %const_reg_fp32, !spirv.Decorations !1236
  %548 = fsub reassoc nsz arcp contract float %547, %simdBroadcast106.12, !spirv.Decorations !1236		; visa id: 875
  %549 = call float @llvm.exp2.f32(float %548)		; visa id: 876
  %550 = fmul reassoc nsz arcp contract float %449, %const_reg_fp32, !spirv.Decorations !1236
  %551 = fsub reassoc nsz arcp contract float %550, %simdBroadcast106.13, !spirv.Decorations !1236		; visa id: 877
  %552 = call float @llvm.exp2.f32(float %551)		; visa id: 878
  %553 = fmul reassoc nsz arcp contract float %453, %const_reg_fp32, !spirv.Decorations !1236
  %554 = fsub reassoc nsz arcp contract float %553, %simdBroadcast106.14, !spirv.Decorations !1236		; visa id: 879
  %555 = call float @llvm.exp2.f32(float %554)		; visa id: 880
  %556 = fmul reassoc nsz arcp contract float %457, %const_reg_fp32, !spirv.Decorations !1236
  %557 = fsub reassoc nsz arcp contract float %556, %simdBroadcast106.15, !spirv.Decorations !1236		; visa id: 881
  %558 = call float @llvm.exp2.f32(float %557)		; visa id: 882
  %559 = icmp eq i32 %149, 0		; visa id: 883
  br i1 %559, label %._crit_edge161..loopexit.i_crit_edge, label %.loopexit.i.loopexit, !stats.blockFrequency.digits !1221, !stats.blockFrequency.scale !1204		; visa id: 884

._crit_edge161..loopexit.i_crit_edge:             ; preds = %._crit_edge161
; BB:
  br label %.loopexit.i, !stats.blockFrequency.digits !1227, !stats.blockFrequency.scale !1212

.loopexit.i.loopexit:                             ; preds = %._crit_edge161
; BB52 :
  %560 = fsub reassoc nsz arcp contract float %.sroa.0209.1165, %462, !spirv.Decorations !1236		; visa id: 886
  %561 = call float @llvm.exp2.f32(float %560)		; visa id: 887
  %simdBroadcast107 = call float @llvm.genx.GenISA.WaveBroadcast.f32(float %561, i32 0, i32 0)
  %562 = extractelement <8 x float> %.sroa.0.0, i32 0		; visa id: 888
  %563 = fmul reassoc nsz arcp contract float %562, %simdBroadcast107, !spirv.Decorations !1236		; visa id: 889
  %.sroa.0.0.vec.insert197 = insertelement <8 x float> poison, float %563, i64 0		; visa id: 890
  %simdBroadcast107.1 = call float @llvm.genx.GenISA.WaveBroadcast.f32(float %561, i32 1, i32 0)
  %564 = extractelement <8 x float> %.sroa.0.0, i32 1		; visa id: 891
  %565 = fmul reassoc nsz arcp contract float %564, %simdBroadcast107.1, !spirv.Decorations !1236		; visa id: 892
  %.sroa.0.4.vec.insert206 = insertelement <8 x float> %.sroa.0.0.vec.insert197, float %565, i64 1		; visa id: 893
  %simdBroadcast107.2 = call float @llvm.genx.GenISA.WaveBroadcast.f32(float %561, i32 2, i32 0)
  %566 = extractelement <8 x float> %.sroa.0.0, i32 2		; visa id: 894
  %567 = fmul reassoc nsz arcp contract float %566, %simdBroadcast107.2, !spirv.Decorations !1236		; visa id: 895
  %.sroa.0.8.vec.insert213 = insertelement <8 x float> %.sroa.0.4.vec.insert206, float %567, i64 2		; visa id: 896
  %simdBroadcast107.3 = call float @llvm.genx.GenISA.WaveBroadcast.f32(float %561, i32 3, i32 0)
  %568 = extractelement <8 x float> %.sroa.0.0, i32 3		; visa id: 897
  %569 = fmul reassoc nsz arcp contract float %568, %simdBroadcast107.3, !spirv.Decorations !1236		; visa id: 898
  %.sroa.0.12.vec.insert220 = insertelement <8 x float> %.sroa.0.8.vec.insert213, float %569, i64 3		; visa id: 899
  %simdBroadcast107.4 = call float @llvm.genx.GenISA.WaveBroadcast.f32(float %561, i32 4, i32 0)
  %570 = extractelement <8 x float> %.sroa.0.0, i32 4		; visa id: 900
  %571 = fmul reassoc nsz arcp contract float %570, %simdBroadcast107.4, !spirv.Decorations !1236		; visa id: 901
  %.sroa.0.16.vec.insert227 = insertelement <8 x float> %.sroa.0.12.vec.insert220, float %571, i64 4		; visa id: 902
  %simdBroadcast107.5 = call float @llvm.genx.GenISA.WaveBroadcast.f32(float %561, i32 5, i32 0)
  %572 = extractelement <8 x float> %.sroa.0.0, i32 5		; visa id: 903
  %573 = fmul reassoc nsz arcp contract float %572, %simdBroadcast107.5, !spirv.Decorations !1236		; visa id: 904
  %.sroa.0.20.vec.insert234 = insertelement <8 x float> %.sroa.0.16.vec.insert227, float %573, i64 5		; visa id: 905
  %simdBroadcast107.6 = call float @llvm.genx.GenISA.WaveBroadcast.f32(float %561, i32 6, i32 0)
  %574 = extractelement <8 x float> %.sroa.0.0, i32 6		; visa id: 906
  %575 = fmul reassoc nsz arcp contract float %574, %simdBroadcast107.6, !spirv.Decorations !1236		; visa id: 907
  %.sroa.0.24.vec.insert241 = insertelement <8 x float> %.sroa.0.20.vec.insert234, float %575, i64 6		; visa id: 908
  %simdBroadcast107.7 = call float @llvm.genx.GenISA.WaveBroadcast.f32(float %561, i32 7, i32 0)
  %576 = extractelement <8 x float> %.sroa.0.0, i32 7		; visa id: 909
  %577 = fmul reassoc nsz arcp contract float %576, %simdBroadcast107.7, !spirv.Decorations !1236		; visa id: 910
  %.sroa.0.28.vec.insert248 = insertelement <8 x float> %.sroa.0.24.vec.insert241, float %577, i64 7		; visa id: 911
  %simdBroadcast107.8 = call float @llvm.genx.GenISA.WaveBroadcast.f32(float %561, i32 8, i32 0)
  %578 = extractelement <8 x float> %.sroa.52.0, i32 0		; visa id: 912
  %579 = fmul reassoc nsz arcp contract float %578, %simdBroadcast107.8, !spirv.Decorations !1236		; visa id: 913
  %.sroa.52.32.vec.insert261 = insertelement <8 x float> poison, float %579, i64 0		; visa id: 914
  %simdBroadcast107.9 = call float @llvm.genx.GenISA.WaveBroadcast.f32(float %561, i32 9, i32 0)
  %580 = extractelement <8 x float> %.sroa.52.0, i32 1		; visa id: 915
  %581 = fmul reassoc nsz arcp contract float %580, %simdBroadcast107.9, !spirv.Decorations !1236		; visa id: 916
  %.sroa.52.36.vec.insert268 = insertelement <8 x float> %.sroa.52.32.vec.insert261, float %581, i64 1		; visa id: 917
  %simdBroadcast107.10 = call float @llvm.genx.GenISA.WaveBroadcast.f32(float %561, i32 10, i32 0)
  %582 = extractelement <8 x float> %.sroa.52.0, i32 2		; visa id: 918
  %583 = fmul reassoc nsz arcp contract float %582, %simdBroadcast107.10, !spirv.Decorations !1236		; visa id: 919
  %.sroa.52.40.vec.insert275 = insertelement <8 x float> %.sroa.52.36.vec.insert268, float %583, i64 2		; visa id: 920
  %simdBroadcast107.11 = call float @llvm.genx.GenISA.WaveBroadcast.f32(float %561, i32 11, i32 0)
  %584 = extractelement <8 x float> %.sroa.52.0, i32 3		; visa id: 921
  %585 = fmul reassoc nsz arcp contract float %584, %simdBroadcast107.11, !spirv.Decorations !1236		; visa id: 922
  %.sroa.52.44.vec.insert282 = insertelement <8 x float> %.sroa.52.40.vec.insert275, float %585, i64 3		; visa id: 923
  %simdBroadcast107.12 = call float @llvm.genx.GenISA.WaveBroadcast.f32(float %561, i32 12, i32 0)
  %586 = extractelement <8 x float> %.sroa.52.0, i32 4		; visa id: 924
  %587 = fmul reassoc nsz arcp contract float %586, %simdBroadcast107.12, !spirv.Decorations !1236		; visa id: 925
  %.sroa.52.48.vec.insert289 = insertelement <8 x float> %.sroa.52.44.vec.insert282, float %587, i64 4		; visa id: 926
  %simdBroadcast107.13 = call float @llvm.genx.GenISA.WaveBroadcast.f32(float %561, i32 13, i32 0)
  %588 = extractelement <8 x float> %.sroa.52.0, i32 5		; visa id: 927
  %589 = fmul reassoc nsz arcp contract float %588, %simdBroadcast107.13, !spirv.Decorations !1236		; visa id: 928
  %.sroa.52.52.vec.insert296 = insertelement <8 x float> %.sroa.52.48.vec.insert289, float %589, i64 5		; visa id: 929
  %simdBroadcast107.14 = call float @llvm.genx.GenISA.WaveBroadcast.f32(float %561, i32 14, i32 0)
  %590 = extractelement <8 x float> %.sroa.52.0, i32 6		; visa id: 930
  %591 = fmul reassoc nsz arcp contract float %590, %simdBroadcast107.14, !spirv.Decorations !1236		; visa id: 931
  %.sroa.52.56.vec.insert303 = insertelement <8 x float> %.sroa.52.52.vec.insert296, float %591, i64 6		; visa id: 932
  %simdBroadcast107.15 = call float @llvm.genx.GenISA.WaveBroadcast.f32(float %561, i32 15, i32 0)
  %592 = extractelement <8 x float> %.sroa.52.0, i32 7		; visa id: 933
  %593 = fmul reassoc nsz arcp contract float %592, %simdBroadcast107.15, !spirv.Decorations !1236		; visa id: 934
  %.sroa.52.60.vec.insert310 = insertelement <8 x float> %.sroa.52.56.vec.insert303, float %593, i64 7		; visa id: 935
  %594 = extractelement <8 x float> %.sroa.100.0, i32 0		; visa id: 936
  %595 = fmul reassoc nsz arcp contract float %594, %simdBroadcast107, !spirv.Decorations !1236		; visa id: 937
  %.sroa.100.64.vec.insert323 = insertelement <8 x float> poison, float %595, i64 0		; visa id: 938
  %596 = extractelement <8 x float> %.sroa.100.0, i32 1		; visa id: 939
  %597 = fmul reassoc nsz arcp contract float %596, %simdBroadcast107.1, !spirv.Decorations !1236		; visa id: 940
  %.sroa.100.68.vec.insert330 = insertelement <8 x float> %.sroa.100.64.vec.insert323, float %597, i64 1		; visa id: 941
  %598 = extractelement <8 x float> %.sroa.100.0, i32 2		; visa id: 942
  %599 = fmul reassoc nsz arcp contract float %598, %simdBroadcast107.2, !spirv.Decorations !1236		; visa id: 943
  %.sroa.100.72.vec.insert337 = insertelement <8 x float> %.sroa.100.68.vec.insert330, float %599, i64 2		; visa id: 944
  %600 = extractelement <8 x float> %.sroa.100.0, i32 3		; visa id: 945
  %601 = fmul reassoc nsz arcp contract float %600, %simdBroadcast107.3, !spirv.Decorations !1236		; visa id: 946
  %.sroa.100.76.vec.insert344 = insertelement <8 x float> %.sroa.100.72.vec.insert337, float %601, i64 3		; visa id: 947
  %602 = extractelement <8 x float> %.sroa.100.0, i32 4		; visa id: 948
  %603 = fmul reassoc nsz arcp contract float %602, %simdBroadcast107.4, !spirv.Decorations !1236		; visa id: 949
  %.sroa.100.80.vec.insert351 = insertelement <8 x float> %.sroa.100.76.vec.insert344, float %603, i64 4		; visa id: 950
  %604 = extractelement <8 x float> %.sroa.100.0, i32 5		; visa id: 951
  %605 = fmul reassoc nsz arcp contract float %604, %simdBroadcast107.5, !spirv.Decorations !1236		; visa id: 952
  %.sroa.100.84.vec.insert358 = insertelement <8 x float> %.sroa.100.80.vec.insert351, float %605, i64 5		; visa id: 953
  %606 = extractelement <8 x float> %.sroa.100.0, i32 6		; visa id: 954
  %607 = fmul reassoc nsz arcp contract float %606, %simdBroadcast107.6, !spirv.Decorations !1236		; visa id: 955
  %.sroa.100.88.vec.insert365 = insertelement <8 x float> %.sroa.100.84.vec.insert358, float %607, i64 6		; visa id: 956
  %608 = extractelement <8 x float> %.sroa.100.0, i32 7		; visa id: 957
  %609 = fmul reassoc nsz arcp contract float %608, %simdBroadcast107.7, !spirv.Decorations !1236		; visa id: 958
  %.sroa.100.92.vec.insert372 = insertelement <8 x float> %.sroa.100.88.vec.insert365, float %609, i64 7		; visa id: 959
  %610 = extractelement <8 x float> %.sroa.148.0, i32 0		; visa id: 960
  %611 = fmul reassoc nsz arcp contract float %610, %simdBroadcast107.8, !spirv.Decorations !1236		; visa id: 961
  %.sroa.148.96.vec.insert385 = insertelement <8 x float> poison, float %611, i64 0		; visa id: 962
  %612 = extractelement <8 x float> %.sroa.148.0, i32 1		; visa id: 963
  %613 = fmul reassoc nsz arcp contract float %612, %simdBroadcast107.9, !spirv.Decorations !1236		; visa id: 964
  %.sroa.148.100.vec.insert392 = insertelement <8 x float> %.sroa.148.96.vec.insert385, float %613, i64 1		; visa id: 965
  %614 = extractelement <8 x float> %.sroa.148.0, i32 2		; visa id: 966
  %615 = fmul reassoc nsz arcp contract float %614, %simdBroadcast107.10, !spirv.Decorations !1236		; visa id: 967
  %.sroa.148.104.vec.insert399 = insertelement <8 x float> %.sroa.148.100.vec.insert392, float %615, i64 2		; visa id: 968
  %616 = extractelement <8 x float> %.sroa.148.0, i32 3		; visa id: 969
  %617 = fmul reassoc nsz arcp contract float %616, %simdBroadcast107.11, !spirv.Decorations !1236		; visa id: 970
  %.sroa.148.108.vec.insert406 = insertelement <8 x float> %.sroa.148.104.vec.insert399, float %617, i64 3		; visa id: 971
  %618 = extractelement <8 x float> %.sroa.148.0, i32 4		; visa id: 972
  %619 = fmul reassoc nsz arcp contract float %618, %simdBroadcast107.12, !spirv.Decorations !1236		; visa id: 973
  %.sroa.148.112.vec.insert413 = insertelement <8 x float> %.sroa.148.108.vec.insert406, float %619, i64 4		; visa id: 974
  %620 = extractelement <8 x float> %.sroa.148.0, i32 5		; visa id: 975
  %621 = fmul reassoc nsz arcp contract float %620, %simdBroadcast107.13, !spirv.Decorations !1236		; visa id: 976
  %.sroa.148.116.vec.insert420 = insertelement <8 x float> %.sroa.148.112.vec.insert413, float %621, i64 5		; visa id: 977
  %622 = extractelement <8 x float> %.sroa.148.0, i32 6		; visa id: 978
  %623 = fmul reassoc nsz arcp contract float %622, %simdBroadcast107.14, !spirv.Decorations !1236		; visa id: 979
  %.sroa.148.120.vec.insert427 = insertelement <8 x float> %.sroa.148.116.vec.insert420, float %623, i64 6		; visa id: 980
  %624 = extractelement <8 x float> %.sroa.148.0, i32 7		; visa id: 981
  %625 = fmul reassoc nsz arcp contract float %624, %simdBroadcast107.15, !spirv.Decorations !1236		; visa id: 982
  %.sroa.148.124.vec.insert434 = insertelement <8 x float> %.sroa.148.120.vec.insert427, float %625, i64 7		; visa id: 983
  %626 = extractelement <8 x float> %.sroa.196.0, i32 0		; visa id: 984
  %627 = fmul reassoc nsz arcp contract float %626, %simdBroadcast107, !spirv.Decorations !1236		; visa id: 985
  %.sroa.196.128.vec.insert447 = insertelement <8 x float> poison, float %627, i64 0		; visa id: 986
  %628 = extractelement <8 x float> %.sroa.196.0, i32 1		; visa id: 987
  %629 = fmul reassoc nsz arcp contract float %628, %simdBroadcast107.1, !spirv.Decorations !1236		; visa id: 988
  %.sroa.196.132.vec.insert454 = insertelement <8 x float> %.sroa.196.128.vec.insert447, float %629, i64 1		; visa id: 989
  %630 = extractelement <8 x float> %.sroa.196.0, i32 2		; visa id: 990
  %631 = fmul reassoc nsz arcp contract float %630, %simdBroadcast107.2, !spirv.Decorations !1236		; visa id: 991
  %.sroa.196.136.vec.insert461 = insertelement <8 x float> %.sroa.196.132.vec.insert454, float %631, i64 2		; visa id: 992
  %632 = extractelement <8 x float> %.sroa.196.0, i32 3		; visa id: 993
  %633 = fmul reassoc nsz arcp contract float %632, %simdBroadcast107.3, !spirv.Decorations !1236		; visa id: 994
  %.sroa.196.140.vec.insert468 = insertelement <8 x float> %.sroa.196.136.vec.insert461, float %633, i64 3		; visa id: 995
  %634 = extractelement <8 x float> %.sroa.196.0, i32 4		; visa id: 996
  %635 = fmul reassoc nsz arcp contract float %634, %simdBroadcast107.4, !spirv.Decorations !1236		; visa id: 997
  %.sroa.196.144.vec.insert475 = insertelement <8 x float> %.sroa.196.140.vec.insert468, float %635, i64 4		; visa id: 998
  %636 = extractelement <8 x float> %.sroa.196.0, i32 5		; visa id: 999
  %637 = fmul reassoc nsz arcp contract float %636, %simdBroadcast107.5, !spirv.Decorations !1236		; visa id: 1000
  %.sroa.196.148.vec.insert482 = insertelement <8 x float> %.sroa.196.144.vec.insert475, float %637, i64 5		; visa id: 1001
  %638 = extractelement <8 x float> %.sroa.196.0, i32 6		; visa id: 1002
  %639 = fmul reassoc nsz arcp contract float %638, %simdBroadcast107.6, !spirv.Decorations !1236		; visa id: 1003
  %.sroa.196.152.vec.insert489 = insertelement <8 x float> %.sroa.196.148.vec.insert482, float %639, i64 6		; visa id: 1004
  %640 = extractelement <8 x float> %.sroa.196.0, i32 7		; visa id: 1005
  %641 = fmul reassoc nsz arcp contract float %640, %simdBroadcast107.7, !spirv.Decorations !1236		; visa id: 1006
  %.sroa.196.156.vec.insert496 = insertelement <8 x float> %.sroa.196.152.vec.insert489, float %641, i64 7		; visa id: 1007
  %642 = extractelement <8 x float> %.sroa.244.0, i32 0		; visa id: 1008
  %643 = fmul reassoc nsz arcp contract float %642, %simdBroadcast107.8, !spirv.Decorations !1236		; visa id: 1009
  %.sroa.244.160.vec.insert509 = insertelement <8 x float> poison, float %643, i64 0		; visa id: 1010
  %644 = extractelement <8 x float> %.sroa.244.0, i32 1		; visa id: 1011
  %645 = fmul reassoc nsz arcp contract float %644, %simdBroadcast107.9, !spirv.Decorations !1236		; visa id: 1012
  %.sroa.244.164.vec.insert516 = insertelement <8 x float> %.sroa.244.160.vec.insert509, float %645, i64 1		; visa id: 1013
  %646 = extractelement <8 x float> %.sroa.244.0, i32 2		; visa id: 1014
  %647 = fmul reassoc nsz arcp contract float %646, %simdBroadcast107.10, !spirv.Decorations !1236		; visa id: 1015
  %.sroa.244.168.vec.insert523 = insertelement <8 x float> %.sroa.244.164.vec.insert516, float %647, i64 2		; visa id: 1016
  %648 = extractelement <8 x float> %.sroa.244.0, i32 3		; visa id: 1017
  %649 = fmul reassoc nsz arcp contract float %648, %simdBroadcast107.11, !spirv.Decorations !1236		; visa id: 1018
  %.sroa.244.172.vec.insert530 = insertelement <8 x float> %.sroa.244.168.vec.insert523, float %649, i64 3		; visa id: 1019
  %650 = extractelement <8 x float> %.sroa.244.0, i32 4		; visa id: 1020
  %651 = fmul reassoc nsz arcp contract float %650, %simdBroadcast107.12, !spirv.Decorations !1236		; visa id: 1021
  %.sroa.244.176.vec.insert537 = insertelement <8 x float> %.sroa.244.172.vec.insert530, float %651, i64 4		; visa id: 1022
  %652 = extractelement <8 x float> %.sroa.244.0, i32 5		; visa id: 1023
  %653 = fmul reassoc nsz arcp contract float %652, %simdBroadcast107.13, !spirv.Decorations !1236		; visa id: 1024
  %.sroa.244.180.vec.insert544 = insertelement <8 x float> %.sroa.244.176.vec.insert537, float %653, i64 5		; visa id: 1025
  %654 = extractelement <8 x float> %.sroa.244.0, i32 6		; visa id: 1026
  %655 = fmul reassoc nsz arcp contract float %654, %simdBroadcast107.14, !spirv.Decorations !1236		; visa id: 1027
  %.sroa.244.184.vec.insert551 = insertelement <8 x float> %.sroa.244.180.vec.insert544, float %655, i64 6		; visa id: 1028
  %656 = extractelement <8 x float> %.sroa.244.0, i32 7		; visa id: 1029
  %657 = fmul reassoc nsz arcp contract float %656, %simdBroadcast107.15, !spirv.Decorations !1236		; visa id: 1030
  %.sroa.244.188.vec.insert558 = insertelement <8 x float> %.sroa.244.184.vec.insert551, float %657, i64 7		; visa id: 1031
  %658 = extractelement <8 x float> %.sroa.292.0, i32 0		; visa id: 1032
  %659 = fmul reassoc nsz arcp contract float %658, %simdBroadcast107, !spirv.Decorations !1236		; visa id: 1033
  %.sroa.292.192.vec.insert571 = insertelement <8 x float> poison, float %659, i64 0		; visa id: 1034
  %660 = extractelement <8 x float> %.sroa.292.0, i32 1		; visa id: 1035
  %661 = fmul reassoc nsz arcp contract float %660, %simdBroadcast107.1, !spirv.Decorations !1236		; visa id: 1036
  %.sroa.292.196.vec.insert578 = insertelement <8 x float> %.sroa.292.192.vec.insert571, float %661, i64 1		; visa id: 1037
  %662 = extractelement <8 x float> %.sroa.292.0, i32 2		; visa id: 1038
  %663 = fmul reassoc nsz arcp contract float %662, %simdBroadcast107.2, !spirv.Decorations !1236		; visa id: 1039
  %.sroa.292.200.vec.insert585 = insertelement <8 x float> %.sroa.292.196.vec.insert578, float %663, i64 2		; visa id: 1040
  %664 = extractelement <8 x float> %.sroa.292.0, i32 3		; visa id: 1041
  %665 = fmul reassoc nsz arcp contract float %664, %simdBroadcast107.3, !spirv.Decorations !1236		; visa id: 1042
  %.sroa.292.204.vec.insert592 = insertelement <8 x float> %.sroa.292.200.vec.insert585, float %665, i64 3		; visa id: 1043
  %666 = extractelement <8 x float> %.sroa.292.0, i32 4		; visa id: 1044
  %667 = fmul reassoc nsz arcp contract float %666, %simdBroadcast107.4, !spirv.Decorations !1236		; visa id: 1045
  %.sroa.292.208.vec.insert599 = insertelement <8 x float> %.sroa.292.204.vec.insert592, float %667, i64 4		; visa id: 1046
  %668 = extractelement <8 x float> %.sroa.292.0, i32 5		; visa id: 1047
  %669 = fmul reassoc nsz arcp contract float %668, %simdBroadcast107.5, !spirv.Decorations !1236		; visa id: 1048
  %.sroa.292.212.vec.insert606 = insertelement <8 x float> %.sroa.292.208.vec.insert599, float %669, i64 5		; visa id: 1049
  %670 = extractelement <8 x float> %.sroa.292.0, i32 6		; visa id: 1050
  %671 = fmul reassoc nsz arcp contract float %670, %simdBroadcast107.6, !spirv.Decorations !1236		; visa id: 1051
  %.sroa.292.216.vec.insert613 = insertelement <8 x float> %.sroa.292.212.vec.insert606, float %671, i64 6		; visa id: 1052
  %672 = extractelement <8 x float> %.sroa.292.0, i32 7		; visa id: 1053
  %673 = fmul reassoc nsz arcp contract float %672, %simdBroadcast107.7, !spirv.Decorations !1236		; visa id: 1054
  %.sroa.292.220.vec.insert620 = insertelement <8 x float> %.sroa.292.216.vec.insert613, float %673, i64 7		; visa id: 1055
  %674 = extractelement <8 x float> %.sroa.340.0, i32 0		; visa id: 1056
  %675 = fmul reassoc nsz arcp contract float %674, %simdBroadcast107.8, !spirv.Decorations !1236		; visa id: 1057
  %.sroa.340.224.vec.insert633 = insertelement <8 x float> poison, float %675, i64 0		; visa id: 1058
  %676 = extractelement <8 x float> %.sroa.340.0, i32 1		; visa id: 1059
  %677 = fmul reassoc nsz arcp contract float %676, %simdBroadcast107.9, !spirv.Decorations !1236		; visa id: 1060
  %.sroa.340.228.vec.insert640 = insertelement <8 x float> %.sroa.340.224.vec.insert633, float %677, i64 1		; visa id: 1061
  %678 = extractelement <8 x float> %.sroa.340.0, i32 2		; visa id: 1062
  %679 = fmul reassoc nsz arcp contract float %678, %simdBroadcast107.10, !spirv.Decorations !1236		; visa id: 1063
  %.sroa.340.232.vec.insert647 = insertelement <8 x float> %.sroa.340.228.vec.insert640, float %679, i64 2		; visa id: 1064
  %680 = extractelement <8 x float> %.sroa.340.0, i32 3		; visa id: 1065
  %681 = fmul reassoc nsz arcp contract float %680, %simdBroadcast107.11, !spirv.Decorations !1236		; visa id: 1066
  %.sroa.340.236.vec.insert654 = insertelement <8 x float> %.sroa.340.232.vec.insert647, float %681, i64 3		; visa id: 1067
  %682 = extractelement <8 x float> %.sroa.340.0, i32 4		; visa id: 1068
  %683 = fmul reassoc nsz arcp contract float %682, %simdBroadcast107.12, !spirv.Decorations !1236		; visa id: 1069
  %.sroa.340.240.vec.insert661 = insertelement <8 x float> %.sroa.340.236.vec.insert654, float %683, i64 4		; visa id: 1070
  %684 = extractelement <8 x float> %.sroa.340.0, i32 5		; visa id: 1071
  %685 = fmul reassoc nsz arcp contract float %684, %simdBroadcast107.13, !spirv.Decorations !1236		; visa id: 1072
  %.sroa.340.244.vec.insert668 = insertelement <8 x float> %.sroa.340.240.vec.insert661, float %685, i64 5		; visa id: 1073
  %686 = extractelement <8 x float> %.sroa.340.0, i32 6		; visa id: 1074
  %687 = fmul reassoc nsz arcp contract float %686, %simdBroadcast107.14, !spirv.Decorations !1236		; visa id: 1075
  %.sroa.340.248.vec.insert675 = insertelement <8 x float> %.sroa.340.244.vec.insert668, float %687, i64 6		; visa id: 1076
  %688 = extractelement <8 x float> %.sroa.340.0, i32 7		; visa id: 1077
  %689 = fmul reassoc nsz arcp contract float %688, %simdBroadcast107.15, !spirv.Decorations !1236		; visa id: 1078
  %.sroa.340.252.vec.insert682 = insertelement <8 x float> %.sroa.340.248.vec.insert675, float %689, i64 7		; visa id: 1079
  %690 = extractelement <8 x float> %.sroa.388.0, i32 0		; visa id: 1080
  %691 = fmul reassoc nsz arcp contract float %690, %simdBroadcast107, !spirv.Decorations !1236		; visa id: 1081
  %.sroa.388.256.vec.insert695 = insertelement <8 x float> poison, float %691, i64 0		; visa id: 1082
  %692 = extractelement <8 x float> %.sroa.388.0, i32 1		; visa id: 1083
  %693 = fmul reassoc nsz arcp contract float %692, %simdBroadcast107.1, !spirv.Decorations !1236		; visa id: 1084
  %.sroa.388.260.vec.insert702 = insertelement <8 x float> %.sroa.388.256.vec.insert695, float %693, i64 1		; visa id: 1085
  %694 = extractelement <8 x float> %.sroa.388.0, i32 2		; visa id: 1086
  %695 = fmul reassoc nsz arcp contract float %694, %simdBroadcast107.2, !spirv.Decorations !1236		; visa id: 1087
  %.sroa.388.264.vec.insert709 = insertelement <8 x float> %.sroa.388.260.vec.insert702, float %695, i64 2		; visa id: 1088
  %696 = extractelement <8 x float> %.sroa.388.0, i32 3		; visa id: 1089
  %697 = fmul reassoc nsz arcp contract float %696, %simdBroadcast107.3, !spirv.Decorations !1236		; visa id: 1090
  %.sroa.388.268.vec.insert716 = insertelement <8 x float> %.sroa.388.264.vec.insert709, float %697, i64 3		; visa id: 1091
  %698 = extractelement <8 x float> %.sroa.388.0, i32 4		; visa id: 1092
  %699 = fmul reassoc nsz arcp contract float %698, %simdBroadcast107.4, !spirv.Decorations !1236		; visa id: 1093
  %.sroa.388.272.vec.insert723 = insertelement <8 x float> %.sroa.388.268.vec.insert716, float %699, i64 4		; visa id: 1094
  %700 = extractelement <8 x float> %.sroa.388.0, i32 5		; visa id: 1095
  %701 = fmul reassoc nsz arcp contract float %700, %simdBroadcast107.5, !spirv.Decorations !1236		; visa id: 1096
  %.sroa.388.276.vec.insert730 = insertelement <8 x float> %.sroa.388.272.vec.insert723, float %701, i64 5		; visa id: 1097
  %702 = extractelement <8 x float> %.sroa.388.0, i32 6		; visa id: 1098
  %703 = fmul reassoc nsz arcp contract float %702, %simdBroadcast107.6, !spirv.Decorations !1236		; visa id: 1099
  %.sroa.388.280.vec.insert737 = insertelement <8 x float> %.sroa.388.276.vec.insert730, float %703, i64 6		; visa id: 1100
  %704 = extractelement <8 x float> %.sroa.388.0, i32 7		; visa id: 1101
  %705 = fmul reassoc nsz arcp contract float %704, %simdBroadcast107.7, !spirv.Decorations !1236		; visa id: 1102
  %.sroa.388.284.vec.insert744 = insertelement <8 x float> %.sroa.388.280.vec.insert737, float %705, i64 7		; visa id: 1103
  %706 = extractelement <8 x float> %.sroa.436.0, i32 0		; visa id: 1104
  %707 = fmul reassoc nsz arcp contract float %706, %simdBroadcast107.8, !spirv.Decorations !1236		; visa id: 1105
  %.sroa.436.288.vec.insert757 = insertelement <8 x float> poison, float %707, i64 0		; visa id: 1106
  %708 = extractelement <8 x float> %.sroa.436.0, i32 1		; visa id: 1107
  %709 = fmul reassoc nsz arcp contract float %708, %simdBroadcast107.9, !spirv.Decorations !1236		; visa id: 1108
  %.sroa.436.292.vec.insert764 = insertelement <8 x float> %.sroa.436.288.vec.insert757, float %709, i64 1		; visa id: 1109
  %710 = extractelement <8 x float> %.sroa.436.0, i32 2		; visa id: 1110
  %711 = fmul reassoc nsz arcp contract float %710, %simdBroadcast107.10, !spirv.Decorations !1236		; visa id: 1111
  %.sroa.436.296.vec.insert771 = insertelement <8 x float> %.sroa.436.292.vec.insert764, float %711, i64 2		; visa id: 1112
  %712 = extractelement <8 x float> %.sroa.436.0, i32 3		; visa id: 1113
  %713 = fmul reassoc nsz arcp contract float %712, %simdBroadcast107.11, !spirv.Decorations !1236		; visa id: 1114
  %.sroa.436.300.vec.insert778 = insertelement <8 x float> %.sroa.436.296.vec.insert771, float %713, i64 3		; visa id: 1115
  %714 = extractelement <8 x float> %.sroa.436.0, i32 4		; visa id: 1116
  %715 = fmul reassoc nsz arcp contract float %714, %simdBroadcast107.12, !spirv.Decorations !1236		; visa id: 1117
  %.sroa.436.304.vec.insert785 = insertelement <8 x float> %.sroa.436.300.vec.insert778, float %715, i64 4		; visa id: 1118
  %716 = extractelement <8 x float> %.sroa.436.0, i32 5		; visa id: 1119
  %717 = fmul reassoc nsz arcp contract float %716, %simdBroadcast107.13, !spirv.Decorations !1236		; visa id: 1120
  %.sroa.436.308.vec.insert792 = insertelement <8 x float> %.sroa.436.304.vec.insert785, float %717, i64 5		; visa id: 1121
  %718 = extractelement <8 x float> %.sroa.436.0, i32 6		; visa id: 1122
  %719 = fmul reassoc nsz arcp contract float %718, %simdBroadcast107.14, !spirv.Decorations !1236		; visa id: 1123
  %.sroa.436.312.vec.insert799 = insertelement <8 x float> %.sroa.436.308.vec.insert792, float %719, i64 6		; visa id: 1124
  %720 = extractelement <8 x float> %.sroa.436.0, i32 7		; visa id: 1125
  %721 = fmul reassoc nsz arcp contract float %720, %simdBroadcast107.15, !spirv.Decorations !1236		; visa id: 1126
  %.sroa.436.316.vec.insert806 = insertelement <8 x float> %.sroa.436.312.vec.insert799, float %721, i64 7		; visa id: 1127
  %722 = extractelement <8 x float> %.sroa.484.0, i32 0		; visa id: 1128
  %723 = fmul reassoc nsz arcp contract float %722, %simdBroadcast107, !spirv.Decorations !1236		; visa id: 1129
  %.sroa.484.320.vec.insert819 = insertelement <8 x float> poison, float %723, i64 0		; visa id: 1130
  %724 = extractelement <8 x float> %.sroa.484.0, i32 1		; visa id: 1131
  %725 = fmul reassoc nsz arcp contract float %724, %simdBroadcast107.1, !spirv.Decorations !1236		; visa id: 1132
  %.sroa.484.324.vec.insert826 = insertelement <8 x float> %.sroa.484.320.vec.insert819, float %725, i64 1		; visa id: 1133
  %726 = extractelement <8 x float> %.sroa.484.0, i32 2		; visa id: 1134
  %727 = fmul reassoc nsz arcp contract float %726, %simdBroadcast107.2, !spirv.Decorations !1236		; visa id: 1135
  %.sroa.484.328.vec.insert833 = insertelement <8 x float> %.sroa.484.324.vec.insert826, float %727, i64 2		; visa id: 1136
  %728 = extractelement <8 x float> %.sroa.484.0, i32 3		; visa id: 1137
  %729 = fmul reassoc nsz arcp contract float %728, %simdBroadcast107.3, !spirv.Decorations !1236		; visa id: 1138
  %.sroa.484.332.vec.insert840 = insertelement <8 x float> %.sroa.484.328.vec.insert833, float %729, i64 3		; visa id: 1139
  %730 = extractelement <8 x float> %.sroa.484.0, i32 4		; visa id: 1140
  %731 = fmul reassoc nsz arcp contract float %730, %simdBroadcast107.4, !spirv.Decorations !1236		; visa id: 1141
  %.sroa.484.336.vec.insert847 = insertelement <8 x float> %.sroa.484.332.vec.insert840, float %731, i64 4		; visa id: 1142
  %732 = extractelement <8 x float> %.sroa.484.0, i32 5		; visa id: 1143
  %733 = fmul reassoc nsz arcp contract float %732, %simdBroadcast107.5, !spirv.Decorations !1236		; visa id: 1144
  %.sroa.484.340.vec.insert854 = insertelement <8 x float> %.sroa.484.336.vec.insert847, float %733, i64 5		; visa id: 1145
  %734 = extractelement <8 x float> %.sroa.484.0, i32 6		; visa id: 1146
  %735 = fmul reassoc nsz arcp contract float %734, %simdBroadcast107.6, !spirv.Decorations !1236		; visa id: 1147
  %.sroa.484.344.vec.insert861 = insertelement <8 x float> %.sroa.484.340.vec.insert854, float %735, i64 6		; visa id: 1148
  %736 = extractelement <8 x float> %.sroa.484.0, i32 7		; visa id: 1149
  %737 = fmul reassoc nsz arcp contract float %736, %simdBroadcast107.7, !spirv.Decorations !1236		; visa id: 1150
  %.sroa.484.348.vec.insert868 = insertelement <8 x float> %.sroa.484.344.vec.insert861, float %737, i64 7		; visa id: 1151
  %738 = extractelement <8 x float> %.sroa.532.0, i32 0		; visa id: 1152
  %739 = fmul reassoc nsz arcp contract float %738, %simdBroadcast107.8, !spirv.Decorations !1236		; visa id: 1153
  %.sroa.532.352.vec.insert881 = insertelement <8 x float> poison, float %739, i64 0		; visa id: 1154
  %740 = extractelement <8 x float> %.sroa.532.0, i32 1		; visa id: 1155
  %741 = fmul reassoc nsz arcp contract float %740, %simdBroadcast107.9, !spirv.Decorations !1236		; visa id: 1156
  %.sroa.532.356.vec.insert888 = insertelement <8 x float> %.sroa.532.352.vec.insert881, float %741, i64 1		; visa id: 1157
  %742 = extractelement <8 x float> %.sroa.532.0, i32 2		; visa id: 1158
  %743 = fmul reassoc nsz arcp contract float %742, %simdBroadcast107.10, !spirv.Decorations !1236		; visa id: 1159
  %.sroa.532.360.vec.insert895 = insertelement <8 x float> %.sroa.532.356.vec.insert888, float %743, i64 2		; visa id: 1160
  %744 = extractelement <8 x float> %.sroa.532.0, i32 3		; visa id: 1161
  %745 = fmul reassoc nsz arcp contract float %744, %simdBroadcast107.11, !spirv.Decorations !1236		; visa id: 1162
  %.sroa.532.364.vec.insert902 = insertelement <8 x float> %.sroa.532.360.vec.insert895, float %745, i64 3		; visa id: 1163
  %746 = extractelement <8 x float> %.sroa.532.0, i32 4		; visa id: 1164
  %747 = fmul reassoc nsz arcp contract float %746, %simdBroadcast107.12, !spirv.Decorations !1236		; visa id: 1165
  %.sroa.532.368.vec.insert909 = insertelement <8 x float> %.sroa.532.364.vec.insert902, float %747, i64 4		; visa id: 1166
  %748 = extractelement <8 x float> %.sroa.532.0, i32 5		; visa id: 1167
  %749 = fmul reassoc nsz arcp contract float %748, %simdBroadcast107.13, !spirv.Decorations !1236		; visa id: 1168
  %.sroa.532.372.vec.insert916 = insertelement <8 x float> %.sroa.532.368.vec.insert909, float %749, i64 5		; visa id: 1169
  %750 = extractelement <8 x float> %.sroa.532.0, i32 6		; visa id: 1170
  %751 = fmul reassoc nsz arcp contract float %750, %simdBroadcast107.14, !spirv.Decorations !1236		; visa id: 1171
  %.sroa.532.376.vec.insert923 = insertelement <8 x float> %.sroa.532.372.vec.insert916, float %751, i64 6		; visa id: 1172
  %752 = extractelement <8 x float> %.sroa.532.0, i32 7		; visa id: 1173
  %753 = fmul reassoc nsz arcp contract float %752, %simdBroadcast107.15, !spirv.Decorations !1236		; visa id: 1174
  %.sroa.532.380.vec.insert930 = insertelement <8 x float> %.sroa.532.376.vec.insert923, float %753, i64 7		; visa id: 1175
  %754 = extractelement <8 x float> %.sroa.580.0, i32 0		; visa id: 1176
  %755 = fmul reassoc nsz arcp contract float %754, %simdBroadcast107, !spirv.Decorations !1236		; visa id: 1177
  %.sroa.580.384.vec.insert943 = insertelement <8 x float> poison, float %755, i64 0		; visa id: 1178
  %756 = extractelement <8 x float> %.sroa.580.0, i32 1		; visa id: 1179
  %757 = fmul reassoc nsz arcp contract float %756, %simdBroadcast107.1, !spirv.Decorations !1236		; visa id: 1180
  %.sroa.580.388.vec.insert950 = insertelement <8 x float> %.sroa.580.384.vec.insert943, float %757, i64 1		; visa id: 1181
  %758 = extractelement <8 x float> %.sroa.580.0, i32 2		; visa id: 1182
  %759 = fmul reassoc nsz arcp contract float %758, %simdBroadcast107.2, !spirv.Decorations !1236		; visa id: 1183
  %.sroa.580.392.vec.insert957 = insertelement <8 x float> %.sroa.580.388.vec.insert950, float %759, i64 2		; visa id: 1184
  %760 = extractelement <8 x float> %.sroa.580.0, i32 3		; visa id: 1185
  %761 = fmul reassoc nsz arcp contract float %760, %simdBroadcast107.3, !spirv.Decorations !1236		; visa id: 1186
  %.sroa.580.396.vec.insert964 = insertelement <8 x float> %.sroa.580.392.vec.insert957, float %761, i64 3		; visa id: 1187
  %762 = extractelement <8 x float> %.sroa.580.0, i32 4		; visa id: 1188
  %763 = fmul reassoc nsz arcp contract float %762, %simdBroadcast107.4, !spirv.Decorations !1236		; visa id: 1189
  %.sroa.580.400.vec.insert971 = insertelement <8 x float> %.sroa.580.396.vec.insert964, float %763, i64 4		; visa id: 1190
  %764 = extractelement <8 x float> %.sroa.580.0, i32 5		; visa id: 1191
  %765 = fmul reassoc nsz arcp contract float %764, %simdBroadcast107.5, !spirv.Decorations !1236		; visa id: 1192
  %.sroa.580.404.vec.insert978 = insertelement <8 x float> %.sroa.580.400.vec.insert971, float %765, i64 5		; visa id: 1193
  %766 = extractelement <8 x float> %.sroa.580.0, i32 6		; visa id: 1194
  %767 = fmul reassoc nsz arcp contract float %766, %simdBroadcast107.6, !spirv.Decorations !1236		; visa id: 1195
  %.sroa.580.408.vec.insert985 = insertelement <8 x float> %.sroa.580.404.vec.insert978, float %767, i64 6		; visa id: 1196
  %768 = extractelement <8 x float> %.sroa.580.0, i32 7		; visa id: 1197
  %769 = fmul reassoc nsz arcp contract float %768, %simdBroadcast107.7, !spirv.Decorations !1236		; visa id: 1198
  %.sroa.580.412.vec.insert992 = insertelement <8 x float> %.sroa.580.408.vec.insert985, float %769, i64 7		; visa id: 1199
  %770 = extractelement <8 x float> %.sroa.628.0, i32 0		; visa id: 1200
  %771 = fmul reassoc nsz arcp contract float %770, %simdBroadcast107.8, !spirv.Decorations !1236		; visa id: 1201
  %.sroa.628.416.vec.insert1005 = insertelement <8 x float> poison, float %771, i64 0		; visa id: 1202
  %772 = extractelement <8 x float> %.sroa.628.0, i32 1		; visa id: 1203
  %773 = fmul reassoc nsz arcp contract float %772, %simdBroadcast107.9, !spirv.Decorations !1236		; visa id: 1204
  %.sroa.628.420.vec.insert1012 = insertelement <8 x float> %.sroa.628.416.vec.insert1005, float %773, i64 1		; visa id: 1205
  %774 = extractelement <8 x float> %.sroa.628.0, i32 2		; visa id: 1206
  %775 = fmul reassoc nsz arcp contract float %774, %simdBroadcast107.10, !spirv.Decorations !1236		; visa id: 1207
  %.sroa.628.424.vec.insert1019 = insertelement <8 x float> %.sroa.628.420.vec.insert1012, float %775, i64 2		; visa id: 1208
  %776 = extractelement <8 x float> %.sroa.628.0, i32 3		; visa id: 1209
  %777 = fmul reassoc nsz arcp contract float %776, %simdBroadcast107.11, !spirv.Decorations !1236		; visa id: 1210
  %.sroa.628.428.vec.insert1026 = insertelement <8 x float> %.sroa.628.424.vec.insert1019, float %777, i64 3		; visa id: 1211
  %778 = extractelement <8 x float> %.sroa.628.0, i32 4		; visa id: 1212
  %779 = fmul reassoc nsz arcp contract float %778, %simdBroadcast107.12, !spirv.Decorations !1236		; visa id: 1213
  %.sroa.628.432.vec.insert1033 = insertelement <8 x float> %.sroa.628.428.vec.insert1026, float %779, i64 4		; visa id: 1214
  %780 = extractelement <8 x float> %.sroa.628.0, i32 5		; visa id: 1215
  %781 = fmul reassoc nsz arcp contract float %780, %simdBroadcast107.13, !spirv.Decorations !1236		; visa id: 1216
  %.sroa.628.436.vec.insert1040 = insertelement <8 x float> %.sroa.628.432.vec.insert1033, float %781, i64 5		; visa id: 1217
  %782 = extractelement <8 x float> %.sroa.628.0, i32 6		; visa id: 1218
  %783 = fmul reassoc nsz arcp contract float %782, %simdBroadcast107.14, !spirv.Decorations !1236		; visa id: 1219
  %.sroa.628.440.vec.insert1047 = insertelement <8 x float> %.sroa.628.436.vec.insert1040, float %783, i64 6		; visa id: 1220
  %784 = extractelement <8 x float> %.sroa.628.0, i32 7		; visa id: 1221
  %785 = fmul reassoc nsz arcp contract float %784, %simdBroadcast107.15, !spirv.Decorations !1236		; visa id: 1222
  %.sroa.628.444.vec.insert1054 = insertelement <8 x float> %.sroa.628.440.vec.insert1047, float %785, i64 7		; visa id: 1223
  %786 = extractelement <8 x float> %.sroa.676.0, i32 0		; visa id: 1224
  %787 = fmul reassoc nsz arcp contract float %786, %simdBroadcast107, !spirv.Decorations !1236		; visa id: 1225
  %.sroa.676.448.vec.insert1067 = insertelement <8 x float> poison, float %787, i64 0		; visa id: 1226
  %788 = extractelement <8 x float> %.sroa.676.0, i32 1		; visa id: 1227
  %789 = fmul reassoc nsz arcp contract float %788, %simdBroadcast107.1, !spirv.Decorations !1236		; visa id: 1228
  %.sroa.676.452.vec.insert1074 = insertelement <8 x float> %.sroa.676.448.vec.insert1067, float %789, i64 1		; visa id: 1229
  %790 = extractelement <8 x float> %.sroa.676.0, i32 2		; visa id: 1230
  %791 = fmul reassoc nsz arcp contract float %790, %simdBroadcast107.2, !spirv.Decorations !1236		; visa id: 1231
  %.sroa.676.456.vec.insert1081 = insertelement <8 x float> %.sroa.676.452.vec.insert1074, float %791, i64 2		; visa id: 1232
  %792 = extractelement <8 x float> %.sroa.676.0, i32 3		; visa id: 1233
  %793 = fmul reassoc nsz arcp contract float %792, %simdBroadcast107.3, !spirv.Decorations !1236		; visa id: 1234
  %.sroa.676.460.vec.insert1088 = insertelement <8 x float> %.sroa.676.456.vec.insert1081, float %793, i64 3		; visa id: 1235
  %794 = extractelement <8 x float> %.sroa.676.0, i32 4		; visa id: 1236
  %795 = fmul reassoc nsz arcp contract float %794, %simdBroadcast107.4, !spirv.Decorations !1236		; visa id: 1237
  %.sroa.676.464.vec.insert1095 = insertelement <8 x float> %.sroa.676.460.vec.insert1088, float %795, i64 4		; visa id: 1238
  %796 = extractelement <8 x float> %.sroa.676.0, i32 5		; visa id: 1239
  %797 = fmul reassoc nsz arcp contract float %796, %simdBroadcast107.5, !spirv.Decorations !1236		; visa id: 1240
  %.sroa.676.468.vec.insert1102 = insertelement <8 x float> %.sroa.676.464.vec.insert1095, float %797, i64 5		; visa id: 1241
  %798 = extractelement <8 x float> %.sroa.676.0, i32 6		; visa id: 1242
  %799 = fmul reassoc nsz arcp contract float %798, %simdBroadcast107.6, !spirv.Decorations !1236		; visa id: 1243
  %.sroa.676.472.vec.insert1109 = insertelement <8 x float> %.sroa.676.468.vec.insert1102, float %799, i64 6		; visa id: 1244
  %800 = extractelement <8 x float> %.sroa.676.0, i32 7		; visa id: 1245
  %801 = fmul reassoc nsz arcp contract float %800, %simdBroadcast107.7, !spirv.Decorations !1236		; visa id: 1246
  %.sroa.676.476.vec.insert1116 = insertelement <8 x float> %.sroa.676.472.vec.insert1109, float %801, i64 7		; visa id: 1247
  %802 = extractelement <8 x float> %.sroa.724.0, i32 0		; visa id: 1248
  %803 = fmul reassoc nsz arcp contract float %802, %simdBroadcast107.8, !spirv.Decorations !1236		; visa id: 1249
  %.sroa.724.480.vec.insert1129 = insertelement <8 x float> poison, float %803, i64 0		; visa id: 1250
  %804 = extractelement <8 x float> %.sroa.724.0, i32 1		; visa id: 1251
  %805 = fmul reassoc nsz arcp contract float %804, %simdBroadcast107.9, !spirv.Decorations !1236		; visa id: 1252
  %.sroa.724.484.vec.insert1136 = insertelement <8 x float> %.sroa.724.480.vec.insert1129, float %805, i64 1		; visa id: 1253
  %806 = extractelement <8 x float> %.sroa.724.0, i32 2		; visa id: 1254
  %807 = fmul reassoc nsz arcp contract float %806, %simdBroadcast107.10, !spirv.Decorations !1236		; visa id: 1255
  %.sroa.724.488.vec.insert1143 = insertelement <8 x float> %.sroa.724.484.vec.insert1136, float %807, i64 2		; visa id: 1256
  %808 = extractelement <8 x float> %.sroa.724.0, i32 3		; visa id: 1257
  %809 = fmul reassoc nsz arcp contract float %808, %simdBroadcast107.11, !spirv.Decorations !1236		; visa id: 1258
  %.sroa.724.492.vec.insert1150 = insertelement <8 x float> %.sroa.724.488.vec.insert1143, float %809, i64 3		; visa id: 1259
  %810 = extractelement <8 x float> %.sroa.724.0, i32 4		; visa id: 1260
  %811 = fmul reassoc nsz arcp contract float %810, %simdBroadcast107.12, !spirv.Decorations !1236		; visa id: 1261
  %.sroa.724.496.vec.insert1157 = insertelement <8 x float> %.sroa.724.492.vec.insert1150, float %811, i64 4		; visa id: 1262
  %812 = extractelement <8 x float> %.sroa.724.0, i32 5		; visa id: 1263
  %813 = fmul reassoc nsz arcp contract float %812, %simdBroadcast107.13, !spirv.Decorations !1236		; visa id: 1264
  %.sroa.724.500.vec.insert1164 = insertelement <8 x float> %.sroa.724.496.vec.insert1157, float %813, i64 5		; visa id: 1265
  %814 = extractelement <8 x float> %.sroa.724.0, i32 6		; visa id: 1266
  %815 = fmul reassoc nsz arcp contract float %814, %simdBroadcast107.14, !spirv.Decorations !1236		; visa id: 1267
  %.sroa.724.504.vec.insert1171 = insertelement <8 x float> %.sroa.724.500.vec.insert1164, float %815, i64 6		; visa id: 1268
  %816 = extractelement <8 x float> %.sroa.724.0, i32 7		; visa id: 1269
  %817 = fmul reassoc nsz arcp contract float %816, %simdBroadcast107.15, !spirv.Decorations !1236		; visa id: 1270
  %.sroa.724.508.vec.insert1178 = insertelement <8 x float> %.sroa.724.504.vec.insert1171, float %817, i64 7		; visa id: 1271
  %818 = fmul reassoc nsz arcp contract float %.sroa.0200.1164, %561, !spirv.Decorations !1236		; visa id: 1272
  br label %.loopexit.i, !stats.blockFrequency.digits !1228, !stats.blockFrequency.scale !1212		; visa id: 1401

.loopexit.i:                                      ; preds = %._crit_edge161..loopexit.i_crit_edge, %.loopexit.i.loopexit
; BB53 :
  %.sroa.724.2 = phi <8 x float> [ %.sroa.724.508.vec.insert1178, %.loopexit.i.loopexit ], [ %.sroa.724.0, %._crit_edge161..loopexit.i_crit_edge ]
  %.sroa.676.2 = phi <8 x float> [ %.sroa.676.476.vec.insert1116, %.loopexit.i.loopexit ], [ %.sroa.676.0, %._crit_edge161..loopexit.i_crit_edge ]
  %.sroa.628.2 = phi <8 x float> [ %.sroa.628.444.vec.insert1054, %.loopexit.i.loopexit ], [ %.sroa.628.0, %._crit_edge161..loopexit.i_crit_edge ]
  %.sroa.580.2 = phi <8 x float> [ %.sroa.580.412.vec.insert992, %.loopexit.i.loopexit ], [ %.sroa.580.0, %._crit_edge161..loopexit.i_crit_edge ]
  %.sroa.532.2 = phi <8 x float> [ %.sroa.532.380.vec.insert930, %.loopexit.i.loopexit ], [ %.sroa.532.0, %._crit_edge161..loopexit.i_crit_edge ]
  %.sroa.484.2 = phi <8 x float> [ %.sroa.484.348.vec.insert868, %.loopexit.i.loopexit ], [ %.sroa.484.0, %._crit_edge161..loopexit.i_crit_edge ]
  %.sroa.436.2 = phi <8 x float> [ %.sroa.436.316.vec.insert806, %.loopexit.i.loopexit ], [ %.sroa.436.0, %._crit_edge161..loopexit.i_crit_edge ]
  %.sroa.388.2 = phi <8 x float> [ %.sroa.388.284.vec.insert744, %.loopexit.i.loopexit ], [ %.sroa.388.0, %._crit_edge161..loopexit.i_crit_edge ]
  %.sroa.340.2 = phi <8 x float> [ %.sroa.340.252.vec.insert682, %.loopexit.i.loopexit ], [ %.sroa.340.0, %._crit_edge161..loopexit.i_crit_edge ]
  %.sroa.292.2 = phi <8 x float> [ %.sroa.292.220.vec.insert620, %.loopexit.i.loopexit ], [ %.sroa.292.0, %._crit_edge161..loopexit.i_crit_edge ]
  %.sroa.244.2 = phi <8 x float> [ %.sroa.244.188.vec.insert558, %.loopexit.i.loopexit ], [ %.sroa.244.0, %._crit_edge161..loopexit.i_crit_edge ]
  %.sroa.196.2 = phi <8 x float> [ %.sroa.196.156.vec.insert496, %.loopexit.i.loopexit ], [ %.sroa.196.0, %._crit_edge161..loopexit.i_crit_edge ]
  %.sroa.148.2 = phi <8 x float> [ %.sroa.148.124.vec.insert434, %.loopexit.i.loopexit ], [ %.sroa.148.0, %._crit_edge161..loopexit.i_crit_edge ]
  %.sroa.100.2 = phi <8 x float> [ %.sroa.100.92.vec.insert372, %.loopexit.i.loopexit ], [ %.sroa.100.0, %._crit_edge161..loopexit.i_crit_edge ]
  %.sroa.52.2 = phi <8 x float> [ %.sroa.52.60.vec.insert310, %.loopexit.i.loopexit ], [ %.sroa.52.0, %._crit_edge161..loopexit.i_crit_edge ]
  %.sroa.0.2 = phi <8 x float> [ %.sroa.0.28.vec.insert248, %.loopexit.i.loopexit ], [ %.sroa.0.0, %._crit_edge161..loopexit.i_crit_edge ]
  %.sroa.0200.2 = phi float [ %818, %.loopexit.i.loopexit ], [ %.sroa.0200.1164, %._crit_edge161..loopexit.i_crit_edge ]
  %819 = fadd reassoc nsz arcp contract float %465, %513, !spirv.Decorations !1236		; visa id: 1402
  %820 = fadd reassoc nsz arcp contract float %468, %516, !spirv.Decorations !1236		; visa id: 1403
  %821 = fadd reassoc nsz arcp contract float %471, %519, !spirv.Decorations !1236		; visa id: 1404
  %822 = fadd reassoc nsz arcp contract float %474, %522, !spirv.Decorations !1236		; visa id: 1405
  %823 = fadd reassoc nsz arcp contract float %477, %525, !spirv.Decorations !1236		; visa id: 1406
  %824 = fadd reassoc nsz arcp contract float %480, %528, !spirv.Decorations !1236		; visa id: 1407
  %825 = fadd reassoc nsz arcp contract float %483, %531, !spirv.Decorations !1236		; visa id: 1408
  %826 = fadd reassoc nsz arcp contract float %486, %534, !spirv.Decorations !1236		; visa id: 1409
  %827 = fadd reassoc nsz arcp contract float %489, %537, !spirv.Decorations !1236		; visa id: 1410
  %828 = fadd reassoc nsz arcp contract float %492, %540, !spirv.Decorations !1236		; visa id: 1411
  %829 = fadd reassoc nsz arcp contract float %495, %543, !spirv.Decorations !1236		; visa id: 1412
  %830 = fadd reassoc nsz arcp contract float %498, %546, !spirv.Decorations !1236		; visa id: 1413
  %831 = fadd reassoc nsz arcp contract float %501, %549, !spirv.Decorations !1236		; visa id: 1414
  %832 = fadd reassoc nsz arcp contract float %504, %552, !spirv.Decorations !1236		; visa id: 1415
  %833 = fadd reassoc nsz arcp contract float %507, %555, !spirv.Decorations !1236		; visa id: 1416
  %834 = fadd reassoc nsz arcp contract float %510, %558, !spirv.Decorations !1236		; visa id: 1417
  %835 = call float asm "{\0A.decl INTERLEAVE_2 v_type=P num_elts=16\0A.decl INTERLEAVE_4 v_type=P num_elts=16\0A.decl INTERLEAVE_8 v_type=P num_elts=16\0A.decl IN0 v_type=G type=UD num_elts=16 alias=<$1,0>\0A.decl IN1 v_type=G type=UD num_elts=16 alias=<$2,0>\0A.decl IN2 v_type=G type=UD num_elts=16 alias=<$3,0>\0A.decl IN3 v_type=G type=UD num_elts=16 alias=<$4,0>\0A.decl IN4 v_type=G type=UD num_elts=16 alias=<$5,0>\0A.decl IN5 v_type=G type=UD num_elts=16 alias=<$6,0>\0A.decl IN6 v_type=G type=UD num_elts=16 alias=<$7,0>\0A.decl IN7 v_type=G type=UD num_elts=16 alias=<$8,0>\0A.decl IN8 v_type=G type=UD num_elts=16 alias=<$9,0>\0A.decl IN9 v_type=G type=UD num_elts=16 alias=<$10,0>\0A.decl IN10 v_type=G type=UD num_elts=16 alias=<$11,0>\0A.decl IN11 v_type=G type=UD num_elts=16 alias=<$12,0>\0A.decl IN12 v_type=G type=UD num_elts=16 alias=<$13,0>\0A.decl IN13 v_type=G type=UD num_elts=16 alias=<$14,0>\0A.decl IN14 v_type=G type=UD num_elts=16 alias=<$15,0>\0A.decl IN15 v_type=G type=UD num_elts=16 alias=<$16,0>\0A.decl RA0 v_type=G type=UD num_elts=32 align=64\0A.decl RA2 v_type=G type=UD num_elts=32 align=64\0A.decl RA4 v_type=G type=UD num_elts=32 align=64\0A.decl RA6 v_type=G type=UD num_elts=32 align=64\0A.decl RA8 v_type=G type=UD num_elts=32 align=64\0A.decl RA10 v_type=G type=UD num_elts=32 align=64\0A.decl RA12 v_type=G type=UD num_elts=32 align=64\0A.decl RA14 v_type=G type=UD num_elts=32 align=64\0A.decl RF0 v_type=G type=F num_elts=16 alias=<RA0,0>\0A.decl RF1 v_type=G type=F num_elts=16 alias=<RA0,64>\0A.decl RF2 v_type=G type=F num_elts=16 alias=<RA2,0>\0A.decl RF3 v_type=G type=F num_elts=16 alias=<RA2,64>\0A.decl RF4 v_type=G type=F num_elts=16 alias=<RA4,0>\0A.decl RF5 v_type=G type=F num_elts=16 alias=<RA4,64>\0A.decl RF6 v_type=G type=F num_elts=16 alias=<RA6,0>\0A.decl RF7 v_type=G type=F num_elts=16 alias=<RA6,64>\0A.decl RF8 v_type=G type=F num_elts=16 alias=<RA8,0>\0A.decl RF9 v_type=G type=F num_elts=16 alias=<RA8,64>\0A.decl RF10 v_type=G type=F num_elts=16 alias=<RA10,0>\0A.decl RF11 v_type=G type=F num_elts=16 alias=<RA10,64>\0A.decl RF12 v_type=G type=F num_elts=16 alias=<RA12,0>\0A.decl RF13 v_type=G type=F num_elts=16 alias=<RA12,64>\0A.decl RF14 v_type=G type=F num_elts=16 alias=<RA14,0>\0A.decl RF15 v_type=G type=F num_elts=16 alias=<RA14,64>\0Asetp (M1_NM,16) INTERLEAVE_2 0x5555:uw\0Asetp (M1_NM,16) INTERLEAVE_4 0x3333:uw\0Asetp (M1_NM,16) INTERLEAVE_8 0x0F0F:uw\0A(!INTERLEAVE_2) sel (M1_NM,16) RA0(0,0)<1>  IN1(0,0)<2;2,0>  IN0(0,0)<1;1,0>\0A (INTERLEAVE_2) sel (M1_NM,16) RA0(1,0)<1>  IN0(0,1)<2;2,0>  IN1(0,0)<1;1,0>\0A(!INTERLEAVE_2) sel (M1_NM,16) RA2(0,0)<1>  IN3(0,0)<2;2,0>  IN2(0,0)<1;1,0>\0A (INTERLEAVE_2) sel (M1_NM,16) RA2(1,0)<1>  IN2(0,1)<2;2,0>  IN3(0,0)<1;1,0>\0A(!INTERLEAVE_2) sel (M1_NM,16) RA4(0,0)<1>  IN5(0,0)<2;2,0>  IN4(0,0)<1;1,0>\0A (INTERLEAVE_2) sel (M1_NM,16) RA4(1,0)<1>  IN4(0,1)<2;2,0>  IN5(0,0)<1;1,0>\0A(!INTERLEAVE_2) sel (M1_NM,16) RA6(0,0)<1>  IN7(0,0)<2;2,0>  IN6(0,0)<1;1,0>\0A (INTERLEAVE_2) sel (M1_NM,16) RA6(1,0)<1>  IN6(0,1)<2;2,0>  IN7(0,0)<1;1,0>\0A(!INTERLEAVE_2) sel (M1_NM,16) RA8(0,0)<1>  IN9(0,0)<2;2,0>  IN8(0,0)<1;1,0>\0A (INTERLEAVE_2) sel (M1_NM,16) RA8(1,0)<1>  IN8(0,1)<2;2,0>  IN9(0,0)<1;1,0>\0A(!INTERLEAVE_2) sel (M1_NM,16) RA10(0,0)<1> IN11(0,0)<2;2,0> IN10(0,0)<1;1,0>\0A (INTERLEAVE_2) sel (M1_NM,16) RA10(1,0)<1> IN10(0,1)<2;2,0> IN11(0,0)<1;1,0>\0A(!INTERLEAVE_2) sel (M1_NM,16) RA12(0,0)<1> IN13(0,0)<2;2,0> IN12(0,0)<1;1,0>\0A (INTERLEAVE_2) sel (M1_NM,16) RA12(1,0)<1> IN12(0,1)<2;2,0> IN13(0,0)<1;1,0>\0A(!INTERLEAVE_2) sel (M1_NM,16) RA14(0,0)<1> IN15(0,0)<2;2,0> IN14(0,0)<1;1,0>\0A (INTERLEAVE_2) sel (M1_NM,16) RA14(1,0)<1> IN14(0,1)<2;2,0> IN15(0,0)<1;1,0>\0Aadd (M1_NM,16) RF0(0,0)<1> RF0(0,0)<1;1,0> RF1(0,0)<1;1,0>\0Aadd (M1_NM,16) RF3(0,0)<1> RF2(0,0)<1;1,0> RF3(0,0)<1;1,0>\0Aadd (M1_NM,16) RF4(0,0)<1> RF4(0,0)<1;1,0> RF5(0,0)<1;1,0>\0Aadd (M1_NM,16) RF7(0,0)<1> RF6(0,0)<1;1,0> RF7(0,0)<1;1,0>\0Aadd (M1_NM,16) RF8(0,0)<1> RF8(0,0)<1;1,0> RF9(0,0)<1;1,0>\0Aadd (M1_NM,16) RF11(0,0)<1> RF10(0,0)<1;1,0> RF11(0,0)<1;1,0>\0Aadd (M1_NM,16) RF12(0,0)<1> RF12(0,0)<1;1,0> RF13(0,0)<1;1,0>\0Aadd (M1_NM,16) RF15(0,0)<1> RF14(0,0)<1;1,0> RF15(0,0)<1;1,0>\0A(!INTERLEAVE_4) sel (M1_NM,16) RA0(1,0)<1>  RA2(0,14)<1;1,0>  RA0(0,0)<1;1,0>\0A (INTERLEAVE_4) sel (M1_NM,16) RA0(0,0)<1>  RA0(0,2)<1;1,0>   RA2(1,0)<1;1,0>\0A(!INTERLEAVE_4) sel (M1_NM,16) RA4(1,0)<1>  RA6(0,14)<1;1,0>  RA4(0,0)<1;1,0>\0A (INTERLEAVE_4) sel (M1_NM,16) RA4(0,0)<1>  RA4(0,2)<1;1,0>   RA6(1,0)<1;1,0>\0A(!INTERLEAVE_4) sel (M1_NM,16) RA8(1,0)<1>  RA10(0,14)<1;1,0> RA8(0,0)<1;1,0>\0A (INTERLEAVE_4) sel (M1_NM,16) RA8(0,0)<1>  RA8(0,2)<1;1,0>   RA10(1,0)<1;1,0>\0A(!INTERLEAVE_4) sel (M1_NM,16) RA12(1,0)<1> RA14(0,14)<1;1,0> RA12(0,0)<1;1,0>\0A (INTERLEAVE_4) sel (M1_NM,16) RA12(0,0)<1> RA12(0,2)<1;1,0>  RA14(1,0)<1;1,0>\0Aadd (M1_NM,16) RF0(0,0)<1>  RF0(0,0)<1;1,0>  RF1(0,0)<1;1,0>\0Aadd (M1_NM,16) RF5(0,0)<1>  RF4(0,0)<1;1,0>  RF5(0,0)<1;1,0>\0Aadd (M1_NM,16) RF8(0,0)<1>  RF8(0,0)<1;1,0>  RF9(0,0)<1;1,0>\0Aadd (M1_NM,16) RF13(0,0)<1> RF12(0,0)<1;1,0> RF13(0,0)<1;1,0>\0A(!INTERLEAVE_8) sel (M1_NM,16) RA0(1,0)<1> RA4(0,12)<1;1,0>  RA0(0,0)<1;1,0>\0A (INTERLEAVE_8) sel (M1_NM,16) RA0(0,0)<1> RA0(0,4)<1;1,0>   RA4(1,0)<1;1,0>\0A(!INTERLEAVE_8) sel (M1_NM,16) RA8(1,0)<1> RA12(0,12)<1;1,0> RA8(0,0)<1;1,0>\0A (INTERLEAVE_8) sel (M1_NM,16) RA8(0,0)<1> RA8(0,4)<1;1,0>   RA12(1,0)<1;1,0>\0Aadd (M1_NM,16) RF0(0,0)<1> RF0(0,0)<1;1,0> RF1(0,0)<1;1,0>\0Aadd (M1_NM,16) RF8(0,0)<1> RF8(0,0)<1;1,0> RF9(0,0)<1;1,0>\0Amov (M1_NM, 8) RA0(1,0)<1> RA0(0,8)<1;1,0>\0Amov (M1_NM, 8) RA8(1,8)<1> RA8(0,0)<1;1,0>\0Aadd (M1_NM,8) $0(0,0)<1> RF0(0,0)<1;1,0> RF1(0,0)<1;1,0>\0Aadd (M1_NM,8) $0(0,8)<1> RF8(0,8)<1;1,0> RF9(0,8)<1;1,0>\0A}\0A", "=rw,rw,rw,rw,rw,rw,rw,rw,rw,rw,rw,rw,rw,rw,rw,rw,rw"(float %819, float %820, float %821, float %822, float %823, float %824, float %825, float %826, float %827, float %828, float %829, float %830, float %831, float %832, float %833, float %834) #0		; visa id: 1418
  %bf_cvt = call i16 @llvm.genx.GenISA.ftobf.i16.f32(float %465, i32 0)		; visa id: 1418
  %.sroa.03013.0.vec.insert3031 = insertelement <8 x i16> poison, i16 %bf_cvt, i64 0		; visa id: 1419
  %bf_cvt.1 = call i16 @llvm.genx.GenISA.ftobf.i16.f32(float %468, i32 0)		; visa id: 1420
  %.sroa.03013.2.vec.insert3034 = insertelement <8 x i16> %.sroa.03013.0.vec.insert3031, i16 %bf_cvt.1, i64 1		; visa id: 1421
  %bf_cvt.2 = call i16 @llvm.genx.GenISA.ftobf.i16.f32(float %471, i32 0)		; visa id: 1422
  %.sroa.03013.4.vec.insert3036 = insertelement <8 x i16> %.sroa.03013.2.vec.insert3034, i16 %bf_cvt.2, i64 2		; visa id: 1423
  %bf_cvt.3 = call i16 @llvm.genx.GenISA.ftobf.i16.f32(float %474, i32 0)		; visa id: 1424
  %.sroa.03013.6.vec.insert3038 = insertelement <8 x i16> %.sroa.03013.4.vec.insert3036, i16 %bf_cvt.3, i64 3		; visa id: 1425
  %bf_cvt.4 = call i16 @llvm.genx.GenISA.ftobf.i16.f32(float %477, i32 0)		; visa id: 1426
  %.sroa.03013.8.vec.insert3040 = insertelement <8 x i16> %.sroa.03013.6.vec.insert3038, i16 %bf_cvt.4, i64 4		; visa id: 1427
  %bf_cvt.5 = call i16 @llvm.genx.GenISA.ftobf.i16.f32(float %480, i32 0)		; visa id: 1428
  %.sroa.03013.10.vec.insert3042 = insertelement <8 x i16> %.sroa.03013.8.vec.insert3040, i16 %bf_cvt.5, i64 5		; visa id: 1429
  %bf_cvt.6 = call i16 @llvm.genx.GenISA.ftobf.i16.f32(float %483, i32 0)		; visa id: 1430
  %.sroa.03013.12.vec.insert3044 = insertelement <8 x i16> %.sroa.03013.10.vec.insert3042, i16 %bf_cvt.6, i64 6		; visa id: 1431
  %bf_cvt.7 = call i16 @llvm.genx.GenISA.ftobf.i16.f32(float %486, i32 0)		; visa id: 1432
  %.sroa.03013.14.vec.insert3046 = insertelement <8 x i16> %.sroa.03013.12.vec.insert3044, i16 %bf_cvt.7, i64 7		; visa id: 1433
  %bf_cvt.8 = call i16 @llvm.genx.GenISA.ftobf.i16.f32(float %489, i32 0)		; visa id: 1434
  %.sroa.35.16.vec.insert3065 = insertelement <8 x i16> poison, i16 %bf_cvt.8, i64 0		; visa id: 1435
  %bf_cvt.9 = call i16 @llvm.genx.GenISA.ftobf.i16.f32(float %492, i32 0)		; visa id: 1436
  %.sroa.35.18.vec.insert3067 = insertelement <8 x i16> %.sroa.35.16.vec.insert3065, i16 %bf_cvt.9, i64 1		; visa id: 1437
  %bf_cvt.10 = call i16 @llvm.genx.GenISA.ftobf.i16.f32(float %495, i32 0)		; visa id: 1438
  %.sroa.35.20.vec.insert3069 = insertelement <8 x i16> %.sroa.35.18.vec.insert3067, i16 %bf_cvt.10, i64 2		; visa id: 1439
  %bf_cvt.11 = call i16 @llvm.genx.GenISA.ftobf.i16.f32(float %498, i32 0)		; visa id: 1440
  %.sroa.35.22.vec.insert3071 = insertelement <8 x i16> %.sroa.35.20.vec.insert3069, i16 %bf_cvt.11, i64 3		; visa id: 1441
  %bf_cvt.12 = call i16 @llvm.genx.GenISA.ftobf.i16.f32(float %501, i32 0)		; visa id: 1442
  %.sroa.35.24.vec.insert3073 = insertelement <8 x i16> %.sroa.35.22.vec.insert3071, i16 %bf_cvt.12, i64 4		; visa id: 1443
  %bf_cvt.13 = call i16 @llvm.genx.GenISA.ftobf.i16.f32(float %504, i32 0)		; visa id: 1444
  %.sroa.35.26.vec.insert3075 = insertelement <8 x i16> %.sroa.35.24.vec.insert3073, i16 %bf_cvt.13, i64 5		; visa id: 1445
  %bf_cvt.14 = call i16 @llvm.genx.GenISA.ftobf.i16.f32(float %507, i32 0)		; visa id: 1446
  %.sroa.35.28.vec.insert3077 = insertelement <8 x i16> %.sroa.35.26.vec.insert3075, i16 %bf_cvt.14, i64 6		; visa id: 1447
  %bf_cvt.15 = call i16 @llvm.genx.GenISA.ftobf.i16.f32(float %510, i32 0)		; visa id: 1448
  %.sroa.35.30.vec.insert3079 = insertelement <8 x i16> %.sroa.35.28.vec.insert3077, i16 %bf_cvt.15, i64 7		; visa id: 1449
  %bf_cvt.16 = call i16 @llvm.genx.GenISA.ftobf.i16.f32(float %513, i32 0)		; visa id: 1450
  %.sroa.67.32.vec.insert3098 = insertelement <8 x i16> poison, i16 %bf_cvt.16, i64 0		; visa id: 1451
  %bf_cvt.17 = call i16 @llvm.genx.GenISA.ftobf.i16.f32(float %516, i32 0)		; visa id: 1452
  %.sroa.67.34.vec.insert3100 = insertelement <8 x i16> %.sroa.67.32.vec.insert3098, i16 %bf_cvt.17, i64 1		; visa id: 1453
  %bf_cvt.18 = call i16 @llvm.genx.GenISA.ftobf.i16.f32(float %519, i32 0)		; visa id: 1454
  %.sroa.67.36.vec.insert3102 = insertelement <8 x i16> %.sroa.67.34.vec.insert3100, i16 %bf_cvt.18, i64 2		; visa id: 1455
  %bf_cvt.19 = call i16 @llvm.genx.GenISA.ftobf.i16.f32(float %522, i32 0)		; visa id: 1456
  %.sroa.67.38.vec.insert3104 = insertelement <8 x i16> %.sroa.67.36.vec.insert3102, i16 %bf_cvt.19, i64 3		; visa id: 1457
  %bf_cvt.20 = call i16 @llvm.genx.GenISA.ftobf.i16.f32(float %525, i32 0)		; visa id: 1458
  %.sroa.67.40.vec.insert3106 = insertelement <8 x i16> %.sroa.67.38.vec.insert3104, i16 %bf_cvt.20, i64 4		; visa id: 1459
  %bf_cvt.21 = call i16 @llvm.genx.GenISA.ftobf.i16.f32(float %528, i32 0)		; visa id: 1460
  %.sroa.67.42.vec.insert3108 = insertelement <8 x i16> %.sroa.67.40.vec.insert3106, i16 %bf_cvt.21, i64 5		; visa id: 1461
  %bf_cvt.22 = call i16 @llvm.genx.GenISA.ftobf.i16.f32(float %531, i32 0)		; visa id: 1462
  %.sroa.67.44.vec.insert3110 = insertelement <8 x i16> %.sroa.67.42.vec.insert3108, i16 %bf_cvt.22, i64 6		; visa id: 1463
  %bf_cvt.23 = call i16 @llvm.genx.GenISA.ftobf.i16.f32(float %534, i32 0)		; visa id: 1464
  %.sroa.67.46.vec.insert3112 = insertelement <8 x i16> %.sroa.67.44.vec.insert3110, i16 %bf_cvt.23, i64 7		; visa id: 1465
  %bf_cvt.24 = call i16 @llvm.genx.GenISA.ftobf.i16.f32(float %537, i32 0)		; visa id: 1466
  %.sroa.99.48.vec.insert3131 = insertelement <8 x i16> poison, i16 %bf_cvt.24, i64 0		; visa id: 1467
  %bf_cvt.25 = call i16 @llvm.genx.GenISA.ftobf.i16.f32(float %540, i32 0)		; visa id: 1468
  %.sroa.99.50.vec.insert3133 = insertelement <8 x i16> %.sroa.99.48.vec.insert3131, i16 %bf_cvt.25, i64 1		; visa id: 1469
  %bf_cvt.26 = call i16 @llvm.genx.GenISA.ftobf.i16.f32(float %543, i32 0)		; visa id: 1470
  %.sroa.99.52.vec.insert3135 = insertelement <8 x i16> %.sroa.99.50.vec.insert3133, i16 %bf_cvt.26, i64 2		; visa id: 1471
  %bf_cvt.27 = call i16 @llvm.genx.GenISA.ftobf.i16.f32(float %546, i32 0)		; visa id: 1472
  %.sroa.99.54.vec.insert3137 = insertelement <8 x i16> %.sroa.99.52.vec.insert3135, i16 %bf_cvt.27, i64 3		; visa id: 1473
  %bf_cvt.28 = call i16 @llvm.genx.GenISA.ftobf.i16.f32(float %549, i32 0)		; visa id: 1474
  %.sroa.99.56.vec.insert3139 = insertelement <8 x i16> %.sroa.99.54.vec.insert3137, i16 %bf_cvt.28, i64 4		; visa id: 1475
  %bf_cvt.29 = call i16 @llvm.genx.GenISA.ftobf.i16.f32(float %552, i32 0)		; visa id: 1476
  %.sroa.99.58.vec.insert3141 = insertelement <8 x i16> %.sroa.99.56.vec.insert3139, i16 %bf_cvt.29, i64 5		; visa id: 1477
  %bf_cvt.30 = call i16 @llvm.genx.GenISA.ftobf.i16.f32(float %555, i32 0)		; visa id: 1478
  %.sroa.99.60.vec.insert3143 = insertelement <8 x i16> %.sroa.99.58.vec.insert3141, i16 %bf_cvt.30, i64 6		; visa id: 1479
  %bf_cvt.31 = call i16 @llvm.genx.GenISA.ftobf.i16.f32(float %558, i32 0)		; visa id: 1480
  %.sroa.99.62.vec.insert3145 = insertelement <8 x i16> %.sroa.99.60.vec.insert3143, i16 %bf_cvt.31, i64 7		; visa id: 1481
  call void @llvm.genx.GenISA.LSC2DBlockSetAddrPayloadField.p4i8.i32(i8 addrspace(4)* %Block2D_AddrPayload115, i32 5, i32 %145, i1 false)		; visa id: 1482
  call void @llvm.genx.GenISA.LSC2DBlockSetAddrPayloadField.p4i8.i32(i8 addrspace(4)* %Block2D_AddrPayload115, i32 6, i32 %150, i1 false)		; visa id: 1483
  %836 = call <32 x i16> asm "lsc_load_block2d.ugm (M1, 1)  $0:d$2.$3x$4x$5nt flat[$1+(0,0)]", "=rw,rw.u,P,P,P,P"(i8 addrspace(4)* %Block2D_AddrPayload115, i32 16, i32 2, i32 16, i32 16) #0		; visa id: 1484
  %837 = add i32 %150, 16		; visa id: 1484
  call void @llvm.genx.GenISA.LSC2DBlockSetAddrPayloadField.p4i8.i32(i8 addrspace(4)* %Block2D_AddrPayload115, i32 5, i32 %145, i1 false)		; visa id: 1485
  call void @llvm.genx.GenISA.LSC2DBlockSetAddrPayloadField.p4i8.i32(i8 addrspace(4)* %Block2D_AddrPayload115, i32 6, i32 %837, i1 false)		; visa id: 1486
  %838 = call <32 x i16> asm "lsc_load_block2d.ugm (M1, 1)  $0:d$2.$3x$4x$5nt flat[$1+(0,0)]", "=rw,rw.u,P,P,P,P"(i8 addrspace(4)* %Block2D_AddrPayload115, i32 16, i32 2, i32 16, i32 16) #0		; visa id: 1487
  %839 = extractelement <32 x i16> %836, i32 0		; visa id: 1487
  %840 = insertelement <16 x i16> undef, i16 %839, i32 0		; visa id: 1487
  %841 = extractelement <32 x i16> %836, i32 1		; visa id: 1487
  %842 = insertelement <16 x i16> %840, i16 %841, i32 1		; visa id: 1487
  %843 = extractelement <32 x i16> %836, i32 2		; visa id: 1487
  %844 = insertelement <16 x i16> %842, i16 %843, i32 2		; visa id: 1487
  %845 = extractelement <32 x i16> %836, i32 3		; visa id: 1487
  %846 = insertelement <16 x i16> %844, i16 %845, i32 3		; visa id: 1487
  %847 = extractelement <32 x i16> %836, i32 4		; visa id: 1487
  %848 = insertelement <16 x i16> %846, i16 %847, i32 4		; visa id: 1487
  %849 = extractelement <32 x i16> %836, i32 5		; visa id: 1487
  %850 = insertelement <16 x i16> %848, i16 %849, i32 5		; visa id: 1487
  %851 = extractelement <32 x i16> %836, i32 6		; visa id: 1487
  %852 = insertelement <16 x i16> %850, i16 %851, i32 6		; visa id: 1487
  %853 = extractelement <32 x i16> %836, i32 7		; visa id: 1487
  %854 = insertelement <16 x i16> %852, i16 %853, i32 7		; visa id: 1487
  %855 = extractelement <32 x i16> %836, i32 8		; visa id: 1487
  %856 = insertelement <16 x i16> %854, i16 %855, i32 8		; visa id: 1487
  %857 = extractelement <32 x i16> %836, i32 9		; visa id: 1487
  %858 = insertelement <16 x i16> %856, i16 %857, i32 9		; visa id: 1487
  %859 = extractelement <32 x i16> %836, i32 10		; visa id: 1487
  %860 = insertelement <16 x i16> %858, i16 %859, i32 10		; visa id: 1487
  %861 = extractelement <32 x i16> %836, i32 11		; visa id: 1487
  %862 = insertelement <16 x i16> %860, i16 %861, i32 11		; visa id: 1487
  %863 = extractelement <32 x i16> %836, i32 12		; visa id: 1487
  %864 = insertelement <16 x i16> %862, i16 %863, i32 12		; visa id: 1487
  %865 = extractelement <32 x i16> %836, i32 13		; visa id: 1487
  %866 = insertelement <16 x i16> %864, i16 %865, i32 13		; visa id: 1487
  %867 = extractelement <32 x i16> %836, i32 14		; visa id: 1487
  %868 = insertelement <16 x i16> %866, i16 %867, i32 14		; visa id: 1487
  %869 = extractelement <32 x i16> %836, i32 15		; visa id: 1487
  %870 = insertelement <16 x i16> %868, i16 %869, i32 15		; visa id: 1487
  %871 = extractelement <32 x i16> %836, i32 16		; visa id: 1487
  %872 = insertelement <16 x i16> undef, i16 %871, i32 0		; visa id: 1487
  %873 = extractelement <32 x i16> %836, i32 17		; visa id: 1487
  %874 = insertelement <16 x i16> %872, i16 %873, i32 1		; visa id: 1487
  %875 = extractelement <32 x i16> %836, i32 18		; visa id: 1487
  %876 = insertelement <16 x i16> %874, i16 %875, i32 2		; visa id: 1487
  %877 = extractelement <32 x i16> %836, i32 19		; visa id: 1487
  %878 = insertelement <16 x i16> %876, i16 %877, i32 3		; visa id: 1487
  %879 = extractelement <32 x i16> %836, i32 20		; visa id: 1487
  %880 = insertelement <16 x i16> %878, i16 %879, i32 4		; visa id: 1487
  %881 = extractelement <32 x i16> %836, i32 21		; visa id: 1487
  %882 = insertelement <16 x i16> %880, i16 %881, i32 5		; visa id: 1487
  %883 = extractelement <32 x i16> %836, i32 22		; visa id: 1487
  %884 = insertelement <16 x i16> %882, i16 %883, i32 6		; visa id: 1487
  %885 = extractelement <32 x i16> %836, i32 23		; visa id: 1487
  %886 = insertelement <16 x i16> %884, i16 %885, i32 7		; visa id: 1487
  %887 = extractelement <32 x i16> %836, i32 24		; visa id: 1487
  %888 = insertelement <16 x i16> %886, i16 %887, i32 8		; visa id: 1487
  %889 = extractelement <32 x i16> %836, i32 25		; visa id: 1487
  %890 = insertelement <16 x i16> %888, i16 %889, i32 9		; visa id: 1487
  %891 = extractelement <32 x i16> %836, i32 26		; visa id: 1487
  %892 = insertelement <16 x i16> %890, i16 %891, i32 10		; visa id: 1487
  %893 = extractelement <32 x i16> %836, i32 27		; visa id: 1487
  %894 = insertelement <16 x i16> %892, i16 %893, i32 11		; visa id: 1487
  %895 = extractelement <32 x i16> %836, i32 28		; visa id: 1487
  %896 = insertelement <16 x i16> %894, i16 %895, i32 12		; visa id: 1487
  %897 = extractelement <32 x i16> %836, i32 29		; visa id: 1487
  %898 = insertelement <16 x i16> %896, i16 %897, i32 13		; visa id: 1487
  %899 = extractelement <32 x i16> %836, i32 30		; visa id: 1487
  %900 = insertelement <16 x i16> %898, i16 %899, i32 14		; visa id: 1487
  %901 = extractelement <32 x i16> %836, i32 31		; visa id: 1487
  %902 = insertelement <16 x i16> %900, i16 %901, i32 15		; visa id: 1487
  %903 = extractelement <32 x i16> %838, i32 0		; visa id: 1487
  %904 = insertelement <16 x i16> undef, i16 %903, i32 0		; visa id: 1487
  %905 = extractelement <32 x i16> %838, i32 1		; visa id: 1487
  %906 = insertelement <16 x i16> %904, i16 %905, i32 1		; visa id: 1487
  %907 = extractelement <32 x i16> %838, i32 2		; visa id: 1487
  %908 = insertelement <16 x i16> %906, i16 %907, i32 2		; visa id: 1487
  %909 = extractelement <32 x i16> %838, i32 3		; visa id: 1487
  %910 = insertelement <16 x i16> %908, i16 %909, i32 3		; visa id: 1487
  %911 = extractelement <32 x i16> %838, i32 4		; visa id: 1487
  %912 = insertelement <16 x i16> %910, i16 %911, i32 4		; visa id: 1487
  %913 = extractelement <32 x i16> %838, i32 5		; visa id: 1487
  %914 = insertelement <16 x i16> %912, i16 %913, i32 5		; visa id: 1487
  %915 = extractelement <32 x i16> %838, i32 6		; visa id: 1487
  %916 = insertelement <16 x i16> %914, i16 %915, i32 6		; visa id: 1487
  %917 = extractelement <32 x i16> %838, i32 7		; visa id: 1487
  %918 = insertelement <16 x i16> %916, i16 %917, i32 7		; visa id: 1487
  %919 = extractelement <32 x i16> %838, i32 8		; visa id: 1487
  %920 = insertelement <16 x i16> %918, i16 %919, i32 8		; visa id: 1487
  %921 = extractelement <32 x i16> %838, i32 9		; visa id: 1487
  %922 = insertelement <16 x i16> %920, i16 %921, i32 9		; visa id: 1487
  %923 = extractelement <32 x i16> %838, i32 10		; visa id: 1487
  %924 = insertelement <16 x i16> %922, i16 %923, i32 10		; visa id: 1487
  %925 = extractelement <32 x i16> %838, i32 11		; visa id: 1487
  %926 = insertelement <16 x i16> %924, i16 %925, i32 11		; visa id: 1487
  %927 = extractelement <32 x i16> %838, i32 12		; visa id: 1487
  %928 = insertelement <16 x i16> %926, i16 %927, i32 12		; visa id: 1487
  %929 = extractelement <32 x i16> %838, i32 13		; visa id: 1487
  %930 = insertelement <16 x i16> %928, i16 %929, i32 13		; visa id: 1487
  %931 = extractelement <32 x i16> %838, i32 14		; visa id: 1487
  %932 = insertelement <16 x i16> %930, i16 %931, i32 14		; visa id: 1487
  %933 = extractelement <32 x i16> %838, i32 15		; visa id: 1487
  %934 = insertelement <16 x i16> %932, i16 %933, i32 15		; visa id: 1487
  %935 = extractelement <32 x i16> %838, i32 16		; visa id: 1487
  %936 = insertelement <16 x i16> undef, i16 %935, i32 0		; visa id: 1487
  %937 = extractelement <32 x i16> %838, i32 17		; visa id: 1487
  %938 = insertelement <16 x i16> %936, i16 %937, i32 1		; visa id: 1487
  %939 = extractelement <32 x i16> %838, i32 18		; visa id: 1487
  %940 = insertelement <16 x i16> %938, i16 %939, i32 2		; visa id: 1487
  %941 = extractelement <32 x i16> %838, i32 19		; visa id: 1487
  %942 = insertelement <16 x i16> %940, i16 %941, i32 3		; visa id: 1487
  %943 = extractelement <32 x i16> %838, i32 20		; visa id: 1487
  %944 = insertelement <16 x i16> %942, i16 %943, i32 4		; visa id: 1487
  %945 = extractelement <32 x i16> %838, i32 21		; visa id: 1487
  %946 = insertelement <16 x i16> %944, i16 %945, i32 5		; visa id: 1487
  %947 = extractelement <32 x i16> %838, i32 22		; visa id: 1487
  %948 = insertelement <16 x i16> %946, i16 %947, i32 6		; visa id: 1487
  %949 = extractelement <32 x i16> %838, i32 23		; visa id: 1487
  %950 = insertelement <16 x i16> %948, i16 %949, i32 7		; visa id: 1487
  %951 = extractelement <32 x i16> %838, i32 24		; visa id: 1487
  %952 = insertelement <16 x i16> %950, i16 %951, i32 8		; visa id: 1487
  %953 = extractelement <32 x i16> %838, i32 25		; visa id: 1487
  %954 = insertelement <16 x i16> %952, i16 %953, i32 9		; visa id: 1487
  %955 = extractelement <32 x i16> %838, i32 26		; visa id: 1487
  %956 = insertelement <16 x i16> %954, i16 %955, i32 10		; visa id: 1487
  %957 = extractelement <32 x i16> %838, i32 27		; visa id: 1487
  %958 = insertelement <16 x i16> %956, i16 %957, i32 11		; visa id: 1487
  %959 = extractelement <32 x i16> %838, i32 28		; visa id: 1487
  %960 = insertelement <16 x i16> %958, i16 %959, i32 12		; visa id: 1487
  %961 = extractelement <32 x i16> %838, i32 29		; visa id: 1487
  %962 = insertelement <16 x i16> %960, i16 %961, i32 13		; visa id: 1487
  %963 = extractelement <32 x i16> %838, i32 30		; visa id: 1487
  %964 = insertelement <16 x i16> %962, i16 %963, i32 14		; visa id: 1487
  %965 = extractelement <32 x i16> %838, i32 31		; visa id: 1487
  %966 = insertelement <16 x i16> %964, i16 %965, i32 15		; visa id: 1487
  %967 = call <8 x float> asm "{\0A.decl DST     v_type=G type=f num_elts=$5 alias=<$0,0>\0A.decl SRC1_UD v_type=G type=UD num_elts=128 alias=<$2,0>\0A.decl SRC2_UD v_type=G type=UD num_elts=$4 alias=<$1,0>\0Adpas.bf.bf.8.$3 (M1, 16) DST.0 DST.0 SRC1_UD.0 SRC2_UD(0,0)\0A}\0A", "=rw,rw,rw,P,P,P,0"(<8 x i16> %.sroa.03013.14.vec.insert3046, <16 x i16> %870, i32 8, i32 64, i32 128, <8 x float> %.sroa.0.2) #0		; visa id: 1487
  %968 = call <8 x float> asm "{\0A.decl DST     v_type=G type=f num_elts=$5 alias=<$0,0>\0A.decl SRC1_UD v_type=G type=UD num_elts=128 alias=<$2,0>\0A.decl SRC2_UD v_type=G type=UD num_elts=$4 alias=<$1,0>\0Adpas.bf.bf.8.$3 (M1, 16) DST.0 DST.0 SRC1_UD.0 SRC2_UD(0,0)\0A}\0A", "=rw,rw,rw,P,P,P,0"(<8 x i16> %.sroa.35.30.vec.insert3079, <16 x i16> %870, i32 8, i32 64, i32 128, <8 x float> %.sroa.52.2) #0		; visa id: 1487
  %969 = call <8 x float> asm "{\0A.decl DST     v_type=G type=f num_elts=$5 alias=<$0,0>\0A.decl SRC1_UD v_type=G type=UD num_elts=128 alias=<$2,0>\0A.decl SRC2_UD v_type=G type=UD num_elts=$4 alias=<$1,0>\0Adpas.bf.bf.8.$3 (M1, 16) DST.0 DST.0 SRC1_UD.0 SRC2_UD(0,0)\0A}\0A", "=rw,rw,rw,P,P,P,0"(<8 x i16> %.sroa.35.30.vec.insert3079, <16 x i16> %902, i32 8, i32 64, i32 128, <8 x float> %.sroa.148.2) #0		; visa id: 1487
  %970 = call <8 x float> asm "{\0A.decl DST     v_type=G type=f num_elts=$5 alias=<$0,0>\0A.decl SRC1_UD v_type=G type=UD num_elts=128 alias=<$2,0>\0A.decl SRC2_UD v_type=G type=UD num_elts=$4 alias=<$1,0>\0Adpas.bf.bf.8.$3 (M1, 16) DST.0 DST.0 SRC1_UD.0 SRC2_UD(0,0)\0A}\0A", "=rw,rw,rw,P,P,P,0"(<8 x i16> %.sroa.03013.14.vec.insert3046, <16 x i16> %902, i32 8, i32 64, i32 128, <8 x float> %.sroa.100.2) #0		; visa id: 1487
  %971 = call <8 x float> asm "{\0A.decl DST     v_type=G type=f num_elts=$5 alias=<$0,0>\0A.decl SRC1_UD v_type=G type=UD num_elts=128 alias=<$2,0>\0A.decl SRC2_UD v_type=G type=UD num_elts=$4 alias=<$1,0>\0Adpas.bf.bf.8.$3 (M1, 16) DST.0 DST.0 SRC1_UD.0 SRC2_UD(0,0)\0A}\0A", "=rw,rw,rw,P,P,P,0"(<8 x i16> %.sroa.67.46.vec.insert3112, <16 x i16> %934, i32 8, i32 64, i32 128, <8 x float> %967) #0		; visa id: 1487
  %972 = call <8 x float> asm "{\0A.decl DST     v_type=G type=f num_elts=$5 alias=<$0,0>\0A.decl SRC1_UD v_type=G type=UD num_elts=128 alias=<$2,0>\0A.decl SRC2_UD v_type=G type=UD num_elts=$4 alias=<$1,0>\0Adpas.bf.bf.8.$3 (M1, 16) DST.0 DST.0 SRC1_UD.0 SRC2_UD(0,0)\0A}\0A", "=rw,rw,rw,P,P,P,0"(<8 x i16> %.sroa.99.62.vec.insert3145, <16 x i16> %934, i32 8, i32 64, i32 128, <8 x float> %968) #0		; visa id: 1487
  %973 = call <8 x float> asm "{\0A.decl DST     v_type=G type=f num_elts=$5 alias=<$0,0>\0A.decl SRC1_UD v_type=G type=UD num_elts=128 alias=<$2,0>\0A.decl SRC2_UD v_type=G type=UD num_elts=$4 alias=<$1,0>\0Adpas.bf.bf.8.$3 (M1, 16) DST.0 DST.0 SRC1_UD.0 SRC2_UD(0,0)\0A}\0A", "=rw,rw,rw,P,P,P,0"(<8 x i16> %.sroa.99.62.vec.insert3145, <16 x i16> %966, i32 8, i32 64, i32 128, <8 x float> %969) #0		; visa id: 1487
  %974 = call <8 x float> asm "{\0A.decl DST     v_type=G type=f num_elts=$5 alias=<$0,0>\0A.decl SRC1_UD v_type=G type=UD num_elts=128 alias=<$2,0>\0A.decl SRC2_UD v_type=G type=UD num_elts=$4 alias=<$1,0>\0Adpas.bf.bf.8.$3 (M1, 16) DST.0 DST.0 SRC1_UD.0 SRC2_UD(0,0)\0A}\0A", "=rw,rw,rw,P,P,P,0"(<8 x i16> %.sroa.67.46.vec.insert3112, <16 x i16> %966, i32 8, i32 64, i32 128, <8 x float> %970) #0		; visa id: 1487
  call void @llvm.genx.GenISA.LSC2DBlockSetAddrPayloadField.p4i8.i32(i8 addrspace(4)* %Block2D_AddrPayload115, i32 5, i32 %146, i1 false)		; visa id: 1487
  call void @llvm.genx.GenISA.LSC2DBlockSetAddrPayloadField.p4i8.i32(i8 addrspace(4)* %Block2D_AddrPayload115, i32 6, i32 %150, i1 false)		; visa id: 1488
  %975 = call <32 x i16> asm "lsc_load_block2d.ugm (M1, 1)  $0:d$2.$3x$4x$5nt flat[$1+(0,0)]", "=rw,rw.u,P,P,P,P"(i8 addrspace(4)* %Block2D_AddrPayload115, i32 16, i32 2, i32 16, i32 16) #0		; visa id: 1489
  call void @llvm.genx.GenISA.LSC2DBlockSetAddrPayloadField.p4i8.i32(i8 addrspace(4)* %Block2D_AddrPayload115, i32 5, i32 %146, i1 false)		; visa id: 1489
  call void @llvm.genx.GenISA.LSC2DBlockSetAddrPayloadField.p4i8.i32(i8 addrspace(4)* %Block2D_AddrPayload115, i32 6, i32 %837, i1 false)		; visa id: 1490
  %976 = call <32 x i16> asm "lsc_load_block2d.ugm (M1, 1)  $0:d$2.$3x$4x$5nt flat[$1+(0,0)]", "=rw,rw.u,P,P,P,P"(i8 addrspace(4)* %Block2D_AddrPayload115, i32 16, i32 2, i32 16, i32 16) #0		; visa id: 1491
  %977 = extractelement <32 x i16> %975, i32 0		; visa id: 1491
  %978 = insertelement <16 x i16> undef, i16 %977, i32 0		; visa id: 1491
  %979 = extractelement <32 x i16> %975, i32 1		; visa id: 1491
  %980 = insertelement <16 x i16> %978, i16 %979, i32 1		; visa id: 1491
  %981 = extractelement <32 x i16> %975, i32 2		; visa id: 1491
  %982 = insertelement <16 x i16> %980, i16 %981, i32 2		; visa id: 1491
  %983 = extractelement <32 x i16> %975, i32 3		; visa id: 1491
  %984 = insertelement <16 x i16> %982, i16 %983, i32 3		; visa id: 1491
  %985 = extractelement <32 x i16> %975, i32 4		; visa id: 1491
  %986 = insertelement <16 x i16> %984, i16 %985, i32 4		; visa id: 1491
  %987 = extractelement <32 x i16> %975, i32 5		; visa id: 1491
  %988 = insertelement <16 x i16> %986, i16 %987, i32 5		; visa id: 1491
  %989 = extractelement <32 x i16> %975, i32 6		; visa id: 1491
  %990 = insertelement <16 x i16> %988, i16 %989, i32 6		; visa id: 1491
  %991 = extractelement <32 x i16> %975, i32 7		; visa id: 1491
  %992 = insertelement <16 x i16> %990, i16 %991, i32 7		; visa id: 1491
  %993 = extractelement <32 x i16> %975, i32 8		; visa id: 1491
  %994 = insertelement <16 x i16> %992, i16 %993, i32 8		; visa id: 1491
  %995 = extractelement <32 x i16> %975, i32 9		; visa id: 1491
  %996 = insertelement <16 x i16> %994, i16 %995, i32 9		; visa id: 1491
  %997 = extractelement <32 x i16> %975, i32 10		; visa id: 1491
  %998 = insertelement <16 x i16> %996, i16 %997, i32 10		; visa id: 1491
  %999 = extractelement <32 x i16> %975, i32 11		; visa id: 1491
  %1000 = insertelement <16 x i16> %998, i16 %999, i32 11		; visa id: 1491
  %1001 = extractelement <32 x i16> %975, i32 12		; visa id: 1491
  %1002 = insertelement <16 x i16> %1000, i16 %1001, i32 12		; visa id: 1491
  %1003 = extractelement <32 x i16> %975, i32 13		; visa id: 1491
  %1004 = insertelement <16 x i16> %1002, i16 %1003, i32 13		; visa id: 1491
  %1005 = extractelement <32 x i16> %975, i32 14		; visa id: 1491
  %1006 = insertelement <16 x i16> %1004, i16 %1005, i32 14		; visa id: 1491
  %1007 = extractelement <32 x i16> %975, i32 15		; visa id: 1491
  %1008 = insertelement <16 x i16> %1006, i16 %1007, i32 15		; visa id: 1491
  %1009 = extractelement <32 x i16> %975, i32 16		; visa id: 1491
  %1010 = insertelement <16 x i16> undef, i16 %1009, i32 0		; visa id: 1491
  %1011 = extractelement <32 x i16> %975, i32 17		; visa id: 1491
  %1012 = insertelement <16 x i16> %1010, i16 %1011, i32 1		; visa id: 1491
  %1013 = extractelement <32 x i16> %975, i32 18		; visa id: 1491
  %1014 = insertelement <16 x i16> %1012, i16 %1013, i32 2		; visa id: 1491
  %1015 = extractelement <32 x i16> %975, i32 19		; visa id: 1491
  %1016 = insertelement <16 x i16> %1014, i16 %1015, i32 3		; visa id: 1491
  %1017 = extractelement <32 x i16> %975, i32 20		; visa id: 1491
  %1018 = insertelement <16 x i16> %1016, i16 %1017, i32 4		; visa id: 1491
  %1019 = extractelement <32 x i16> %975, i32 21		; visa id: 1491
  %1020 = insertelement <16 x i16> %1018, i16 %1019, i32 5		; visa id: 1491
  %1021 = extractelement <32 x i16> %975, i32 22		; visa id: 1491
  %1022 = insertelement <16 x i16> %1020, i16 %1021, i32 6		; visa id: 1491
  %1023 = extractelement <32 x i16> %975, i32 23		; visa id: 1491
  %1024 = insertelement <16 x i16> %1022, i16 %1023, i32 7		; visa id: 1491
  %1025 = extractelement <32 x i16> %975, i32 24		; visa id: 1491
  %1026 = insertelement <16 x i16> %1024, i16 %1025, i32 8		; visa id: 1491
  %1027 = extractelement <32 x i16> %975, i32 25		; visa id: 1491
  %1028 = insertelement <16 x i16> %1026, i16 %1027, i32 9		; visa id: 1491
  %1029 = extractelement <32 x i16> %975, i32 26		; visa id: 1491
  %1030 = insertelement <16 x i16> %1028, i16 %1029, i32 10		; visa id: 1491
  %1031 = extractelement <32 x i16> %975, i32 27		; visa id: 1491
  %1032 = insertelement <16 x i16> %1030, i16 %1031, i32 11		; visa id: 1491
  %1033 = extractelement <32 x i16> %975, i32 28		; visa id: 1491
  %1034 = insertelement <16 x i16> %1032, i16 %1033, i32 12		; visa id: 1491
  %1035 = extractelement <32 x i16> %975, i32 29		; visa id: 1491
  %1036 = insertelement <16 x i16> %1034, i16 %1035, i32 13		; visa id: 1491
  %1037 = extractelement <32 x i16> %975, i32 30		; visa id: 1491
  %1038 = insertelement <16 x i16> %1036, i16 %1037, i32 14		; visa id: 1491
  %1039 = extractelement <32 x i16> %975, i32 31		; visa id: 1491
  %1040 = insertelement <16 x i16> %1038, i16 %1039, i32 15		; visa id: 1491
  %1041 = extractelement <32 x i16> %976, i32 0		; visa id: 1491
  %1042 = insertelement <16 x i16> undef, i16 %1041, i32 0		; visa id: 1491
  %1043 = extractelement <32 x i16> %976, i32 1		; visa id: 1491
  %1044 = insertelement <16 x i16> %1042, i16 %1043, i32 1		; visa id: 1491
  %1045 = extractelement <32 x i16> %976, i32 2		; visa id: 1491
  %1046 = insertelement <16 x i16> %1044, i16 %1045, i32 2		; visa id: 1491
  %1047 = extractelement <32 x i16> %976, i32 3		; visa id: 1491
  %1048 = insertelement <16 x i16> %1046, i16 %1047, i32 3		; visa id: 1491
  %1049 = extractelement <32 x i16> %976, i32 4		; visa id: 1491
  %1050 = insertelement <16 x i16> %1048, i16 %1049, i32 4		; visa id: 1491
  %1051 = extractelement <32 x i16> %976, i32 5		; visa id: 1491
  %1052 = insertelement <16 x i16> %1050, i16 %1051, i32 5		; visa id: 1491
  %1053 = extractelement <32 x i16> %976, i32 6		; visa id: 1491
  %1054 = insertelement <16 x i16> %1052, i16 %1053, i32 6		; visa id: 1491
  %1055 = extractelement <32 x i16> %976, i32 7		; visa id: 1491
  %1056 = insertelement <16 x i16> %1054, i16 %1055, i32 7		; visa id: 1491
  %1057 = extractelement <32 x i16> %976, i32 8		; visa id: 1491
  %1058 = insertelement <16 x i16> %1056, i16 %1057, i32 8		; visa id: 1491
  %1059 = extractelement <32 x i16> %976, i32 9		; visa id: 1491
  %1060 = insertelement <16 x i16> %1058, i16 %1059, i32 9		; visa id: 1491
  %1061 = extractelement <32 x i16> %976, i32 10		; visa id: 1491
  %1062 = insertelement <16 x i16> %1060, i16 %1061, i32 10		; visa id: 1491
  %1063 = extractelement <32 x i16> %976, i32 11		; visa id: 1491
  %1064 = insertelement <16 x i16> %1062, i16 %1063, i32 11		; visa id: 1491
  %1065 = extractelement <32 x i16> %976, i32 12		; visa id: 1491
  %1066 = insertelement <16 x i16> %1064, i16 %1065, i32 12		; visa id: 1491
  %1067 = extractelement <32 x i16> %976, i32 13		; visa id: 1491
  %1068 = insertelement <16 x i16> %1066, i16 %1067, i32 13		; visa id: 1491
  %1069 = extractelement <32 x i16> %976, i32 14		; visa id: 1491
  %1070 = insertelement <16 x i16> %1068, i16 %1069, i32 14		; visa id: 1491
  %1071 = extractelement <32 x i16> %976, i32 15		; visa id: 1491
  %1072 = insertelement <16 x i16> %1070, i16 %1071, i32 15		; visa id: 1491
  %1073 = extractelement <32 x i16> %976, i32 16		; visa id: 1491
  %1074 = insertelement <16 x i16> undef, i16 %1073, i32 0		; visa id: 1491
  %1075 = extractelement <32 x i16> %976, i32 17		; visa id: 1491
  %1076 = insertelement <16 x i16> %1074, i16 %1075, i32 1		; visa id: 1491
  %1077 = extractelement <32 x i16> %976, i32 18		; visa id: 1491
  %1078 = insertelement <16 x i16> %1076, i16 %1077, i32 2		; visa id: 1491
  %1079 = extractelement <32 x i16> %976, i32 19		; visa id: 1491
  %1080 = insertelement <16 x i16> %1078, i16 %1079, i32 3		; visa id: 1491
  %1081 = extractelement <32 x i16> %976, i32 20		; visa id: 1491
  %1082 = insertelement <16 x i16> %1080, i16 %1081, i32 4		; visa id: 1491
  %1083 = extractelement <32 x i16> %976, i32 21		; visa id: 1491
  %1084 = insertelement <16 x i16> %1082, i16 %1083, i32 5		; visa id: 1491
  %1085 = extractelement <32 x i16> %976, i32 22		; visa id: 1491
  %1086 = insertelement <16 x i16> %1084, i16 %1085, i32 6		; visa id: 1491
  %1087 = extractelement <32 x i16> %976, i32 23		; visa id: 1491
  %1088 = insertelement <16 x i16> %1086, i16 %1087, i32 7		; visa id: 1491
  %1089 = extractelement <32 x i16> %976, i32 24		; visa id: 1491
  %1090 = insertelement <16 x i16> %1088, i16 %1089, i32 8		; visa id: 1491
  %1091 = extractelement <32 x i16> %976, i32 25		; visa id: 1491
  %1092 = insertelement <16 x i16> %1090, i16 %1091, i32 9		; visa id: 1491
  %1093 = extractelement <32 x i16> %976, i32 26		; visa id: 1491
  %1094 = insertelement <16 x i16> %1092, i16 %1093, i32 10		; visa id: 1491
  %1095 = extractelement <32 x i16> %976, i32 27		; visa id: 1491
  %1096 = insertelement <16 x i16> %1094, i16 %1095, i32 11		; visa id: 1491
  %1097 = extractelement <32 x i16> %976, i32 28		; visa id: 1491
  %1098 = insertelement <16 x i16> %1096, i16 %1097, i32 12		; visa id: 1491
  %1099 = extractelement <32 x i16> %976, i32 29		; visa id: 1491
  %1100 = insertelement <16 x i16> %1098, i16 %1099, i32 13		; visa id: 1491
  %1101 = extractelement <32 x i16> %976, i32 30		; visa id: 1491
  %1102 = insertelement <16 x i16> %1100, i16 %1101, i32 14		; visa id: 1491
  %1103 = extractelement <32 x i16> %976, i32 31		; visa id: 1491
  %1104 = insertelement <16 x i16> %1102, i16 %1103, i32 15		; visa id: 1491
  %1105 = call <8 x float> asm "{\0A.decl DST     v_type=G type=f num_elts=$5 alias=<$0,0>\0A.decl SRC1_UD v_type=G type=UD num_elts=128 alias=<$2,0>\0A.decl SRC2_UD v_type=G type=UD num_elts=$4 alias=<$1,0>\0Adpas.bf.bf.8.$3 (M1, 16) DST.0 DST.0 SRC1_UD.0 SRC2_UD(0,0)\0A}\0A", "=rw,rw,rw,P,P,P,0"(<8 x i16> %.sroa.03013.14.vec.insert3046, <16 x i16> %1008, i32 8, i32 64, i32 128, <8 x float> %.sroa.196.2) #0		; visa id: 1491
  %1106 = call <8 x float> asm "{\0A.decl DST     v_type=G type=f num_elts=$5 alias=<$0,0>\0A.decl SRC1_UD v_type=G type=UD num_elts=128 alias=<$2,0>\0A.decl SRC2_UD v_type=G type=UD num_elts=$4 alias=<$1,0>\0Adpas.bf.bf.8.$3 (M1, 16) DST.0 DST.0 SRC1_UD.0 SRC2_UD(0,0)\0A}\0A", "=rw,rw,rw,P,P,P,0"(<8 x i16> %.sroa.35.30.vec.insert3079, <16 x i16> %1008, i32 8, i32 64, i32 128, <8 x float> %.sroa.244.2) #0		; visa id: 1491
  %1107 = call <8 x float> asm "{\0A.decl DST     v_type=G type=f num_elts=$5 alias=<$0,0>\0A.decl SRC1_UD v_type=G type=UD num_elts=128 alias=<$2,0>\0A.decl SRC2_UD v_type=G type=UD num_elts=$4 alias=<$1,0>\0Adpas.bf.bf.8.$3 (M1, 16) DST.0 DST.0 SRC1_UD.0 SRC2_UD(0,0)\0A}\0A", "=rw,rw,rw,P,P,P,0"(<8 x i16> %.sroa.35.30.vec.insert3079, <16 x i16> %1040, i32 8, i32 64, i32 128, <8 x float> %.sroa.340.2) #0		; visa id: 1491
  %1108 = call <8 x float> asm "{\0A.decl DST     v_type=G type=f num_elts=$5 alias=<$0,0>\0A.decl SRC1_UD v_type=G type=UD num_elts=128 alias=<$2,0>\0A.decl SRC2_UD v_type=G type=UD num_elts=$4 alias=<$1,0>\0Adpas.bf.bf.8.$3 (M1, 16) DST.0 DST.0 SRC1_UD.0 SRC2_UD(0,0)\0A}\0A", "=rw,rw,rw,P,P,P,0"(<8 x i16> %.sroa.03013.14.vec.insert3046, <16 x i16> %1040, i32 8, i32 64, i32 128, <8 x float> %.sroa.292.2) #0		; visa id: 1491
  %1109 = call <8 x float> asm "{\0A.decl DST     v_type=G type=f num_elts=$5 alias=<$0,0>\0A.decl SRC1_UD v_type=G type=UD num_elts=128 alias=<$2,0>\0A.decl SRC2_UD v_type=G type=UD num_elts=$4 alias=<$1,0>\0Adpas.bf.bf.8.$3 (M1, 16) DST.0 DST.0 SRC1_UD.0 SRC2_UD(0,0)\0A}\0A", "=rw,rw,rw,P,P,P,0"(<8 x i16> %.sroa.67.46.vec.insert3112, <16 x i16> %1072, i32 8, i32 64, i32 128, <8 x float> %1105) #0		; visa id: 1491
  %1110 = call <8 x float> asm "{\0A.decl DST     v_type=G type=f num_elts=$5 alias=<$0,0>\0A.decl SRC1_UD v_type=G type=UD num_elts=128 alias=<$2,0>\0A.decl SRC2_UD v_type=G type=UD num_elts=$4 alias=<$1,0>\0Adpas.bf.bf.8.$3 (M1, 16) DST.0 DST.0 SRC1_UD.0 SRC2_UD(0,0)\0A}\0A", "=rw,rw,rw,P,P,P,0"(<8 x i16> %.sroa.99.62.vec.insert3145, <16 x i16> %1072, i32 8, i32 64, i32 128, <8 x float> %1106) #0		; visa id: 1491
  %1111 = call <8 x float> asm "{\0A.decl DST     v_type=G type=f num_elts=$5 alias=<$0,0>\0A.decl SRC1_UD v_type=G type=UD num_elts=128 alias=<$2,0>\0A.decl SRC2_UD v_type=G type=UD num_elts=$4 alias=<$1,0>\0Adpas.bf.bf.8.$3 (M1, 16) DST.0 DST.0 SRC1_UD.0 SRC2_UD(0,0)\0A}\0A", "=rw,rw,rw,P,P,P,0"(<8 x i16> %.sroa.99.62.vec.insert3145, <16 x i16> %1104, i32 8, i32 64, i32 128, <8 x float> %1107) #0		; visa id: 1491
  %1112 = call <8 x float> asm "{\0A.decl DST     v_type=G type=f num_elts=$5 alias=<$0,0>\0A.decl SRC1_UD v_type=G type=UD num_elts=128 alias=<$2,0>\0A.decl SRC2_UD v_type=G type=UD num_elts=$4 alias=<$1,0>\0Adpas.bf.bf.8.$3 (M1, 16) DST.0 DST.0 SRC1_UD.0 SRC2_UD(0,0)\0A}\0A", "=rw,rw,rw,P,P,P,0"(<8 x i16> %.sroa.67.46.vec.insert3112, <16 x i16> %1104, i32 8, i32 64, i32 128, <8 x float> %1108) #0		; visa id: 1491
  call void @llvm.genx.GenISA.LSC2DBlockSetAddrPayloadField.p4i8.i32(i8 addrspace(4)* %Block2D_AddrPayload115, i32 5, i32 %147, i1 false)		; visa id: 1491
  call void @llvm.genx.GenISA.LSC2DBlockSetAddrPayloadField.p4i8.i32(i8 addrspace(4)* %Block2D_AddrPayload115, i32 6, i32 %150, i1 false)		; visa id: 1492
  %1113 = call <32 x i16> asm "lsc_load_block2d.ugm (M1, 1)  $0:d$2.$3x$4x$5nt flat[$1+(0,0)]", "=rw,rw.u,P,P,P,P"(i8 addrspace(4)* %Block2D_AddrPayload115, i32 16, i32 2, i32 16, i32 16) #0		; visa id: 1493
  call void @llvm.genx.GenISA.LSC2DBlockSetAddrPayloadField.p4i8.i32(i8 addrspace(4)* %Block2D_AddrPayload115, i32 5, i32 %147, i1 false)		; visa id: 1493
  call void @llvm.genx.GenISA.LSC2DBlockSetAddrPayloadField.p4i8.i32(i8 addrspace(4)* %Block2D_AddrPayload115, i32 6, i32 %837, i1 false)		; visa id: 1494
  %1114 = call <32 x i16> asm "lsc_load_block2d.ugm (M1, 1)  $0:d$2.$3x$4x$5nt flat[$1+(0,0)]", "=rw,rw.u,P,P,P,P"(i8 addrspace(4)* %Block2D_AddrPayload115, i32 16, i32 2, i32 16, i32 16) #0		; visa id: 1495
  %1115 = extractelement <32 x i16> %1113, i32 0		; visa id: 1495
  %1116 = insertelement <16 x i16> undef, i16 %1115, i32 0		; visa id: 1495
  %1117 = extractelement <32 x i16> %1113, i32 1		; visa id: 1495
  %1118 = insertelement <16 x i16> %1116, i16 %1117, i32 1		; visa id: 1495
  %1119 = extractelement <32 x i16> %1113, i32 2		; visa id: 1495
  %1120 = insertelement <16 x i16> %1118, i16 %1119, i32 2		; visa id: 1495
  %1121 = extractelement <32 x i16> %1113, i32 3		; visa id: 1495
  %1122 = insertelement <16 x i16> %1120, i16 %1121, i32 3		; visa id: 1495
  %1123 = extractelement <32 x i16> %1113, i32 4		; visa id: 1495
  %1124 = insertelement <16 x i16> %1122, i16 %1123, i32 4		; visa id: 1495
  %1125 = extractelement <32 x i16> %1113, i32 5		; visa id: 1495
  %1126 = insertelement <16 x i16> %1124, i16 %1125, i32 5		; visa id: 1495
  %1127 = extractelement <32 x i16> %1113, i32 6		; visa id: 1495
  %1128 = insertelement <16 x i16> %1126, i16 %1127, i32 6		; visa id: 1495
  %1129 = extractelement <32 x i16> %1113, i32 7		; visa id: 1495
  %1130 = insertelement <16 x i16> %1128, i16 %1129, i32 7		; visa id: 1495
  %1131 = extractelement <32 x i16> %1113, i32 8		; visa id: 1495
  %1132 = insertelement <16 x i16> %1130, i16 %1131, i32 8		; visa id: 1495
  %1133 = extractelement <32 x i16> %1113, i32 9		; visa id: 1495
  %1134 = insertelement <16 x i16> %1132, i16 %1133, i32 9		; visa id: 1495
  %1135 = extractelement <32 x i16> %1113, i32 10		; visa id: 1495
  %1136 = insertelement <16 x i16> %1134, i16 %1135, i32 10		; visa id: 1495
  %1137 = extractelement <32 x i16> %1113, i32 11		; visa id: 1495
  %1138 = insertelement <16 x i16> %1136, i16 %1137, i32 11		; visa id: 1495
  %1139 = extractelement <32 x i16> %1113, i32 12		; visa id: 1495
  %1140 = insertelement <16 x i16> %1138, i16 %1139, i32 12		; visa id: 1495
  %1141 = extractelement <32 x i16> %1113, i32 13		; visa id: 1495
  %1142 = insertelement <16 x i16> %1140, i16 %1141, i32 13		; visa id: 1495
  %1143 = extractelement <32 x i16> %1113, i32 14		; visa id: 1495
  %1144 = insertelement <16 x i16> %1142, i16 %1143, i32 14		; visa id: 1495
  %1145 = extractelement <32 x i16> %1113, i32 15		; visa id: 1495
  %1146 = insertelement <16 x i16> %1144, i16 %1145, i32 15		; visa id: 1495
  %1147 = extractelement <32 x i16> %1113, i32 16		; visa id: 1495
  %1148 = insertelement <16 x i16> undef, i16 %1147, i32 0		; visa id: 1495
  %1149 = extractelement <32 x i16> %1113, i32 17		; visa id: 1495
  %1150 = insertelement <16 x i16> %1148, i16 %1149, i32 1		; visa id: 1495
  %1151 = extractelement <32 x i16> %1113, i32 18		; visa id: 1495
  %1152 = insertelement <16 x i16> %1150, i16 %1151, i32 2		; visa id: 1495
  %1153 = extractelement <32 x i16> %1113, i32 19		; visa id: 1495
  %1154 = insertelement <16 x i16> %1152, i16 %1153, i32 3		; visa id: 1495
  %1155 = extractelement <32 x i16> %1113, i32 20		; visa id: 1495
  %1156 = insertelement <16 x i16> %1154, i16 %1155, i32 4		; visa id: 1495
  %1157 = extractelement <32 x i16> %1113, i32 21		; visa id: 1495
  %1158 = insertelement <16 x i16> %1156, i16 %1157, i32 5		; visa id: 1495
  %1159 = extractelement <32 x i16> %1113, i32 22		; visa id: 1495
  %1160 = insertelement <16 x i16> %1158, i16 %1159, i32 6		; visa id: 1495
  %1161 = extractelement <32 x i16> %1113, i32 23		; visa id: 1495
  %1162 = insertelement <16 x i16> %1160, i16 %1161, i32 7		; visa id: 1495
  %1163 = extractelement <32 x i16> %1113, i32 24		; visa id: 1495
  %1164 = insertelement <16 x i16> %1162, i16 %1163, i32 8		; visa id: 1495
  %1165 = extractelement <32 x i16> %1113, i32 25		; visa id: 1495
  %1166 = insertelement <16 x i16> %1164, i16 %1165, i32 9		; visa id: 1495
  %1167 = extractelement <32 x i16> %1113, i32 26		; visa id: 1495
  %1168 = insertelement <16 x i16> %1166, i16 %1167, i32 10		; visa id: 1495
  %1169 = extractelement <32 x i16> %1113, i32 27		; visa id: 1495
  %1170 = insertelement <16 x i16> %1168, i16 %1169, i32 11		; visa id: 1495
  %1171 = extractelement <32 x i16> %1113, i32 28		; visa id: 1495
  %1172 = insertelement <16 x i16> %1170, i16 %1171, i32 12		; visa id: 1495
  %1173 = extractelement <32 x i16> %1113, i32 29		; visa id: 1495
  %1174 = insertelement <16 x i16> %1172, i16 %1173, i32 13		; visa id: 1495
  %1175 = extractelement <32 x i16> %1113, i32 30		; visa id: 1495
  %1176 = insertelement <16 x i16> %1174, i16 %1175, i32 14		; visa id: 1495
  %1177 = extractelement <32 x i16> %1113, i32 31		; visa id: 1495
  %1178 = insertelement <16 x i16> %1176, i16 %1177, i32 15		; visa id: 1495
  %1179 = extractelement <32 x i16> %1114, i32 0		; visa id: 1495
  %1180 = insertelement <16 x i16> undef, i16 %1179, i32 0		; visa id: 1495
  %1181 = extractelement <32 x i16> %1114, i32 1		; visa id: 1495
  %1182 = insertelement <16 x i16> %1180, i16 %1181, i32 1		; visa id: 1495
  %1183 = extractelement <32 x i16> %1114, i32 2		; visa id: 1495
  %1184 = insertelement <16 x i16> %1182, i16 %1183, i32 2		; visa id: 1495
  %1185 = extractelement <32 x i16> %1114, i32 3		; visa id: 1495
  %1186 = insertelement <16 x i16> %1184, i16 %1185, i32 3		; visa id: 1495
  %1187 = extractelement <32 x i16> %1114, i32 4		; visa id: 1495
  %1188 = insertelement <16 x i16> %1186, i16 %1187, i32 4		; visa id: 1495
  %1189 = extractelement <32 x i16> %1114, i32 5		; visa id: 1495
  %1190 = insertelement <16 x i16> %1188, i16 %1189, i32 5		; visa id: 1495
  %1191 = extractelement <32 x i16> %1114, i32 6		; visa id: 1495
  %1192 = insertelement <16 x i16> %1190, i16 %1191, i32 6		; visa id: 1495
  %1193 = extractelement <32 x i16> %1114, i32 7		; visa id: 1495
  %1194 = insertelement <16 x i16> %1192, i16 %1193, i32 7		; visa id: 1495
  %1195 = extractelement <32 x i16> %1114, i32 8		; visa id: 1495
  %1196 = insertelement <16 x i16> %1194, i16 %1195, i32 8		; visa id: 1495
  %1197 = extractelement <32 x i16> %1114, i32 9		; visa id: 1495
  %1198 = insertelement <16 x i16> %1196, i16 %1197, i32 9		; visa id: 1495
  %1199 = extractelement <32 x i16> %1114, i32 10		; visa id: 1495
  %1200 = insertelement <16 x i16> %1198, i16 %1199, i32 10		; visa id: 1495
  %1201 = extractelement <32 x i16> %1114, i32 11		; visa id: 1495
  %1202 = insertelement <16 x i16> %1200, i16 %1201, i32 11		; visa id: 1495
  %1203 = extractelement <32 x i16> %1114, i32 12		; visa id: 1495
  %1204 = insertelement <16 x i16> %1202, i16 %1203, i32 12		; visa id: 1495
  %1205 = extractelement <32 x i16> %1114, i32 13		; visa id: 1495
  %1206 = insertelement <16 x i16> %1204, i16 %1205, i32 13		; visa id: 1495
  %1207 = extractelement <32 x i16> %1114, i32 14		; visa id: 1495
  %1208 = insertelement <16 x i16> %1206, i16 %1207, i32 14		; visa id: 1495
  %1209 = extractelement <32 x i16> %1114, i32 15		; visa id: 1495
  %1210 = insertelement <16 x i16> %1208, i16 %1209, i32 15		; visa id: 1495
  %1211 = extractelement <32 x i16> %1114, i32 16		; visa id: 1495
  %1212 = insertelement <16 x i16> undef, i16 %1211, i32 0		; visa id: 1495
  %1213 = extractelement <32 x i16> %1114, i32 17		; visa id: 1495
  %1214 = insertelement <16 x i16> %1212, i16 %1213, i32 1		; visa id: 1495
  %1215 = extractelement <32 x i16> %1114, i32 18		; visa id: 1495
  %1216 = insertelement <16 x i16> %1214, i16 %1215, i32 2		; visa id: 1495
  %1217 = extractelement <32 x i16> %1114, i32 19		; visa id: 1495
  %1218 = insertelement <16 x i16> %1216, i16 %1217, i32 3		; visa id: 1495
  %1219 = extractelement <32 x i16> %1114, i32 20		; visa id: 1495
  %1220 = insertelement <16 x i16> %1218, i16 %1219, i32 4		; visa id: 1495
  %1221 = extractelement <32 x i16> %1114, i32 21		; visa id: 1495
  %1222 = insertelement <16 x i16> %1220, i16 %1221, i32 5		; visa id: 1495
  %1223 = extractelement <32 x i16> %1114, i32 22		; visa id: 1495
  %1224 = insertelement <16 x i16> %1222, i16 %1223, i32 6		; visa id: 1495
  %1225 = extractelement <32 x i16> %1114, i32 23		; visa id: 1495
  %1226 = insertelement <16 x i16> %1224, i16 %1225, i32 7		; visa id: 1495
  %1227 = extractelement <32 x i16> %1114, i32 24		; visa id: 1495
  %1228 = insertelement <16 x i16> %1226, i16 %1227, i32 8		; visa id: 1495
  %1229 = extractelement <32 x i16> %1114, i32 25		; visa id: 1495
  %1230 = insertelement <16 x i16> %1228, i16 %1229, i32 9		; visa id: 1495
  %1231 = extractelement <32 x i16> %1114, i32 26		; visa id: 1495
  %1232 = insertelement <16 x i16> %1230, i16 %1231, i32 10		; visa id: 1495
  %1233 = extractelement <32 x i16> %1114, i32 27		; visa id: 1495
  %1234 = insertelement <16 x i16> %1232, i16 %1233, i32 11		; visa id: 1495
  %1235 = extractelement <32 x i16> %1114, i32 28		; visa id: 1495
  %1236 = insertelement <16 x i16> %1234, i16 %1235, i32 12		; visa id: 1495
  %1237 = extractelement <32 x i16> %1114, i32 29		; visa id: 1495
  %1238 = insertelement <16 x i16> %1236, i16 %1237, i32 13		; visa id: 1495
  %1239 = extractelement <32 x i16> %1114, i32 30		; visa id: 1495
  %1240 = insertelement <16 x i16> %1238, i16 %1239, i32 14		; visa id: 1495
  %1241 = extractelement <32 x i16> %1114, i32 31		; visa id: 1495
  %1242 = insertelement <16 x i16> %1240, i16 %1241, i32 15		; visa id: 1495
  %1243 = call <8 x float> asm "{\0A.decl DST     v_type=G type=f num_elts=$5 alias=<$0,0>\0A.decl SRC1_UD v_type=G type=UD num_elts=128 alias=<$2,0>\0A.decl SRC2_UD v_type=G type=UD num_elts=$4 alias=<$1,0>\0Adpas.bf.bf.8.$3 (M1, 16) DST.0 DST.0 SRC1_UD.0 SRC2_UD(0,0)\0A}\0A", "=rw,rw,rw,P,P,P,0"(<8 x i16> %.sroa.03013.14.vec.insert3046, <16 x i16> %1146, i32 8, i32 64, i32 128, <8 x float> %.sroa.388.2) #0		; visa id: 1495
  %1244 = call <8 x float> asm "{\0A.decl DST     v_type=G type=f num_elts=$5 alias=<$0,0>\0A.decl SRC1_UD v_type=G type=UD num_elts=128 alias=<$2,0>\0A.decl SRC2_UD v_type=G type=UD num_elts=$4 alias=<$1,0>\0Adpas.bf.bf.8.$3 (M1, 16) DST.0 DST.0 SRC1_UD.0 SRC2_UD(0,0)\0A}\0A", "=rw,rw,rw,P,P,P,0"(<8 x i16> %.sroa.35.30.vec.insert3079, <16 x i16> %1146, i32 8, i32 64, i32 128, <8 x float> %.sroa.436.2) #0		; visa id: 1495
  %1245 = call <8 x float> asm "{\0A.decl DST     v_type=G type=f num_elts=$5 alias=<$0,0>\0A.decl SRC1_UD v_type=G type=UD num_elts=128 alias=<$2,0>\0A.decl SRC2_UD v_type=G type=UD num_elts=$4 alias=<$1,0>\0Adpas.bf.bf.8.$3 (M1, 16) DST.0 DST.0 SRC1_UD.0 SRC2_UD(0,0)\0A}\0A", "=rw,rw,rw,P,P,P,0"(<8 x i16> %.sroa.35.30.vec.insert3079, <16 x i16> %1178, i32 8, i32 64, i32 128, <8 x float> %.sroa.532.2) #0		; visa id: 1495
  %1246 = call <8 x float> asm "{\0A.decl DST     v_type=G type=f num_elts=$5 alias=<$0,0>\0A.decl SRC1_UD v_type=G type=UD num_elts=128 alias=<$2,0>\0A.decl SRC2_UD v_type=G type=UD num_elts=$4 alias=<$1,0>\0Adpas.bf.bf.8.$3 (M1, 16) DST.0 DST.0 SRC1_UD.0 SRC2_UD(0,0)\0A}\0A", "=rw,rw,rw,P,P,P,0"(<8 x i16> %.sroa.03013.14.vec.insert3046, <16 x i16> %1178, i32 8, i32 64, i32 128, <8 x float> %.sroa.484.2) #0		; visa id: 1495
  %1247 = call <8 x float> asm "{\0A.decl DST     v_type=G type=f num_elts=$5 alias=<$0,0>\0A.decl SRC1_UD v_type=G type=UD num_elts=128 alias=<$2,0>\0A.decl SRC2_UD v_type=G type=UD num_elts=$4 alias=<$1,0>\0Adpas.bf.bf.8.$3 (M1, 16) DST.0 DST.0 SRC1_UD.0 SRC2_UD(0,0)\0A}\0A", "=rw,rw,rw,P,P,P,0"(<8 x i16> %.sroa.67.46.vec.insert3112, <16 x i16> %1210, i32 8, i32 64, i32 128, <8 x float> %1243) #0		; visa id: 1495
  %1248 = call <8 x float> asm "{\0A.decl DST     v_type=G type=f num_elts=$5 alias=<$0,0>\0A.decl SRC1_UD v_type=G type=UD num_elts=128 alias=<$2,0>\0A.decl SRC2_UD v_type=G type=UD num_elts=$4 alias=<$1,0>\0Adpas.bf.bf.8.$3 (M1, 16) DST.0 DST.0 SRC1_UD.0 SRC2_UD(0,0)\0A}\0A", "=rw,rw,rw,P,P,P,0"(<8 x i16> %.sroa.99.62.vec.insert3145, <16 x i16> %1210, i32 8, i32 64, i32 128, <8 x float> %1244) #0		; visa id: 1495
  %1249 = call <8 x float> asm "{\0A.decl DST     v_type=G type=f num_elts=$5 alias=<$0,0>\0A.decl SRC1_UD v_type=G type=UD num_elts=128 alias=<$2,0>\0A.decl SRC2_UD v_type=G type=UD num_elts=$4 alias=<$1,0>\0Adpas.bf.bf.8.$3 (M1, 16) DST.0 DST.0 SRC1_UD.0 SRC2_UD(0,0)\0A}\0A", "=rw,rw,rw,P,P,P,0"(<8 x i16> %.sroa.99.62.vec.insert3145, <16 x i16> %1242, i32 8, i32 64, i32 128, <8 x float> %1245) #0		; visa id: 1495
  %1250 = call <8 x float> asm "{\0A.decl DST     v_type=G type=f num_elts=$5 alias=<$0,0>\0A.decl SRC1_UD v_type=G type=UD num_elts=128 alias=<$2,0>\0A.decl SRC2_UD v_type=G type=UD num_elts=$4 alias=<$1,0>\0Adpas.bf.bf.8.$3 (M1, 16) DST.0 DST.0 SRC1_UD.0 SRC2_UD(0,0)\0A}\0A", "=rw,rw,rw,P,P,P,0"(<8 x i16> %.sroa.67.46.vec.insert3112, <16 x i16> %1242, i32 8, i32 64, i32 128, <8 x float> %1246) #0		; visa id: 1495
  call void @llvm.genx.GenISA.LSC2DBlockSetAddrPayloadField.p4i8.i32(i8 addrspace(4)* %Block2D_AddrPayload115, i32 5, i32 %148, i1 false)		; visa id: 1495
  call void @llvm.genx.GenISA.LSC2DBlockSetAddrPayloadField.p4i8.i32(i8 addrspace(4)* %Block2D_AddrPayload115, i32 6, i32 %150, i1 false)		; visa id: 1496
  %1251 = call <32 x i16> asm "lsc_load_block2d.ugm (M1, 1)  $0:d$2.$3x$4x$5nt flat[$1+(0,0)]", "=rw,rw.u,P,P,P,P"(i8 addrspace(4)* %Block2D_AddrPayload115, i32 16, i32 2, i32 16, i32 16) #0		; visa id: 1497
  call void @llvm.genx.GenISA.LSC2DBlockSetAddrPayloadField.p4i8.i32(i8 addrspace(4)* %Block2D_AddrPayload115, i32 5, i32 %148, i1 false)		; visa id: 1497
  call void @llvm.genx.GenISA.LSC2DBlockSetAddrPayloadField.p4i8.i32(i8 addrspace(4)* %Block2D_AddrPayload115, i32 6, i32 %837, i1 false)		; visa id: 1498
  %1252 = call <32 x i16> asm "lsc_load_block2d.ugm (M1, 1)  $0:d$2.$3x$4x$5nt flat[$1+(0,0)]", "=rw,rw.u,P,P,P,P"(i8 addrspace(4)* %Block2D_AddrPayload115, i32 16, i32 2, i32 16, i32 16) #0		; visa id: 1499
  %1253 = extractelement <32 x i16> %1251, i32 0		; visa id: 1499
  %1254 = insertelement <16 x i16> undef, i16 %1253, i32 0		; visa id: 1499
  %1255 = extractelement <32 x i16> %1251, i32 1		; visa id: 1499
  %1256 = insertelement <16 x i16> %1254, i16 %1255, i32 1		; visa id: 1499
  %1257 = extractelement <32 x i16> %1251, i32 2		; visa id: 1499
  %1258 = insertelement <16 x i16> %1256, i16 %1257, i32 2		; visa id: 1499
  %1259 = extractelement <32 x i16> %1251, i32 3		; visa id: 1499
  %1260 = insertelement <16 x i16> %1258, i16 %1259, i32 3		; visa id: 1499
  %1261 = extractelement <32 x i16> %1251, i32 4		; visa id: 1499
  %1262 = insertelement <16 x i16> %1260, i16 %1261, i32 4		; visa id: 1499
  %1263 = extractelement <32 x i16> %1251, i32 5		; visa id: 1499
  %1264 = insertelement <16 x i16> %1262, i16 %1263, i32 5		; visa id: 1499
  %1265 = extractelement <32 x i16> %1251, i32 6		; visa id: 1499
  %1266 = insertelement <16 x i16> %1264, i16 %1265, i32 6		; visa id: 1499
  %1267 = extractelement <32 x i16> %1251, i32 7		; visa id: 1499
  %1268 = insertelement <16 x i16> %1266, i16 %1267, i32 7		; visa id: 1499
  %1269 = extractelement <32 x i16> %1251, i32 8		; visa id: 1499
  %1270 = insertelement <16 x i16> %1268, i16 %1269, i32 8		; visa id: 1499
  %1271 = extractelement <32 x i16> %1251, i32 9		; visa id: 1499
  %1272 = insertelement <16 x i16> %1270, i16 %1271, i32 9		; visa id: 1499
  %1273 = extractelement <32 x i16> %1251, i32 10		; visa id: 1499
  %1274 = insertelement <16 x i16> %1272, i16 %1273, i32 10		; visa id: 1499
  %1275 = extractelement <32 x i16> %1251, i32 11		; visa id: 1499
  %1276 = insertelement <16 x i16> %1274, i16 %1275, i32 11		; visa id: 1499
  %1277 = extractelement <32 x i16> %1251, i32 12		; visa id: 1499
  %1278 = insertelement <16 x i16> %1276, i16 %1277, i32 12		; visa id: 1499
  %1279 = extractelement <32 x i16> %1251, i32 13		; visa id: 1499
  %1280 = insertelement <16 x i16> %1278, i16 %1279, i32 13		; visa id: 1499
  %1281 = extractelement <32 x i16> %1251, i32 14		; visa id: 1499
  %1282 = insertelement <16 x i16> %1280, i16 %1281, i32 14		; visa id: 1499
  %1283 = extractelement <32 x i16> %1251, i32 15		; visa id: 1499
  %1284 = insertelement <16 x i16> %1282, i16 %1283, i32 15		; visa id: 1499
  %1285 = extractelement <32 x i16> %1251, i32 16		; visa id: 1499
  %1286 = insertelement <16 x i16> undef, i16 %1285, i32 0		; visa id: 1499
  %1287 = extractelement <32 x i16> %1251, i32 17		; visa id: 1499
  %1288 = insertelement <16 x i16> %1286, i16 %1287, i32 1		; visa id: 1499
  %1289 = extractelement <32 x i16> %1251, i32 18		; visa id: 1499
  %1290 = insertelement <16 x i16> %1288, i16 %1289, i32 2		; visa id: 1499
  %1291 = extractelement <32 x i16> %1251, i32 19		; visa id: 1499
  %1292 = insertelement <16 x i16> %1290, i16 %1291, i32 3		; visa id: 1499
  %1293 = extractelement <32 x i16> %1251, i32 20		; visa id: 1499
  %1294 = insertelement <16 x i16> %1292, i16 %1293, i32 4		; visa id: 1499
  %1295 = extractelement <32 x i16> %1251, i32 21		; visa id: 1499
  %1296 = insertelement <16 x i16> %1294, i16 %1295, i32 5		; visa id: 1499
  %1297 = extractelement <32 x i16> %1251, i32 22		; visa id: 1499
  %1298 = insertelement <16 x i16> %1296, i16 %1297, i32 6		; visa id: 1499
  %1299 = extractelement <32 x i16> %1251, i32 23		; visa id: 1499
  %1300 = insertelement <16 x i16> %1298, i16 %1299, i32 7		; visa id: 1499
  %1301 = extractelement <32 x i16> %1251, i32 24		; visa id: 1499
  %1302 = insertelement <16 x i16> %1300, i16 %1301, i32 8		; visa id: 1499
  %1303 = extractelement <32 x i16> %1251, i32 25		; visa id: 1499
  %1304 = insertelement <16 x i16> %1302, i16 %1303, i32 9		; visa id: 1499
  %1305 = extractelement <32 x i16> %1251, i32 26		; visa id: 1499
  %1306 = insertelement <16 x i16> %1304, i16 %1305, i32 10		; visa id: 1499
  %1307 = extractelement <32 x i16> %1251, i32 27		; visa id: 1499
  %1308 = insertelement <16 x i16> %1306, i16 %1307, i32 11		; visa id: 1499
  %1309 = extractelement <32 x i16> %1251, i32 28		; visa id: 1499
  %1310 = insertelement <16 x i16> %1308, i16 %1309, i32 12		; visa id: 1499
  %1311 = extractelement <32 x i16> %1251, i32 29		; visa id: 1499
  %1312 = insertelement <16 x i16> %1310, i16 %1311, i32 13		; visa id: 1499
  %1313 = extractelement <32 x i16> %1251, i32 30		; visa id: 1499
  %1314 = insertelement <16 x i16> %1312, i16 %1313, i32 14		; visa id: 1499
  %1315 = extractelement <32 x i16> %1251, i32 31		; visa id: 1499
  %1316 = insertelement <16 x i16> %1314, i16 %1315, i32 15		; visa id: 1499
  %1317 = extractelement <32 x i16> %1252, i32 0		; visa id: 1499
  %1318 = insertelement <16 x i16> undef, i16 %1317, i32 0		; visa id: 1499
  %1319 = extractelement <32 x i16> %1252, i32 1		; visa id: 1499
  %1320 = insertelement <16 x i16> %1318, i16 %1319, i32 1		; visa id: 1499
  %1321 = extractelement <32 x i16> %1252, i32 2		; visa id: 1499
  %1322 = insertelement <16 x i16> %1320, i16 %1321, i32 2		; visa id: 1499
  %1323 = extractelement <32 x i16> %1252, i32 3		; visa id: 1499
  %1324 = insertelement <16 x i16> %1322, i16 %1323, i32 3		; visa id: 1499
  %1325 = extractelement <32 x i16> %1252, i32 4		; visa id: 1499
  %1326 = insertelement <16 x i16> %1324, i16 %1325, i32 4		; visa id: 1499
  %1327 = extractelement <32 x i16> %1252, i32 5		; visa id: 1499
  %1328 = insertelement <16 x i16> %1326, i16 %1327, i32 5		; visa id: 1499
  %1329 = extractelement <32 x i16> %1252, i32 6		; visa id: 1499
  %1330 = insertelement <16 x i16> %1328, i16 %1329, i32 6		; visa id: 1499
  %1331 = extractelement <32 x i16> %1252, i32 7		; visa id: 1499
  %1332 = insertelement <16 x i16> %1330, i16 %1331, i32 7		; visa id: 1499
  %1333 = extractelement <32 x i16> %1252, i32 8		; visa id: 1499
  %1334 = insertelement <16 x i16> %1332, i16 %1333, i32 8		; visa id: 1499
  %1335 = extractelement <32 x i16> %1252, i32 9		; visa id: 1499
  %1336 = insertelement <16 x i16> %1334, i16 %1335, i32 9		; visa id: 1499
  %1337 = extractelement <32 x i16> %1252, i32 10		; visa id: 1499
  %1338 = insertelement <16 x i16> %1336, i16 %1337, i32 10		; visa id: 1499
  %1339 = extractelement <32 x i16> %1252, i32 11		; visa id: 1499
  %1340 = insertelement <16 x i16> %1338, i16 %1339, i32 11		; visa id: 1499
  %1341 = extractelement <32 x i16> %1252, i32 12		; visa id: 1499
  %1342 = insertelement <16 x i16> %1340, i16 %1341, i32 12		; visa id: 1499
  %1343 = extractelement <32 x i16> %1252, i32 13		; visa id: 1499
  %1344 = insertelement <16 x i16> %1342, i16 %1343, i32 13		; visa id: 1499
  %1345 = extractelement <32 x i16> %1252, i32 14		; visa id: 1499
  %1346 = insertelement <16 x i16> %1344, i16 %1345, i32 14		; visa id: 1499
  %1347 = extractelement <32 x i16> %1252, i32 15		; visa id: 1499
  %1348 = insertelement <16 x i16> %1346, i16 %1347, i32 15		; visa id: 1499
  %1349 = extractelement <32 x i16> %1252, i32 16		; visa id: 1499
  %1350 = insertelement <16 x i16> undef, i16 %1349, i32 0		; visa id: 1499
  %1351 = extractelement <32 x i16> %1252, i32 17		; visa id: 1499
  %1352 = insertelement <16 x i16> %1350, i16 %1351, i32 1		; visa id: 1499
  %1353 = extractelement <32 x i16> %1252, i32 18		; visa id: 1499
  %1354 = insertelement <16 x i16> %1352, i16 %1353, i32 2		; visa id: 1499
  %1355 = extractelement <32 x i16> %1252, i32 19		; visa id: 1499
  %1356 = insertelement <16 x i16> %1354, i16 %1355, i32 3		; visa id: 1499
  %1357 = extractelement <32 x i16> %1252, i32 20		; visa id: 1499
  %1358 = insertelement <16 x i16> %1356, i16 %1357, i32 4		; visa id: 1499
  %1359 = extractelement <32 x i16> %1252, i32 21		; visa id: 1499
  %1360 = insertelement <16 x i16> %1358, i16 %1359, i32 5		; visa id: 1499
  %1361 = extractelement <32 x i16> %1252, i32 22		; visa id: 1499
  %1362 = insertelement <16 x i16> %1360, i16 %1361, i32 6		; visa id: 1499
  %1363 = extractelement <32 x i16> %1252, i32 23		; visa id: 1499
  %1364 = insertelement <16 x i16> %1362, i16 %1363, i32 7		; visa id: 1499
  %1365 = extractelement <32 x i16> %1252, i32 24		; visa id: 1499
  %1366 = insertelement <16 x i16> %1364, i16 %1365, i32 8		; visa id: 1499
  %1367 = extractelement <32 x i16> %1252, i32 25		; visa id: 1499
  %1368 = insertelement <16 x i16> %1366, i16 %1367, i32 9		; visa id: 1499
  %1369 = extractelement <32 x i16> %1252, i32 26		; visa id: 1499
  %1370 = insertelement <16 x i16> %1368, i16 %1369, i32 10		; visa id: 1499
  %1371 = extractelement <32 x i16> %1252, i32 27		; visa id: 1499
  %1372 = insertelement <16 x i16> %1370, i16 %1371, i32 11		; visa id: 1499
  %1373 = extractelement <32 x i16> %1252, i32 28		; visa id: 1499
  %1374 = insertelement <16 x i16> %1372, i16 %1373, i32 12		; visa id: 1499
  %1375 = extractelement <32 x i16> %1252, i32 29		; visa id: 1499
  %1376 = insertelement <16 x i16> %1374, i16 %1375, i32 13		; visa id: 1499
  %1377 = extractelement <32 x i16> %1252, i32 30		; visa id: 1499
  %1378 = insertelement <16 x i16> %1376, i16 %1377, i32 14		; visa id: 1499
  %1379 = extractelement <32 x i16> %1252, i32 31		; visa id: 1499
  %1380 = insertelement <16 x i16> %1378, i16 %1379, i32 15		; visa id: 1499
  %1381 = call <8 x float> asm "{\0A.decl DST     v_type=G type=f num_elts=$5 alias=<$0,0>\0A.decl SRC1_UD v_type=G type=UD num_elts=128 alias=<$2,0>\0A.decl SRC2_UD v_type=G type=UD num_elts=$4 alias=<$1,0>\0Adpas.bf.bf.8.$3 (M1, 16) DST.0 DST.0 SRC1_UD.0 SRC2_UD(0,0)\0A}\0A", "=rw,rw,rw,P,P,P,0"(<8 x i16> %.sroa.03013.14.vec.insert3046, <16 x i16> %1284, i32 8, i32 64, i32 128, <8 x float> %.sroa.580.2) #0		; visa id: 1499
  %1382 = call <8 x float> asm "{\0A.decl DST     v_type=G type=f num_elts=$5 alias=<$0,0>\0A.decl SRC1_UD v_type=G type=UD num_elts=128 alias=<$2,0>\0A.decl SRC2_UD v_type=G type=UD num_elts=$4 alias=<$1,0>\0Adpas.bf.bf.8.$3 (M1, 16) DST.0 DST.0 SRC1_UD.0 SRC2_UD(0,0)\0A}\0A", "=rw,rw,rw,P,P,P,0"(<8 x i16> %.sroa.35.30.vec.insert3079, <16 x i16> %1284, i32 8, i32 64, i32 128, <8 x float> %.sroa.628.2) #0		; visa id: 1499
  %1383 = call <8 x float> asm "{\0A.decl DST     v_type=G type=f num_elts=$5 alias=<$0,0>\0A.decl SRC1_UD v_type=G type=UD num_elts=128 alias=<$2,0>\0A.decl SRC2_UD v_type=G type=UD num_elts=$4 alias=<$1,0>\0Adpas.bf.bf.8.$3 (M1, 16) DST.0 DST.0 SRC1_UD.0 SRC2_UD(0,0)\0A}\0A", "=rw,rw,rw,P,P,P,0"(<8 x i16> %.sroa.35.30.vec.insert3079, <16 x i16> %1316, i32 8, i32 64, i32 128, <8 x float> %.sroa.724.2) #0		; visa id: 1499
  %1384 = call <8 x float> asm "{\0A.decl DST     v_type=G type=f num_elts=$5 alias=<$0,0>\0A.decl SRC1_UD v_type=G type=UD num_elts=128 alias=<$2,0>\0A.decl SRC2_UD v_type=G type=UD num_elts=$4 alias=<$1,0>\0Adpas.bf.bf.8.$3 (M1, 16) DST.0 DST.0 SRC1_UD.0 SRC2_UD(0,0)\0A}\0A", "=rw,rw,rw,P,P,P,0"(<8 x i16> %.sroa.03013.14.vec.insert3046, <16 x i16> %1316, i32 8, i32 64, i32 128, <8 x float> %.sroa.676.2) #0		; visa id: 1499
  %1385 = call <8 x float> asm "{\0A.decl DST     v_type=G type=f num_elts=$5 alias=<$0,0>\0A.decl SRC1_UD v_type=G type=UD num_elts=128 alias=<$2,0>\0A.decl SRC2_UD v_type=G type=UD num_elts=$4 alias=<$1,0>\0Adpas.bf.bf.8.$3 (M1, 16) DST.0 DST.0 SRC1_UD.0 SRC2_UD(0,0)\0A}\0A", "=rw,rw,rw,P,P,P,0"(<8 x i16> %.sroa.67.46.vec.insert3112, <16 x i16> %1348, i32 8, i32 64, i32 128, <8 x float> %1381) #0		; visa id: 1499
  %1386 = call <8 x float> asm "{\0A.decl DST     v_type=G type=f num_elts=$5 alias=<$0,0>\0A.decl SRC1_UD v_type=G type=UD num_elts=128 alias=<$2,0>\0A.decl SRC2_UD v_type=G type=UD num_elts=$4 alias=<$1,0>\0Adpas.bf.bf.8.$3 (M1, 16) DST.0 DST.0 SRC1_UD.0 SRC2_UD(0,0)\0A}\0A", "=rw,rw,rw,P,P,P,0"(<8 x i16> %.sroa.99.62.vec.insert3145, <16 x i16> %1348, i32 8, i32 64, i32 128, <8 x float> %1382) #0		; visa id: 1499
  %1387 = call <8 x float> asm "{\0A.decl DST     v_type=G type=f num_elts=$5 alias=<$0,0>\0A.decl SRC1_UD v_type=G type=UD num_elts=128 alias=<$2,0>\0A.decl SRC2_UD v_type=G type=UD num_elts=$4 alias=<$1,0>\0Adpas.bf.bf.8.$3 (M1, 16) DST.0 DST.0 SRC1_UD.0 SRC2_UD(0,0)\0A}\0A", "=rw,rw,rw,P,P,P,0"(<8 x i16> %.sroa.99.62.vec.insert3145, <16 x i16> %1380, i32 8, i32 64, i32 128, <8 x float> %1383) #0		; visa id: 1499
  %1388 = call <8 x float> asm "{\0A.decl DST     v_type=G type=f num_elts=$5 alias=<$0,0>\0A.decl SRC1_UD v_type=G type=UD num_elts=128 alias=<$2,0>\0A.decl SRC2_UD v_type=G type=UD num_elts=$4 alias=<$1,0>\0Adpas.bf.bf.8.$3 (M1, 16) DST.0 DST.0 SRC1_UD.0 SRC2_UD(0,0)\0A}\0A", "=rw,rw,rw,P,P,P,0"(<8 x i16> %.sroa.67.46.vec.insert3112, <16 x i16> %1380, i32 8, i32 64, i32 128, <8 x float> %1384) #0		; visa id: 1499
  %1389 = fadd reassoc nsz arcp contract float %.sroa.0200.2, %835, !spirv.Decorations !1236		; visa id: 1499
  br i1 %121, label %.lr.ph163, label %.loopexit.i._ZZN7cutlass4fmha10collective15FMHAFwdMainloopINS0_9XeDefaultILi2EEELb1ELb1ELb0EN4cute8TiledMMAINS5_8MMA_AtomIJNS5_10XE_DPAS_TTILi8EfNS_10bfloat16_tES9_fEEEEENS5_6LayoutINS5_5tupleIJNS5_1CILi16EEENSE_ILi1EEESG_EEENSD_IJSG_NSE_ILi0EEESI_EEEEEKNSD_IJNSC_INSD_IJNSE_ILi8EEESF_NSE_ILi2EEEEEENSD_IJSG_SF_SL_EEEEENSC_INSE_ILi32EEESG_EESR_EEEEESU_Li4ENS5_6TensorINS5_10ViewEngineINS5_8gmem_ptrIPS9_EEEENSC_INSD_IJiiiiEEENSD_IJiSG_iiEEEEEEES14_NSV_IS10_NSC_IS11_NSD_IJSG_iiiEEEEEEES14_S17_vvvvvEclINSD_IJjjEEEEEvRKNSV_IS10_NSC_INSD_IJiiEEENSD_IJiSG_EEEEEEES1G_RKNSV_IS10_NSC_IS1B_NSD_IJSG_iEEEEEEERNS5_14SubgroupTensorINS5_11ArrayEngineIfLm128EEENSC_INSD_IJSL_SM_SM_NSE_ILi4EEEEEENSD_IJSG_SL_SF_SQ_EEEEENSC_INSD_IJSF_NSD_IJSL_NSD_IJSM_SM_EEES1P_EEEEEENSD_IJNS5_11ScaledBasisISG_JLi1EEEENSD_IJNS1W_ISG_JLi0EEEENSD_IJNS1W_ISL_JLi0EEEENS1W_ISF_JLi1EEEEEEENS1W_ISQ_JLi1EEEEEEEEEEEEEERNSV_INS1N_IfLm1EEENSC_ISG_SI_EEEES2B_T_iiiiiiiiiS1G_S1L_ENKUlS2C_iRT0_RT1_RT2_RT3_RT4_RT5_E_clISt17integral_constantIbLb1EENS5_9TiledCopyINS5_9Copy_Atom_crit_edge, !stats.blockFrequency.digits !1221, !stats.blockFrequency.scale !1204		; visa id: 1500

.loopexit.i._ZZN7cutlass4fmha10collective15FMHAFwdMainloopINS0_9XeDefaultILi2EEELb1ELb1ELb0EN4cute8TiledMMAINS5_8MMA_AtomIJNS5_10XE_DPAS_TTILi8EfNS_10bfloat16_tES9_fEEEEENS5_6LayoutINS5_5tupleIJNS5_1CILi16EEENSE_ILi1EEESG_EEENSD_IJSG_NSE_ILi0EEESI_EEEEEKNSD_IJNSC_INSD_IJNSE_ILi8EEESF_NSE_ILi2EEEEEENSD_IJSG_SF_SL_EEEEENSC_INSE_ILi32EEESG_EESR_EEEEESU_Li4ENS5_6TensorINS5_10ViewEngineINS5_8gmem_ptrIPS9_EEEENSC_INSD_IJiiiiEEENSD_IJiSG_iiEEEEEEES14_NSV_IS10_NSC_IS11_NSD_IJSG_iiiEEEEEEES14_S17_vvvvvEclINSD_IJjjEEEEEvRKNSV_IS10_NSC_INSD_IJiiEEENSD_IJiSG_EEEEEEES1G_RKNSV_IS10_NSC_IS1B_NSD_IJSG_iEEEEEEERNS5_14SubgroupTensorINS5_11ArrayEngineIfLm128EEENSC_INSD_IJSL_SM_SM_NSE_ILi4EEEEEENSD_IJSG_SL_SF_SQ_EEEEENSC_INSD_IJSF_NSD_IJSL_NSD_IJSM_SM_EEES1P_EEEEEENSD_IJNS5_11ScaledBasisISG_JLi1EEEENSD_IJNS1W_ISG_JLi0EEEENSD_IJNS1W_ISL_JLi0EEEENS1W_ISF_JLi1EEEEEEENS1W_ISQ_JLi1EEEEEEEEEEEEEERNSV_INS1N_IfLm1EEENSC_ISG_SI_EEEES2B_T_iiiiiiiiiS1G_S1L_ENKUlS2C_iRT0_RT1_RT2_RT3_RT4_RT5_E_clISt17integral_constantIbLb1EENS5_9TiledCopyINS5_9Copy_Atom_crit_edge: ; preds = %.loopexit.i
; BB:
  br label %_ZZN7cutlass4fmha10collective15FMHAFwdMainloopINS0_9XeDefaultILi2EEELb1ELb1ELb0EN4cute8TiledMMAINS5_8MMA_AtomIJNS5_10XE_DPAS_TTILi8EfNS_10bfloat16_tES9_fEEEEENS5_6LayoutINS5_5tupleIJNS5_1CILi16EEENSE_ILi1EEESG_EEENSD_IJSG_NSE_ILi0EEESI_EEEEEKNSD_IJNSC_INSD_IJNSE_ILi8EEESF_NSE_ILi2EEEEEENSD_IJSG_SF_SL_EEEEENSC_INSE_ILi32EEESG_EESR_EEEEESU_Li4ENS5_6TensorINS5_10ViewEngineINS5_8gmem_ptrIPS9_EEEENSC_INSD_IJiiiiEEENSD_IJiSG_iiEEEEEEES14_NSV_IS10_NSC_IS11_NSD_IJSG_iiiEEEEEEES14_S17_vvvvvEclINSD_IJjjEEEEEvRKNSV_IS10_NSC_INSD_IJiiEEENSD_IJiSG_EEEEEEES1G_RKNSV_IS10_NSC_IS1B_NSD_IJSG_iEEEEEEERNS5_14SubgroupTensorINS5_11ArrayEngineIfLm128EEENSC_INSD_IJSL_SM_SM_NSE_ILi4EEEEEENSD_IJSG_SL_SF_SQ_EEEEENSC_INSD_IJSF_NSD_IJSL_NSD_IJSM_SM_EEES1P_EEEEEENSD_IJNS5_11ScaledBasisISG_JLi1EEEENSD_IJNS1W_ISG_JLi0EEEENSD_IJNS1W_ISL_JLi0EEEENS1W_ISF_JLi1EEEEEEENS1W_ISQ_JLi1EEEEEEEEEEEEEERNSV_INS1N_IfLm1EEENSC_ISG_SI_EEEES2B_T_iiiiiiiiiS1G_S1L_ENKUlS2C_iRT0_RT1_RT2_RT3_RT4_RT5_E_clISt17integral_constantIbLb1EENS5_9TiledCopyINS5_9Copy_Atom, !stats.blockFrequency.digits !1227, !stats.blockFrequency.scale !1212

.lr.ph163:                                        ; preds = %.loopexit.i
; BB55 :
  %1390 = add nuw nsw i32 %149, 2, !spirv.Decorations !1210		; visa id: 1502
  %1391 = shl nsw i32 %1390, 5, !spirv.Decorations !1210		; visa id: 1503
  %1392 = icmp slt i32 %1390, %qot6720		; visa id: 1504
  %1393 = sub nsw i32 %1390, %qot6720		; visa id: 1505
  %1394 = shl nsw i32 %1393, 5		; visa id: 1506
  %1395 = add nsw i32 %117, %1394		; visa id: 1507
  %1396 = add nuw nsw i32 %117, %1391		; visa id: 1508
  br label %1397, !stats.blockFrequency.digits !1228, !stats.blockFrequency.scale !1212		; visa id: 1510

1397:                                             ; preds = %._crit_edge6813, %.lr.ph163
; BB56 :
  %1398 = phi i32 [ 0, %.lr.ph163 ], [ %1404, %._crit_edge6813 ]
  br i1 %1392, label %1401, label %1399, !stats.blockFrequency.digits !1238, !stats.blockFrequency.scale !1239		; visa id: 1511

1399:                                             ; preds = %1397
; BB57 :
  %1400 = shl nsw i32 %1398, 5, !spirv.Decorations !1210		; visa id: 1513
  call void @llvm.genx.GenISA.LSC2DBlockSetAddrPayloadField.p4i8.i32(i8 addrspace(4)* %Block2D_AddrPayload117, i32 5, i32 %1400, i1 false)		; visa id: 1514
  call void @llvm.genx.GenISA.LSC2DBlockSetAddrPayloadField.p4i8.i32(i8 addrspace(4)* %Block2D_AddrPayload117, i32 6, i32 %1395, i1 false)		; visa id: 1515
  call void asm sideeffect "lsc_load_block2d.ugm.ca.ca (M1, 1)  %null:d$1.$2x$3nn flat[$0+(0,0)]", "rw.u,P,P,P"(i8 addrspace(4)* %Block2D_AddrPayload117, i32 16, i32 32, i32 2) #0		; visa id: 1516
  br label %1403, !stats.blockFrequency.digits !1232, !stats.blockFrequency.scale !1233		; visa id: 1516

1401:                                             ; preds = %1397
; BB58 :
  %1402 = shl nsw i32 %1398, 5, !spirv.Decorations !1210		; visa id: 1518
  call void @llvm.genx.GenISA.LSC2DBlockSetAddrPayloadField.p4i8.i32(i8 addrspace(4)* %Block2D_AddrPayload119, i32 5, i32 %1402, i1 false)		; visa id: 1519
  call void @llvm.genx.GenISA.LSC2DBlockSetAddrPayloadField.p4i8.i32(i8 addrspace(4)* %Block2D_AddrPayload119, i32 6, i32 %1396, i1 false)		; visa id: 1520
  call void asm sideeffect "lsc_load_block2d.ugm.ca.ca (M1, 1)  %null:d$1.$2x$3nn flat[$0+(0,0)]", "rw.u,P,P,P"(i8 addrspace(4)* %Block2D_AddrPayload119, i32 16, i32 32, i32 2) #0		; visa id: 1521
  br label %1403, !stats.blockFrequency.digits !1232, !stats.blockFrequency.scale !1233		; visa id: 1521

1403:                                             ; preds = %1399, %1401
; BB59 :
  %1404 = add nuw nsw i32 %1398, 1, !spirv.Decorations !1219		; visa id: 1522
  %1405 = icmp slt i32 %1404, %qot6716		; visa id: 1523
  br i1 %1405, label %._crit_edge6813, label %_ZZN7cutlass4fmha10collective15FMHAFwdMainloopINS0_9XeDefaultILi2EEELb1ELb1ELb0EN4cute8TiledMMAINS5_8MMA_AtomIJNS5_10XE_DPAS_TTILi8EfNS_10bfloat16_tES9_fEEEEENS5_6LayoutINS5_5tupleIJNS5_1CILi16EEENSE_ILi1EEESG_EEENSD_IJSG_NSE_ILi0EEESI_EEEEEKNSD_IJNSC_INSD_IJNSE_ILi8EEESF_NSE_ILi2EEEEEENSD_IJSG_SF_SL_EEEEENSC_INSE_ILi32EEESG_EESR_EEEEESU_Li4ENS5_6TensorINS5_10ViewEngineINS5_8gmem_ptrIPS9_EEEENSC_INSD_IJiiiiEEENSD_IJiSG_iiEEEEEEES14_NSV_IS10_NSC_IS11_NSD_IJSG_iiiEEEEEEES14_S17_vvvvvEclINSD_IJjjEEEEEvRKNSV_IS10_NSC_INSD_IJiiEEENSD_IJiSG_EEEEEEES1G_RKNSV_IS10_NSC_IS1B_NSD_IJSG_iEEEEEEERNS5_14SubgroupTensorINS5_11ArrayEngineIfLm128EEENSC_INSD_IJSL_SM_SM_NSE_ILi4EEEEEENSD_IJSG_SL_SF_SQ_EEEEENSC_INSD_IJSF_NSD_IJSL_NSD_IJSM_SM_EEES1P_EEEEEENSD_IJNS5_11ScaledBasisISG_JLi1EEEENSD_IJNS1W_ISG_JLi0EEEENSD_IJNS1W_ISL_JLi0EEEENS1W_ISF_JLi1EEEEEEENS1W_ISQ_JLi1EEEEEEEEEEEEEERNSV_INS1N_IfLm1EEENSC_ISG_SI_EEEES2B_T_iiiiiiiiiS1G_S1L_ENKUlS2C_iRT0_RT1_RT2_RT3_RT4_RT5_E_clISt17integral_constantIbLb1EENS5_9TiledCopyINS5_9Copy_Atom6766, !stats.blockFrequency.digits !1238, !stats.blockFrequency.scale !1239		; visa id: 1524

_ZZN7cutlass4fmha10collective15FMHAFwdMainloopINS0_9XeDefaultILi2EEELb1ELb1ELb0EN4cute8TiledMMAINS5_8MMA_AtomIJNS5_10XE_DPAS_TTILi8EfNS_10bfloat16_tES9_fEEEEENS5_6LayoutINS5_5tupleIJNS5_1CILi16EEENSE_ILi1EEESG_EEENSD_IJSG_NSE_ILi0EEESI_EEEEEKNSD_IJNSC_INSD_IJNSE_ILi8EEESF_NSE_ILi2EEEEEENSD_IJSG_SF_SL_EEEEENSC_INSE_ILi32EEESG_EESR_EEEEESU_Li4ENS5_6TensorINS5_10ViewEngineINS5_8gmem_ptrIPS9_EEEENSC_INSD_IJiiiiEEENSD_IJiSG_iiEEEEEEES14_NSV_IS10_NSC_IS11_NSD_IJSG_iiiEEEEEEES14_S17_vvvvvEclINSD_IJjjEEEEEvRKNSV_IS10_NSC_INSD_IJiiEEENSD_IJiSG_EEEEEEES1G_RKNSV_IS10_NSC_IS1B_NSD_IJSG_iEEEEEEERNS5_14SubgroupTensorINS5_11ArrayEngineIfLm128EEENSC_INSD_IJSL_SM_SM_NSE_ILi4EEEEEENSD_IJSG_SL_SF_SQ_EEEEENSC_INSD_IJSF_NSD_IJSL_NSD_IJSM_SM_EEES1P_EEEEEENSD_IJNS5_11ScaledBasisISG_JLi1EEEENSD_IJNS1W_ISG_JLi0EEEENSD_IJNS1W_ISL_JLi0EEEENS1W_ISF_JLi1EEEEEEENS1W_ISQ_JLi1EEEEEEEEEEEEEERNSV_INS1N_IfLm1EEENSC_ISG_SI_EEEES2B_T_iiiiiiiiiS1G_S1L_ENKUlS2C_iRT0_RT1_RT2_RT3_RT4_RT5_E_clISt17integral_constantIbLb1EENS5_9TiledCopyINS5_9Copy_Atom6766: ; preds = %1403
; BB:
  br label %_ZZN7cutlass4fmha10collective15FMHAFwdMainloopINS0_9XeDefaultILi2EEELb1ELb1ELb0EN4cute8TiledMMAINS5_8MMA_AtomIJNS5_10XE_DPAS_TTILi8EfNS_10bfloat16_tES9_fEEEEENS5_6LayoutINS5_5tupleIJNS5_1CILi16EEENSE_ILi1EEESG_EEENSD_IJSG_NSE_ILi0EEESI_EEEEEKNSD_IJNSC_INSD_IJNSE_ILi8EEESF_NSE_ILi2EEEEEENSD_IJSG_SF_SL_EEEEENSC_INSE_ILi32EEESG_EESR_EEEEESU_Li4ENS5_6TensorINS5_10ViewEngineINS5_8gmem_ptrIPS9_EEEENSC_INSD_IJiiiiEEENSD_IJiSG_iiEEEEEEES14_NSV_IS10_NSC_IS11_NSD_IJSG_iiiEEEEEEES14_S17_vvvvvEclINSD_IJjjEEEEEvRKNSV_IS10_NSC_INSD_IJiiEEENSD_IJiSG_EEEEEEES1G_RKNSV_IS10_NSC_IS1B_NSD_IJSG_iEEEEEEERNS5_14SubgroupTensorINS5_11ArrayEngineIfLm128EEENSC_INSD_IJSL_SM_SM_NSE_ILi4EEEEEENSD_IJSG_SL_SF_SQ_EEEEENSC_INSD_IJSF_NSD_IJSL_NSD_IJSM_SM_EEES1P_EEEEEENSD_IJNS5_11ScaledBasisISG_JLi1EEEENSD_IJNS1W_ISG_JLi0EEEENSD_IJNS1W_ISL_JLi0EEEENS1W_ISF_JLi1EEEEEEENS1W_ISQ_JLi1EEEEEEEEEEEEEERNSV_INS1N_IfLm1EEENSC_ISG_SI_EEEES2B_T_iiiiiiiiiS1G_S1L_ENKUlS2C_iRT0_RT1_RT2_RT3_RT4_RT5_E_clISt17integral_constantIbLb1EENS5_9TiledCopyINS5_9Copy_Atom, !stats.blockFrequency.digits !1228, !stats.blockFrequency.scale !1212

._crit_edge6813:                                  ; preds = %1403
; BB:
  br label %1397, !stats.blockFrequency.digits !1240, !stats.blockFrequency.scale !1239

_ZZN7cutlass4fmha10collective15FMHAFwdMainloopINS0_9XeDefaultILi2EEELb1ELb1ELb0EN4cute8TiledMMAINS5_8MMA_AtomIJNS5_10XE_DPAS_TTILi8EfNS_10bfloat16_tES9_fEEEEENS5_6LayoutINS5_5tupleIJNS5_1CILi16EEENSE_ILi1EEESG_EEENSD_IJSG_NSE_ILi0EEESI_EEEEEKNSD_IJNSC_INSD_IJNSE_ILi8EEESF_NSE_ILi2EEEEEENSD_IJSG_SF_SL_EEEEENSC_INSE_ILi32EEESG_EESR_EEEEESU_Li4ENS5_6TensorINS5_10ViewEngineINS5_8gmem_ptrIPS9_EEEENSC_INSD_IJiiiiEEENSD_IJiSG_iiEEEEEEES14_NSV_IS10_NSC_IS11_NSD_IJSG_iiiEEEEEEES14_S17_vvvvvEclINSD_IJjjEEEEEvRKNSV_IS10_NSC_INSD_IJiiEEENSD_IJiSG_EEEEEEES1G_RKNSV_IS10_NSC_IS1B_NSD_IJSG_iEEEEEEERNS5_14SubgroupTensorINS5_11ArrayEngineIfLm128EEENSC_INSD_IJSL_SM_SM_NSE_ILi4EEEEEENSD_IJSG_SL_SF_SQ_EEEEENSC_INSD_IJSF_NSD_IJSL_NSD_IJSM_SM_EEES1P_EEEEEENSD_IJNS5_11ScaledBasisISG_JLi1EEEENSD_IJNS1W_ISG_JLi0EEEENSD_IJNS1W_ISL_JLi0EEEENS1W_ISF_JLi1EEEEEEENS1W_ISQ_JLi1EEEEEEEEEEEEEERNSV_INS1N_IfLm1EEENSC_ISG_SI_EEEES2B_T_iiiiiiiiiS1G_S1L_ENKUlS2C_iRT0_RT1_RT2_RT3_RT4_RT5_E_clISt17integral_constantIbLb1EENS5_9TiledCopyINS5_9Copy_Atom: ; preds = %.loopexit.i._ZZN7cutlass4fmha10collective15FMHAFwdMainloopINS0_9XeDefaultILi2EEELb1ELb1ELb0EN4cute8TiledMMAINS5_8MMA_AtomIJNS5_10XE_DPAS_TTILi8EfNS_10bfloat16_tES9_fEEEEENS5_6LayoutINS5_5tupleIJNS5_1CILi16EEENSE_ILi1EEESG_EEENSD_IJSG_NSE_ILi0EEESI_EEEEEKNSD_IJNSC_INSD_IJNSE_ILi8EEESF_NSE_ILi2EEEEEENSD_IJSG_SF_SL_EEEEENSC_INSE_ILi32EEESG_EESR_EEEEESU_Li4ENS5_6TensorINS5_10ViewEngineINS5_8gmem_ptrIPS9_EEEENSC_INSD_IJiiiiEEENSD_IJiSG_iiEEEEEEES14_NSV_IS10_NSC_IS11_NSD_IJSG_iiiEEEEEEES14_S17_vvvvvEclINSD_IJjjEEEEEvRKNSV_IS10_NSC_INSD_IJiiEEENSD_IJiSG_EEEEEEES1G_RKNSV_IS10_NSC_IS1B_NSD_IJSG_iEEEEEEERNS5_14SubgroupTensorINS5_11ArrayEngineIfLm128EEENSC_INSD_IJSL_SM_SM_NSE_ILi4EEEEEENSD_IJSG_SL_SF_SQ_EEEEENSC_INSD_IJSF_NSD_IJSL_NSD_IJSM_SM_EEES1P_EEEEEENSD_IJNS5_11ScaledBasisISG_JLi1EEEENSD_IJNS1W_ISG_JLi0EEEENSD_IJNS1W_ISL_JLi0EEEENS1W_ISF_JLi1EEEEEEENS1W_ISQ_JLi1EEEEEEEEEEEEEERNSV_INS1N_IfLm1EEENSC_ISG_SI_EEEES2B_T_iiiiiiiiiS1G_S1L_ENKUlS2C_iRT0_RT1_RT2_RT3_RT4_RT5_E_clISt17integral_constantIbLb1EENS5_9TiledCopyINS5_9Copy_Atom_crit_edge, %_ZZN7cutlass4fmha10collective15FMHAFwdMainloopINS0_9XeDefaultILi2EEELb1ELb1ELb0EN4cute8TiledMMAINS5_8MMA_AtomIJNS5_10XE_DPAS_TTILi8EfNS_10bfloat16_tES9_fEEEEENS5_6LayoutINS5_5tupleIJNS5_1CILi16EEENSE_ILi1EEESG_EEENSD_IJSG_NSE_ILi0EEESI_EEEEEKNSD_IJNSC_INSD_IJNSE_ILi8EEESF_NSE_ILi2EEEEEENSD_IJSG_SF_SL_EEEEENSC_INSE_ILi32EEESG_EESR_EEEEESU_Li4ENS5_6TensorINS5_10ViewEngineINS5_8gmem_ptrIPS9_EEEENSC_INSD_IJiiiiEEENSD_IJiSG_iiEEEEEEES14_NSV_IS10_NSC_IS11_NSD_IJSG_iiiEEEEEEES14_S17_vvvvvEclINSD_IJjjEEEEEvRKNSV_IS10_NSC_INSD_IJiiEEENSD_IJiSG_EEEEEEES1G_RKNSV_IS10_NSC_IS1B_NSD_IJSG_iEEEEEEERNS5_14SubgroupTensorINS5_11ArrayEngineIfLm128EEENSC_INSD_IJSL_SM_SM_NSE_ILi4EEEEEENSD_IJSG_SL_SF_SQ_EEEEENSC_INSD_IJSF_NSD_IJSL_NSD_IJSM_SM_EEES1P_EEEEEENSD_IJNS5_11ScaledBasisISG_JLi1EEEENSD_IJNS1W_ISG_JLi0EEEENSD_IJNS1W_ISL_JLi0EEEENS1W_ISF_JLi1EEEEEEENS1W_ISQ_JLi1EEEEEEEEEEEEEERNSV_INS1N_IfLm1EEENSC_ISG_SI_EEEES2B_T_iiiiiiiiiS1G_S1L_ENKUlS2C_iRT0_RT1_RT2_RT3_RT4_RT5_E_clISt17integral_constantIbLb1EENS5_9TiledCopyINS5_9Copy_Atom6766
; BB62 :
  %1406 = add nuw nsw i32 %149, 1, !spirv.Decorations !1210		; visa id: 1526
  %1407 = icmp slt i32 %1406, %qot6720		; visa id: 1527
  br i1 %1407, label %_ZZN7cutlass4fmha10collective15FMHAFwdMainloopINS0_9XeDefaultILi2EEELb1ELb1ELb0EN4cute8TiledMMAINS5_8MMA_AtomIJNS5_10XE_DPAS_TTILi8EfNS_10bfloat16_tES9_fEEEEENS5_6LayoutINS5_5tupleIJNS5_1CILi16EEENSE_ILi1EEESG_EEENSD_IJSG_NSE_ILi0EEESI_EEEEEKNSD_IJNSC_INSD_IJNSE_ILi8EEESF_NSE_ILi2EEEEEENSD_IJSG_SF_SL_EEEEENSC_INSE_ILi32EEESG_EESR_EEEEESU_Li4ENS5_6TensorINS5_10ViewEngineINS5_8gmem_ptrIPS9_EEEENSC_INSD_IJiiiiEEENSD_IJiSG_iiEEEEEEES14_NSV_IS10_NSC_IS11_NSD_IJSG_iiiEEEEEEES14_S17_vvvvvEclINSD_IJjjEEEEEvRKNSV_IS10_NSC_INSD_IJiiEEENSD_IJiSG_EEEEEEES1G_RKNSV_IS10_NSC_IS1B_NSD_IJSG_iEEEEEEERNS5_14SubgroupTensorINS5_11ArrayEngineIfLm128EEENSC_INSD_IJSL_SM_SM_NSE_ILi4EEEEEENSD_IJSG_SL_SF_SQ_EEEEENSC_INSD_IJSF_NSD_IJSL_NSD_IJSM_SM_EEES1P_EEEEEENSD_IJNS5_11ScaledBasisISG_JLi1EEEENSD_IJNS1W_ISG_JLi0EEEENSD_IJNS1W_ISL_JLi0EEEENS1W_ISF_JLi1EEEEEEENS1W_ISQ_JLi1EEEEEEEEEEEEEERNSV_INS1N_IfLm1EEENSC_ISG_SI_EEEES2B_T_iiiiiiiiiS1G_S1L_ENKUlS2C_iRT0_RT1_RT2_RT3_RT4_RT5_E_clISt17integral_constantIbLb1EENS5_9TiledCopyINS5_9Copy_Atom..preheader146_crit_edge, label %._crit_edge166.loopexit, !stats.blockFrequency.digits !1221, !stats.blockFrequency.scale !1204		; visa id: 1529

_ZZN7cutlass4fmha10collective15FMHAFwdMainloopINS0_9XeDefaultILi2EEELb1ELb1ELb0EN4cute8TiledMMAINS5_8MMA_AtomIJNS5_10XE_DPAS_TTILi8EfNS_10bfloat16_tES9_fEEEEENS5_6LayoutINS5_5tupleIJNS5_1CILi16EEENSE_ILi1EEESG_EEENSD_IJSG_NSE_ILi0EEESI_EEEEEKNSD_IJNSC_INSD_IJNSE_ILi8EEESF_NSE_ILi2EEEEEENSD_IJSG_SF_SL_EEEEENSC_INSE_ILi32EEESG_EESR_EEEEESU_Li4ENS5_6TensorINS5_10ViewEngineINS5_8gmem_ptrIPS9_EEEENSC_INSD_IJiiiiEEENSD_IJiSG_iiEEEEEEES14_NSV_IS10_NSC_IS11_NSD_IJSG_iiiEEEEEEES14_S17_vvvvvEclINSD_IJjjEEEEEvRKNSV_IS10_NSC_INSD_IJiiEEENSD_IJiSG_EEEEEEES1G_RKNSV_IS10_NSC_IS1B_NSD_IJSG_iEEEEEEERNS5_14SubgroupTensorINS5_11ArrayEngineIfLm128EEENSC_INSD_IJSL_SM_SM_NSE_ILi4EEEEEENSD_IJSG_SL_SF_SQ_EEEEENSC_INSD_IJSF_NSD_IJSL_NSD_IJSM_SM_EEES1P_EEEEEENSD_IJNS5_11ScaledBasisISG_JLi1EEEENSD_IJNS1W_ISG_JLi0EEEENSD_IJNS1W_ISL_JLi0EEEENS1W_ISF_JLi1EEEEEEENS1W_ISQ_JLi1EEEEEEEEEEEEEERNSV_INS1N_IfLm1EEENSC_ISG_SI_EEEES2B_T_iiiiiiiiiS1G_S1L_ENKUlS2C_iRT0_RT1_RT2_RT3_RT4_RT5_E_clISt17integral_constantIbLb1EENS5_9TiledCopyINS5_9Copy_Atom..preheader146_crit_edge: ; preds = %_ZZN7cutlass4fmha10collective15FMHAFwdMainloopINS0_9XeDefaultILi2EEELb1ELb1ELb0EN4cute8TiledMMAINS5_8MMA_AtomIJNS5_10XE_DPAS_TTILi8EfNS_10bfloat16_tES9_fEEEEENS5_6LayoutINS5_5tupleIJNS5_1CILi16EEENSE_ILi1EEESG_EEENSD_IJSG_NSE_ILi0EEESI_EEEEEKNSD_IJNSC_INSD_IJNSE_ILi8EEESF_NSE_ILi2EEEEEENSD_IJSG_SF_SL_EEEEENSC_INSE_ILi32EEESG_EESR_EEEEESU_Li4ENS5_6TensorINS5_10ViewEngineINS5_8gmem_ptrIPS9_EEEENSC_INSD_IJiiiiEEENSD_IJiSG_iiEEEEEEES14_NSV_IS10_NSC_IS11_NSD_IJSG_iiiEEEEEEES14_S17_vvvvvEclINSD_IJjjEEEEEvRKNSV_IS10_NSC_INSD_IJiiEEENSD_IJiSG_EEEEEEES1G_RKNSV_IS10_NSC_IS1B_NSD_IJSG_iEEEEEEERNS5_14SubgroupTensorINS5_11ArrayEngineIfLm128EEENSC_INSD_IJSL_SM_SM_NSE_ILi4EEEEEENSD_IJSG_SL_SF_SQ_EEEEENSC_INSD_IJSF_NSD_IJSL_NSD_IJSM_SM_EEES1P_EEEEEENSD_IJNS5_11ScaledBasisISG_JLi1EEEENSD_IJNS1W_ISG_JLi0EEEENSD_IJNS1W_ISL_JLi0EEEENS1W_ISF_JLi1EEEEEEENS1W_ISQ_JLi1EEEEEEEEEEEEEERNSV_INS1N_IfLm1EEENSC_ISG_SI_EEEES2B_T_iiiiiiiiiS1G_S1L_ENKUlS2C_iRT0_RT1_RT2_RT3_RT4_RT5_E_clISt17integral_constantIbLb1EENS5_9TiledCopyINS5_9Copy_Atom
; BB63 :
  br label %.preheader146, !stats.blockFrequency.digits !1222, !stats.blockFrequency.scale !1204		; visa id: 1532

._crit_edge166.loopexit:                          ; preds = %_ZZN7cutlass4fmha10collective15FMHAFwdMainloopINS0_9XeDefaultILi2EEELb1ELb1ELb0EN4cute8TiledMMAINS5_8MMA_AtomIJNS5_10XE_DPAS_TTILi8EfNS_10bfloat16_tES9_fEEEEENS5_6LayoutINS5_5tupleIJNS5_1CILi16EEENSE_ILi1EEESG_EEENSD_IJSG_NSE_ILi0EEESI_EEEEEKNSD_IJNSC_INSD_IJNSE_ILi8EEESF_NSE_ILi2EEEEEENSD_IJSG_SF_SL_EEEEENSC_INSE_ILi32EEESG_EESR_EEEEESU_Li4ENS5_6TensorINS5_10ViewEngineINS5_8gmem_ptrIPS9_EEEENSC_INSD_IJiiiiEEENSD_IJiSG_iiEEEEEEES14_NSV_IS10_NSC_IS11_NSD_IJSG_iiiEEEEEEES14_S17_vvvvvEclINSD_IJjjEEEEEvRKNSV_IS10_NSC_INSD_IJiiEEENSD_IJiSG_EEEEEEES1G_RKNSV_IS10_NSC_IS1B_NSD_IJSG_iEEEEEEERNS5_14SubgroupTensorINS5_11ArrayEngineIfLm128EEENSC_INSD_IJSL_SM_SM_NSE_ILi4EEEEEENSD_IJSG_SL_SF_SQ_EEEEENSC_INSD_IJSF_NSD_IJSL_NSD_IJSM_SM_EEES1P_EEEEEENSD_IJNS5_11ScaledBasisISG_JLi1EEEENSD_IJNS1W_ISG_JLi0EEEENSD_IJNS1W_ISL_JLi0EEEENS1W_ISF_JLi1EEEEEEENS1W_ISQ_JLi1EEEEEEEEEEEEEERNSV_INS1N_IfLm1EEENSC_ISG_SI_EEEES2B_T_iiiiiiiiiS1G_S1L_ENKUlS2C_iRT0_RT1_RT2_RT3_RT4_RT5_E_clISt17integral_constantIbLb1EENS5_9TiledCopyINS5_9Copy_Atom
; BB:
  %.lcssa6858 = phi <8 x float> [ %971, %_ZZN7cutlass4fmha10collective15FMHAFwdMainloopINS0_9XeDefaultILi2EEELb1ELb1ELb0EN4cute8TiledMMAINS5_8MMA_AtomIJNS5_10XE_DPAS_TTILi8EfNS_10bfloat16_tES9_fEEEEENS5_6LayoutINS5_5tupleIJNS5_1CILi16EEENSE_ILi1EEESG_EEENSD_IJSG_NSE_ILi0EEESI_EEEEEKNSD_IJNSC_INSD_IJNSE_ILi8EEESF_NSE_ILi2EEEEEENSD_IJSG_SF_SL_EEEEENSC_INSE_ILi32EEESG_EESR_EEEEESU_Li4ENS5_6TensorINS5_10ViewEngineINS5_8gmem_ptrIPS9_EEEENSC_INSD_IJiiiiEEENSD_IJiSG_iiEEEEEEES14_NSV_IS10_NSC_IS11_NSD_IJSG_iiiEEEEEEES14_S17_vvvvvEclINSD_IJjjEEEEEvRKNSV_IS10_NSC_INSD_IJiiEEENSD_IJiSG_EEEEEEES1G_RKNSV_IS10_NSC_IS1B_NSD_IJSG_iEEEEEEERNS5_14SubgroupTensorINS5_11ArrayEngineIfLm128EEENSC_INSD_IJSL_SM_SM_NSE_ILi4EEEEEENSD_IJSG_SL_SF_SQ_EEEEENSC_INSD_IJSF_NSD_IJSL_NSD_IJSM_SM_EEES1P_EEEEEENSD_IJNS5_11ScaledBasisISG_JLi1EEEENSD_IJNS1W_ISG_JLi0EEEENSD_IJNS1W_ISL_JLi0EEEENS1W_ISF_JLi1EEEEEEENS1W_ISQ_JLi1EEEEEEEEEEEEEERNSV_INS1N_IfLm1EEENSC_ISG_SI_EEEES2B_T_iiiiiiiiiS1G_S1L_ENKUlS2C_iRT0_RT1_RT2_RT3_RT4_RT5_E_clISt17integral_constantIbLb1EENS5_9TiledCopyINS5_9Copy_Atom ]
  %.lcssa6857 = phi <8 x float> [ %972, %_ZZN7cutlass4fmha10collective15FMHAFwdMainloopINS0_9XeDefaultILi2EEELb1ELb1ELb0EN4cute8TiledMMAINS5_8MMA_AtomIJNS5_10XE_DPAS_TTILi8EfNS_10bfloat16_tES9_fEEEEENS5_6LayoutINS5_5tupleIJNS5_1CILi16EEENSE_ILi1EEESG_EEENSD_IJSG_NSE_ILi0EEESI_EEEEEKNSD_IJNSC_INSD_IJNSE_ILi8EEESF_NSE_ILi2EEEEEENSD_IJSG_SF_SL_EEEEENSC_INSE_ILi32EEESG_EESR_EEEEESU_Li4ENS5_6TensorINS5_10ViewEngineINS5_8gmem_ptrIPS9_EEEENSC_INSD_IJiiiiEEENSD_IJiSG_iiEEEEEEES14_NSV_IS10_NSC_IS11_NSD_IJSG_iiiEEEEEEES14_S17_vvvvvEclINSD_IJjjEEEEEvRKNSV_IS10_NSC_INSD_IJiiEEENSD_IJiSG_EEEEEEES1G_RKNSV_IS10_NSC_IS1B_NSD_IJSG_iEEEEEEERNS5_14SubgroupTensorINS5_11ArrayEngineIfLm128EEENSC_INSD_IJSL_SM_SM_NSE_ILi4EEEEEENSD_IJSG_SL_SF_SQ_EEEEENSC_INSD_IJSF_NSD_IJSL_NSD_IJSM_SM_EEES1P_EEEEEENSD_IJNS5_11ScaledBasisISG_JLi1EEEENSD_IJNS1W_ISG_JLi0EEEENSD_IJNS1W_ISL_JLi0EEEENS1W_ISF_JLi1EEEEEEENS1W_ISQ_JLi1EEEEEEEEEEEEEERNSV_INS1N_IfLm1EEENSC_ISG_SI_EEEES2B_T_iiiiiiiiiS1G_S1L_ENKUlS2C_iRT0_RT1_RT2_RT3_RT4_RT5_E_clISt17integral_constantIbLb1EENS5_9TiledCopyINS5_9Copy_Atom ]
  %.lcssa6856 = phi <8 x float> [ %973, %_ZZN7cutlass4fmha10collective15FMHAFwdMainloopINS0_9XeDefaultILi2EEELb1ELb1ELb0EN4cute8TiledMMAINS5_8MMA_AtomIJNS5_10XE_DPAS_TTILi8EfNS_10bfloat16_tES9_fEEEEENS5_6LayoutINS5_5tupleIJNS5_1CILi16EEENSE_ILi1EEESG_EEENSD_IJSG_NSE_ILi0EEESI_EEEEEKNSD_IJNSC_INSD_IJNSE_ILi8EEESF_NSE_ILi2EEEEEENSD_IJSG_SF_SL_EEEEENSC_INSE_ILi32EEESG_EESR_EEEEESU_Li4ENS5_6TensorINS5_10ViewEngineINS5_8gmem_ptrIPS9_EEEENSC_INSD_IJiiiiEEENSD_IJiSG_iiEEEEEEES14_NSV_IS10_NSC_IS11_NSD_IJSG_iiiEEEEEEES14_S17_vvvvvEclINSD_IJjjEEEEEvRKNSV_IS10_NSC_INSD_IJiiEEENSD_IJiSG_EEEEEEES1G_RKNSV_IS10_NSC_IS1B_NSD_IJSG_iEEEEEEERNS5_14SubgroupTensorINS5_11ArrayEngineIfLm128EEENSC_INSD_IJSL_SM_SM_NSE_ILi4EEEEEENSD_IJSG_SL_SF_SQ_EEEEENSC_INSD_IJSF_NSD_IJSL_NSD_IJSM_SM_EEES1P_EEEEEENSD_IJNS5_11ScaledBasisISG_JLi1EEEENSD_IJNS1W_ISG_JLi0EEEENSD_IJNS1W_ISL_JLi0EEEENS1W_ISF_JLi1EEEEEEENS1W_ISQ_JLi1EEEEEEEEEEEEEERNSV_INS1N_IfLm1EEENSC_ISG_SI_EEEES2B_T_iiiiiiiiiS1G_S1L_ENKUlS2C_iRT0_RT1_RT2_RT3_RT4_RT5_E_clISt17integral_constantIbLb1EENS5_9TiledCopyINS5_9Copy_Atom ]
  %.lcssa6855 = phi <8 x float> [ %974, %_ZZN7cutlass4fmha10collective15FMHAFwdMainloopINS0_9XeDefaultILi2EEELb1ELb1ELb0EN4cute8TiledMMAINS5_8MMA_AtomIJNS5_10XE_DPAS_TTILi8EfNS_10bfloat16_tES9_fEEEEENS5_6LayoutINS5_5tupleIJNS5_1CILi16EEENSE_ILi1EEESG_EEENSD_IJSG_NSE_ILi0EEESI_EEEEEKNSD_IJNSC_INSD_IJNSE_ILi8EEESF_NSE_ILi2EEEEEENSD_IJSG_SF_SL_EEEEENSC_INSE_ILi32EEESG_EESR_EEEEESU_Li4ENS5_6TensorINS5_10ViewEngineINS5_8gmem_ptrIPS9_EEEENSC_INSD_IJiiiiEEENSD_IJiSG_iiEEEEEEES14_NSV_IS10_NSC_IS11_NSD_IJSG_iiiEEEEEEES14_S17_vvvvvEclINSD_IJjjEEEEEvRKNSV_IS10_NSC_INSD_IJiiEEENSD_IJiSG_EEEEEEES1G_RKNSV_IS10_NSC_IS1B_NSD_IJSG_iEEEEEEERNS5_14SubgroupTensorINS5_11ArrayEngineIfLm128EEENSC_INSD_IJSL_SM_SM_NSE_ILi4EEEEEENSD_IJSG_SL_SF_SQ_EEEEENSC_INSD_IJSF_NSD_IJSL_NSD_IJSM_SM_EEES1P_EEEEEENSD_IJNS5_11ScaledBasisISG_JLi1EEEENSD_IJNS1W_ISG_JLi0EEEENSD_IJNS1W_ISL_JLi0EEEENS1W_ISF_JLi1EEEEEEENS1W_ISQ_JLi1EEEEEEEEEEEEEERNSV_INS1N_IfLm1EEENSC_ISG_SI_EEEES2B_T_iiiiiiiiiS1G_S1L_ENKUlS2C_iRT0_RT1_RT2_RT3_RT4_RT5_E_clISt17integral_constantIbLb1EENS5_9TiledCopyINS5_9Copy_Atom ]
  %.lcssa6854 = phi <8 x float> [ %1109, %_ZZN7cutlass4fmha10collective15FMHAFwdMainloopINS0_9XeDefaultILi2EEELb1ELb1ELb0EN4cute8TiledMMAINS5_8MMA_AtomIJNS5_10XE_DPAS_TTILi8EfNS_10bfloat16_tES9_fEEEEENS5_6LayoutINS5_5tupleIJNS5_1CILi16EEENSE_ILi1EEESG_EEENSD_IJSG_NSE_ILi0EEESI_EEEEEKNSD_IJNSC_INSD_IJNSE_ILi8EEESF_NSE_ILi2EEEEEENSD_IJSG_SF_SL_EEEEENSC_INSE_ILi32EEESG_EESR_EEEEESU_Li4ENS5_6TensorINS5_10ViewEngineINS5_8gmem_ptrIPS9_EEEENSC_INSD_IJiiiiEEENSD_IJiSG_iiEEEEEEES14_NSV_IS10_NSC_IS11_NSD_IJSG_iiiEEEEEEES14_S17_vvvvvEclINSD_IJjjEEEEEvRKNSV_IS10_NSC_INSD_IJiiEEENSD_IJiSG_EEEEEEES1G_RKNSV_IS10_NSC_IS1B_NSD_IJSG_iEEEEEEERNS5_14SubgroupTensorINS5_11ArrayEngineIfLm128EEENSC_INSD_IJSL_SM_SM_NSE_ILi4EEEEEENSD_IJSG_SL_SF_SQ_EEEEENSC_INSD_IJSF_NSD_IJSL_NSD_IJSM_SM_EEES1P_EEEEEENSD_IJNS5_11ScaledBasisISG_JLi1EEEENSD_IJNS1W_ISG_JLi0EEEENSD_IJNS1W_ISL_JLi0EEEENS1W_ISF_JLi1EEEEEEENS1W_ISQ_JLi1EEEEEEEEEEEEEERNSV_INS1N_IfLm1EEENSC_ISG_SI_EEEES2B_T_iiiiiiiiiS1G_S1L_ENKUlS2C_iRT0_RT1_RT2_RT3_RT4_RT5_E_clISt17integral_constantIbLb1EENS5_9TiledCopyINS5_9Copy_Atom ]
  %.lcssa6853 = phi <8 x float> [ %1110, %_ZZN7cutlass4fmha10collective15FMHAFwdMainloopINS0_9XeDefaultILi2EEELb1ELb1ELb0EN4cute8TiledMMAINS5_8MMA_AtomIJNS5_10XE_DPAS_TTILi8EfNS_10bfloat16_tES9_fEEEEENS5_6LayoutINS5_5tupleIJNS5_1CILi16EEENSE_ILi1EEESG_EEENSD_IJSG_NSE_ILi0EEESI_EEEEEKNSD_IJNSC_INSD_IJNSE_ILi8EEESF_NSE_ILi2EEEEEENSD_IJSG_SF_SL_EEEEENSC_INSE_ILi32EEESG_EESR_EEEEESU_Li4ENS5_6TensorINS5_10ViewEngineINS5_8gmem_ptrIPS9_EEEENSC_INSD_IJiiiiEEENSD_IJiSG_iiEEEEEEES14_NSV_IS10_NSC_IS11_NSD_IJSG_iiiEEEEEEES14_S17_vvvvvEclINSD_IJjjEEEEEvRKNSV_IS10_NSC_INSD_IJiiEEENSD_IJiSG_EEEEEEES1G_RKNSV_IS10_NSC_IS1B_NSD_IJSG_iEEEEEEERNS5_14SubgroupTensorINS5_11ArrayEngineIfLm128EEENSC_INSD_IJSL_SM_SM_NSE_ILi4EEEEEENSD_IJSG_SL_SF_SQ_EEEEENSC_INSD_IJSF_NSD_IJSL_NSD_IJSM_SM_EEES1P_EEEEEENSD_IJNS5_11ScaledBasisISG_JLi1EEEENSD_IJNS1W_ISG_JLi0EEEENSD_IJNS1W_ISL_JLi0EEEENS1W_ISF_JLi1EEEEEEENS1W_ISQ_JLi1EEEEEEEEEEEEEERNSV_INS1N_IfLm1EEENSC_ISG_SI_EEEES2B_T_iiiiiiiiiS1G_S1L_ENKUlS2C_iRT0_RT1_RT2_RT3_RT4_RT5_E_clISt17integral_constantIbLb1EENS5_9TiledCopyINS5_9Copy_Atom ]
  %.lcssa6852 = phi <8 x float> [ %1111, %_ZZN7cutlass4fmha10collective15FMHAFwdMainloopINS0_9XeDefaultILi2EEELb1ELb1ELb0EN4cute8TiledMMAINS5_8MMA_AtomIJNS5_10XE_DPAS_TTILi8EfNS_10bfloat16_tES9_fEEEEENS5_6LayoutINS5_5tupleIJNS5_1CILi16EEENSE_ILi1EEESG_EEENSD_IJSG_NSE_ILi0EEESI_EEEEEKNSD_IJNSC_INSD_IJNSE_ILi8EEESF_NSE_ILi2EEEEEENSD_IJSG_SF_SL_EEEEENSC_INSE_ILi32EEESG_EESR_EEEEESU_Li4ENS5_6TensorINS5_10ViewEngineINS5_8gmem_ptrIPS9_EEEENSC_INSD_IJiiiiEEENSD_IJiSG_iiEEEEEEES14_NSV_IS10_NSC_IS11_NSD_IJSG_iiiEEEEEEES14_S17_vvvvvEclINSD_IJjjEEEEEvRKNSV_IS10_NSC_INSD_IJiiEEENSD_IJiSG_EEEEEEES1G_RKNSV_IS10_NSC_IS1B_NSD_IJSG_iEEEEEEERNS5_14SubgroupTensorINS5_11ArrayEngineIfLm128EEENSC_INSD_IJSL_SM_SM_NSE_ILi4EEEEEENSD_IJSG_SL_SF_SQ_EEEEENSC_INSD_IJSF_NSD_IJSL_NSD_IJSM_SM_EEES1P_EEEEEENSD_IJNS5_11ScaledBasisISG_JLi1EEEENSD_IJNS1W_ISG_JLi0EEEENSD_IJNS1W_ISL_JLi0EEEENS1W_ISF_JLi1EEEEEEENS1W_ISQ_JLi1EEEEEEEEEEEEEERNSV_INS1N_IfLm1EEENSC_ISG_SI_EEEES2B_T_iiiiiiiiiS1G_S1L_ENKUlS2C_iRT0_RT1_RT2_RT3_RT4_RT5_E_clISt17integral_constantIbLb1EENS5_9TiledCopyINS5_9Copy_Atom ]
  %.lcssa6851 = phi <8 x float> [ %1112, %_ZZN7cutlass4fmha10collective15FMHAFwdMainloopINS0_9XeDefaultILi2EEELb1ELb1ELb0EN4cute8TiledMMAINS5_8MMA_AtomIJNS5_10XE_DPAS_TTILi8EfNS_10bfloat16_tES9_fEEEEENS5_6LayoutINS5_5tupleIJNS5_1CILi16EEENSE_ILi1EEESG_EEENSD_IJSG_NSE_ILi0EEESI_EEEEEKNSD_IJNSC_INSD_IJNSE_ILi8EEESF_NSE_ILi2EEEEEENSD_IJSG_SF_SL_EEEEENSC_INSE_ILi32EEESG_EESR_EEEEESU_Li4ENS5_6TensorINS5_10ViewEngineINS5_8gmem_ptrIPS9_EEEENSC_INSD_IJiiiiEEENSD_IJiSG_iiEEEEEEES14_NSV_IS10_NSC_IS11_NSD_IJSG_iiiEEEEEEES14_S17_vvvvvEclINSD_IJjjEEEEEvRKNSV_IS10_NSC_INSD_IJiiEEENSD_IJiSG_EEEEEEES1G_RKNSV_IS10_NSC_IS1B_NSD_IJSG_iEEEEEEERNS5_14SubgroupTensorINS5_11ArrayEngineIfLm128EEENSC_INSD_IJSL_SM_SM_NSE_ILi4EEEEEENSD_IJSG_SL_SF_SQ_EEEEENSC_INSD_IJSF_NSD_IJSL_NSD_IJSM_SM_EEES1P_EEEEEENSD_IJNS5_11ScaledBasisISG_JLi1EEEENSD_IJNS1W_ISG_JLi0EEEENSD_IJNS1W_ISL_JLi0EEEENS1W_ISF_JLi1EEEEEEENS1W_ISQ_JLi1EEEEEEEEEEEEEERNSV_INS1N_IfLm1EEENSC_ISG_SI_EEEES2B_T_iiiiiiiiiS1G_S1L_ENKUlS2C_iRT0_RT1_RT2_RT3_RT4_RT5_E_clISt17integral_constantIbLb1EENS5_9TiledCopyINS5_9Copy_Atom ]
