; ------------------------------------------------
; OCL_asm23954d4a795eca46_simd32_entry_0009.visa.ll
; LLVM major version: 16
; ------------------------------------------------
; Function Attrs: convergent nounwind
define spir_kernel void @_ZTSN7cutlass9reference6device22BlockForEachKernelNameINS_10bfloat16_tENS1_6detail17RandomUniformFuncIS3_EEEE(i16 addrspace(1)* align 2 %0, i64 %1, %"struct.cutlass::reference::device::detail::RandomUniformFunc<cutlass::bfloat16_t>::Params"* byval(%"struct.cutlass::reference::device::detail::RandomUniformFunc<cutlass::bfloat16_t>::Params") align 8 %2, <8 x i32> %r0, <3 x i32> %globalOffset, <3 x i32> %numWorkGroups, <3 x i32> %localSize, i16 %localIdX, i16 %localIdY, i16 %localIdZ, i8 addrspace(2)* %constBase, i8* %privateBase, i64 %const_reg_qword, float %const_reg_fp32, float %const_reg_fp321, i32 %const_reg_dword, float %const_reg_fp322, float %const_reg_fp323, i8 %const_reg_byte, i8 %const_reg_byte4, i8 %const_reg_byte5, i8 %const_reg_byte6, i32 %bufferOffset, i32 %bindlessOffset, i32 %bindlessOffset7) #0 {
._crit_edge:
; BB0 :
  %3 = bitcast i64 %1 to <2 x i32>		; visa id: 2
  %4 = extractelement <2 x i32> %3, i32 0		; visa id: 3
  %5 = extractelement <2 x i32> %3, i32 1		; visa id: 3
  %6 = call i16 @llvm.genx.GenISA.simdLaneId()		; visa id: 3
  %7 = call i32 @llvm.genx.GenISA.simdSize()
  %8 = call i32 @llvm.genx.GenISA.hw.thread.id.alloca.i32()		; visa id: 6
  %9 = mul i32 %7, 112
  %10 = mul i32 %8, %9, !perThreadOffset !878		; visa id: 14
  %11 = ptrtoint i8 addrspace(2)* %constBase to i64		; visa id: 15
  %12 = add i64 %11, 40		; visa id: 15
  %13 = extractelement <3 x i32> %localSize, i32 0		; visa id: 16
  %14 = extractelement <8 x i32> %r0, i32 1		; visa id: 16
  %15 = mul i32 %7, 24
  %16 = zext i16 %6 to i32		; visa id: 16
  %17 = mul nuw nsw i32 %16, 88		; visa id: 17
  %18 = add i32 %15, %17
  %19 = add nuw nsw i32 %10, %18		; visa id: 18
  %20 = ptrtoint i8* %privateBase to i64		; visa id: 19
  %21 = zext i32 %19 to i64		; visa id: 19
  %22 = add i64 %20, %21		; visa id: 20
  %23 = inttoptr i64 %22 to i8*		; visa id: 21
  call void @llvm.lifetime.start.p0i8(i64 88, i8* nonnull %23)		; visa id: 21
  %24 = bitcast i64 %const_reg_qword to <2 x i32>		; visa id: 21
  %25 = extractelement <2 x i32> %24, i32 0		; visa id: 22
  %26 = extractelement <2 x i32> %24, i32 1		; visa id: 22
  %27 = insertvalue %__StructSOALayout_ undef, i32 %25, 0		; visa id: 22
  %28 = insertvalue %__StructSOALayout_ %27, i32 %26, 1		; visa id: 23
  %29 = insertvalue %__StructSOALayout_ %28, float %const_reg_fp32, 2		; visa id: 24
  %30 = insertvalue %__StructSOALayout_ %29, float %const_reg_fp321, 3		; visa id: 25
  %31 = call <4 x i32> @llvm.genx.GenISA.bitcastfromstruct.v4i32.__StructSOALayout_(%__StructSOALayout_ %30)		; visa id: 26
  %32 = inttoptr i64 %22 to <4 x i32>*		; visa id: 26
  store <4 x i32> %31, <4 x i32>* %32, align 8, !user_as_priv !879		; visa id: 26
  %33 = add i64 %22, 16
  %34 = insertvalue %__StructSOALayout_.7 undef, i32 %const_reg_dword, 0		; visa id: 31
  %35 = insertvalue %__StructSOALayout_.7 %34, float %const_reg_fp322, 1		; visa id: 32
  %36 = insertvalue %__StructSOALayout_.7 %35, float %const_reg_fp323, 2		; visa id: 33
  %37 = call <3 x i32> @llvm.genx.GenISA.bitcastfromstruct.v3i32.__StructSOALayout_.7(%__StructSOALayout_.7 %36)		; visa id: 34
  %38 = inttoptr i64 %33 to <3 x i32>*
  store <3 x i32> %37, <3 x i32>* %38, align 8, !user_as_priv !879		; visa id: 34
  %39 = add i64 %22, 32
  %40 = insertelement <2 x float> undef, float %const_reg_fp321, i64 0		; visa id: 38
  %41 = insertelement <2 x float> %40, float %const_reg_fp32, i64 1		; visa id: 39
  %42 = inttoptr i64 %39 to <2 x float>*
  store <2 x float> %41, <2 x float>* %42, align 8, !user_as_priv !879		; visa id: 40
  %43 = mul i32 %14, %13		; visa id: 43
  %44 = zext i16 %localIdX to i32		; visa id: 44
  %45 = add i32 %43, %44		; visa id: 45
  %46 = add i64 %22, 40
  %47 = bitcast i64 %const_reg_qword to <2 x i32>		; visa id: 46
  %48 = inttoptr i64 %46 to <2 x i32>*
  store <2 x i32> %47, <2 x i32>* %48, align 8		; visa id: 47
  %49 = add i64 %22, 48
  %50 = bitcast i8 addrspace(2)* %constBase to <8 x i32> addrspace(2)*		; visa id: 50
  %memcpy_vsrc = addrspacecast <8 x i32> addrspace(2)* %50 to <8 x i32>*		; visa id: 50
  %memcpy_vdst = inttoptr i64 %49 to <8 x i32>*
  %51 = load <8 x i32>, <8 x i32>* %memcpy_vsrc, align 8		; visa id: 51
  store <8 x i32> %51, <8 x i32>* %memcpy_vdst, align 8		; visa id: 52
  %52 = add i64 %11, 32		; visa id: 63
  %53 = add i64 %22, 80
  %54 = inttoptr i64 %52 to i32 addrspace(2)*		; visa id: 64
  %memcpy_rem = addrspacecast i32 addrspace(2)* %54 to i32*		; visa id: 64
  %memcpy_rem66 = inttoptr i64 %53 to i32*
  %55 = load i32, i32* %memcpy_rem, align 4		; visa id: 65
  store i32 %55, i32* %memcpy_rem66, align 4		; visa id: 66
  %56 = mul nuw nsw i32 %16, 24
  %57 = add nuw nsw i32 %10, %56		; visa id: 68
  %58 = zext i32 %57 to i64		; visa id: 69
  %59 = add i64 %20, %58		; visa id: 70
  %60 = inttoptr i64 %59 to i8*		; visa id: 71
  call void @llvm.lifetime.start.p0i8(i64 24, i8* nonnull %60)		; visa id: 71
  %memcpy_rem69 = inttoptr i64 %59 to <4 x i32>*		; visa id: 71
  %61 = inttoptr i64 %12 to <6 x i32> addrspace(2)*		; visa id: 71
  %62 = addrspacecast <6 x i32> addrspace(2)* %61 to <6 x i32>*		; visa id: 71
  %63 = inttoptr i64 %12 to <4 x i32> addrspace(2)*		; visa id: 72
  %64 = addrspacecast <4 x i32> addrspace(2)* %63 to <4 x i32>*		; visa id: 72
  %65 = load <4 x i32>, <4 x i32>* %64, align 8		; visa id: 73
  %66 = ptrtoint <6 x i32>* %62 to i64		; visa id: 74
  %67 = add i64 %66, 16
  %68 = inttoptr i64 %67 to <2 x i32>*
  %69 = load <2 x i32>, <2 x i32>* %68, align 8		; visa id: 74
  store <4 x i32> %65, <4 x i32>* %memcpy_rem69, align 8		; visa id: 76
  %70 = add i64 %59, 16
  %memcpy_rem71 = inttoptr i64 %70 to <2 x i32>*
  store <2 x i32> %69, <2 x i32>* %memcpy_rem71, align 8		; visa id: 81
  %71 = add i64 %59, 8
  %72 = zext i32 %45 to i64		; visa id: 84
  %73 = bitcast i64 %72 to <2 x i32>		; visa id: 85
  %74 = inttoptr i64 %71 to <2 x i32>*
  store <2 x i32> %73, <2 x i32>* %74, align 8, !user_as_priv !879		; visa id: 89
  %75 = icmp eq i32 %45, 0		; visa id: 90
  br i1 %75, label %._crit_edge._ZN7cutlass9reference6device6detail17RandomUniformFuncINS_10bfloat16_tEEC2ERKNS5_6ParamsE.exit_crit_edge, label %LeafBlock35._crit_edge, !stats.blockFrequency.digits !880, !stats.blockFrequency.scale !881		; visa id: 91

._crit_edge._ZN7cutlass9reference6device6detail17RandomUniformFuncINS_10bfloat16_tEEC2ERKNS5_6ParamsE.exit_crit_edge: ; preds = %._crit_edge
; BB:
  br label %_ZN7cutlass9reference6device6detail17RandomUniformFuncINS_10bfloat16_tEEC2ERKNS5_6ParamsE.exit, !stats.blockFrequency.digits !882, !stats.blockFrequency.scale !883

LeafBlock35._crit_edge:                           ; preds = %._crit_edge
; BB2 :
  %76 = bitcast i64 %const_reg_qword to <2 x i32>		; visa id: 93
  %77 = extractelement <2 x i32> %76, i32 0		; visa id: 94
  %78 = extractelement <2 x i32> %76, i32 1		; visa id: 94
  %79 = trunc i64 %const_reg_qword to i32		; visa id: 94
  %80 = extractelement <2 x i32> %24, i32 1		; visa id: 95
  %b2s = select i1 %75, i16 0, i16 2		; visa id: 95
  %81 = inttoptr i64 %59 to <2 x i32>*		; visa id: 96
  store <2 x i32> zeroinitializer, <2 x i32>* %81, align 8, !user_as_priv !879		; visa id: 96
  %82 = trunc i16 %b2s to i8		; visa id: 100
  %.demoted.zext = zext i8 %82 to i32		; visa id: 101
  %83 = add nsw i32 %.demoted.zext, -1, !spirv.Decorations !884		; visa id: 102
  %84 = zext i32 %83 to i64		; visa id: 103
  %85 = shl nuw nsw i64 %84, 3		; visa id: 104
  %86 = add i64 %59, %85		; visa id: 105
  %87 = add i64 %86, -8
  %88 = inttoptr i64 %87 to <2 x i64>*
  %89 = load <2 x i64>, <2 x i64>* %88, align 8		; visa id: 106
  %90 = extractelement <2 x i64> %89, i32 0		; visa id: 107
  %91 = extractelement <2 x i64> %89, i32 1		; visa id: 107
  %92 = lshr i64 %91, 2		; visa id: 107
  %93 = add nsw i32 %.demoted.zext, -2, !spirv.Decorations !884		; visa id: 108
  %94 = zext i32 %93 to i64		; visa id: 109
  %95 = shl nuw nsw i64 %94, 3		; visa id: 110
  %96 = add i64 %59, %95		; visa id: 111
  %97 = shl i64 %91, 62		; visa id: 112
  %98 = bitcast i64 %97 to <2 x i32>		; visa id: 113
  %99 = extractelement <2 x i32> %98, i32 0		; visa id: 117
  %100 = extractelement <2 x i32> %98, i32 1		; visa id: 117
  %101 = lshr i64 %90, 2		; visa id: 117
  %102 = bitcast i64 %101 to <2 x i32>		; visa id: 118
  %103 = extractelement <2 x i32> %102, i32 0		; visa id: 122
  %104 = extractelement <2 x i32> %102, i32 1		; visa id: 122
  %105 = or i32 %99, %103		; visa id: 122
  %106 = or i32 %100, %104		; visa id: 123
  %107 = insertelement <2 x i32> undef, i32 %105, i32 0		; visa id: 124
  %108 = insertelement <2 x i32> %107, i32 %106, i32 1		; visa id: 125
  %109 = bitcast <2 x i32> %108 to i64		; visa id: 126
  %110 = insertelement <2 x i64> undef, i64 %109, i64 0		; visa id: 130
  %111 = insertelement <2 x i64> %110, i64 %92, i64 1		; visa id: 130
  %112 = inttoptr i64 %96 to <2 x i64>*		; visa id: 130
  store <2 x i64> %111, <2 x i64>* %112, align 8, !user_as_priv !879		; visa id: 130
  %113 = inttoptr i64 %59 to <2 x i64>*		; visa id: 131
  %114 = load <2 x i64>, <2 x i64>* %113, align 8		; visa id: 131
  %115 = extractelement <2 x i64> %114, i32 0		; visa id: 132
  %116 = bitcast i64 %115 to <2 x i32>		; visa id: 132
  %117 = extractelement <2 x i32> %116, i32 0		; visa id: 136
  %118 = extractelement <2 x i32> %116, i32 1		; visa id: 136
  %119 = extractelement <2 x i64> %114, i32 1		; visa id: 136
  %120 = bitcast i64 %119 to <2 x i32>		; visa id: 136
  %121 = extractelement <2 x i32> %120, i32 0		; visa id: 140
  %122 = extractelement <2 x i32> %120, i32 1		; visa id: 140
  %123 = call { i32, i32 } @llvm.genx.GenISA.mul.pair(i32 %117, i32 0, i32 -766435501, i32 0)
  %124 = extractvalue { i32, i32 } %123, 0		; visa id: 140
  %125 = extractvalue { i32, i32 } %123, 1		; visa id: 140
  %126 = call { i32, i32 } @llvm.genx.GenISA.mul.pair(i32 %121, i32 0, i32 -845247145, i32 0)
  %127 = extractvalue { i32, i32 } %126, 0		; visa id: 147
  %128 = extractvalue { i32, i32 } %126, 1		; visa id: 147
  %129 = xor i32 %117, %127		; visa id: 154
  %130 = xor i32 %118, %128		; visa id: 155
  %131 = insertelement <2 x i32> undef, i32 %129, i32 0		; visa id: 156
  %132 = insertelement <2 x i32> %131, i32 %130, i32 1		; visa id: 157
  %133 = bitcast <2 x i32> %132 to i64		; visa id: 158
  %134 = lshr i64 %133, 32		; visa id: 162
  %135 = bitcast i64 %134 to <2 x i32>		; visa id: 163
  %136 = extractelement <2 x i32> %135, i32 0		; visa id: 167
  %137 = extractelement <2 x i32> %135, i32 1		; visa id: 167
  %138 = xor i32 %121, %124
  %139 = xor i32 %122, %125
  %140 = xor i32 %138, %77		; visa id: 167
  %141 = xor i32 %139, %78		; visa id: 168
  %142 = insertelement <2 x i32> undef, i32 %140, i32 0		; visa id: 169
  %143 = insertelement <2 x i32> %142, i32 %141, i32 1		; visa id: 170
  %144 = bitcast <2 x i32> %143 to i64		; visa id: 171
  %145 = lshr i64 %144, 32		; visa id: 175
  %146 = bitcast i64 %145 to <2 x i32>		; visa id: 176
  %147 = extractelement <2 x i32> %146, i32 0		; visa id: 180
  %148 = extractelement <2 x i32> %146, i32 1		; visa id: 180
  %149 = add i32 %79, -1640531527		; visa id: 180
  %150 = add i32 %80, -1150833019		; visa id: 181
  %151 = xor i32 %136, %77		; visa id: 182
  %152 = call { i32, i32 } @llvm.genx.GenISA.mul.pair(i32 %151, i32 %137, i32 -766435501, i32 0)
  %153 = extractvalue { i32, i32 } %152, 0		; visa id: 183
  %154 = extractvalue { i32, i32 } %152, 1		; visa id: 183
  %155 = insertelement <2 x i32> undef, i32 %153, i32 0		; visa id: 190
  %156 = insertelement <2 x i32> %155, i32 %154, i32 1		; visa id: 191
  %157 = bitcast <2 x i32> %156 to i64		; visa id: 192
  %158 = lshr i64 %157, 32		; visa id: 196
  %159 = bitcast i64 %158 to <2 x i32>		; visa id: 197
  %160 = extractelement <2 x i32> %159, i32 0		; visa id: 201
  %161 = extractelement <2 x i32> %159, i32 1		; visa id: 201
  %162 = call { i32, i32 } @llvm.genx.GenISA.mul.pair(i32 %147, i32 %148, i32 -845247145, i32 0)
  %163 = extractvalue { i32, i32 } %162, 0		; visa id: 201
  %164 = extractvalue { i32, i32 } %162, 1		; visa id: 201
  %165 = insertelement <2 x i32> undef, i32 %163, i32 0		; visa id: 208
  %166 = insertelement <2 x i32> %165, i32 %164, i32 1		; visa id: 209
  %167 = bitcast <2 x i32> %166 to i64		; visa id: 210
  %168 = lshr i64 %167, 32		; visa id: 214
  %169 = bitcast i64 %168 to <2 x i32>		; visa id: 215
  %170 = extractelement <2 x i32> %169, i32 0		; visa id: 219
  %171 = extractelement <2 x i32> %169, i32 1		; visa id: 219
  %172 = xor i32 %127, %170		; visa id: 219
  %173 = xor i32 %128, %171		; visa id: 220
  %174 = insertelement <2 x i32> undef, i32 %172, i32 0		; visa id: 221
  %175 = insertelement <2 x i32> %174, i32 %173, i32 1		; visa id: 222
  %176 = bitcast <2 x i32> %175 to i64		; visa id: 223
  %177 = trunc i64 %176 to i32		; visa id: 227
  %178 = xor i32 %149, %177		; visa id: 228
  %179 = xor i32 %124, %160		; visa id: 229
  %180 = xor i32 %125, %161		; visa id: 230
  %181 = insertelement <2 x i32> undef, i32 %179, i32 0		; visa id: 231
  %182 = insertelement <2 x i32> %181, i32 %180, i32 1		; visa id: 232
  %183 = bitcast <2 x i32> %182 to i64		; visa id: 233
  %184 = trunc i64 %183 to i32		; visa id: 237
  %185 = xor i32 %150, %184		; visa id: 238
  %186 = add i32 %79, 1013904242		; visa id: 239
  %187 = add i32 %80, 1993301258		; visa id: 240
  %188 = call { i32, i32 } @llvm.genx.GenISA.mul.pair(i32 %178, i32 0, i32 -766435501, i32 0)
  %189 = extractvalue { i32, i32 } %188, 0		; visa id: 241
  %190 = extractvalue { i32, i32 } %188, 1		; visa id: 241
  %191 = insertelement <2 x i32> undef, i32 %189, i32 0		; visa id: 248
  %192 = insertelement <2 x i32> %191, i32 %190, i32 1		; visa id: 249
  %193 = bitcast <2 x i32> %192 to i64		; visa id: 250
  %194 = lshr i64 %193, 32		; visa id: 254
  %195 = bitcast i64 %194 to <2 x i32>		; visa id: 255
  %196 = extractelement <2 x i32> %195, i32 0		; visa id: 259
  %197 = extractelement <2 x i32> %195, i32 1		; visa id: 259
  %198 = call { i32, i32 } @llvm.genx.GenISA.mul.pair(i32 %185, i32 0, i32 -845247145, i32 0)
  %199 = extractvalue { i32, i32 } %198, 0		; visa id: 259
  %200 = extractvalue { i32, i32 } %198, 1		; visa id: 259
  %201 = insertelement <2 x i32> undef, i32 %199, i32 0		; visa id: 266
  %202 = insertelement <2 x i32> %201, i32 %200, i32 1		; visa id: 267
  %203 = bitcast <2 x i32> %202 to i64		; visa id: 268
  %204 = lshr i64 %203, 32		; visa id: 272
  %205 = bitcast i64 %204 to <2 x i32>		; visa id: 273
  %206 = extractelement <2 x i32> %205, i32 0		; visa id: 277
  %207 = extractelement <2 x i32> %205, i32 1		; visa id: 277
  %208 = xor i32 %163, %206		; visa id: 277
  %209 = xor i32 %164, %207		; visa id: 278
  %210 = insertelement <2 x i32> undef, i32 %208, i32 0		; visa id: 279
  %211 = insertelement <2 x i32> %210, i32 %209, i32 1		; visa id: 280
  %212 = bitcast <2 x i32> %211 to i64		; visa id: 281
  %213 = trunc i64 %212 to i32		; visa id: 285
  %214 = xor i32 %186, %213		; visa id: 286
  %215 = xor i32 %153, %196		; visa id: 287
  %216 = xor i32 %154, %197		; visa id: 288
  %217 = insertelement <2 x i32> undef, i32 %215, i32 0		; visa id: 289
  %218 = insertelement <2 x i32> %217, i32 %216, i32 1		; visa id: 290
  %219 = bitcast <2 x i32> %218 to i64		; visa id: 291
  %220 = trunc i64 %219 to i32		; visa id: 295
  %221 = xor i32 %187, %220		; visa id: 296
  %222 = add i32 %79, -626627285		; visa id: 297
  %223 = add i32 %80, 842468239		; visa id: 298
  %224 = call { i32, i32 } @llvm.genx.GenISA.mul.pair(i32 %214, i32 0, i32 -766435501, i32 0)
  %225 = extractvalue { i32, i32 } %224, 0		; visa id: 299
  %226 = extractvalue { i32, i32 } %224, 1		; visa id: 299
  %227 = insertelement <2 x i32> undef, i32 %225, i32 0		; visa id: 306
  %228 = insertelement <2 x i32> %227, i32 %226, i32 1		; visa id: 307
  %229 = bitcast <2 x i32> %228 to i64		; visa id: 308
  %230 = lshr i64 %229, 32		; visa id: 312
  %231 = bitcast i64 %230 to <2 x i32>		; visa id: 313
  %232 = extractelement <2 x i32> %231, i32 0		; visa id: 317
  %233 = extractelement <2 x i32> %231, i32 1		; visa id: 317
  %234 = call { i32, i32 } @llvm.genx.GenISA.mul.pair(i32 %221, i32 0, i32 -845247145, i32 0)
  %235 = extractvalue { i32, i32 } %234, 0		; visa id: 317
  %236 = extractvalue { i32, i32 } %234, 1		; visa id: 317
  %237 = insertelement <2 x i32> undef, i32 %235, i32 0		; visa id: 324
  %238 = insertelement <2 x i32> %237, i32 %236, i32 1		; visa id: 325
  %239 = bitcast <2 x i32> %238 to i64		; visa id: 326
  %240 = lshr i64 %239, 32		; visa id: 330
  %241 = bitcast i64 %240 to <2 x i32>		; visa id: 331
  %242 = extractelement <2 x i32> %241, i32 0		; visa id: 335
  %243 = extractelement <2 x i32> %241, i32 1		; visa id: 335
  %244 = xor i32 %199, %242		; visa id: 335
  %245 = xor i32 %200, %243		; visa id: 336
  %246 = insertelement <2 x i32> undef, i32 %244, i32 0		; visa id: 337
  %247 = insertelement <2 x i32> %246, i32 %245, i32 1		; visa id: 338
  %248 = bitcast <2 x i32> %247 to i64		; visa id: 339
  %249 = trunc i64 %248 to i32		; visa id: 343
  %250 = xor i32 %222, %249		; visa id: 344
  %251 = xor i32 %189, %232		; visa id: 345
  %252 = xor i32 %190, %233		; visa id: 346
  %253 = insertelement <2 x i32> undef, i32 %251, i32 0		; visa id: 347
  %254 = insertelement <2 x i32> %253, i32 %252, i32 1		; visa id: 348
  %255 = bitcast <2 x i32> %254 to i64		; visa id: 349
  %256 = trunc i64 %255 to i32		; visa id: 353
  %257 = xor i32 %223, %256		; visa id: 354
  %258 = add i32 %79, 2027808484		; visa id: 355
  %259 = add i32 %80, -308364780		; visa id: 356
  %260 = call { i32, i32 } @llvm.genx.GenISA.mul.pair(i32 %250, i32 0, i32 -766435501, i32 0)
  %261 = extractvalue { i32, i32 } %260, 0		; visa id: 357
  %262 = extractvalue { i32, i32 } %260, 1		; visa id: 357
  %263 = insertelement <2 x i32> undef, i32 %261, i32 0		; visa id: 364
  %264 = insertelement <2 x i32> %263, i32 %262, i32 1		; visa id: 365
  %265 = bitcast <2 x i32> %264 to i64		; visa id: 366
  %266 = lshr i64 %265, 32		; visa id: 370
  %267 = bitcast i64 %266 to <2 x i32>		; visa id: 371
  %268 = extractelement <2 x i32> %267, i32 0		; visa id: 375
  %269 = extractelement <2 x i32> %267, i32 1		; visa id: 375
  %270 = call { i32, i32 } @llvm.genx.GenISA.mul.pair(i32 %257, i32 0, i32 -845247145, i32 0)
  %271 = extractvalue { i32, i32 } %270, 0		; visa id: 375
  %272 = extractvalue { i32, i32 } %270, 1		; visa id: 375
  %273 = insertelement <2 x i32> undef, i32 %271, i32 0		; visa id: 382
  %274 = insertelement <2 x i32> %273, i32 %272, i32 1		; visa id: 383
  %275 = bitcast <2 x i32> %274 to i64		; visa id: 384
  %276 = lshr i64 %275, 32		; visa id: 388
  %277 = bitcast i64 %276 to <2 x i32>		; visa id: 389
  %278 = extractelement <2 x i32> %277, i32 0		; visa id: 393
  %279 = extractelement <2 x i32> %277, i32 1		; visa id: 393
  %280 = xor i32 %235, %278		; visa id: 393
  %281 = xor i32 %236, %279		; visa id: 394
  %282 = insertelement <2 x i32> undef, i32 %280, i32 0		; visa id: 395
  %283 = insertelement <2 x i32> %282, i32 %281, i32 1		; visa id: 396
  %284 = bitcast <2 x i32> %283 to i64		; visa id: 397
  %285 = trunc i64 %284 to i32		; visa id: 401
  %286 = xor i32 %258, %285		; visa id: 402
  %287 = xor i32 %225, %268		; visa id: 403
  %288 = xor i32 %226, %269		; visa id: 404
  %289 = insertelement <2 x i32> undef, i32 %287, i32 0		; visa id: 405
  %290 = insertelement <2 x i32> %289, i32 %288, i32 1		; visa id: 406
  %291 = bitcast <2 x i32> %290 to i64		; visa id: 407
  %292 = trunc i64 %291 to i32		; visa id: 411
  %293 = xor i32 %259, %292		; visa id: 412
  %294 = add i32 %79, 387276957		; visa id: 413
  %295 = add i32 %80, -1459197799		; visa id: 414
  %296 = call { i32, i32 } @llvm.genx.GenISA.mul.pair(i32 %286, i32 0, i32 -766435501, i32 0)
  %297 = extractvalue { i32, i32 } %296, 0		; visa id: 415
  %298 = extractvalue { i32, i32 } %296, 1		; visa id: 415
  %299 = insertelement <2 x i32> undef, i32 %297, i32 0		; visa id: 422
  %300 = insertelement <2 x i32> %299, i32 %298, i32 1		; visa id: 423
  %301 = bitcast <2 x i32> %300 to i64		; visa id: 424
  %302 = lshr i64 %301, 32		; visa id: 428
  %303 = bitcast i64 %302 to <2 x i32>		; visa id: 429
  %304 = extractelement <2 x i32> %303, i32 0		; visa id: 433
  %305 = extractelement <2 x i32> %303, i32 1		; visa id: 433
  %306 = call { i32, i32 } @llvm.genx.GenISA.mul.pair(i32 %293, i32 0, i32 -845247145, i32 0)
  %307 = extractvalue { i32, i32 } %306, 0		; visa id: 433
  %308 = extractvalue { i32, i32 } %306, 1		; visa id: 433
  %309 = insertelement <2 x i32> undef, i32 %307, i32 0		; visa id: 440
  %310 = insertelement <2 x i32> %309, i32 %308, i32 1		; visa id: 441
  %311 = bitcast <2 x i32> %310 to i64		; visa id: 442
  %312 = lshr i64 %311, 32		; visa id: 446
  %313 = bitcast i64 %312 to <2 x i32>		; visa id: 447
  %314 = extractelement <2 x i32> %313, i32 0		; visa id: 451
  %315 = extractelement <2 x i32> %313, i32 1		; visa id: 451
  %316 = xor i32 %271, %314		; visa id: 451
  %317 = xor i32 %272, %315		; visa id: 452
  %318 = insertelement <2 x i32> undef, i32 %316, i32 0		; visa id: 453
  %319 = insertelement <2 x i32> %318, i32 %317, i32 1		; visa id: 454
  %320 = bitcast <2 x i32> %319 to i64		; visa id: 455
  %321 = trunc i64 %320 to i32		; visa id: 459
  %322 = xor i32 %294, %321		; visa id: 460
  %323 = xor i32 %261, %304		; visa id: 461
  %324 = xor i32 %262, %305		; visa id: 462
  %325 = insertelement <2 x i32> undef, i32 %323, i32 0		; visa id: 463
  %326 = insertelement <2 x i32> %325, i32 %324, i32 1		; visa id: 464
  %327 = bitcast <2 x i32> %326 to i64		; visa id: 465
  %328 = trunc i64 %327 to i32		; visa id: 469
  %329 = xor i32 %295, %328		; visa id: 470
  %330 = add i32 %79, -1253254570		; visa id: 471
  %331 = add i32 %80, 1684936478		; visa id: 472
  %332 = call { i32, i32 } @llvm.genx.GenISA.mul.pair(i32 %322, i32 0, i32 -766435501, i32 0)
  %333 = extractvalue { i32, i32 } %332, 0		; visa id: 473
  %334 = extractvalue { i32, i32 } %332, 1		; visa id: 473
  %335 = insertelement <2 x i32> undef, i32 %333, i32 0		; visa id: 480
  %336 = insertelement <2 x i32> %335, i32 %334, i32 1		; visa id: 481
  %337 = bitcast <2 x i32> %336 to i64		; visa id: 482
  %338 = lshr i64 %337, 32		; visa id: 486
  %339 = bitcast i64 %338 to <2 x i32>		; visa id: 487
  %340 = extractelement <2 x i32> %339, i32 0		; visa id: 491
  %341 = extractelement <2 x i32> %339, i32 1		; visa id: 491
  %342 = call { i32, i32 } @llvm.genx.GenISA.mul.pair(i32 %329, i32 0, i32 -845247145, i32 0)
  %343 = extractvalue { i32, i32 } %342, 0		; visa id: 491
  %344 = extractvalue { i32, i32 } %342, 1		; visa id: 491
  %345 = insertelement <2 x i32> undef, i32 %343, i32 0		; visa id: 498
  %346 = insertelement <2 x i32> %345, i32 %344, i32 1		; visa id: 499
  %347 = bitcast <2 x i32> %346 to i64		; visa id: 500
  %348 = lshr i64 %347, 32		; visa id: 504
  %349 = bitcast i64 %348 to <2 x i32>		; visa id: 505
  %350 = extractelement <2 x i32> %349, i32 0		; visa id: 509
  %351 = extractelement <2 x i32> %349, i32 1		; visa id: 509
  %352 = xor i32 %307, %350		; visa id: 509
  %353 = xor i32 %308, %351		; visa id: 510
  %354 = insertelement <2 x i32> undef, i32 %352, i32 0		; visa id: 511
  %355 = insertelement <2 x i32> %354, i32 %353, i32 1		; visa id: 512
  %356 = bitcast <2 x i32> %355 to i64		; visa id: 513
  %357 = trunc i64 %356 to i32		; visa id: 517
  %358 = xor i32 %330, %357		; visa id: 518
  %359 = xor i32 %297, %340		; visa id: 519
  %360 = xor i32 %298, %341		; visa id: 520
  %361 = insertelement <2 x i32> undef, i32 %359, i32 0		; visa id: 521
  %362 = insertelement <2 x i32> %361, i32 %360, i32 1		; visa id: 522
  %363 = bitcast <2 x i32> %362 to i64		; visa id: 523
  %364 = trunc i64 %363 to i32		; visa id: 527
  %365 = xor i32 %331, %364		; visa id: 528
  %366 = add i32 %79, 1401181199		; visa id: 529
  %367 = add i32 %80, 534103459		; visa id: 530
  %368 = call { i32, i32 } @llvm.genx.GenISA.mul.pair(i32 %358, i32 0, i32 -766435501, i32 0)
  %369 = extractvalue { i32, i32 } %368, 0		; visa id: 531
  %370 = extractvalue { i32, i32 } %368, 1		; visa id: 531
  %371 = insertelement <2 x i32> undef, i32 %369, i32 0		; visa id: 538
  %372 = insertelement <2 x i32> %371, i32 %370, i32 1		; visa id: 539
  %373 = bitcast <2 x i32> %372 to i64		; visa id: 540
  %374 = lshr i64 %373, 32		; visa id: 544
  %375 = bitcast i64 %374 to <2 x i32>		; visa id: 545
  %376 = extractelement <2 x i32> %375, i32 0		; visa id: 549
  %377 = extractelement <2 x i32> %375, i32 1		; visa id: 549
  %378 = call { i32, i32 } @llvm.genx.GenISA.mul.pair(i32 %365, i32 0, i32 -845247145, i32 0)
  %379 = extractvalue { i32, i32 } %378, 0		; visa id: 549
  %380 = extractvalue { i32, i32 } %378, 1		; visa id: 549
  %381 = insertelement <2 x i32> undef, i32 %379, i32 0		; visa id: 556
  %382 = insertelement <2 x i32> %381, i32 %380, i32 1		; visa id: 557
  %383 = bitcast <2 x i32> %382 to i64		; visa id: 558
  %384 = lshr i64 %383, 32		; visa id: 562
  %385 = bitcast i64 %384 to <2 x i32>		; visa id: 563
  %386 = extractelement <2 x i32> %385, i32 0		; visa id: 567
  %387 = extractelement <2 x i32> %385, i32 1		; visa id: 567
  %388 = xor i32 %343, %386		; visa id: 567
  %389 = xor i32 %344, %387		; visa id: 568
  %390 = insertelement <2 x i32> undef, i32 %388, i32 0		; visa id: 569
  %391 = insertelement <2 x i32> %390, i32 %389, i32 1		; visa id: 570
  %392 = bitcast <2 x i32> %391 to i64		; visa id: 571
  %393 = trunc i64 %392 to i32		; visa id: 575
  %394 = xor i32 %366, %393		; visa id: 576
  %395 = xor i32 %333, %376		; visa id: 577
  %396 = xor i32 %334, %377		; visa id: 578
  %397 = insertelement <2 x i32> undef, i32 %395, i32 0		; visa id: 579
  %398 = insertelement <2 x i32> %397, i32 %396, i32 1		; visa id: 580
  %399 = bitcast <2 x i32> %398 to i64		; visa id: 581
  %400 = trunc i64 %399 to i32		; visa id: 585
  %401 = xor i32 %367, %400		; visa id: 586
  %402 = add i32 %79, -239350328		; visa id: 587
  %403 = add i32 %80, -616729560		; visa id: 588
  %404 = call { i32, i32 } @llvm.genx.GenISA.mul.pair(i32 %394, i32 0, i32 -766435501, i32 0)
  %405 = extractvalue { i32, i32 } %404, 0		; visa id: 589
  %406 = extractvalue { i32, i32 } %404, 1		; visa id: 589
  %407 = insertelement <2 x i32> undef, i32 %405, i32 0		; visa id: 596
  %408 = insertelement <2 x i32> %407, i32 %406, i32 1		; visa id: 597
  %409 = bitcast <2 x i32> %408 to i64		; visa id: 598
  %410 = lshr i64 %409, 32		; visa id: 602
  %411 = bitcast i64 %410 to <2 x i32>		; visa id: 603
  %412 = extractelement <2 x i32> %411, i32 0		; visa id: 607
  %413 = extractelement <2 x i32> %411, i32 1		; visa id: 607
  %414 = call { i32, i32 } @llvm.genx.GenISA.mul.pair(i32 %401, i32 0, i32 -845247145, i32 0)
  %415 = extractvalue { i32, i32 } %414, 0		; visa id: 607
  %416 = extractvalue { i32, i32 } %414, 1		; visa id: 607
  %417 = insertelement <2 x i32> undef, i32 %415, i32 0		; visa id: 614
  %418 = insertelement <2 x i32> %417, i32 %416, i32 1		; visa id: 615
  %419 = bitcast <2 x i32> %418 to i64		; visa id: 616
  %420 = lshr i64 %419, 32		; visa id: 620
  %421 = bitcast i64 %420 to <2 x i32>		; visa id: 621
  %422 = extractelement <2 x i32> %421, i32 0		; visa id: 625
  %423 = extractelement <2 x i32> %421, i32 1		; visa id: 625
  %424 = xor i32 %379, %422		; visa id: 625
  %425 = xor i32 %380, %423		; visa id: 626
  %426 = insertelement <2 x i32> undef, i32 %424, i32 0		; visa id: 627
  %427 = insertelement <2 x i32> %426, i32 %425, i32 1		; visa id: 628
  %428 = bitcast <2 x i32> %427 to i64		; visa id: 629
  %429 = trunc i64 %428 to i32		; visa id: 633
  %430 = xor i32 %402, %429		; visa id: 634
  %431 = xor i32 %369, %412		; visa id: 635
  %432 = xor i32 %370, %413		; visa id: 636
  %433 = insertelement <2 x i32> undef, i32 %431, i32 0		; visa id: 637
  %434 = insertelement <2 x i32> %433, i32 %432, i32 1		; visa id: 638
  %435 = bitcast <2 x i32> %434 to i64		; visa id: 639
  %436 = trunc i64 %435 to i32		; visa id: 643
  %437 = xor i32 %403, %436		; visa id: 644
  %438 = add i32 %79, -1879881855		; visa id: 645
  %439 = add i32 %80, -1767562579		; visa id: 646
  %440 = call { i32, i32 } @llvm.genx.GenISA.mul.pair(i32 %430, i32 0, i32 -766435501, i32 0)
  %441 = extractvalue { i32, i32 } %440, 0		; visa id: 647
  %442 = extractvalue { i32, i32 } %440, 1		; visa id: 647
  %443 = insertelement <2 x i32> undef, i32 %441, i32 0		; visa id: 654
  %444 = insertelement <2 x i32> %443, i32 %442, i32 1		; visa id: 655
  %445 = bitcast <2 x i32> %444 to i64		; visa id: 656
  %446 = trunc i64 %445 to i32		; visa id: 660
  %447 = lshr i64 %445, 32		; visa id: 661
  %448 = bitcast i64 %447 to <2 x i32>		; visa id: 662
  %449 = extractelement <2 x i32> %448, i32 0		; visa id: 666
  %450 = extractelement <2 x i32> %448, i32 1		; visa id: 666
  %451 = call { i32, i32 } @llvm.genx.GenISA.mul.pair(i32 %437, i32 0, i32 -845247145, i32 0)
  %452 = extractvalue { i32, i32 } %451, 0		; visa id: 666
  %453 = extractvalue { i32, i32 } %451, 1		; visa id: 666
  %454 = insertelement <2 x i32> undef, i32 %452, i32 0		; visa id: 673
  %455 = insertelement <2 x i32> %454, i32 %453, i32 1		; visa id: 674
  %456 = bitcast <2 x i32> %455 to i64		; visa id: 675
  %457 = trunc i64 %456 to i32		; visa id: 679
  %458 = lshr i64 %456, 32		; visa id: 680
  %459 = bitcast i64 %458 to <2 x i32>		; visa id: 681
  %460 = extractelement <2 x i32> %459, i32 0		; visa id: 685
  %461 = extractelement <2 x i32> %459, i32 1		; visa id: 685
  %462 = xor i32 %415, %460		; visa id: 685
  %463 = xor i32 %416, %461		; visa id: 686
  %464 = insertelement <2 x i32> undef, i32 %462, i32 0		; visa id: 687
  %465 = insertelement <2 x i32> %464, i32 %463, i32 1		; visa id: 688
  %466 = bitcast <2 x i32> %465 to i64		; visa id: 689
  %467 = trunc i64 %466 to i32		; visa id: 693
  %468 = xor i32 %438, %467		; visa id: 694
  %469 = xor i32 %405, %449		; visa id: 695
  %470 = xor i32 %406, %450		; visa id: 696
  %471 = insertelement <2 x i32> undef, i32 %469, i32 0		; visa id: 697
  %472 = insertelement <2 x i32> %471, i32 %470, i32 1		; visa id: 698
  %473 = bitcast <2 x i32> %472 to i64		; visa id: 699
  %474 = trunc i64 %473 to i32		; visa id: 703
  %475 = xor i32 %439, %474		; visa id: 704
  %476 = insertelement <4 x i32> <i32 4, i32 undef, i32 undef, i32 undef>, i32 %468, i64 1		; visa id: 705
  %477 = insertelement <4 x i32> %476, i32 %457, i64 2		; visa id: 707
  %478 = insertelement <4 x i32> %477, i32 %475, i64 3		; visa id: 708
  %479 = add i64 %22, 64
  %480 = inttoptr i64 %479 to <4 x i32>*
  store <4 x i32> %478, <4 x i32>* %480, align 8, !user_as_priv !879		; visa id: 709
  store i32 %446, i32* %memcpy_rem66, align 8, !user_as_priv !879		; visa id: 710
  %481 = add i64 %115, 1		; visa id: 711
  %482 = bitcast i64 %481 to <2 x i32>		; visa id: 712
  %483 = extractelement <2 x i32> %482, i32 0		; visa id: 716
  %484 = extractelement <2 x i32> %482, i32 1		; visa id: 716
  %485 = icmp eq i32 %484, 0
  %486 = icmp eq i32 %483, 0		; visa id: 716
  %487 = and i1 %485, %486		; visa id: 717
  %488 = sext i1 %487 to i64		; visa id: 719
  %489 = sub i64 0, %488
  %490 = add i64 %119, %489		; visa id: 721
  %491 = trunc i64 %490 to i32		; visa id: 722
  %492 = bitcast i64 %490 to <2 x i32>		; visa id: 723
  %493 = extractelement <2 x i32> %492, i32 1		; visa id: 725
  %494 = insertelement <2 x i64> undef, i64 %481, i64 0		; visa id: 725
  %495 = bitcast <2 x i64> %494 to <4 x i32>		; visa id: 726
  %496 = insertelement <4 x i32> %495, i32 %491, i64 2		; visa id: 734
  %497 = insertelement <4 x i32> %496, i32 %493, i64 3		; visa id: 735
  %498 = add i64 %22, 48
  %499 = inttoptr i64 %498 to <4 x i32>*
  store <4 x i32> %497, <4 x i32>* %499, align 8, !user_as_priv !879		; visa id: 736
  br label %_ZN7cutlass9reference6device6detail17RandomUniformFuncINS_10bfloat16_tEEC2ERKNS5_6ParamsE.exit, !stats.blockFrequency.digits !886, !stats.blockFrequency.scale !887		; visa id: 737

_ZN7cutlass9reference6device6detail17RandomUniformFuncINS_10bfloat16_tEEC2ERKNS5_6ParamsE.exit: ; preds = %._crit_edge._ZN7cutlass9reference6device6detail17RandomUniformFuncINS_10bfloat16_tEEC2ERKNS5_6ParamsE.exit_crit_edge, %LeafBlock35._crit_edge
; BB3 :
  call void @llvm.lifetime.end.p0i8(i64 24, i8* nonnull %60)		; visa id: 738
  %500 = icmp eq i32 0, %5
  %501 = icmp ult i32 %45, %4		; visa id: 738
  %502 = and i1 %500, %501		; visa id: 739
  %503 = icmp ult i32 0, %5
  %504 = or i1 %502, %503		; visa id: 741
  br i1 %504, label %.lr.ph48, label %_ZN7cutlass9reference6device6detail17RandomUniformFuncINS_10bfloat16_tEEC2ERKNS5_6ParamsE.exit.._crit_edge49_crit_edge, !stats.blockFrequency.digits !880, !stats.blockFrequency.scale !881		; visa id: 743

_ZN7cutlass9reference6device6detail17RandomUniformFuncINS_10bfloat16_tEEC2ERKNS5_6ParamsE.exit.._crit_edge49_crit_edge: ; preds = %_ZN7cutlass9reference6device6detail17RandomUniformFuncINS_10bfloat16_tEEC2ERKNS5_6ParamsE.exit
; BB:
  br label %._crit_edge49, !stats.blockFrequency.digits !880, !stats.blockFrequency.scale !887

.lr.ph48:                                         ; preds = %_ZN7cutlass9reference6device6detail17RandomUniformFuncINS_10bfloat16_tEEC2ERKNS5_6ParamsE.exit
; BB5 :
  %505 = extractelement <3 x i32> %numWorkGroups, i32 0		; visa id: 745
  %506 = add i64 %22, 52
  %507 = inttoptr i64 %506 to i32*
  %508 = add i64 %22, 56
  %509 = inttoptr i64 %508 to i32*
  %510 = add i64 %22, 60
  %511 = inttoptr i64 %510 to i32*
  %512 = add i64 %22, 64
  %513 = inttoptr i64 %512 to i32*
  %514 = add i64 %22, 32
  %515 = inttoptr i64 %514 to <4 x float>*
  %516 = load <4 x float>, <4 x float>* %515, align 8		; visa id: 745
  %517 = extractelement <4 x float> %516, i32 0		; visa id: 746
  %518 = extractelement <4 x float> %516, i32 1		; visa id: 746
  %519 = extractelement <4 x float> %516, i32 2		; visa id: 746
  %520 = bitcast float %519 to i32
  %521 = extractelement <4 x float> %516, i32 3		; visa id: 746
  %522 = bitcast float %521 to i32
  %523 = add i64 %22, 48
  %524 = inttoptr i64 %523 to i32*
  %525 = add i32 %520, -1640531527		; visa id: 746
  %526 = add i32 %522, -1150833019		; visa id: 747
  %527 = add i32 %520, 1013904242		; visa id: 748
  %528 = add i32 %522, 1993301258		; visa id: 749
  %529 = add i32 %520, -626627285		; visa id: 750
  %530 = add i32 %522, 842468239		; visa id: 751
  %531 = add i32 %520, 2027808484		; visa id: 752
  %532 = add i32 %522, -308364780		; visa id: 753
  %533 = add i32 %520, 387276957		; visa id: 754
  %534 = add i32 %522, -1459197799		; visa id: 755
  %535 = add i32 %520, -1253254570		; visa id: 756
  %536 = add i32 %522, 1684936478		; visa id: 757
  %537 = add i32 %520, 1401181199		; visa id: 758
  %538 = add i32 %522, 534103459		; visa id: 759
  %539 = add i32 %522, -616729560		; visa id: 760
  %540 = add i32 %520, -1879881855		; visa id: 761
  %541 = add i32 %520, -239350328		; visa id: 762
  %542 = add i32 %522, -1767562579		; visa id: 763
  %543 = fadd reassoc nsz arcp contract float %518, %517, !spirv.Decorations !888		; visa id: 764
  %544 = fmul reassoc nsz arcp contract float %543, 5.000000e-01		; visa id: 765
  %545 = fsub reassoc nsz arcp contract float %518, %517, !spirv.Decorations !888		; visa id: 766
  %546 = fmul reassoc nsz arcp contract float %545, 0x3DF0000000000000		; visa id: 767
  %547 = load <3 x i32>, <3 x i32>* %38, align 8		; visa id: 768
  %548 = extractelement <3 x i32> %547, i32 0		; visa id: 769
  %549 = extractelement <3 x i32> %547, i32 1		; visa id: 769
  %550 = bitcast i32 %549 to float
  %551 = extractelement <3 x i32> %547, i32 2		; visa id: 769
  %552 = bitcast i32 %551 to float
  %553 = icmp sgt i32 %548, -1		; visa id: 769
  %.narrow = mul i32 %13, %505		; visa id: 770
  %554 = zext i32 %.narrow to i64		; visa id: 771
  %555 = add i64 %22, 52
  %556 = inttoptr i64 %555 to <4 x i32>*
  %557 = load <4 x i32>, <4 x i32>* %556, align 4		; visa id: 772
  %558 = extractelement <4 x i32> %557, i32 0		; visa id: 773
  %559 = extractelement <4 x i32> %557, i32 1		; visa id: 774
  %560 = extractelement <4 x i32> %557, i32 2		; visa id: 775
  %561 = extractelement <4 x i32> %557, i32 3		; visa id: 776
  %.promoted57 = load i32, i32* %524, align 8, !noalias !890, !user_as_priv !879		; visa id: 777
  %562 = add i64 %22, 68		; visa id: 778
  %563 = add i64 %22, 64
  %564 = inttoptr i64 %563 to <4 x i32>*
  %565 = ptrtoint i16 addrspace(1)* %0 to i64		; visa id: 779
  br label %._crit_edge74, !stats.blockFrequency.digits !880, !stats.blockFrequency.scale !887		; visa id: 779

._crit_edge74:                                    ; preds = %.._crit_edge74_crit_edge, %.lr.ph48
; BB6 :
  %566 = phi i32 [ %560, %.lr.ph48 ], [ %915, %.._crit_edge74_crit_edge ]
  %567 = phi i32 [ %559, %.lr.ph48 ], [ %916, %.._crit_edge74_crit_edge ]
  %568 = phi i32 [ %558, %.lr.ph48 ], [ %917, %.._crit_edge74_crit_edge ]
  %569 = phi i32 [ %.promoted57, %.lr.ph48 ], [ %918, %.._crit_edge74_crit_edge ]
  %570 = phi i32 [ %561, %.lr.ph48 ], [ %919, %.._crit_edge74_crit_edge ]
  %571 = phi i64 [ %72, %.lr.ph48 ], [ %944, %.._crit_edge74_crit_edge ]
  %.not.not = icmp eq i32 %570, 0		; visa id: 780
  br i1 %.not.not, label %580, label %572, !stats.blockFrequency.digits !893, !stats.blockFrequency.scale !894		; visa id: 781

572:                                              ; preds = %._crit_edge74
; BB7 :
  %573 = sub nsw i32 4, %570, !spirv.Decorations !884		; visa id: 783
  %574 = sext i32 %573 to i64		; visa id: 784
  %575 = shl nsw i64 %574, 2		; visa id: 785
  %576 = add i64 %562, %575		; visa id: 786
  %577 = inttoptr i64 %576 to i32*		; visa id: 787
  %578 = load i32, i32* %577, align 4, !noalias !895, !user_as_priv !879		; visa id: 787
  %579 = add i32 %570, -1		; visa id: 788
  store i32 %579, i32* %513, align 8, !noalias !890, !user_as_priv !879		; visa id: 789
  br label %_ZN6oneapi3mkl3rng6device8generateINS2_7uniformIfNS2_14uniform_method8standardEEENS2_13philox4x32x10ILi1EEEEENSt11conditionalIXeqsrT0_8vec_sizeLi1EENT_11result_typeEN4sycl3_V13vecISD_XsrSB_8vec_sizeEEEE4typeERSC_RSB_.exit, !stats.blockFrequency.digits !898, !stats.blockFrequency.scale !899		; visa id: 790

580:                                              ; preds = %._crit_edge74
; BB8 :
  %581 = call { i32, i32 } @llvm.genx.GenISA.mul.pair(i32 %569, i32 0, i32 -766435501, i32 0)
  %582 = extractvalue { i32, i32 } %581, 0		; visa id: 792
  %583 = extractvalue { i32, i32 } %581, 1		; visa id: 792
  %584 = call { i32, i32 } @llvm.genx.GenISA.mul.pair(i32 %567, i32 0, i32 -845247145, i32 0)
  %585 = extractvalue { i32, i32 } %584, 0		; visa id: 799
  %586 = extractvalue { i32, i32 } %584, 1		; visa id: 799
  %587 = xor i32 %568, %586
  %588 = xor i32 %587, %520		; visa id: 806
  %589 = xor i32 %566, %583
  %590 = xor i32 %589, %522		; visa id: 807
  %591 = call { i32, i32 } @llvm.genx.GenISA.mul.pair(i32 %588, i32 0, i32 -766435501, i32 0)
  %592 = extractvalue { i32, i32 } %591, 0		; visa id: 808
  %593 = extractvalue { i32, i32 } %591, 1		; visa id: 808
  %594 = insertelement <2 x i32> undef, i32 %592, i32 0		; visa id: 815
  %595 = insertelement <2 x i32> %594, i32 %593, i32 1		; visa id: 816
  %596 = bitcast <2 x i32> %595 to i64		; visa id: 817
  %597 = lshr i64 %596, 32		; visa id: 821
  %598 = bitcast i64 %597 to <2 x i32>		; visa id: 822
  %599 = extractelement <2 x i32> %598, i32 0		; visa id: 826
  %600 = extractelement <2 x i32> %598, i32 1		; visa id: 826
  %601 = call { i32, i32 } @llvm.genx.GenISA.mul.pair(i32 %590, i32 0, i32 -845247145, i32 0)
  %602 = extractvalue { i32, i32 } %601, 0		; visa id: 826
  %603 = extractvalue { i32, i32 } %601, 1		; visa id: 826
  %604 = insertelement <2 x i32> undef, i32 %602, i32 0		; visa id: 833
  %605 = insertelement <2 x i32> %604, i32 %603, i32 1		; visa id: 834
  %606 = bitcast <2 x i32> %605 to i64		; visa id: 835
  %607 = lshr i64 %606, 32		; visa id: 839
  %608 = bitcast i64 %607 to <2 x i32>		; visa id: 840
  %609 = extractelement <2 x i32> %608, i32 0		; visa id: 844
  %610 = extractelement <2 x i32> %608, i32 1		; visa id: 844
  %611 = xor i32 %585, %609		; visa id: 844
  %612 = xor i32 %586, %610		; visa id: 845
  %613 = insertelement <2 x i32> undef, i32 %611, i32 0		; visa id: 846
  %614 = insertelement <2 x i32> %613, i32 %612, i32 1		; visa id: 847
  %615 = bitcast <2 x i32> %614 to i64		; visa id: 848
  %616 = trunc i64 %615 to i32		; visa id: 852
  %617 = xor i32 %525, %616		; visa id: 853
  %618 = xor i32 %582, %599		; visa id: 854
  %619 = xor i32 %583, %600		; visa id: 855
  %620 = insertelement <2 x i32> undef, i32 %618, i32 0		; visa id: 856
  %621 = insertelement <2 x i32> %620, i32 %619, i32 1		; visa id: 857
  %622 = bitcast <2 x i32> %621 to i64		; visa id: 858
  %623 = trunc i64 %622 to i32		; visa id: 862
  %624 = xor i32 %526, %623		; visa id: 863
  %625 = call { i32, i32 } @llvm.genx.GenISA.mul.pair(i32 %617, i32 0, i32 -766435501, i32 0)
  %626 = extractvalue { i32, i32 } %625, 0		; visa id: 864
  %627 = extractvalue { i32, i32 } %625, 1		; visa id: 864
  %628 = insertelement <2 x i32> undef, i32 %626, i32 0		; visa id: 871
  %629 = insertelement <2 x i32> %628, i32 %627, i32 1		; visa id: 872
  %630 = bitcast <2 x i32> %629 to i64		; visa id: 873
  %631 = lshr i64 %630, 32		; visa id: 877
  %632 = bitcast i64 %631 to <2 x i32>		; visa id: 878
  %633 = extractelement <2 x i32> %632, i32 0		; visa id: 882
  %634 = extractelement <2 x i32> %632, i32 1		; visa id: 882
  %635 = call { i32, i32 } @llvm.genx.GenISA.mul.pair(i32 %624, i32 0, i32 -845247145, i32 0)
  %636 = extractvalue { i32, i32 } %635, 0		; visa id: 882
  %637 = extractvalue { i32, i32 } %635, 1		; visa id: 882
  %638 = insertelement <2 x i32> undef, i32 %636, i32 0		; visa id: 889
  %639 = insertelement <2 x i32> %638, i32 %637, i32 1		; visa id: 890
  %640 = bitcast <2 x i32> %639 to i64		; visa id: 891
  %641 = lshr i64 %640, 32		; visa id: 895
  %642 = bitcast i64 %641 to <2 x i32>		; visa id: 896
  %643 = extractelement <2 x i32> %642, i32 0		; visa id: 900
  %644 = extractelement <2 x i32> %642, i32 1		; visa id: 900
  %645 = xor i32 %602, %643		; visa id: 900
  %646 = xor i32 %603, %644		; visa id: 901
  %647 = insertelement <2 x i32> undef, i32 %645, i32 0		; visa id: 902
  %648 = insertelement <2 x i32> %647, i32 %646, i32 1		; visa id: 903
  %649 = bitcast <2 x i32> %648 to i64		; visa id: 904
  %650 = trunc i64 %649 to i32		; visa id: 908
  %651 = xor i32 %527, %650		; visa id: 909
  %652 = xor i32 %592, %633		; visa id: 910
  %653 = xor i32 %593, %634		; visa id: 911
  %654 = insertelement <2 x i32> undef, i32 %652, i32 0		; visa id: 912
  %655 = insertelement <2 x i32> %654, i32 %653, i32 1		; visa id: 913
  %656 = bitcast <2 x i32> %655 to i64		; visa id: 914
  %657 = trunc i64 %656 to i32		; visa id: 918
  %658 = xor i32 %528, %657		; visa id: 919
  %659 = call { i32, i32 } @llvm.genx.GenISA.mul.pair(i32 %651, i32 0, i32 -766435501, i32 0)
  %660 = extractvalue { i32, i32 } %659, 0		; visa id: 920
  %661 = extractvalue { i32, i32 } %659, 1		; visa id: 920
  %662 = insertelement <2 x i32> undef, i32 %660, i32 0		; visa id: 927
  %663 = insertelement <2 x i32> %662, i32 %661, i32 1		; visa id: 928
  %664 = bitcast <2 x i32> %663 to i64		; visa id: 929
  %665 = lshr i64 %664, 32		; visa id: 933
  %666 = bitcast i64 %665 to <2 x i32>		; visa id: 934
  %667 = extractelement <2 x i32> %666, i32 0		; visa id: 938
  %668 = extractelement <2 x i32> %666, i32 1		; visa id: 938
  %669 = call { i32, i32 } @llvm.genx.GenISA.mul.pair(i32 %658, i32 0, i32 -845247145, i32 0)
  %670 = extractvalue { i32, i32 } %669, 0		; visa id: 938
  %671 = extractvalue { i32, i32 } %669, 1		; visa id: 938
  %672 = insertelement <2 x i32> undef, i32 %670, i32 0		; visa id: 945
  %673 = insertelement <2 x i32> %672, i32 %671, i32 1		; visa id: 946
  %674 = bitcast <2 x i32> %673 to i64		; visa id: 947
  %675 = lshr i64 %674, 32		; visa id: 951
  %676 = bitcast i64 %675 to <2 x i32>		; visa id: 952
  %677 = extractelement <2 x i32> %676, i32 0		; visa id: 956
  %678 = extractelement <2 x i32> %676, i32 1		; visa id: 956
  %679 = xor i32 %636, %677		; visa id: 956
  %680 = xor i32 %637, %678		; visa id: 957
  %681 = insertelement <2 x i32> undef, i32 %679, i32 0		; visa id: 958
  %682 = insertelement <2 x i32> %681, i32 %680, i32 1		; visa id: 959
  %683 = bitcast <2 x i32> %682 to i64		; visa id: 960
  %684 = trunc i64 %683 to i32		; visa id: 964
  %685 = xor i32 %529, %684		; visa id: 965
  %686 = xor i32 %626, %667		; visa id: 966
  %687 = xor i32 %627, %668		; visa id: 967
  %688 = insertelement <2 x i32> undef, i32 %686, i32 0		; visa id: 968
  %689 = insertelement <2 x i32> %688, i32 %687, i32 1		; visa id: 969
  %690 = bitcast <2 x i32> %689 to i64		; visa id: 970
  %691 = trunc i64 %690 to i32		; visa id: 974
  %692 = xor i32 %530, %691		; visa id: 975
  %693 = call { i32, i32 } @llvm.genx.GenISA.mul.pair(i32 %685, i32 0, i32 -766435501, i32 0)
  %694 = extractvalue { i32, i32 } %693, 0		; visa id: 976
  %695 = extractvalue { i32, i32 } %693, 1		; visa id: 976
  %696 = insertelement <2 x i32> undef, i32 %694, i32 0		; visa id: 983
  %697 = insertelement <2 x i32> %696, i32 %695, i32 1		; visa id: 984
  %698 = bitcast <2 x i32> %697 to i64		; visa id: 985
  %699 = lshr i64 %698, 32		; visa id: 989
  %700 = bitcast i64 %699 to <2 x i32>		; visa id: 990
  %701 = extractelement <2 x i32> %700, i32 0		; visa id: 994
  %702 = extractelement <2 x i32> %700, i32 1		; visa id: 994
  %703 = call { i32, i32 } @llvm.genx.GenISA.mul.pair(i32 %692, i32 0, i32 -845247145, i32 0)
  %704 = extractvalue { i32, i32 } %703, 0		; visa id: 994
  %705 = extractvalue { i32, i32 } %703, 1		; visa id: 994
  %706 = insertelement <2 x i32> undef, i32 %704, i32 0		; visa id: 1001
  %707 = insertelement <2 x i32> %706, i32 %705, i32 1		; visa id: 1002
  %708 = bitcast <2 x i32> %707 to i64		; visa id: 1003
  %709 = lshr i64 %708, 32		; visa id: 1007
  %710 = bitcast i64 %709 to <2 x i32>		; visa id: 1008
  %711 = extractelement <2 x i32> %710, i32 0		; visa id: 1012
  %712 = extractelement <2 x i32> %710, i32 1		; visa id: 1012
  %713 = xor i32 %670, %711		; visa id: 1012
  %714 = xor i32 %671, %712		; visa id: 1013
  %715 = insertelement <2 x i32> undef, i32 %713, i32 0		; visa id: 1014
  %716 = insertelement <2 x i32> %715, i32 %714, i32 1		; visa id: 1015
  %717 = bitcast <2 x i32> %716 to i64		; visa id: 1016
  %718 = trunc i64 %717 to i32		; visa id: 1020
  %719 = xor i32 %531, %718		; visa id: 1021
  %720 = xor i32 %660, %701		; visa id: 1022
  %721 = xor i32 %661, %702		; visa id: 1023
  %722 = insertelement <2 x i32> undef, i32 %720, i32 0		; visa id: 1024
  %723 = insertelement <2 x i32> %722, i32 %721, i32 1		; visa id: 1025
  %724 = bitcast <2 x i32> %723 to i64		; visa id: 1026
  %725 = trunc i64 %724 to i32		; visa id: 1030
  %726 = xor i32 %532, %725		; visa id: 1031
  %727 = call { i32, i32 } @llvm.genx.GenISA.mul.pair(i32 %719, i32 0, i32 -766435501, i32 0)
  %728 = extractvalue { i32, i32 } %727, 0		; visa id: 1032
  %729 = extractvalue { i32, i32 } %727, 1		; visa id: 1032
  %730 = insertelement <2 x i32> undef, i32 %728, i32 0		; visa id: 1039
  %731 = insertelement <2 x i32> %730, i32 %729, i32 1		; visa id: 1040
  %732 = bitcast <2 x i32> %731 to i64		; visa id: 1041
  %733 = lshr i64 %732, 32		; visa id: 1045
  %734 = bitcast i64 %733 to <2 x i32>		; visa id: 1046
  %735 = extractelement <2 x i32> %734, i32 0		; visa id: 1050
  %736 = extractelement <2 x i32> %734, i32 1		; visa id: 1050
  %737 = call { i32, i32 } @llvm.genx.GenISA.mul.pair(i32 %726, i32 0, i32 -845247145, i32 0)
  %738 = extractvalue { i32, i32 } %737, 0		; visa id: 1050
  %739 = extractvalue { i32, i32 } %737, 1		; visa id: 1050
  %740 = insertelement <2 x i32> undef, i32 %738, i32 0		; visa id: 1057
  %741 = insertelement <2 x i32> %740, i32 %739, i32 1		; visa id: 1058
  %742 = bitcast <2 x i32> %741 to i64		; visa id: 1059
  %743 = lshr i64 %742, 32		; visa id: 1063
  %744 = bitcast i64 %743 to <2 x i32>		; visa id: 1064
  %745 = extractelement <2 x i32> %744, i32 0		; visa id: 1068
  %746 = extractelement <2 x i32> %744, i32 1		; visa id: 1068
  %747 = xor i32 %704, %745		; visa id: 1068
  %748 = xor i32 %705, %746		; visa id: 1069
  %749 = insertelement <2 x i32> undef, i32 %747, i32 0		; visa id: 1070
  %750 = insertelement <2 x i32> %749, i32 %748, i32 1		; visa id: 1071
  %751 = bitcast <2 x i32> %750 to i64		; visa id: 1072
  %752 = trunc i64 %751 to i32		; visa id: 1076
  %753 = xor i32 %533, %752		; visa id: 1077
  %754 = xor i32 %694, %735		; visa id: 1078
  %755 = xor i32 %695, %736		; visa id: 1079
  %756 = insertelement <2 x i32> undef, i32 %754, i32 0		; visa id: 1080
  %757 = insertelement <2 x i32> %756, i32 %755, i32 1		; visa id: 1081
  %758 = bitcast <2 x i32> %757 to i64		; visa id: 1082
  %759 = trunc i64 %758 to i32		; visa id: 1086
  %760 = xor i32 %534, %759		; visa id: 1087
  %761 = call { i32, i32 } @llvm.genx.GenISA.mul.pair(i32 %753, i32 0, i32 -766435501, i32 0)
  %762 = extractvalue { i32, i32 } %761, 0		; visa id: 1088
  %763 = extractvalue { i32, i32 } %761, 1		; visa id: 1088
  %764 = insertelement <2 x i32> undef, i32 %762, i32 0		; visa id: 1095
  %765 = insertelement <2 x i32> %764, i32 %763, i32 1		; visa id: 1096
  %766 = bitcast <2 x i32> %765 to i64		; visa id: 1097
  %767 = lshr i64 %766, 32		; visa id: 1101
  %768 = bitcast i64 %767 to <2 x i32>		; visa id: 1102
  %769 = extractelement <2 x i32> %768, i32 0		; visa id: 1106
  %770 = extractelement <2 x i32> %768, i32 1		; visa id: 1106
  %771 = call { i32, i32 } @llvm.genx.GenISA.mul.pair(i32 %760, i32 0, i32 -845247145, i32 0)
  %772 = extractvalue { i32, i32 } %771, 0		; visa id: 1106
  %773 = extractvalue { i32, i32 } %771, 1		; visa id: 1106
  %774 = insertelement <2 x i32> undef, i32 %772, i32 0		; visa id: 1113
  %775 = insertelement <2 x i32> %774, i32 %773, i32 1		; visa id: 1114
  %776 = bitcast <2 x i32> %775 to i64		; visa id: 1115
  %777 = lshr i64 %776, 32		; visa id: 1119
  %778 = bitcast i64 %777 to <2 x i32>		; visa id: 1120
  %779 = extractelement <2 x i32> %778, i32 0		; visa id: 1124
  %780 = extractelement <2 x i32> %778, i32 1		; visa id: 1124
  %781 = xor i32 %738, %779		; visa id: 1124
  %782 = xor i32 %739, %780		; visa id: 1125
  %783 = insertelement <2 x i32> undef, i32 %781, i32 0		; visa id: 1126
  %784 = insertelement <2 x i32> %783, i32 %782, i32 1		; visa id: 1127
  %785 = bitcast <2 x i32> %784 to i64		; visa id: 1128
  %786 = trunc i64 %785 to i32		; visa id: 1132
  %787 = xor i32 %535, %786		; visa id: 1133
  %788 = xor i32 %728, %769		; visa id: 1134
  %789 = xor i32 %729, %770		; visa id: 1135
  %790 = insertelement <2 x i32> undef, i32 %788, i32 0		; visa id: 1136
  %791 = insertelement <2 x i32> %790, i32 %789, i32 1		; visa id: 1137
  %792 = bitcast <2 x i32> %791 to i64		; visa id: 1138
  %793 = trunc i64 %792 to i32		; visa id: 1142
  %794 = xor i32 %536, %793		; visa id: 1143
  %795 = call { i32, i32 } @llvm.genx.GenISA.mul.pair(i32 %787, i32 0, i32 -766435501, i32 0)
  %796 = extractvalue { i32, i32 } %795, 0		; visa id: 1144
  %797 = extractvalue { i32, i32 } %795, 1		; visa id: 1144
  %798 = insertelement <2 x i32> undef, i32 %796, i32 0		; visa id: 1151
  %799 = insertelement <2 x i32> %798, i32 %797, i32 1		; visa id: 1152
  %800 = bitcast <2 x i32> %799 to i64		; visa id: 1153
  %801 = lshr i64 %800, 32		; visa id: 1157
  %802 = bitcast i64 %801 to <2 x i32>		; visa id: 1158
  %803 = extractelement <2 x i32> %802, i32 0		; visa id: 1162
  %804 = extractelement <2 x i32> %802, i32 1		; visa id: 1162
  %805 = call { i32, i32 } @llvm.genx.GenISA.mul.pair(i32 %794, i32 0, i32 -845247145, i32 0)
  %806 = extractvalue { i32, i32 } %805, 0		; visa id: 1162
  %807 = extractvalue { i32, i32 } %805, 1		; visa id: 1162
  %808 = insertelement <2 x i32> undef, i32 %806, i32 0		; visa id: 1169
  %809 = insertelement <2 x i32> %808, i32 %807, i32 1		; visa id: 1170
  %810 = bitcast <2 x i32> %809 to i64		; visa id: 1171
  %811 = lshr i64 %810, 32		; visa id: 1175
  %812 = bitcast i64 %811 to <2 x i32>		; visa id: 1176
  %813 = extractelement <2 x i32> %812, i32 0		; visa id: 1180
  %814 = extractelement <2 x i32> %812, i32 1		; visa id: 1180
  %815 = xor i32 %772, %813		; visa id: 1180
  %816 = xor i32 %773, %814		; visa id: 1181
  %817 = insertelement <2 x i32> undef, i32 %815, i32 0		; visa id: 1182
  %818 = insertelement <2 x i32> %817, i32 %816, i32 1		; visa id: 1183
  %819 = bitcast <2 x i32> %818 to i64		; visa id: 1184
  %820 = trunc i64 %819 to i32		; visa id: 1188
  %821 = xor i32 %537, %820		; visa id: 1189
  %822 = xor i32 %762, %803		; visa id: 1190
  %823 = xor i32 %763, %804		; visa id: 1191
  %824 = insertelement <2 x i32> undef, i32 %822, i32 0		; visa id: 1192
  %825 = insertelement <2 x i32> %824, i32 %823, i32 1		; visa id: 1193
  %826 = bitcast <2 x i32> %825 to i64		; visa id: 1194
  %827 = trunc i64 %826 to i32		; visa id: 1198
  %828 = xor i32 %538, %827		; visa id: 1199
  %829 = call { i32, i32 } @llvm.genx.GenISA.mul.pair(i32 %821, i32 0, i32 -766435501, i32 0)
  %830 = extractvalue { i32, i32 } %829, 0		; visa id: 1200
  %831 = extractvalue { i32, i32 } %829, 1		; visa id: 1200
  %832 = insertelement <2 x i32> undef, i32 %830, i32 0		; visa id: 1207
  %833 = insertelement <2 x i32> %832, i32 %831, i32 1		; visa id: 1208
  %834 = bitcast <2 x i32> %833 to i64		; visa id: 1209
  %835 = lshr i64 %834, 32		; visa id: 1213
  %836 = bitcast i64 %835 to <2 x i32>		; visa id: 1214
  %837 = extractelement <2 x i32> %836, i32 0		; visa id: 1218
  %838 = extractelement <2 x i32> %836, i32 1		; visa id: 1218
  %839 = mul i32 %828, -845247145		; visa id: 1218
  %840 = xor i32 %796, %837		; visa id: 1219
  %841 = xor i32 %797, %838		; visa id: 1220
  %842 = insertelement <2 x i32> undef, i32 %840, i32 0		; visa id: 1221
  %843 = insertelement <2 x i32> %842, i32 %841, i32 1		; visa id: 1222
  %844 = bitcast <2 x i32> %843 to i64		; visa id: 1223
  %845 = trunc i64 %844 to i32		; visa id: 1227
  %846 = xor i32 %539, %845		; visa id: 1228
  %847 = call { i32, i32 } @llvm.genx.GenISA.mul.pair(i32 %846, i32 0, i32 -845247145, i32 0)
  %848 = extractvalue { i32, i32 } %847, 0		; visa id: 1229
  %849 = extractvalue { i32, i32 } %847, 1		; visa id: 1229
  %850 = insertelement <2 x i32> undef, i32 %848, i32 0		; visa id: 1236
  %851 = insertelement <2 x i32> %850, i32 %849, i32 1		; visa id: 1237
  %852 = bitcast <2 x i32> %851 to i64		; visa id: 1238
  %853 = lshr i64 %852, 32		; visa id: 1242
  %854 = bitcast i64 %853 to <2 x i32>		; visa id: 1243
  %855 = extractelement <2 x i32> %854, i32 0		; visa id: 1247
  %856 = extractelement <2 x i32> %854, i32 1		; visa id: 1247
  %857 = xor i32 %839, %849
  %858 = xor i32 %857, %540		; visa id: 1247
  %859 = call { i32, i32 } @llvm.genx.GenISA.mul.pair(i32 %828, i32 0, i32 -845247145, i32 0)
  %860 = extractvalue { i32, i32 } %859, 0		; visa id: 1248
  %861 = extractvalue { i32, i32 } %859, 1		; visa id: 1248
  %862 = insertelement <2 x i32> undef, i32 %860, i32 0		; visa id: 1255
  %863 = insertelement <2 x i32> %862, i32 %861, i32 1		; visa id: 1256
  %864 = bitcast <2 x i32> %863 to i64		; visa id: 1257
  %865 = lshr i64 %864, 32		; visa id: 1261
  %866 = bitcast i64 %865 to <2 x i32>		; visa id: 1262
  %867 = extractelement <2 x i32> %866, i32 0		; visa id: 1266
  %868 = extractelement <2 x i32> %866, i32 1		; visa id: 1266
  %869 = xor i32 %806, %867		; visa id: 1266
  %870 = xor i32 %807, %868		; visa id: 1267
  %871 = insertelement <2 x i32> undef, i32 %869, i32 0		; visa id: 1268
  %872 = insertelement <2 x i32> %871, i32 %870, i32 1		; visa id: 1269
  %873 = bitcast <2 x i32> %872 to i64		; visa id: 1270
  %874 = trunc i64 %873 to i32		; visa id: 1274
  %875 = xor i32 %541, %874		; visa id: 1275
  %876 = call { i32, i32 } @llvm.genx.GenISA.mul.pair(i32 %875, i32 0, i32 -766435501, i32 0)
  %877 = extractvalue { i32, i32 } %876, 0		; visa id: 1276
  %878 = extractvalue { i32, i32 } %876, 1		; visa id: 1276
  %879 = insertelement <2 x i32> undef, i32 %877, i32 0		; visa id: 1283
  %880 = insertelement <2 x i32> %879, i32 %878, i32 1		; visa id: 1284
  %881 = bitcast <2 x i32> %880 to i64		; visa id: 1285
  %882 = trunc i64 %881 to i32		; visa id: 1289
  %883 = lshr i64 %881, 32		; visa id: 1290
  %884 = bitcast i64 %883 to <2 x i32>		; visa id: 1291
  %885 = extractelement <2 x i32> %884, i32 0		; visa id: 1295
  %886 = extractelement <2 x i32> %884, i32 1		; visa id: 1295
  %887 = trunc i64 %852 to i32		; visa id: 1295
  %888 = xor i32 %860, %855		; visa id: 1296
  %889 = xor i32 %861, %856		; visa id: 1297
  %890 = insertelement <2 x i32> undef, i32 %888, i32 0		; visa id: 1298
  %891 = insertelement <2 x i32> %890, i32 %889, i32 1		; visa id: 1299
  %892 = bitcast <2 x i32> %891 to i64		; visa id: 1300
  %893 = trunc i64 %892 to i32		; visa id: 1304
  %894 = xor i32 %540, %893		; visa id: 1305
  %895 = xor i32 %830, %885		; visa id: 1306
  %896 = xor i32 %831, %886		; visa id: 1307
  %897 = insertelement <2 x i32> undef, i32 %895, i32 0		; visa id: 1308
  %898 = insertelement <2 x i32> %897, i32 %896, i32 1		; visa id: 1309
  %899 = bitcast <2 x i32> %898 to i64		; visa id: 1310
  %900 = trunc i64 %899 to i32		; visa id: 1314
  %901 = xor i32 %542, %900		; visa id: 1315
  %902 = insertelement <4 x i32> <i32 3, i32 undef, i32 undef, i32 undef>, i32 %894, i64 1		; visa id: 1316
  %903 = insertelement <4 x i32> %902, i32 %887, i64 2		; visa id: 1318
  %904 = insertelement <4 x i32> %903, i32 %901, i64 3		; visa id: 1319
  store <4 x i32> %904, <4 x i32>* %564, align 8, !noalias !890, !user_as_priv !879		; visa id: 1320
  store i32 %882, i32* %memcpy_rem66, align 8, !noalias !890, !user_as_priv !879		; visa id: 1321
  %905 = add i32 %569, 1		; visa id: 1322
  store i32 %905, i32* %524, align 8, !noalias !890, !user_as_priv !879		; visa id: 1323
  %906 = icmp eq i32 %905, 0		; visa id: 1324
  br i1 %906, label %907, label %._ZN6oneapi3mkl3rng6device8generateINS2_7uniformIfNS2_14uniform_method8standardEEENS2_13philox4x32x10ILi1EEEEENSt11conditionalIXeqsrT0_8vec_sizeLi1EENT_11result_typeEN4sycl3_V13vecISD_XsrSB_8vec_sizeEEEE4typeERSC_RSB_.exit_crit_edge, !stats.blockFrequency.digits !900, !stats.blockFrequency.scale !901		; visa id: 1325

._ZN6oneapi3mkl3rng6device8generateINS2_7uniformIfNS2_14uniform_method8standardEEENS2_13philox4x32x10ILi1EEEEENSt11conditionalIXeqsrT0_8vec_sizeLi1EENT_11result_typeEN4sycl3_V13vecISD_XsrSB_8vec_sizeEEEE4typeERSC_RSB_.exit_crit_edge: ; preds = %580
; BB9 :
  br label %_ZN6oneapi3mkl3rng6device8generateINS2_7uniformIfNS2_14uniform_method8standardEEENS2_13philox4x32x10ILi1EEEEENSt11conditionalIXeqsrT0_8vec_sizeLi1EENT_11result_typeEN4sycl3_V13vecISD_XsrSB_8vec_sizeEEEE4typeERSC_RSB_.exit, !stats.blockFrequency.digits !902, !stats.blockFrequency.scale !901		; visa id: 1328

907:                                              ; preds = %580
; BB10 :
  %908 = add i32 %568, 1		; visa id: 1330
  store i32 %908, i32* %507, align 4, !noalias !890, !user_as_priv !879		; visa id: 1331
  %909 = icmp eq i32 %908, 0		; visa id: 1332
  br i1 %909, label %910, label %._ZN6oneapi3mkl3rng6device8generateINS2_7uniformIfNS2_14uniform_method8standardEEENS2_13philox4x32x10ILi1EEEEENSt11conditionalIXeqsrT0_8vec_sizeLi1EENT_11result_typeEN4sycl3_V13vecISD_XsrSB_8vec_sizeEEEE4typeERSC_RSB_.exit_crit_edge88, !stats.blockFrequency.digits !903, !stats.blockFrequency.scale !904		; visa id: 1333

._ZN6oneapi3mkl3rng6device8generateINS2_7uniformIfNS2_14uniform_method8standardEEENS2_13philox4x32x10ILi1EEEEENSt11conditionalIXeqsrT0_8vec_sizeLi1EENT_11result_typeEN4sycl3_V13vecISD_XsrSB_8vec_sizeEEEE4typeERSC_RSB_.exit_crit_edge88: ; preds = %907
; BB11 :
  br label %_ZN6oneapi3mkl3rng6device8generateINS2_7uniformIfNS2_14uniform_method8standardEEENS2_13philox4x32x10ILi1EEEEENSt11conditionalIXeqsrT0_8vec_sizeLi1EENT_11result_typeEN4sycl3_V13vecISD_XsrSB_8vec_sizeEEEE4typeERSC_RSB_.exit, !stats.blockFrequency.digits !882, !stats.blockFrequency.scale !881		; visa id: 1337

910:                                              ; preds = %907
; BB12 :
  %911 = add i32 %567, 1		; visa id: 1339
  store i32 %911, i32* %509, align 8, !noalias !890, !user_as_priv !879		; visa id: 1340
  %912 = icmp eq i32 %911, 0		; visa id: 1341
  br i1 %912, label %913, label %._ZN6oneapi3mkl3rng6device8generateINS2_7uniformIfNS2_14uniform_method8standardEEENS2_13philox4x32x10ILi1EEEEENSt11conditionalIXeqsrT0_8vec_sizeLi1EENT_11result_typeEN4sycl3_V13vecISD_XsrSB_8vec_sizeEEEE4typeERSC_RSB_.exit_crit_edge89, !stats.blockFrequency.digits !905, !stats.blockFrequency.scale !881		; visa id: 1342

._ZN6oneapi3mkl3rng6device8generateINS2_7uniformIfNS2_14uniform_method8standardEEENS2_13philox4x32x10ILi1EEEEENSt11conditionalIXeqsrT0_8vec_sizeLi1EENT_11result_typeEN4sycl3_V13vecISD_XsrSB_8vec_sizeEEEE4typeERSC_RSB_.exit_crit_edge89: ; preds = %910
; BB13 :
  br label %_ZN6oneapi3mkl3rng6device8generateINS2_7uniformIfNS2_14uniform_method8standardEEENS2_13philox4x32x10ILi1EEEEENSt11conditionalIXeqsrT0_8vec_sizeLi1EENT_11result_typeEN4sycl3_V13vecISD_XsrSB_8vec_sizeEEEE4typeERSC_RSB_.exit, !stats.blockFrequency.digits !903, !stats.blockFrequency.scale !887		; visa id: 1347

913:                                              ; preds = %910
; BB14 :
  %914 = add i32 %566, 1		; visa id: 1349
  store i32 %914, i32* %511, align 4, !noalias !890, !user_as_priv !879		; visa id: 1350
  br label %_ZN6oneapi3mkl3rng6device8generateINS2_7uniformIfNS2_14uniform_method8standardEEENS2_13philox4x32x10ILi1EEEEENSt11conditionalIXeqsrT0_8vec_sizeLi1EENT_11result_typeEN4sycl3_V13vecISD_XsrSB_8vec_sizeEEEE4typeERSC_RSB_.exit, !stats.blockFrequency.digits !903, !stats.blockFrequency.scale !883		; visa id: 1355

_ZN6oneapi3mkl3rng6device8generateINS2_7uniformIfNS2_14uniform_method8standardEEENS2_13philox4x32x10ILi1EEEEENSt11conditionalIXeqsrT0_8vec_sizeLi1EENT_11result_typeEN4sycl3_V13vecISD_XsrSB_8vec_sizeEEEE4typeERSC_RSB_.exit: ; preds = %._ZN6oneapi3mkl3rng6device8generateINS2_7uniformIfNS2_14uniform_method8standardEEENS2_13philox4x32x10ILi1EEEEENSt11conditionalIXeqsrT0_8vec_sizeLi1EENT_11result_typeEN4sycl3_V13vecISD_XsrSB_8vec_sizeEEEE4typeERSC_RSB_.exit_crit_edge89, %._ZN6oneapi3mkl3rng6device8generateINS2_7uniformIfNS2_14uniform_method8standardEEENS2_13philox4x32x10ILi1EEEEENSt11conditionalIXeqsrT0_8vec_sizeLi1EENT_11result_typeEN4sycl3_V13vecISD_XsrSB_8vec_sizeEEEE4typeERSC_RSB_.exit_crit_edge88, %._ZN6oneapi3mkl3rng6device8generateINS2_7uniformIfNS2_14uniform_method8standardEEENS2_13philox4x32x10ILi1EEEEENSt11conditionalIXeqsrT0_8vec_sizeLi1EENT_11result_typeEN4sycl3_V13vecISD_XsrSB_8vec_sizeEEEE4typeERSC_RSB_.exit_crit_edge, %913, %572
; BB15 :
  %915 = phi i32 [ %566, %572 ], [ %914, %913 ], [ %566, %._ZN6oneapi3mkl3rng6device8generateINS2_7uniformIfNS2_14uniform_method8standardEEENS2_13philox4x32x10ILi1EEEEENSt11conditionalIXeqsrT0_8vec_sizeLi1EENT_11result_typeEN4sycl3_V13vecISD_XsrSB_8vec_sizeEEEE4typeERSC_RSB_.exit_crit_edge ], [ %566, %._ZN6oneapi3mkl3rng6device8generateINS2_7uniformIfNS2_14uniform_method8standardEEENS2_13philox4x32x10ILi1EEEEENSt11conditionalIXeqsrT0_8vec_sizeLi1EENT_11result_typeEN4sycl3_V13vecISD_XsrSB_8vec_sizeEEEE4typeERSC_RSB_.exit_crit_edge88 ], [ %566, %._ZN6oneapi3mkl3rng6device8generateINS2_7uniformIfNS2_14uniform_method8standardEEENS2_13philox4x32x10ILi1EEEEENSt11conditionalIXeqsrT0_8vec_sizeLi1EENT_11result_typeEN4sycl3_V13vecISD_XsrSB_8vec_sizeEEEE4typeERSC_RSB_.exit_crit_edge89 ]
  %916 = phi i32 [ %567, %572 ], [ 0, %913 ], [ %567, %._ZN6oneapi3mkl3rng6device8generateINS2_7uniformIfNS2_14uniform_method8standardEEENS2_13philox4x32x10ILi1EEEEENSt11conditionalIXeqsrT0_8vec_sizeLi1EENT_11result_typeEN4sycl3_V13vecISD_XsrSB_8vec_sizeEEEE4typeERSC_RSB_.exit_crit_edge ], [ %567, %._ZN6oneapi3mkl3rng6device8generateINS2_7uniformIfNS2_14uniform_method8standardEEENS2_13philox4x32x10ILi1EEEEENSt11conditionalIXeqsrT0_8vec_sizeLi1EENT_11result_typeEN4sycl3_V13vecISD_XsrSB_8vec_sizeEEEE4typeERSC_RSB_.exit_crit_edge88 ], [ %911, %._ZN6oneapi3mkl3rng6device8generateINS2_7uniformIfNS2_14uniform_method8standardEEENS2_13philox4x32x10ILi1EEEEENSt11conditionalIXeqsrT0_8vec_sizeLi1EENT_11result_typeEN4sycl3_V13vecISD_XsrSB_8vec_sizeEEEE4typeERSC_RSB_.exit_crit_edge89 ]
  %917 = phi i32 [ %568, %572 ], [ 0, %913 ], [ %568, %._ZN6oneapi3mkl3rng6device8generateINS2_7uniformIfNS2_14uniform_method8standardEEENS2_13philox4x32x10ILi1EEEEENSt11conditionalIXeqsrT0_8vec_sizeLi1EENT_11result_typeEN4sycl3_V13vecISD_XsrSB_8vec_sizeEEEE4typeERSC_RSB_.exit_crit_edge ], [ %908, %._ZN6oneapi3mkl3rng6device8generateINS2_7uniformIfNS2_14uniform_method8standardEEENS2_13philox4x32x10ILi1EEEEENSt11conditionalIXeqsrT0_8vec_sizeLi1EENT_11result_typeEN4sycl3_V13vecISD_XsrSB_8vec_sizeEEEE4typeERSC_RSB_.exit_crit_edge88 ], [ 0, %._ZN6oneapi3mkl3rng6device8generateINS2_7uniformIfNS2_14uniform_method8standardEEENS2_13philox4x32x10ILi1EEEEENSt11conditionalIXeqsrT0_8vec_sizeLi1EENT_11result_typeEN4sycl3_V13vecISD_XsrSB_8vec_sizeEEEE4typeERSC_RSB_.exit_crit_edge89 ]
  %918 = phi i32 [ %569, %572 ], [ 0, %913 ], [ %905, %._ZN6oneapi3mkl3rng6device8generateINS2_7uniformIfNS2_14uniform_method8standardEEENS2_13philox4x32x10ILi1EEEEENSt11conditionalIXeqsrT0_8vec_sizeLi1EENT_11result_typeEN4sycl3_V13vecISD_XsrSB_8vec_sizeEEEE4typeERSC_RSB_.exit_crit_edge ], [ 0, %._ZN6oneapi3mkl3rng6device8generateINS2_7uniformIfNS2_14uniform_method8standardEEENS2_13philox4x32x10ILi1EEEEENSt11conditionalIXeqsrT0_8vec_sizeLi1EENT_11result_typeEN4sycl3_V13vecISD_XsrSB_8vec_sizeEEEE4typeERSC_RSB_.exit_crit_edge88 ], [ 0, %._ZN6oneapi3mkl3rng6device8generateINS2_7uniformIfNS2_14uniform_method8standardEEENS2_13philox4x32x10ILi1EEEEENSt11conditionalIXeqsrT0_8vec_sizeLi1EENT_11result_typeEN4sycl3_V13vecISD_XsrSB_8vec_sizeEEEE4typeERSC_RSB_.exit_crit_edge89 ]
  %919 = phi i32 [ %579, %572 ], [ 3, %913 ], [ 3, %._ZN6oneapi3mkl3rng6device8generateINS2_7uniformIfNS2_14uniform_method8standardEEENS2_13philox4x32x10ILi1EEEEENSt11conditionalIXeqsrT0_8vec_sizeLi1EENT_11result_typeEN4sycl3_V13vecISD_XsrSB_8vec_sizeEEEE4typeERSC_RSB_.exit_crit_edge ], [ 3, %._ZN6oneapi3mkl3rng6device8generateINS2_7uniformIfNS2_14uniform_method8standardEEENS2_13philox4x32x10ILi1EEEEENSt11conditionalIXeqsrT0_8vec_sizeLi1EENT_11result_typeEN4sycl3_V13vecISD_XsrSB_8vec_sizeEEEE4typeERSC_RSB_.exit_crit_edge88 ], [ 3, %._ZN6oneapi3mkl3rng6device8generateINS2_7uniformIfNS2_14uniform_method8standardEEENS2_13philox4x32x10ILi1EEEEENSt11conditionalIXeqsrT0_8vec_sizeLi1EENT_11result_typeEN4sycl3_V13vecISD_XsrSB_8vec_sizeEEEE4typeERSC_RSB_.exit_crit_edge89 ]
  %920 = phi i32 [ %578, %572 ], [ %858, %913 ], [ %858, %._ZN6oneapi3mkl3rng6device8generateINS2_7uniformIfNS2_14uniform_method8standardEEENS2_13philox4x32x10ILi1EEEEENSt11conditionalIXeqsrT0_8vec_sizeLi1EENT_11result_typeEN4sycl3_V13vecISD_XsrSB_8vec_sizeEEEE4typeERSC_RSB_.exit_crit_edge ], [ %858, %._ZN6oneapi3mkl3rng6device8generateINS2_7uniformIfNS2_14uniform_method8standardEEENS2_13philox4x32x10ILi1EEEEENSt11conditionalIXeqsrT0_8vec_sizeLi1EENT_11result_typeEN4sycl3_V13vecISD_XsrSB_8vec_sizeEEEE4typeERSC_RSB_.exit_crit_edge88 ], [ %858, %._ZN6oneapi3mkl3rng6device8generateINS2_7uniformIfNS2_14uniform_method8standardEEENS2_13philox4x32x10ILi1EEEEENSt11conditionalIXeqsrT0_8vec_sizeLi1EENT_11result_typeEN4sycl3_V13vecISD_XsrSB_8vec_sizeEEEE4typeERSC_RSB_.exit_crit_edge89 ]
  %921 = sitofp i32 %920 to float		; visa id: 1356
  %922 = fmul reassoc nsz arcp contract float %546, %921, !spirv.Decorations !888
  %923 = fadd reassoc nsz arcp contract float %922, %544, !spirv.Decorations !888		; visa id: 1357
  br i1 %553, label %925, label %924, !stats.blockFrequency.digits !893, !stats.blockFrequency.scale !894		; visa id: 1358

924:                                              ; preds = %_ZN6oneapi3mkl3rng6device8generateINS2_7uniformIfNS2_14uniform_method8standardEEENS2_13philox4x32x10ILi1EEEEENSt11conditionalIXeqsrT0_8vec_sizeLi1EENT_11result_typeEN4sycl3_V13vecISD_XsrSB_8vec_sizeEEEE4typeERSC_RSB_.exit
; BB16 :
  %bf_cvt = call i16 @llvm.genx.GenISA.ftobf.i16.f32(float %923, i32 0)		; visa id: 1360
  br label %939, !stats.blockFrequency.digits !900, !stats.blockFrequency.scale !901		; visa id: 1361

925:                                              ; preds = %_ZN6oneapi3mkl3rng6device8generateINS2_7uniformIfNS2_14uniform_method8standardEEENS2_13philox4x32x10ILi1EEEEENSt11conditionalIXeqsrT0_8vec_sizeLi1EENT_11result_typeEN4sycl3_V13vecISD_XsrSB_8vec_sizeEEEE4typeERSC_RSB_.exit
; BB17 :
  %926 = fmul reassoc nsz arcp contract float %923, %550, !spirv.Decorations !888		; visa id: 1363
  %927 = fcmp olt float %926, 0.000000e+00		; visa id: 1364
  %928 = select i1 %927, float 0xBFDFFFFFE0000000, float 0x3FDFFFFFE0000000		; visa id: 1365
  %929 = fadd float %928, %926		; visa id: 1366
  %930 = call float @llvm.trunc.f32(float %929)		; visa id: 1367
  %931 = fptosi float %930 to i32		; visa id: 1368
  %932 = sitofp i32 %931 to float		; visa id: 1369
  %933 = fmul reassoc nsz arcp contract float %552, %932, !spirv.Decorations !888		; visa id: 1370
  %934 = fptosi float %933 to i32		; visa id: 1371
  %935 = sitofp i32 %934 to float		; visa id: 1372
  %936 = bitcast float %935 to i32
  %937 = lshr i32 %936, 16		; visa id: 1373
  %938 = trunc i32 %937 to i16		; visa id: 1374
  br label %939, !stats.blockFrequency.digits !898, !stats.blockFrequency.scale !899		; visa id: 1375

939:                                              ; preds = %924, %925
; BB18 :
  %940 = phi i16 [ %938, %925 ], [ %bf_cvt, %924 ]
  %941 = shl i64 %571, 1		; visa id: 1376
  %942 = add i64 %941, %565		; visa id: 1377
  %943 = inttoptr i64 %942 to i16 addrspace(1)*		; visa id: 1378
  store i16 %940, i16 addrspace(1)* %943, align 2		; visa id: 1378
  %944 = add i64 %571, %554		; visa id: 1380
  %945 = bitcast i64 %944 to <2 x i32>		; visa id: 1381
  %946 = extractelement <2 x i32> %945, i32 0		; visa id: 1385
  %947 = extractelement <2 x i32> %945, i32 1		; visa id: 1385
  %948 = icmp eq i32 %947, %5
  %949 = icmp ult i32 %946, %4		; visa id: 1385
  %950 = and i1 %948, %949		; visa id: 1386
  %951 = icmp ult i32 %947, %5
  %952 = or i1 %950, %951		; visa id: 1388
  br i1 %952, label %.._crit_edge74_crit_edge, label %._crit_edge49.loopexit, !stats.blockFrequency.digits !893, !stats.blockFrequency.scale !894		; visa id: 1390

._crit_edge49.loopexit:                           ; preds = %939
; BB:
  br label %._crit_edge49, !stats.blockFrequency.digits !880, !stats.blockFrequency.scale !887

.._crit_edge74_crit_edge:                         ; preds = %939
; BB:
  br label %._crit_edge74, !stats.blockFrequency.digits !906, !stats.blockFrequency.scale !894

._crit_edge49:                                    ; preds = %_ZN7cutlass9reference6device6detail17RandomUniformFuncINS_10bfloat16_tEEC2ERKNS5_6ParamsE.exit.._crit_edge49_crit_edge, %._crit_edge49.loopexit
; BB21 :
  call void @llvm.lifetime.end.p0i8(i64 88, i8* nonnull %23)		; visa id: 1392
  ret void, !stats.blockFrequency.digits !880, !stats.blockFrequency.scale !881		; visa id: 1392
}
