; ------------------------------------------------
; OCL_asmfad8e37da0145367_simd16_entry_0012.visa.ll
; LLVM major version: 16
; ------------------------------------------------
; Function Attrs: convergent nounwind
define spir_kernel void @_ZTSN7cutlass4fmha6kernel15XeFMHAFwdKernelINS1_16FMHAProblemShapeILb1EEENS0_10collective15FMHAFwdMainloopINS0_9XeDefaultILi2EEELb0ELb1ELb1EN4cute8TiledMMAINS9_8MMA_AtomIJNS9_10XE_DPAS_TTILi8EfNS_10bfloat16_tESD_fEEEEENS9_6LayoutINS9_5tupleIJNS9_1CILi16EEENSI_ILi1EEESK_EEENSH_IJSK_NSI_ILi0EEESM_EEEEEKNSH_IJNSG_INSH_IJNSI_ILi8EEESJ_NSI_ILi2EEEEEENSH_IJSK_SJ_SP_EEEEENSG_INSI_ILi32EEESK_EESV_EEEEESY_Li4ENS9_6TensorINS9_10ViewEngineINS9_8gmem_ptrIPSD_EEEENSG_INSH_IJiiiiEEENSH_IJiSK_iiEEEEEEES18_NSZ_IS14_NSG_IS15_NSH_IJSK_iiiEEEEEEES18_S1B_vvvvvEENS5_15FMHAFwdEpilogueIS1C_NSH_IJNSI_ILi256EEENSI_ILi128EEEEEENSZ_INS10_INS11_IPfEEEES17_EEvEENS1_29XeFHMAIndividualTileSchedulerEEE(%"class.std::__generated_tuple.8943"* byval(%"class.std::__generated_tuple.8943") align 8 %0, i8 addrspace(3)* noalias align 1 %1, <8 x i32> %r0, <3 x i32> %globalOffset, i16 %localIdX, i16 %localIdY, i16 %localIdZ, i8 addrspace(2)* %constBase, i8* %privateBase, i32 %const_reg_dword, i32 %const_reg_dword1, i32 %const_reg_dword2, i32 %const_reg_dword3, i64 %const_reg_qword, i32 %const_reg_dword4, i64 %const_reg_qword5, i32 %const_reg_dword6, i64 %const_reg_qword7, i32 %const_reg_dword8, i32 %const_reg_dword9, i64 %const_reg_qword10, i32 %const_reg_dword11, i32 %const_reg_dword12, i32 %const_reg_dword13, i8 %const_reg_byte, i8 %const_reg_byte14, i8 %const_reg_byte15, i8 %const_reg_byte16, i64 %const_reg_qword17, i32 %const_reg_dword18, i32 %const_reg_dword19, i32 %const_reg_dword20, i8 %const_reg_byte21, i8 %const_reg_byte22, i8 %const_reg_byte23, i8 %const_reg_byte24, i64 %const_reg_qword25, i32 %const_reg_dword26, i32 %const_reg_dword27, i32 %const_reg_dword28, i8 %const_reg_byte29, i8 %const_reg_byte30, i8 %const_reg_byte31, i8 %const_reg_byte32, i64 %const_reg_qword33, i32 %const_reg_dword34, i32 %const_reg_dword35, i32 %const_reg_dword36, i8 %const_reg_byte37, i8 %const_reg_byte38, i8 %const_reg_byte39, i8 %const_reg_byte40, i64 %const_reg_qword41, i32 %const_reg_dword42, i32 %const_reg_dword43, i32 %const_reg_dword44, i8 %const_reg_byte45, i8 %const_reg_byte46, i8 %const_reg_byte47, i8 %const_reg_byte48, i64 %const_reg_qword49, i32 %const_reg_dword50, i32 %const_reg_dword51, i32 %const_reg_dword52, i8 %const_reg_byte53, i8 %const_reg_byte54, i8 %const_reg_byte55, i8 %const_reg_byte56, float %const_reg_fp32, i64 %const_reg_qword57, i32 %const_reg_dword58, i64 %const_reg_qword59, i8 %const_reg_byte60, i8 %const_reg_byte61, i8 %const_reg_byte62, i8 %const_reg_byte63, i32 %const_reg_dword64, i32 %const_reg_dword65, i32 %const_reg_dword66, i32 %const_reg_dword67, i32 %const_reg_dword68, i32 %const_reg_dword69, i8 %const_reg_byte70, i8 %const_reg_byte71, i8 %const_reg_byte72, i8 %const_reg_byte73, i32 %bindlessOffset) #1 {
; BB0 :
  %3 = extractelement <8 x i32> %r0, i32 6		; visa id: 2
  %4 = extractelement <8 x i32> %r0, i32 7		; visa id: 2
  %5 = call { i32, i32 } @llvm.genx.GenISA.mul.pair(i32 %4, i32 0, i32 %const_reg_dword68, i32 0)
  %6 = extractvalue { i32, i32 } %5, 1		; visa id: 2
  %7 = lshr i32 %6, %const_reg_dword69		; visa id: 7
  %8 = icmp eq i32 %const_reg_dword67, 1
  %9 = select i1 %8, i32 %4, i32 %7		; visa id: 8
  %10 = zext i32 %9 to i64		; visa id: 10
  %11 = shl nuw nsw i64 %10, 2		; visa id: 11
  %12 = add i64 %11, %const_reg_qword		; visa id: 12
  %13 = inttoptr i64 %12 to <2 x i32> addrspace(4)*		; visa id: 13
  %14 = addrspacecast <2 x i32> addrspace(4)* %13 to <2 x i32> addrspace(1)*		; visa id: 13
  %15 = load <2 x i32>, <2 x i32> addrspace(1)* %14, align 4		; visa id: 14
  %16 = extractelement <2 x i32> %15, i32 1		; visa id: 15
  %17 = extractelement <2 x i32> %15, i32 0		; visa id: 15
  %18 = sub nsw i32 %16, %17, !spirv.Decorations !1203		; visa id: 15
  %19 = shl i32 %3, 8		; visa id: 16
  %20 = icmp ult i32 %19, %18		; visa id: 17
  br i1 %20, label %21, label %.._crit_edge_crit_edge, !stats.blockFrequency.digits !1205, !stats.blockFrequency.scale !1206		; visa id: 18

.._crit_edge_crit_edge:                           ; preds = %2
; BB:
  br label %._crit_edge, !stats.blockFrequency.digits !1205, !stats.blockFrequency.scale !1207

21:                                               ; preds = %2
; BB2 :
  %22 = add i64 %11, %const_reg_qword7		; visa id: 20
  %23 = inttoptr i64 %22 to <2 x i32> addrspace(4)*		; visa id: 21
  %24 = addrspacecast <2 x i32> addrspace(4)* %23 to <2 x i32> addrspace(1)*		; visa id: 21
  %25 = load <2 x i32>, <2 x i32> addrspace(1)* %24, align 4		; visa id: 22
  %26 = add i64 %11, %const_reg_qword5		; visa id: 23
  %27 = inttoptr i64 %26 to <2 x i32> addrspace(4)*		; visa id: 24
  %28 = addrspacecast <2 x i32> addrspace(4)* %27 to <2 x i32> addrspace(1)*		; visa id: 24
  %29 = load <2 x i32>, <2 x i32> addrspace(1)* %28, align 4		; visa id: 25
  %30 = extractelement <2 x i32> %25, i32 1		; visa id: 26
  %31 = extractelement <2 x i32> %25, i32 0		; visa id: 26
  %32 = sub nsw i32 %30, %31, !spirv.Decorations !1203		; visa id: 26
  %33 = extractelement <2 x i32> %29, i32 1		; visa id: 27
  %34 = extractelement <2 x i32> %29, i32 0		; visa id: 27
  %35 = sub nsw i32 %33, %34, !spirv.Decorations !1203		; visa id: 27
  %tobool.i = icmp eq i32 %const_reg_dword2, 0		; visa id: 28
  br i1 %tobool.i, label %if.then.i, label %if.end.i, !stats.blockFrequency.digits !1205, !stats.blockFrequency.scale !1207		; visa id: 29

if.then.i:                                        ; preds = %21
; BB3 :
  br label %precompiled_s32divrem_sp.exit, !stats.blockFrequency.digits !1208, !stats.blockFrequency.scale !1209		; visa id: 32

if.end.i:                                         ; preds = %21
; BB4 :
  %shr.i = ashr i32 %const_reg_dword2, 31		; visa id: 34
  %shr1.i = ashr i32 %const_reg_dword1, 31		; visa id: 35
  %add.i = add nsw i32 %shr.i, %const_reg_dword2		; visa id: 36
  %xor.i = xor i32 %add.i, %shr.i		; visa id: 37
  %add2.i = add nsw i32 %shr1.i, %const_reg_dword1		; visa id: 38
  %xor3.i = xor i32 %add2.i, %shr1.i		; visa id: 39
  %36 = call float @llvm.genx.GenISA.uitof.rtz.f32.i32(i32 %xor.i)		; visa id: 40
  %conv.i = fptoui float %36 to i32		; visa id: 42
  %sub.i = sub i32 %xor.i, %conv.i		; visa id: 43
  %37 = call float @llvm.genx.GenISA.uitof.rtz.f32.i32(i32 %xor3.i)		; visa id: 44
  %div.i = fdiv float 1.000000e+00, %36, !fpmath !1210		; visa id: 45
  %38 = call float @llvm.genx.GenISA.fma.rtz.f32.f32.f32.f32(float %div.i, float 0xBE98000000000000, float %div.i)		; visa id: 46
  %39 = call float @llvm.genx.GenISA.mul.rtz.f32.f32.f32(float %37, float %38)		; visa id: 47
  %conv6.i = fptoui float %37 to i32		; visa id: 48
  %sub7.i = sub i32 %xor3.i, %conv6.i		; visa id: 49
  %conv11.i = fptoui float %39 to i32		; visa id: 50
  %40 = call float @llvm.genx.GenISA.uitof.rtz.f32.i32(i32 %sub.i)		; visa id: 51
  %41 = call float @llvm.genx.GenISA.uitof.rtz.f32.i32(i32 %sub7.i)		; visa id: 52
  %42 = call float @llvm.genx.GenISA.uitof.rtz.f32.i32(i32 %conv11.i)		; visa id: 53
  %43 = fsub float 0.000000e+00, %36		; visa id: 54
  %44 = call float @llvm.genx.GenISA.fma.rtz.f32.f32.f32.f32(float %43, float %42, float %37)		; visa id: 55
  %45 = fsub float 0.000000e+00, %40		; visa id: 56
  %46 = call float @llvm.genx.GenISA.fma.rtz.f32.f32.f32.f32(float %45, float %42, float %41)		; visa id: 57
  %47 = call float @llvm.genx.GenISA.add.rtz.f32.f32.f32(float %44, float %46)		; visa id: 58
  %48 = call float @llvm.genx.GenISA.mul.rtz.f32.f32.f32(float %38, float %47)		; visa id: 59
  %conv19.i = fptoui float %48 to i32		; visa id: 61
  %add20.i = add i32 %conv19.i, %conv11.i		; visa id: 62
  %xor21.i = xor i32 %shr.i, %shr1.i		; visa id: 63
  %mul.i = mul i32 %add20.i, %xor.i		; visa id: 64
  %sub22.i = sub i32 %xor3.i, %mul.i		; visa id: 65
  %cmp.i = icmp uge i32 %sub22.i, %xor.i
  %49 = sext i1 %cmp.i to i32		; visa id: 66
  %50 = sub i32 0, %49
  %add24.i = add i32 %add20.i, %xor21.i
  %add29.i = add i32 %add24.i, %50		; visa id: 67
  %xor30.i = xor i32 %add29.i, %xor21.i		; visa id: 68
  br label %precompiled_s32divrem_sp.exit, !stats.blockFrequency.digits !1211, !stats.blockFrequency.scale !1212		; visa id: 69

precompiled_s32divrem_sp.exit:                    ; preds = %if.then.i, %if.end.i
; BB5 :
  %retval.0.i = phi i32 [ %xor30.i, %if.end.i ], [ -1, %if.then.i ]
  %51 = mul nsw i32 %9, %const_reg_dword67, !spirv.Decorations !1203		; visa id: 70
  %52 = sub nsw i32 %4, %51, !spirv.Decorations !1203		; visa id: 71
  %tobool.i7201 = icmp eq i32 %retval.0.i, 0		; visa id: 72
  br i1 %tobool.i7201, label %if.then.i7202, label %if.end.i7232, !stats.blockFrequency.digits !1205, !stats.blockFrequency.scale !1207		; visa id: 73

if.then.i7202:                                    ; preds = %precompiled_s32divrem_sp.exit
; BB6 :
  br label %precompiled_s32divrem_sp.exit7234, !stats.blockFrequency.digits !1208, !stats.blockFrequency.scale !1209		; visa id: 76

if.end.i7232:                                     ; preds = %precompiled_s32divrem_sp.exit
; BB7 :
  %shr.i7203 = ashr i32 %retval.0.i, 31		; visa id: 78
  %shr1.i7204 = ashr i32 %52, 31		; visa id: 79
  %add.i7205 = add nsw i32 %shr.i7203, %retval.0.i		; visa id: 80
  %xor.i7206 = xor i32 %add.i7205, %shr.i7203		; visa id: 81
  %add2.i7207 = add nsw i32 %shr1.i7204, %52		; visa id: 82
  %xor3.i7208 = xor i32 %add2.i7207, %shr1.i7204		; visa id: 83
  %53 = call float @llvm.genx.GenISA.uitof.rtz.f32.i32(i32 %xor.i7206)		; visa id: 84
  %conv.i7209 = fptoui float %53 to i32		; visa id: 86
  %sub.i7210 = sub i32 %xor.i7206, %conv.i7209		; visa id: 87
  %54 = call float @llvm.genx.GenISA.uitof.rtz.f32.i32(i32 %xor3.i7208)		; visa id: 88
  %div.i7213 = fdiv float 1.000000e+00, %53, !fpmath !1210		; visa id: 89
  %55 = call float @llvm.genx.GenISA.fma.rtz.f32.f32.f32.f32(float %div.i7213, float 0xBE98000000000000, float %div.i7213)		; visa id: 90
  %56 = call float @llvm.genx.GenISA.mul.rtz.f32.f32.f32(float %54, float %55)		; visa id: 91
  %conv6.i7211 = fptoui float %54 to i32		; visa id: 92
  %sub7.i7212 = sub i32 %xor3.i7208, %conv6.i7211		; visa id: 93
  %conv11.i7214 = fptoui float %56 to i32		; visa id: 94
  %57 = call float @llvm.genx.GenISA.uitof.rtz.f32.i32(i32 %sub.i7210)		; visa id: 95
  %58 = call float @llvm.genx.GenISA.uitof.rtz.f32.i32(i32 %sub7.i7212)		; visa id: 96
  %59 = call float @llvm.genx.GenISA.uitof.rtz.f32.i32(i32 %conv11.i7214)		; visa id: 97
  %60 = fsub float 0.000000e+00, %53		; visa id: 98
  %61 = call float @llvm.genx.GenISA.fma.rtz.f32.f32.f32.f32(float %60, float %59, float %54)		; visa id: 99
  %62 = fsub float 0.000000e+00, %57		; visa id: 100
  %63 = call float @llvm.genx.GenISA.fma.rtz.f32.f32.f32.f32(float %62, float %59, float %58)		; visa id: 101
  %64 = call float @llvm.genx.GenISA.add.rtz.f32.f32.f32(float %61, float %63)		; visa id: 102
  %65 = call float @llvm.genx.GenISA.mul.rtz.f32.f32.f32(float %55, float %64)		; visa id: 103
  %conv19.i7217 = fptoui float %65 to i32		; visa id: 105
  %add20.i7218 = add i32 %conv19.i7217, %conv11.i7214		; visa id: 106
  %xor21.i7219 = xor i32 %shr.i7203, %shr1.i7204		; visa id: 107
  %mul.i7220 = mul i32 %add20.i7218, %xor.i7206		; visa id: 108
  %sub22.i7221 = sub i32 %xor3.i7208, %mul.i7220		; visa id: 109
  %cmp.i7222 = icmp uge i32 %sub22.i7221, %xor.i7206
  %66 = sext i1 %cmp.i7222 to i32		; visa id: 110
  %67 = sub i32 0, %66
  %add24.i7229 = add i32 %add20.i7218, %xor21.i7219
  %add29.i7230 = add i32 %add24.i7229, %67		; visa id: 111
  %xor30.i7231 = xor i32 %add29.i7230, %xor21.i7219		; visa id: 112
  br label %precompiled_s32divrem_sp.exit7234, !stats.blockFrequency.digits !1211, !stats.blockFrequency.scale !1212		; visa id: 113

precompiled_s32divrem_sp.exit7234:                ; preds = %if.then.i7202, %if.end.i7232
; BB8 :
  %retval.0.i7233 = phi i32 [ %xor30.i7231, %if.end.i7232 ], [ -1, %if.then.i7202 ]
  %68 = add nsw i32 %35, %32, !spirv.Decorations !1203		; visa id: 114
  %is-neg = icmp slt i32 %68, -31		; visa id: 115
  br i1 %is-neg, label %cond-add, label %precompiled_s32divrem_sp.exit7234.cond-add-join_crit_edge, !stats.blockFrequency.digits !1205, !stats.blockFrequency.scale !1207		; visa id: 116

precompiled_s32divrem_sp.exit7234.cond-add-join_crit_edge: ; preds = %precompiled_s32divrem_sp.exit7234
; BB9 :
  %69 = add nsw i32 %68, 31, !spirv.Decorations !1203		; visa id: 118
  br label %cond-add-join, !stats.blockFrequency.digits !1205, !stats.blockFrequency.scale !1213		; visa id: 119

cond-add:                                         ; preds = %precompiled_s32divrem_sp.exit7234
; BB10 :
  %70 = add i32 %68, 62		; visa id: 121
  br label %cond-add-join, !stats.blockFrequency.digits !1205, !stats.blockFrequency.scale !1213		; visa id: 122

cond-add-join:                                    ; preds = %precompiled_s32divrem_sp.exit7234.cond-add-join_crit_edge, %cond-add
; BB11 :
  %71 = phi i32 [ %69, %precompiled_s32divrem_sp.exit7234.cond-add-join_crit_edge ], [ %70, %cond-add ]
  %72 = bitcast i64 %const_reg_qword7 to <2 x i32>		; visa id: 123
  %73 = extractelement <2 x i32> %72, i32 0		; visa id: 124
  %74 = extractelement <2 x i32> %72, i32 1		; visa id: 124
  %qot = ashr i32 %71, 5		; visa id: 124
  %75 = mul nsw i32 %const_reg_dword1, %const_reg_dword8, !spirv.Decorations !1203		; visa id: 125
  %76 = mul nsw i32 %75, %17, !spirv.Decorations !1203		; visa id: 126
  %77 = mul nsw i32 %const_reg_dword2, %const_reg_dword8, !spirv.Decorations !1203		; visa id: 127
  %78 = mul nsw i32 %77, %34, !spirv.Decorations !1203		; visa id: 128
  %79 = mul nsw i32 %const_reg_dword2, %const_reg_dword9, !spirv.Decorations !1203		; visa id: 129
  %80 = mul nsw i32 %79, %34, !spirv.Decorations !1203		; visa id: 130
  %81 = icmp eq i32 %74, 0
  %82 = icmp eq i32 %73, 0		; visa id: 131
  %83 = and i1 %81, %82		; visa id: 132
  %84 = mul nsw i32 %77, %31, !spirv.Decorations !1203		; visa id: 134
  %85 = mul nsw i32 %79, %31, !spirv.Decorations !1203		; visa id: 135
  %86 = sext i32 %76 to i64		; visa id: 136
  %87 = shl nsw i64 %86, 1		; visa id: 137
  %88 = add i64 %87, %const_reg_qword10		; visa id: 138
  %89 = sext i32 %78 to i64		; visa id: 139
  %90 = shl nsw i64 %89, 1		; visa id: 140
  %91 = add i64 %90, %const_reg_qword17		; visa id: 141
  %92 = sext i32 %80 to i64		; visa id: 142
  %93 = shl nsw i64 %92, 1		; visa id: 143
  %94 = add i64 %93, %const_reg_qword25		; visa id: 144
  %95 = sext i32 %84 to i64		; visa id: 145
  %.op = shl nsw i64 %95, 1		; visa id: 146
  %96 = bitcast i64 %.op to <2 x i32>		; visa id: 147
  %97 = extractelement <2 x i32> %96, i32 0		; visa id: 148
  %98 = extractelement <2 x i32> %96, i32 1		; visa id: 148
  %99 = select i1 %83, i32 0, i32 %97		; visa id: 148
  %100 = select i1 %83, i32 0, i32 %98		; visa id: 149
  %101 = insertelement <2 x i32> undef, i32 %99, i32 0		; visa id: 150
  %102 = insertelement <2 x i32> %101, i32 %100, i32 1		; visa id: 151
  %103 = bitcast <2 x i32> %102 to i64		; visa id: 152
  %104 = add i64 %103, %const_reg_qword41		; visa id: 154
  %105 = sext i32 %85 to i64		; visa id: 155
  %.op7583 = shl nsw i64 %105, 1		; visa id: 156
  %106 = bitcast i64 %.op7583 to <2 x i32>		; visa id: 157
  %107 = extractelement <2 x i32> %106, i32 0		; visa id: 158
  %108 = extractelement <2 x i32> %106, i32 1		; visa id: 158
  %109 = select i1 %83, i32 0, i32 %107		; visa id: 158
  %110 = select i1 %83, i32 0, i32 %108		; visa id: 159
  %111 = insertelement <2 x i32> undef, i32 %109, i32 0		; visa id: 160
  %112 = insertelement <2 x i32> %111, i32 %110, i32 1		; visa id: 161
  %113 = bitcast <2 x i32> %112 to i64		; visa id: 162
  %114 = add i64 %113, %const_reg_qword49		; visa id: 164
  %115 = mul nsw i32 %18, %const_reg_dword8, !spirv.Decorations !1203		; visa id: 165
  %116 = icmp slt i32 %const_reg_dword1, 2		; visa id: 166
  %117 = select i1 %116, i32 0, i32 %115		; visa id: 167
  %118 = mul nsw i32 %35, %const_reg_dword8, !spirv.Decorations !1203		; visa id: 168
  %119 = mul nsw i32 %35, %const_reg_dword9, !spirv.Decorations !1203		; visa id: 169
  %120 = icmp slt i32 %const_reg_dword2, 2		; visa id: 170
  %121 = select i1 %120, i32 0, i32 %119		; visa id: 171
  %122 = select i1 %120, i32 0, i32 %118		; visa id: 172
  %123 = mul nsw i32 %32, %const_reg_dword8, !spirv.Decorations !1203		; visa id: 173
  %124 = mul nsw i32 %32, %const_reg_dword9, !spirv.Decorations !1203		; visa id: 174
  %125 = select i1 %120, i32 0, i32 %124		; visa id: 175
  %126 = select i1 %120, i32 0, i32 %123		; visa id: 176
  %127 = mul nsw i32 %52, %117, !spirv.Decorations !1203		; visa id: 177
  %128 = sext i32 %127 to i64		; visa id: 178
  %129 = shl nsw i64 %128, 1		; visa id: 179
  %130 = add i64 %88, %129		; visa id: 180
  %131 = mul nsw i32 %retval.0.i7233, %122, !spirv.Decorations !1203		; visa id: 181
  %132 = sext i32 %131 to i64		; visa id: 182
  %133 = shl nsw i64 %132, 1		; visa id: 183
  %134 = add i64 %91, %133		; visa id: 184
  %135 = mul nsw i32 %retval.0.i7233, %121, !spirv.Decorations !1203		; visa id: 185
  %136 = sext i32 %135 to i64		; visa id: 186
  %137 = shl nsw i64 %136, 1		; visa id: 187
  %138 = add i64 %94, %137		; visa id: 188
  %139 = mul nsw i32 %retval.0.i7233, %126, !spirv.Decorations !1203		; visa id: 189
  %140 = sext i32 %139 to i64		; visa id: 190
  %141 = shl nsw i64 %140, 1		; visa id: 191
  %142 = add i64 %104, %141		; visa id: 192
  %143 = mul nsw i32 %retval.0.i7233, %125, !spirv.Decorations !1203		; visa id: 193
  %144 = sext i32 %143 to i64		; visa id: 194
  %145 = shl nsw i64 %144, 1		; visa id: 195
  %146 = add i64 %114, %145		; visa id: 196
  %is-neg7168 = icmp slt i32 %const_reg_dword8, -31		; visa id: 197
  br i1 %is-neg7168, label %cond-add7169, label %cond-add-join.cond-add-join7170_crit_edge, !stats.blockFrequency.digits !1205, !stats.blockFrequency.scale !1207		; visa id: 198

cond-add-join.cond-add-join7170_crit_edge:        ; preds = %cond-add-join
; BB12 :
  %147 = add nsw i32 %const_reg_dword8, 31, !spirv.Decorations !1203		; visa id: 200
  br label %cond-add-join7170, !stats.blockFrequency.digits !1205, !stats.blockFrequency.scale !1213		; visa id: 201

cond-add7169:                                     ; preds = %cond-add-join
; BB13 :
  %148 = add i32 %const_reg_dword8, 62		; visa id: 203
  br label %cond-add-join7170, !stats.blockFrequency.digits !1205, !stats.blockFrequency.scale !1213		; visa id: 204

cond-add-join7170:                                ; preds = %cond-add-join.cond-add-join7170_crit_edge, %cond-add7169
; BB14 :
  %149 = phi i32 [ %147, %cond-add-join.cond-add-join7170_crit_edge ], [ %148, %cond-add7169 ]
  %150 = extractelement <8 x i32> %r0, i32 1		; visa id: 205
  %qot7171 = ashr i32 %149, 5		; visa id: 205
  %151 = shl i32 %150, 7		; visa id: 206
  %152 = shl nsw i32 %const_reg_dword8, 1, !spirv.Decorations !1203		; visa id: 207
  %153 = add i32 %152, -1		; visa id: 208
  %154 = add i32 %18, -1		; visa id: 209
  %Block2D_AddrPayload = call i8 addrspace(4)* @llvm.genx.GenISA.LSC2DBlockCreateAddrPayload.p4i8(i64 %130, i32 %153, i32 %154, i32 %153, i32 0, i32 0, i32 16, i32 16, i32 2)		; visa id: 210
  %155 = add i32 %35, -1		; visa id: 217
  %Block2D_AddrPayload115 = call i8 addrspace(4)* @llvm.genx.GenISA.LSC2DBlockCreateAddrPayload.p4i8(i64 %134, i32 %153, i32 %155, i32 %153, i32 0, i32 0, i32 8, i32 16, i32 1)		; visa id: 218
  %156 = shl nsw i32 %const_reg_dword9, 1, !spirv.Decorations !1203		; visa id: 225
  %157 = add i32 %156, -1		; visa id: 226
  %Block2D_AddrPayload116 = call i8 addrspace(4)* @llvm.genx.GenISA.LSC2DBlockCreateAddrPayload.p4i8(i64 %138, i32 %157, i32 %155, i32 %157, i32 0, i32 0, i32 16, i32 16, i32 2)		; visa id: 227
  %158 = add i32 %32, -1		; visa id: 234
  %Block2D_AddrPayload117 = call i8 addrspace(4)* @llvm.genx.GenISA.LSC2DBlockCreateAddrPayload.p4i8(i64 %142, i32 %153, i32 %158, i32 %153, i32 0, i32 0, i32 8, i32 16, i32 1)		; visa id: 235
  %Block2D_AddrPayload118 = call i8 addrspace(4)* @llvm.genx.GenISA.LSC2DBlockCreateAddrPayload.p4i8(i64 %146, i32 %157, i32 %158, i32 %157, i32 0, i32 0, i32 16, i32 16, i32 2)		; visa id: 242
  %159 = zext i16 %localIdX to i32		; visa id: 249
  %160 = and i32 %159, 65520		; visa id: 250
  %161 = add i32 %19, %160		; visa id: 251
  %Block2D_AddrPayload119 = call i8 addrspace(4)* @llvm.genx.GenISA.LSC2DBlockCreateAddrPayload.p4i8(i64 %130, i32 %153, i32 %154, i32 %153, i32 0, i32 0, i32 32, i32 16, i32 1)		; visa id: 252
  %Block2D_AddrPayload120 = call i8 addrspace(4)* @llvm.genx.GenISA.LSC2DBlockCreateAddrPayload.p4i8(i64 %134, i32 %153, i32 %155, i32 %153, i32 0, i32 0, i32 32, i32 2, i32 1)		; visa id: 259
  %Block2D_AddrPayload121 = call i8 addrspace(4)* @llvm.genx.GenISA.LSC2DBlockCreateAddrPayload.p4i8(i64 %138, i32 %157, i32 %155, i32 %157, i32 0, i32 0, i32 32, i32 2, i32 1)		; visa id: 266
  %Block2D_AddrPayload122 = call i8 addrspace(4)* @llvm.genx.GenISA.LSC2DBlockCreateAddrPayload.p4i8(i64 %142, i32 %153, i32 %158, i32 %153, i32 0, i32 0, i32 32, i32 2, i32 1)		; visa id: 273
  %Block2D_AddrPayload123 = call i8 addrspace(4)* @llvm.genx.GenISA.LSC2DBlockCreateAddrPayload.p4i8(i64 %146, i32 %157, i32 %158, i32 %157, i32 0, i32 0, i32 32, i32 2, i32 1)		; visa id: 280
  %162 = lshr i32 %159, 3		; visa id: 287
  %163 = and i32 %162, 8190		; visa id: 288
  %is-neg7172 = icmp slt i32 %32, -31		; visa id: 289
  br i1 %is-neg7172, label %cond-add7173, label %cond-add-join7170.cond-add-join7174_crit_edge, !stats.blockFrequency.digits !1205, !stats.blockFrequency.scale !1207		; visa id: 290

cond-add-join7170.cond-add-join7174_crit_edge:    ; preds = %cond-add-join7170
; BB15 :
  %164 = add nsw i32 %32, 31, !spirv.Decorations !1203		; visa id: 292
  br label %cond-add-join7174, !stats.blockFrequency.digits !1205, !stats.blockFrequency.scale !1213		; visa id: 293

cond-add7173:                                     ; preds = %cond-add-join7170
; BB16 :
  %165 = add i32 %32, 62		; visa id: 295
  br label %cond-add-join7174, !stats.blockFrequency.digits !1205, !stats.blockFrequency.scale !1213		; visa id: 296

cond-add-join7174:                                ; preds = %cond-add-join7170.cond-add-join7174_crit_edge, %cond-add7173
; BB17 :
  %166 = phi i32 [ %164, %cond-add-join7170.cond-add-join7174_crit_edge ], [ %165, %cond-add7173 ]
  %167 = bitcast i64 %const_reg_qword59 to <2 x i32>		; visa id: 297
  %168 = extractelement <2 x i32> %167, i32 0		; visa id: 298
  %169 = extractelement <2 x i32> %167, i32 1		; visa id: 298
  %qot7175 = ashr i32 %166, 5		; visa id: 298
  %170 = icmp sgt i32 %const_reg_dword8, 0		; visa id: 299
  br i1 %170, label %.lr.ph259.preheader, label %cond-add-join7174..preheader_crit_edge, !stats.blockFrequency.digits !1205, !stats.blockFrequency.scale !1207		; visa id: 300

cond-add-join7174..preheader_crit_edge:           ; preds = %cond-add-join7174
; BB:
  br label %.preheader, !stats.blockFrequency.digits !1208, !stats.blockFrequency.scale !1209

.lr.ph259.preheader:                              ; preds = %cond-add-join7174
; BB19 :
  br label %.lr.ph259, !stats.blockFrequency.digits !1211, !stats.blockFrequency.scale !1212		; visa id: 303

.lr.ph259:                                        ; preds = %.lr.ph259..lr.ph259_crit_edge, %.lr.ph259.preheader
; BB20 :
  %171 = phi i32 [ %173, %.lr.ph259..lr.ph259_crit_edge ], [ 0, %.lr.ph259.preheader ]
  %172 = shl nsw i32 %171, 5, !spirv.Decorations !1203		; visa id: 304
  call void @llvm.genx.GenISA.LSC2DBlockSetAddrPayloadField.p4i8.i32(i8 addrspace(4)* %Block2D_AddrPayload119, i32 5, i32 %172, i1 false)		; visa id: 305
  call void @llvm.genx.GenISA.LSC2DBlockSetAddrPayloadField.p4i8.i32(i8 addrspace(4)* %Block2D_AddrPayload119, i32 6, i32 %161, i1 false)		; visa id: 306
  call void asm sideeffect "lsc_load_block2d.ugm.ca.ca (M1, 1)  %null:d$1.$2x$3nn flat[$0+(0,0)]", "rw.u,P,P,P"(i8 addrspace(4)* %Block2D_AddrPayload119, i32 16, i32 32, i32 16) #0		; visa id: 307
  %173 = add nuw nsw i32 %171, 1, !spirv.Decorations !1214		; visa id: 307
  %174 = icmp slt i32 %173, %qot7171		; visa id: 308
  br i1 %174, label %.lr.ph259..lr.ph259_crit_edge, label %.preheader236, !stats.blockFrequency.digits !1216, !stats.blockFrequency.scale !1217		; visa id: 309

.lr.ph259..lr.ph259_crit_edge:                    ; preds = %.lr.ph259
; BB:
  br label %.lr.ph259, !stats.blockFrequency.digits !1218, !stats.blockFrequency.scale !1217

.preheader236:                                    ; preds = %.lr.ph259
; BB22 :
  br i1 true, label %.lr.ph257, label %.preheader236..preheader_crit_edge, !stats.blockFrequency.digits !1211, !stats.blockFrequency.scale !1212		; visa id: 311

.preheader236..preheader_crit_edge:               ; preds = %.preheader236
; BB:
  br label %.preheader, !stats.blockFrequency.digits !1211, !stats.blockFrequency.scale !1209

.lr.ph257:                                        ; preds = %.preheader236
; BB24 :
  %175 = icmp eq i32 %169, 0
  %176 = icmp eq i32 %168, 0		; visa id: 314
  %177 = and i1 %175, %176		; visa id: 315
  %178 = sext i32 %9 to i64		; visa id: 317
  %179 = shl nsw i64 %178, 2		; visa id: 318
  %180 = add i64 %179, %const_reg_qword59		; visa id: 319
  %181 = inttoptr i64 %180 to i32 addrspace(4)*		; visa id: 320
  %182 = addrspacecast i32 addrspace(4)* %181 to i32 addrspace(1)*		; visa id: 320
  %is-neg7176 = icmp slt i32 %const_reg_dword58, 0		; visa id: 321
  br i1 %is-neg7176, label %cond-add7177, label %.lr.ph257.cond-add-join7178_crit_edge, !stats.blockFrequency.digits !1211, !stats.blockFrequency.scale !1209		; visa id: 322

.lr.ph257.cond-add-join7178_crit_edge:            ; preds = %.lr.ph257
; BB25 :
  br label %cond-add-join7178, !stats.blockFrequency.digits !1219, !stats.blockFrequency.scale !1220		; visa id: 325

cond-add7177:                                     ; preds = %.lr.ph257
; BB26 :
  %const_reg_dword587179 = add i32 %const_reg_dword58, 31		; visa id: 327
  br label %cond-add-join7178, !stats.blockFrequency.digits !1221, !stats.blockFrequency.scale !1220		; visa id: 329

cond-add-join7178:                                ; preds = %.lr.ph257.cond-add-join7178_crit_edge, %cond-add7177
; BB27 :
  %const_reg_dword587180 = phi i32 [ %const_reg_dword58, %.lr.ph257.cond-add-join7178_crit_edge ], [ %const_reg_dword587179, %cond-add7177 ]
  %qot7181 = ashr i32 %const_reg_dword587180, 5		; visa id: 330
  %183 = icmp sgt i32 %32, 0		; visa id: 331
  %184 = and i32 %166, -32		; visa id: 332
  %185 = sub i32 %163, %184		; visa id: 333
  %186 = icmp sgt i32 %32, 32		; visa id: 334
  %187 = sub i32 32, %184
  %188 = add nuw nsw i32 %163, %187		; visa id: 335
  %tobool.i7235 = icmp eq i32 %const_reg_dword58, 0		; visa id: 336
  %shr.i7237 = ashr i32 %const_reg_dword58, 31		; visa id: 337
  %shr1.i7238 = ashr i32 %32, 31		; visa id: 338
  %add.i7239 = add nsw i32 %shr.i7237, %const_reg_dword58		; visa id: 339
  %xor.i7240 = xor i32 %add.i7239, %shr.i7237		; visa id: 340
  %add2.i7241 = add nsw i32 %shr1.i7238, %32		; visa id: 341
  %xor3.i7242 = xor i32 %add2.i7241, %shr1.i7238		; visa id: 342
  %xor21.i7253 = xor i32 %shr1.i7238, %shr.i7237		; visa id: 343
  %tobool.i7331 = icmp ult i32 %const_reg_dword587180, 32		; visa id: 344
  %shr.i7333 = ashr i32 %const_reg_dword587180, 31		; visa id: 345
  %add.i7334 = add nsw i32 %shr.i7333, %qot7181		; visa id: 346
  %xor.i7335 = xor i32 %add.i7334, %shr.i7333		; visa id: 347
  br label %189, !stats.blockFrequency.digits !1211, !stats.blockFrequency.scale !1209		; visa id: 349

189:                                              ; preds = %._crit_edge7628, %cond-add-join7178
; BB28 :
  %190 = phi i32 [ 0, %cond-add-join7178 ], [ %288, %._crit_edge7628 ]
  %191 = shl nsw i32 %190, 5, !spirv.Decorations !1203		; visa id: 350
  br i1 %183, label %192, label %223, !stats.blockFrequency.digits !1222, !stats.blockFrequency.scale !1223		; visa id: 351

192:                                              ; preds = %189
; BB29 :
  br i1 %177, label %193, label %210, !stats.blockFrequency.digits !1224, !stats.blockFrequency.scale !1206		; visa id: 353

193:                                              ; preds = %192
; BB30 :
  br i1 %tobool.i7235, label %if.then.i7236, label %if.end.i7266, !stats.blockFrequency.digits !1224, !stats.blockFrequency.scale !1207		; visa id: 355

if.then.i7236:                                    ; preds = %193
; BB31 :
  br label %precompiled_s32divrem_sp.exit7268, !stats.blockFrequency.digits !1225, !stats.blockFrequency.scale !1213		; visa id: 358

if.end.i7266:                                     ; preds = %193
; BB32 :
  %194 = call float @llvm.genx.GenISA.uitof.rtz.f32.i32(i32 %xor.i7240)		; visa id: 360
  %conv.i7243 = fptoui float %194 to i32		; visa id: 362
  %sub.i7244 = sub i32 %xor.i7240, %conv.i7243		; visa id: 363
  %195 = call float @llvm.genx.GenISA.uitof.rtz.f32.i32(i32 %xor3.i7242)		; visa id: 364
  %div.i7247 = fdiv float 1.000000e+00, %194, !fpmath !1210		; visa id: 365
  %196 = call float @llvm.genx.GenISA.fma.rtz.f32.f32.f32.f32(float %div.i7247, float 0xBE98000000000000, float %div.i7247)		; visa id: 366
  %197 = call float @llvm.genx.GenISA.mul.rtz.f32.f32.f32(float %195, float %196)		; visa id: 367
  %conv6.i7245 = fptoui float %195 to i32		; visa id: 368
  %sub7.i7246 = sub i32 %xor3.i7242, %conv6.i7245		; visa id: 369
  %conv11.i7248 = fptoui float %197 to i32		; visa id: 370
  %198 = call float @llvm.genx.GenISA.uitof.rtz.f32.i32(i32 %sub.i7244)		; visa id: 371
  %199 = call float @llvm.genx.GenISA.uitof.rtz.f32.i32(i32 %sub7.i7246)		; visa id: 372
  %200 = call float @llvm.genx.GenISA.uitof.rtz.f32.i32(i32 %conv11.i7248)		; visa id: 373
  %201 = fsub float 0.000000e+00, %194		; visa id: 374
  %202 = call float @llvm.genx.GenISA.fma.rtz.f32.f32.f32.f32(float %201, float %200, float %195)		; visa id: 375
  %203 = fsub float 0.000000e+00, %198		; visa id: 376
  %204 = call float @llvm.genx.GenISA.fma.rtz.f32.f32.f32.f32(float %203, float %200, float %199)		; visa id: 377
  %205 = call float @llvm.genx.GenISA.add.rtz.f32.f32.f32(float %202, float %204)		; visa id: 378
  %206 = call float @llvm.genx.GenISA.mul.rtz.f32.f32.f32(float %196, float %205)		; visa id: 379
  %conv19.i7251 = fptoui float %206 to i32		; visa id: 381
  %add20.i7252 = add i32 %conv19.i7251, %conv11.i7248		; visa id: 382
  %mul.i7254 = mul i32 %add20.i7252, %xor.i7240		; visa id: 383
  %sub22.i7255 = sub i32 %xor3.i7242, %mul.i7254		; visa id: 384
  %cmp.i7256 = icmp uge i32 %sub22.i7255, %xor.i7240
  %207 = sext i1 %cmp.i7256 to i32		; visa id: 385
  %208 = sub i32 0, %207
  %add24.i7263 = add i32 %add20.i7252, %xor21.i7253
  %add29.i7264 = add i32 %add24.i7263, %208		; visa id: 386
  %xor30.i7265 = xor i32 %add29.i7264, %xor21.i7253		; visa id: 387
  br label %precompiled_s32divrem_sp.exit7268, !stats.blockFrequency.digits !1226, !stats.blockFrequency.scale !1207		; visa id: 388

precompiled_s32divrem_sp.exit7268:                ; preds = %if.then.i7236, %if.end.i7266
; BB33 :
  %retval.0.i7267 = phi i32 [ %xor30.i7265, %if.end.i7266 ], [ -1, %if.then.i7236 ]
  %209 = mul nsw i32 %9, %retval.0.i7267, !spirv.Decorations !1203		; visa id: 389
  br label %212, !stats.blockFrequency.digits !1224, !stats.blockFrequency.scale !1207		; visa id: 390

210:                                              ; preds = %192
; BB34 :
  %211 = load i32, i32 addrspace(1)* %182, align 4		; visa id: 392
  br label %212, !stats.blockFrequency.digits !1224, !stats.blockFrequency.scale !1207		; visa id: 393

212:                                              ; preds = %precompiled_s32divrem_sp.exit7268, %210
; BB35 :
  %213 = phi i32 [ %211, %210 ], [ %209, %precompiled_s32divrem_sp.exit7268 ]
  %214 = sext i32 %213 to i64		; visa id: 394
  %215 = shl nsw i64 %214, 2		; visa id: 395
  %216 = add i64 %215, %const_reg_qword57		; visa id: 396
  %217 = inttoptr i64 %216 to i32 addrspace(4)*		; visa id: 397
  %218 = addrspacecast i32 addrspace(4)* %217 to i32 addrspace(1)*		; visa id: 397
  %219 = load i32, i32 addrspace(1)* %218, align 4		; visa id: 398
  %220 = mul nsw i32 %219, %qot7181, !spirv.Decorations !1203		; visa id: 399
  %221 = shl nsw i32 %220, 5, !spirv.Decorations !1203		; visa id: 400
  %222 = add nsw i32 %163, %221, !spirv.Decorations !1203		; visa id: 401
  call void @llvm.genx.GenISA.LSC2DBlockSetAddrPayloadField.p4i8.i32(i8 addrspace(4)* %Block2D_AddrPayload122, i32 5, i32 %191, i1 false)		; visa id: 402
  call void @llvm.genx.GenISA.LSC2DBlockSetAddrPayloadField.p4i8.i32(i8 addrspace(4)* %Block2D_AddrPayload122, i32 6, i32 %222, i1 false)		; visa id: 403
  call void asm sideeffect "lsc_load_block2d.ugm.ca.ca (M1, 1)  %null:d$1.$2x$3nn flat[$0+(0,0)]", "rw.u,P,P,P"(i8 addrspace(4)* %Block2D_AddrPayload122, i32 16, i32 32, i32 2) #0		; visa id: 404
  br label %224, !stats.blockFrequency.digits !1224, !stats.blockFrequency.scale !1206		; visa id: 404

223:                                              ; preds = %189
; BB36 :
  call void @llvm.genx.GenISA.LSC2DBlockSetAddrPayloadField.p4i8.i32(i8 addrspace(4)* %Block2D_AddrPayload120, i32 5, i32 %191, i1 false)		; visa id: 406
  call void @llvm.genx.GenISA.LSC2DBlockSetAddrPayloadField.p4i8.i32(i8 addrspace(4)* %Block2D_AddrPayload120, i32 6, i32 %185, i1 false)		; visa id: 407
  call void asm sideeffect "lsc_load_block2d.ugm.ca.ca (M1, 1)  %null:d$1.$2x$3nn flat[$0+(0,0)]", "rw.u,P,P,P"(i8 addrspace(4)* %Block2D_AddrPayload120, i32 16, i32 32, i32 2) #0		; visa id: 408
  br label %224, !stats.blockFrequency.digits !1227, !stats.blockFrequency.scale !1206		; visa id: 408

224:                                              ; preds = %223, %212
; BB37 :
  br i1 %186, label %225, label %286, !stats.blockFrequency.digits !1222, !stats.blockFrequency.scale !1223		; visa id: 409

225:                                              ; preds = %224
; BB38 :
  br i1 %177, label %226, label %243, !stats.blockFrequency.digits !1222, !stats.blockFrequency.scale !1206		; visa id: 411

226:                                              ; preds = %225
; BB39 :
  br i1 %tobool.i7235, label %if.then.i7270, label %if.end.i7300, !stats.blockFrequency.digits !1228, !stats.blockFrequency.scale !1206		; visa id: 413

if.then.i7270:                                    ; preds = %226
; BB40 :
  br label %precompiled_s32divrem_sp.exit7302, !stats.blockFrequency.digits !1229, !stats.blockFrequency.scale !1213		; visa id: 416

if.end.i7300:                                     ; preds = %226
; BB41 :
  %227 = call float @llvm.genx.GenISA.uitof.rtz.f32.i32(i32 %xor.i7240)		; visa id: 418
  %conv.i7277 = fptoui float %227 to i32		; visa id: 420
  %sub.i7278 = sub i32 %xor.i7240, %conv.i7277		; visa id: 421
  %228 = call float @llvm.genx.GenISA.uitof.rtz.f32.i32(i32 %xor3.i7242)		; visa id: 422
  %div.i7281 = fdiv float 1.000000e+00, %227, !fpmath !1210		; visa id: 423
  %229 = call float @llvm.genx.GenISA.fma.rtz.f32.f32.f32.f32(float %div.i7281, float 0xBE98000000000000, float %div.i7281)		; visa id: 424
  %230 = call float @llvm.genx.GenISA.mul.rtz.f32.f32.f32(float %228, float %229)		; visa id: 425
  %conv6.i7279 = fptoui float %228 to i32		; visa id: 426
  %sub7.i7280 = sub i32 %xor3.i7242, %conv6.i7279		; visa id: 427
  %conv11.i7282 = fptoui float %230 to i32		; visa id: 428
  %231 = call float @llvm.genx.GenISA.uitof.rtz.f32.i32(i32 %sub.i7278)		; visa id: 429
  %232 = call float @llvm.genx.GenISA.uitof.rtz.f32.i32(i32 %sub7.i7280)		; visa id: 430
  %233 = call float @llvm.genx.GenISA.uitof.rtz.f32.i32(i32 %conv11.i7282)		; visa id: 431
  %234 = fsub float 0.000000e+00, %227		; visa id: 432
  %235 = call float @llvm.genx.GenISA.fma.rtz.f32.f32.f32.f32(float %234, float %233, float %228)		; visa id: 433
  %236 = fsub float 0.000000e+00, %231		; visa id: 434
  %237 = call float @llvm.genx.GenISA.fma.rtz.f32.f32.f32.f32(float %236, float %233, float %232)		; visa id: 435
  %238 = call float @llvm.genx.GenISA.add.rtz.f32.f32.f32(float %235, float %237)		; visa id: 436
  %239 = call float @llvm.genx.GenISA.mul.rtz.f32.f32.f32(float %229, float %238)		; visa id: 437
  %conv19.i7285 = fptoui float %239 to i32		; visa id: 439
  %add20.i7286 = add i32 %conv19.i7285, %conv11.i7282		; visa id: 440
  %mul.i7288 = mul i32 %add20.i7286, %xor.i7240		; visa id: 441
  %sub22.i7289 = sub i32 %xor3.i7242, %mul.i7288		; visa id: 442
  %cmp.i7290 = icmp uge i32 %sub22.i7289, %xor.i7240
  %240 = sext i1 %cmp.i7290 to i32		; visa id: 443
  %241 = sub i32 0, %240
  %add24.i7297 = add i32 %add20.i7286, %xor21.i7253
  %add29.i7298 = add i32 %add24.i7297, %241		; visa id: 444
  %xor30.i7299 = xor i32 %add29.i7298, %xor21.i7253		; visa id: 445
  br label %precompiled_s32divrem_sp.exit7302, !stats.blockFrequency.digits !1230, !stats.blockFrequency.scale !1213		; visa id: 446

precompiled_s32divrem_sp.exit7302:                ; preds = %if.then.i7270, %if.end.i7300
; BB42 :
  %retval.0.i7301 = phi i32 [ %xor30.i7299, %if.end.i7300 ], [ -1, %if.then.i7270 ]
  %242 = mul nsw i32 %9, %retval.0.i7301, !spirv.Decorations !1203		; visa id: 447
  br label %245, !stats.blockFrequency.digits !1228, !stats.blockFrequency.scale !1206		; visa id: 448

243:                                              ; preds = %225
; BB43 :
  %244 = load i32, i32 addrspace(1)* %182, align 4		; visa id: 450
  br label %245, !stats.blockFrequency.digits !1228, !stats.blockFrequency.scale !1206		; visa id: 451

245:                                              ; preds = %precompiled_s32divrem_sp.exit7302, %243
; BB44 :
  %246 = phi i32 [ %244, %243 ], [ %242, %precompiled_s32divrem_sp.exit7302 ]
  br i1 %tobool.i7235, label %if.then.i7304, label %if.end.i7328, !stats.blockFrequency.digits !1222, !stats.blockFrequency.scale !1206		; visa id: 452

if.then.i7304:                                    ; preds = %245
; BB45 :
  br label %precompiled_s32divrem_sp.exit7330, !stats.blockFrequency.digits !1231, !stats.blockFrequency.scale !1207		; visa id: 455

if.end.i7328:                                     ; preds = %245
; BB46 :
  %247 = call float @llvm.genx.GenISA.uitof.rtz.f32.i32(i32 %xor.i7240)		; visa id: 457
  %conv.i7308 = fptoui float %247 to i32		; visa id: 459
  %sub.i7309 = sub i32 %xor.i7240, %conv.i7308		; visa id: 460
  %248 = call float @llvm.genx.GenISA.uitof.rtz.f32.i32(i32 32)		; visa id: 461
  %div.i7312 = fdiv float 1.000000e+00, %247, !fpmath !1210		; visa id: 462
  %249 = call float @llvm.genx.GenISA.fma.rtz.f32.f32.f32.f32(float %div.i7312, float 0xBE98000000000000, float %div.i7312)		; visa id: 463
  %250 = call float @llvm.genx.GenISA.mul.rtz.f32.f32.f32(float %248, float %249)		; visa id: 464
  %conv6.i7310 = fptoui float %248 to i32		; visa id: 465
  %sub7.i7311 = sub i32 32, %conv6.i7310		; visa id: 466
  %conv11.i7313 = fptoui float %250 to i32		; visa id: 467
  %251 = call float @llvm.genx.GenISA.uitof.rtz.f32.i32(i32 %sub.i7309)		; visa id: 468
  %252 = call float @llvm.genx.GenISA.uitof.rtz.f32.i32(i32 %sub7.i7311)		; visa id: 469
  %253 = call float @llvm.genx.GenISA.uitof.rtz.f32.i32(i32 %conv11.i7313)		; visa id: 470
  %254 = fsub float 0.000000e+00, %247		; visa id: 471
  %255 = call float @llvm.genx.GenISA.fma.rtz.f32.f32.f32.f32(float %254, float %253, float %248)		; visa id: 472
  %256 = fsub float 0.000000e+00, %251		; visa id: 473
  %257 = call float @llvm.genx.GenISA.fma.rtz.f32.f32.f32.f32(float %256, float %253, float %252)		; visa id: 474
  %258 = call float @llvm.genx.GenISA.add.rtz.f32.f32.f32(float %255, float %257)		; visa id: 475
  %259 = call float @llvm.genx.GenISA.mul.rtz.f32.f32.f32(float %249, float %258)		; visa id: 476
  %conv19.i7316 = fptoui float %259 to i32		; visa id: 478
  %add20.i7317 = add i32 %conv19.i7316, %conv11.i7313		; visa id: 479
  %mul.i7318 = mul i32 %add20.i7317, %xor.i7240		; visa id: 480
  %sub22.i7319 = sub i32 32, %mul.i7318		; visa id: 481
  %cmp.i7320 = icmp uge i32 %sub22.i7319, %xor.i7240
  %260 = sext i1 %cmp.i7320 to i32		; visa id: 482
  %261 = sub i32 0, %260
  %add24.i7325 = add i32 %add20.i7317, %shr.i7237
  %add29.i7326 = add i32 %add24.i7325, %261		; visa id: 483
  %xor30.i7327 = xor i32 %add29.i7326, %shr.i7237		; visa id: 484
  br label %precompiled_s32divrem_sp.exit7330, !stats.blockFrequency.digits !1224, !stats.blockFrequency.scale !1207		; visa id: 485

precompiled_s32divrem_sp.exit7330:                ; preds = %if.then.i7304, %if.end.i7328
; BB47 :
  %retval.0.i7329 = phi i32 [ %xor30.i7327, %if.end.i7328 ], [ -1, %if.then.i7304 ]
  %262 = add nsw i32 %246, %retval.0.i7329, !spirv.Decorations !1203		; visa id: 486
  %263 = sext i32 %262 to i64		; visa id: 487
  %264 = shl nsw i64 %263, 2		; visa id: 488
  %265 = add i64 %264, %const_reg_qword57		; visa id: 489
  %266 = inttoptr i64 %265 to i32 addrspace(4)*		; visa id: 490
  %267 = addrspacecast i32 addrspace(4)* %266 to i32 addrspace(1)*		; visa id: 490
  %268 = load i32, i32 addrspace(1)* %267, align 4		; visa id: 491
  %269 = mul nsw i32 %268, %qot7181, !spirv.Decorations !1203		; visa id: 492
  br i1 %tobool.i7331, label %if.then.i7332, label %if.end.i7356, !stats.blockFrequency.digits !1222, !stats.blockFrequency.scale !1206		; visa id: 493

if.then.i7332:                                    ; preds = %precompiled_s32divrem_sp.exit7330
; BB48 :
  br label %precompiled_s32divrem_sp.exit7358, !stats.blockFrequency.digits !1228, !stats.blockFrequency.scale !1206		; visa id: 496

if.end.i7356:                                     ; preds = %precompiled_s32divrem_sp.exit7330
; BB49 :
  %270 = call float @llvm.genx.GenISA.uitof.rtz.f32.i32(i32 %xor.i7335)		; visa id: 498
  %conv.i7336 = fptoui float %270 to i32		; visa id: 500
  %sub.i7337 = sub i32 %xor.i7335, %conv.i7336		; visa id: 501
  %271 = call float @llvm.genx.GenISA.uitof.rtz.f32.i32(i32 1)		; visa id: 502
  %div.i7340 = fdiv float 1.000000e+00, %270, !fpmath !1210		; visa id: 503
  %272 = call float @llvm.genx.GenISA.fma.rtz.f32.f32.f32.f32(float %div.i7340, float 0xBE98000000000000, float %div.i7340)		; visa id: 504
  %273 = call float @llvm.genx.GenISA.mul.rtz.f32.f32.f32(float %271, float %272)		; visa id: 505
  %conv6.i7338 = fptoui float %271 to i32		; visa id: 506
  %sub7.i7339 = sub i32 1, %conv6.i7338		; visa id: 507
  %conv11.i7341 = fptoui float %273 to i32		; visa id: 508
  %274 = call float @llvm.genx.GenISA.uitof.rtz.f32.i32(i32 %sub.i7337)		; visa id: 509
  %275 = call float @llvm.genx.GenISA.uitof.rtz.f32.i32(i32 %sub7.i7339)		; visa id: 510
  %276 = call float @llvm.genx.GenISA.uitof.rtz.f32.i32(i32 %conv11.i7341)		; visa id: 511
  %277 = fsub float 0.000000e+00, %270		; visa id: 512
  %278 = call float @llvm.genx.GenISA.fma.rtz.f32.f32.f32.f32(float %277, float %276, float %271)		; visa id: 513
  %279 = fsub float 0.000000e+00, %274		; visa id: 514
  %280 = call float @llvm.genx.GenISA.fma.rtz.f32.f32.f32.f32(float %279, float %276, float %275)		; visa id: 515
  %281 = call float @llvm.genx.GenISA.add.rtz.f32.f32.f32(float %278, float %280)		; visa id: 516
  %282 = call float @llvm.genx.GenISA.mul.rtz.f32.f32.f32(float %272, float %281)		; visa id: 517
  %conv19.i7344 = fptoui float %282 to i32		; visa id: 519
  %add20.i7345 = add i32 %conv19.i7344, %conv11.i7341		; visa id: 520
  %mul.i7346 = mul i32 %add20.i7345, %xor.i7335		; visa id: 521
  %sub22.i7347 = sub i32 1, %mul.i7346		; visa id: 522
  %cmp.i7348.not = icmp ult i32 %sub22.i7347, %xor.i7335		; visa id: 523
  %and25.i7351 = select i1 %cmp.i7348.not, i32 0, i32 %xor.i7335		; visa id: 524
  %add27.i7352 = sub i32 %sub22.i7347, %and25.i7351		; visa id: 525
  br label %precompiled_s32divrem_sp.exit7358, !stats.blockFrequency.digits !1228, !stats.blockFrequency.scale !1206		; visa id: 526

precompiled_s32divrem_sp.exit7358:                ; preds = %if.then.i7332, %if.end.i7356
; BB50 :
  %Remainder7192.0 = phi i32 [ -1, %if.then.i7332 ], [ %add27.i7352, %if.end.i7356 ]
  %283 = add nsw i32 %269, %Remainder7192.0, !spirv.Decorations !1203		; visa id: 527
  %284 = shl nsw i32 %283, 5, !spirv.Decorations !1203		; visa id: 528
  %285 = add nsw i32 %163, %284, !spirv.Decorations !1203		; visa id: 529
  call void @llvm.genx.GenISA.LSC2DBlockSetAddrPayloadField.p4i8.i32(i8 addrspace(4)* %Block2D_AddrPayload122, i32 5, i32 %191, i1 false)		; visa id: 530
  call void @llvm.genx.GenISA.LSC2DBlockSetAddrPayloadField.p4i8.i32(i8 addrspace(4)* %Block2D_AddrPayload122, i32 6, i32 %285, i1 false)		; visa id: 531
  call void asm sideeffect "lsc_load_block2d.ugm.ca.ca (M1, 1)  %null:d$1.$2x$3nn flat[$0+(0,0)]", "rw.u,P,P,P"(i8 addrspace(4)* %Block2D_AddrPayload122, i32 16, i32 32, i32 2) #0		; visa id: 532
  br label %287, !stats.blockFrequency.digits !1222, !stats.blockFrequency.scale !1206		; visa id: 532

286:                                              ; preds = %224
; BB51 :
  call void @llvm.genx.GenISA.LSC2DBlockSetAddrPayloadField.p4i8.i32(i8 addrspace(4)* %Block2D_AddrPayload120, i32 5, i32 %191, i1 false)		; visa id: 534
  call void @llvm.genx.GenISA.LSC2DBlockSetAddrPayloadField.p4i8.i32(i8 addrspace(4)* %Block2D_AddrPayload120, i32 6, i32 %188, i1 false)		; visa id: 535
  call void asm sideeffect "lsc_load_block2d.ugm.ca.ca (M1, 1)  %null:d$1.$2x$3nn flat[$0+(0,0)]", "rw.u,P,P,P"(i8 addrspace(4)* %Block2D_AddrPayload120, i32 16, i32 32, i32 2) #0		; visa id: 536
  br label %287, !stats.blockFrequency.digits !1222, !stats.blockFrequency.scale !1206		; visa id: 536

287:                                              ; preds = %precompiled_s32divrem_sp.exit7358, %286
; BB52 :
  %288 = add nuw nsw i32 %190, 1, !spirv.Decorations !1214		; visa id: 537
  %289 = icmp slt i32 %288, %qot7171		; visa id: 538
  br i1 %289, label %._crit_edge7628, label %.preheader.loopexit, !stats.blockFrequency.digits !1222, !stats.blockFrequency.scale !1223		; visa id: 539

.preheader.loopexit:                              ; preds = %287
; BB:
  br label %.preheader, !stats.blockFrequency.digits !1211, !stats.blockFrequency.scale !1209

._crit_edge7628:                                  ; preds = %287
; BB:
  br label %189, !stats.blockFrequency.digits !1218, !stats.blockFrequency.scale !1223

.preheader:                                       ; preds = %.preheader236..preheader_crit_edge, %cond-add-join7174..preheader_crit_edge, %.preheader.loopexit
; BB55 :
  %290 = mul nsw i32 %const_reg_dword1, %const_reg_dword9, !spirv.Decorations !1203		; visa id: 541
  %291 = mul nsw i32 %290, %17, !spirv.Decorations !1203		; visa id: 542
  %292 = mul nsw i32 %18, %const_reg_dword9, !spirv.Decorations !1203		; visa id: 543
  %293 = sext i32 %291 to i64		; visa id: 544
  %294 = shl nsw i64 %293, 2		; visa id: 545
  %295 = add i64 %294, %const_reg_qword33		; visa id: 546
  %296 = select i1 %116, i32 0, i32 %292		; visa id: 547
  %297 = icmp sgt i32 %32, 0		; visa id: 548
  br i1 %297, label %.lr.ph253, label %.preheader.._crit_edge254_crit_edge, !stats.blockFrequency.digits !1205, !stats.blockFrequency.scale !1207		; visa id: 549

.preheader.._crit_edge254_crit_edge:              ; preds = %.preheader
; BB56 :
  br label %._crit_edge254, !stats.blockFrequency.digits !1208, !stats.blockFrequency.scale !1209		; visa id: 681

.lr.ph253:                                        ; preds = %.preheader
; BB57 :
  %298 = icmp eq i32 %169, 0
  %299 = icmp eq i32 %168, 0		; visa id: 683
  %300 = and i1 %298, %299		; visa id: 684
  %301 = sext i32 %9 to i64		; visa id: 686
  %302 = shl nsw i64 %301, 2		; visa id: 687
  %303 = add i64 %302, %const_reg_qword59		; visa id: 688
  %304 = inttoptr i64 %303 to i32 addrspace(4)*		; visa id: 689
  %305 = addrspacecast i32 addrspace(4)* %304 to i32 addrspace(1)*		; visa id: 689
  %is-neg7182 = icmp slt i32 %const_reg_dword58, 0		; visa id: 690
  br i1 %is-neg7182, label %cond-add7183, label %.lr.ph253.cond-add-join7184_crit_edge, !stats.blockFrequency.digits !1211, !stats.blockFrequency.scale !1212		; visa id: 691

.lr.ph253.cond-add-join7184_crit_edge:            ; preds = %.lr.ph253
; BB58 :
  br label %cond-add-join7184, !stats.blockFrequency.digits !1219, !stats.blockFrequency.scale !1209		; visa id: 694

cond-add7183:                                     ; preds = %.lr.ph253
; BB59 :
  %const_reg_dword587185 = add i32 %const_reg_dword58, 31		; visa id: 696
  br label %cond-add-join7184, !stats.blockFrequency.digits !1232, !stats.blockFrequency.scale !1209		; visa id: 697

cond-add-join7184:                                ; preds = %.lr.ph253.cond-add-join7184_crit_edge, %cond-add7183
; BB60 :
  %const_reg_dword587186 = phi i32 [ %const_reg_dword58, %.lr.ph253.cond-add-join7184_crit_edge ], [ %const_reg_dword587185, %cond-add7183 ]
  %qot7187 = ashr i32 %const_reg_dword587186, 5		; visa id: 698
  %smax276 = call i32 @llvm.smax.i32(i32 %qot7171, i32 1)		; visa id: 699
  %xtraiter277 = and i32 %smax276, 1
  %306 = icmp slt i32 %const_reg_dword8, 33		; visa id: 700
  %unroll_iter280 = and i32 %smax276, 2147483646		; visa id: 701
  %lcmp.mod279.not = icmp eq i32 %xtraiter277, 0		; visa id: 702
  %307 = and i32 %151, 268435328		; visa id: 704
  %308 = or i32 %307, 32		; visa id: 705
  %309 = or i32 %307, 64		; visa id: 706
  %310 = or i32 %307, 96		; visa id: 707
  %tobool.i7359 = icmp eq i32 %const_reg_dword58, 0		; visa id: 708
  %shr.i7361 = ashr i32 %const_reg_dword58, 31		; visa id: 709
  %shr1.i7362 = ashr i32 %32, 31		; visa id: 710
  %add.i7363 = add nsw i32 %shr.i7361, %const_reg_dword58		; visa id: 711
  %xor.i7364 = xor i32 %add.i7363, %shr.i7361		; visa id: 712
  %add2.i7365 = add nsw i32 %shr1.i7362, %32		; visa id: 713
  %xor3.i7366 = xor i32 %add2.i7365, %shr1.i7362		; visa id: 714
  %xor21.i7377 = xor i32 %shr1.i7362, %shr.i7361		; visa id: 715
  %tobool.i7427 = icmp ult i32 %const_reg_dword587186, 32		; visa id: 716
  %shr.i7429 = ashr i32 %const_reg_dword587186, 31		; visa id: 717
  %add.i7431 = add nsw i32 %shr.i7429, %qot7187		; visa id: 718
  %xor.i7432 = xor i32 %add.i7431, %shr.i7429		; visa id: 719
  br label %311, !stats.blockFrequency.digits !1211, !stats.blockFrequency.scale !1212		; visa id: 851

311:                                              ; preds = %_ZZN7cutlass4fmha10collective15FMHAFwdMainloopINS0_9XeDefaultILi2EEELb0ELb1ELb1EN4cute8TiledMMAINS5_8MMA_AtomIJNS5_10XE_DPAS_TTILi8EfNS_10bfloat16_tES9_fEEEEENS5_6LayoutINS5_5tupleIJNS5_1CILi16EEENSE_ILi1EEESG_EEENSD_IJSG_NSE_ILi0EEESI_EEEEEKNSD_IJNSC_INSD_IJNSE_ILi8EEESF_NSE_ILi2EEEEEENSD_IJSG_SF_SL_EEEEENSC_INSE_ILi32EEESG_EESR_EEEEESU_Li4ENS5_6TensorINS5_10ViewEngineINS5_8gmem_ptrIPS9_EEEENSC_INSD_IJiiiiEEENSD_IJiSG_iiEEEEEEES14_NSV_IS10_NSC_IS11_NSD_IJSG_iiiEEEEEEES14_S17_vvvvvEclINSD_IJjjEEEEEvRKNSV_IS10_NSC_INSD_IJiiEEENSD_IJiSG_EEEEEEES1G_RKNSV_IS10_NSC_IS1B_NSD_IJSG_iEEEEEEERNS5_14SubgroupTensorINS5_11ArrayEngineIfLm128EEENSC_INSD_IJSL_SM_SM_NSE_ILi4EEEEEENSD_IJSG_SL_SF_SQ_EEEEENSC_INSD_IJSF_NSD_IJSL_NSD_IJSM_SM_EEES1P_EEEEEENSD_IJNS5_11ScaledBasisISG_JLi1EEEENSD_IJNS1W_ISG_JLi0EEEENSD_IJNS1W_ISL_JLi0EEEENS1W_ISF_JLi1EEEEEEENS1W_ISQ_JLi1EEEEEEEEEEEEEERNSV_INS1N_IfLm1EEENSC_ISG_SI_EEEES2B_T_iiiiiiiiiS1G_S1L_ENKUlS2C_iRT0_RT1_RT2_RT3_RT4_RT5_E_clISt17integral_constantIbLb1EENS5_9TiledCopyINS5_9Copy_Atom._crit_edge, %cond-add-join7184
; BB61 :
  %.sroa.724.1 = phi <8 x float> [ zeroinitializer, %cond-add-join7184 ], [ %1609, %_ZZN7cutlass4fmha10collective15FMHAFwdMainloopINS0_9XeDefaultILi2EEELb0ELb1ELb1EN4cute8TiledMMAINS5_8MMA_AtomIJNS5_10XE_DPAS_TTILi8EfNS_10bfloat16_tES9_fEEEEENS5_6LayoutINS5_5tupleIJNS5_1CILi16EEENSE_ILi1EEESG_EEENSD_IJSG_NSE_ILi0EEESI_EEEEEKNSD_IJNSC_INSD_IJNSE_ILi8EEESF_NSE_ILi2EEEEEENSD_IJSG_SF_SL_EEEEENSC_INSE_ILi32EEESG_EESR_EEEEESU_Li4ENS5_6TensorINS5_10ViewEngineINS5_8gmem_ptrIPS9_EEEENSC_INSD_IJiiiiEEENSD_IJiSG_iiEEEEEEES14_NSV_IS10_NSC_IS11_NSD_IJSG_iiiEEEEEEES14_S17_vvvvvEclINSD_IJjjEEEEEvRKNSV_IS10_NSC_INSD_IJiiEEENSD_IJiSG_EEEEEEES1G_RKNSV_IS10_NSC_IS1B_NSD_IJSG_iEEEEEEERNS5_14SubgroupTensorINS5_11ArrayEngineIfLm128EEENSC_INSD_IJSL_SM_SM_NSE_ILi4EEEEEENSD_IJSG_SL_SF_SQ_EEEEENSC_INSD_IJSF_NSD_IJSL_NSD_IJSM_SM_EEES1P_EEEEEENSD_IJNS5_11ScaledBasisISG_JLi1EEEENSD_IJNS1W_ISG_JLi0EEEENSD_IJNS1W_ISL_JLi0EEEENS1W_ISF_JLi1EEEEEEENS1W_ISQ_JLi1EEEEEEEEEEEEEERNSV_INS1N_IfLm1EEENSC_ISG_SI_EEEES2B_T_iiiiiiiiiS1G_S1L_ENKUlS2C_iRT0_RT1_RT2_RT3_RT4_RT5_E_clISt17integral_constantIbLb1EENS5_9TiledCopyINS5_9Copy_Atom._crit_edge ]
  %.sroa.676.1 = phi <8 x float> [ zeroinitializer, %cond-add-join7184 ], [ %1610, %_ZZN7cutlass4fmha10collective15FMHAFwdMainloopINS0_9XeDefaultILi2EEELb0ELb1ELb1EN4cute8TiledMMAINS5_8MMA_AtomIJNS5_10XE_DPAS_TTILi8EfNS_10bfloat16_tES9_fEEEEENS5_6LayoutINS5_5tupleIJNS5_1CILi16EEENSE_ILi1EEESG_EEENSD_IJSG_NSE_ILi0EEESI_EEEEEKNSD_IJNSC_INSD_IJNSE_ILi8EEESF_NSE_ILi2EEEEEENSD_IJSG_SF_SL_EEEEENSC_INSE_ILi32EEESG_EESR_EEEEESU_Li4ENS5_6TensorINS5_10ViewEngineINS5_8gmem_ptrIPS9_EEEENSC_INSD_IJiiiiEEENSD_IJiSG_iiEEEEEEES14_NSV_IS10_NSC_IS11_NSD_IJSG_iiiEEEEEEES14_S17_vvvvvEclINSD_IJjjEEEEEvRKNSV_IS10_NSC_INSD_IJiiEEENSD_IJiSG_EEEEEEES1G_RKNSV_IS10_NSC_IS1B_NSD_IJSG_iEEEEEEERNS5_14SubgroupTensorINS5_11ArrayEngineIfLm128EEENSC_INSD_IJSL_SM_SM_NSE_ILi4EEEEEENSD_IJSG_SL_SF_SQ_EEEEENSC_INSD_IJSF_NSD_IJSL_NSD_IJSM_SM_EEES1P_EEEEEENSD_IJNS5_11ScaledBasisISG_JLi1EEEENSD_IJNS1W_ISG_JLi0EEEENSD_IJNS1W_ISL_JLi0EEEENS1W_ISF_JLi1EEEEEEENS1W_ISQ_JLi1EEEEEEEEEEEEEERNSV_INS1N_IfLm1EEENSC_ISG_SI_EEEES2B_T_iiiiiiiiiS1G_S1L_ENKUlS2C_iRT0_RT1_RT2_RT3_RT4_RT5_E_clISt17integral_constantIbLb1EENS5_9TiledCopyINS5_9Copy_Atom._crit_edge ]
  %.sroa.628.1 = phi <8 x float> [ zeroinitializer, %cond-add-join7184 ], [ %1608, %_ZZN7cutlass4fmha10collective15FMHAFwdMainloopINS0_9XeDefaultILi2EEELb0ELb1ELb1EN4cute8TiledMMAINS5_8MMA_AtomIJNS5_10XE_DPAS_TTILi8EfNS_10bfloat16_tES9_fEEEEENS5_6LayoutINS5_5tupleIJNS5_1CILi16EEENSE_ILi1EEESG_EEENSD_IJSG_NSE_ILi0EEESI_EEEEEKNSD_IJNSC_INSD_IJNSE_ILi8EEESF_NSE_ILi2EEEEEENSD_IJSG_SF_SL_EEEEENSC_INSE_ILi32EEESG_EESR_EEEEESU_Li4ENS5_6TensorINS5_10ViewEngineINS5_8gmem_ptrIPS9_EEEENSC_INSD_IJiiiiEEENSD_IJiSG_iiEEEEEEES14_NSV_IS10_NSC_IS11_NSD_IJSG_iiiEEEEEEES14_S17_vvvvvEclINSD_IJjjEEEEEvRKNSV_IS10_NSC_INSD_IJiiEEENSD_IJiSG_EEEEEEES1G_RKNSV_IS10_NSC_IS1B_NSD_IJSG_iEEEEEEERNS5_14SubgroupTensorINS5_11ArrayEngineIfLm128EEENSC_INSD_IJSL_SM_SM_NSE_ILi4EEEEEENSD_IJSG_SL_SF_SQ_EEEEENSC_INSD_IJSF_NSD_IJSL_NSD_IJSM_SM_EEES1P_EEEEEENSD_IJNS5_11ScaledBasisISG_JLi1EEEENSD_IJNS1W_ISG_JLi0EEEENSD_IJNS1W_ISL_JLi0EEEENS1W_ISF_JLi1EEEEEEENS1W_ISQ_JLi1EEEEEEEEEEEEEERNSV_INS1N_IfLm1EEENSC_ISG_SI_EEEES2B_T_iiiiiiiiiS1G_S1L_ENKUlS2C_iRT0_RT1_RT2_RT3_RT4_RT5_E_clISt17integral_constantIbLb1EENS5_9TiledCopyINS5_9Copy_Atom._crit_edge ]
  %.sroa.580.1 = phi <8 x float> [ zeroinitializer, %cond-add-join7184 ], [ %1607, %_ZZN7cutlass4fmha10collective15FMHAFwdMainloopINS0_9XeDefaultILi2EEELb0ELb1ELb1EN4cute8TiledMMAINS5_8MMA_AtomIJNS5_10XE_DPAS_TTILi8EfNS_10bfloat16_tES9_fEEEEENS5_6LayoutINS5_5tupleIJNS5_1CILi16EEENSE_ILi1EEESG_EEENSD_IJSG_NSE_ILi0EEESI_EEEEEKNSD_IJNSC_INSD_IJNSE_ILi8EEESF_NSE_ILi2EEEEEENSD_IJSG_SF_SL_EEEEENSC_INSE_ILi32EEESG_EESR_EEEEESU_Li4ENS5_6TensorINS5_10ViewEngineINS5_8gmem_ptrIPS9_EEEENSC_INSD_IJiiiiEEENSD_IJiSG_iiEEEEEEES14_NSV_IS10_NSC_IS11_NSD_IJSG_iiiEEEEEEES14_S17_vvvvvEclINSD_IJjjEEEEEvRKNSV_IS10_NSC_INSD_IJiiEEENSD_IJiSG_EEEEEEES1G_RKNSV_IS10_NSC_IS1B_NSD_IJSG_iEEEEEEERNS5_14SubgroupTensorINS5_11ArrayEngineIfLm128EEENSC_INSD_IJSL_SM_SM_NSE_ILi4EEEEEENSD_IJSG_SL_SF_SQ_EEEEENSC_INSD_IJSF_NSD_IJSL_NSD_IJSM_SM_EEES1P_EEEEEENSD_IJNS5_11ScaledBasisISG_JLi1EEEENSD_IJNS1W_ISG_JLi0EEEENSD_IJNS1W_ISL_JLi0EEEENS1W_ISF_JLi1EEEEEEENS1W_ISQ_JLi1EEEEEEEEEEEEEERNSV_INS1N_IfLm1EEENSC_ISG_SI_EEEES2B_T_iiiiiiiiiS1G_S1L_ENKUlS2C_iRT0_RT1_RT2_RT3_RT4_RT5_E_clISt17integral_constantIbLb1EENS5_9TiledCopyINS5_9Copy_Atom._crit_edge ]
  %.sroa.532.1 = phi <8 x float> [ zeroinitializer, %cond-add-join7184 ], [ %1471, %_ZZN7cutlass4fmha10collective15FMHAFwdMainloopINS0_9XeDefaultILi2EEELb0ELb1ELb1EN4cute8TiledMMAINS5_8MMA_AtomIJNS5_10XE_DPAS_TTILi8EfNS_10bfloat16_tES9_fEEEEENS5_6LayoutINS5_5tupleIJNS5_1CILi16EEENSE_ILi1EEESG_EEENSD_IJSG_NSE_ILi0EEESI_EEEEEKNSD_IJNSC_INSD_IJNSE_ILi8EEESF_NSE_ILi2EEEEEENSD_IJSG_SF_SL_EEEEENSC_INSE_ILi32EEESG_EESR_EEEEESU_Li4ENS5_6TensorINS5_10ViewEngineINS5_8gmem_ptrIPS9_EEEENSC_INSD_IJiiiiEEENSD_IJiSG_iiEEEEEEES14_NSV_IS10_NSC_IS11_NSD_IJSG_iiiEEEEEEES14_S17_vvvvvEclINSD_IJjjEEEEEvRKNSV_IS10_NSC_INSD_IJiiEEENSD_IJiSG_EEEEEEES1G_RKNSV_IS10_NSC_IS1B_NSD_IJSG_iEEEEEEERNS5_14SubgroupTensorINS5_11ArrayEngineIfLm128EEENSC_INSD_IJSL_SM_SM_NSE_ILi4EEEEEENSD_IJSG_SL_SF_SQ_EEEEENSC_INSD_IJSF_NSD_IJSL_NSD_IJSM_SM_EEES1P_EEEEEENSD_IJNS5_11ScaledBasisISG_JLi1EEEENSD_IJNS1W_ISG_JLi0EEEENSD_IJNS1W_ISL_JLi0EEEENS1W_ISF_JLi1EEEEEEENS1W_ISQ_JLi1EEEEEEEEEEEEEERNSV_INS1N_IfLm1EEENSC_ISG_SI_EEEES2B_T_iiiiiiiiiS1G_S1L_ENKUlS2C_iRT0_RT1_RT2_RT3_RT4_RT5_E_clISt17integral_constantIbLb1EENS5_9TiledCopyINS5_9Copy_Atom._crit_edge ]
  %.sroa.484.1 = phi <8 x float> [ zeroinitializer, %cond-add-join7184 ], [ %1472, %_ZZN7cutlass4fmha10collective15FMHAFwdMainloopINS0_9XeDefaultILi2EEELb0ELb1ELb1EN4cute8TiledMMAINS5_8MMA_AtomIJNS5_10XE_DPAS_TTILi8EfNS_10bfloat16_tES9_fEEEEENS5_6LayoutINS5_5tupleIJNS5_1CILi16EEENSE_ILi1EEESG_EEENSD_IJSG_NSE_ILi0EEESI_EEEEEKNSD_IJNSC_INSD_IJNSE_ILi8EEESF_NSE_ILi2EEEEEENSD_IJSG_SF_SL_EEEEENSC_INSE_ILi32EEESG_EESR_EEEEESU_Li4ENS5_6TensorINS5_10ViewEngineINS5_8gmem_ptrIPS9_EEEENSC_INSD_IJiiiiEEENSD_IJiSG_iiEEEEEEES14_NSV_IS10_NSC_IS11_NSD_IJSG_iiiEEEEEEES14_S17_vvvvvEclINSD_IJjjEEEEEvRKNSV_IS10_NSC_INSD_IJiiEEENSD_IJiSG_EEEEEEES1G_RKNSV_IS10_NSC_IS1B_NSD_IJSG_iEEEEEEERNS5_14SubgroupTensorINS5_11ArrayEngineIfLm128EEENSC_INSD_IJSL_SM_SM_NSE_ILi4EEEEEENSD_IJSG_SL_SF_SQ_EEEEENSC_INSD_IJSF_NSD_IJSL_NSD_IJSM_SM_EEES1P_EEEEEENSD_IJNS5_11ScaledBasisISG_JLi1EEEENSD_IJNS1W_ISG_JLi0EEEENSD_IJNS1W_ISL_JLi0EEEENS1W_ISF_JLi1EEEEEEENS1W_ISQ_JLi1EEEEEEEEEEEEEERNSV_INS1N_IfLm1EEENSC_ISG_SI_EEEES2B_T_iiiiiiiiiS1G_S1L_ENKUlS2C_iRT0_RT1_RT2_RT3_RT4_RT5_E_clISt17integral_constantIbLb1EENS5_9TiledCopyINS5_9Copy_Atom._crit_edge ]
  %.sroa.436.1 = phi <8 x float> [ zeroinitializer, %cond-add-join7184 ], [ %1470, %_ZZN7cutlass4fmha10collective15FMHAFwdMainloopINS0_9XeDefaultILi2EEELb0ELb1ELb1EN4cute8TiledMMAINS5_8MMA_AtomIJNS5_10XE_DPAS_TTILi8EfNS_10bfloat16_tES9_fEEEEENS5_6LayoutINS5_5tupleIJNS5_1CILi16EEENSE_ILi1EEESG_EEENSD_IJSG_NSE_ILi0EEESI_EEEEEKNSD_IJNSC_INSD_IJNSE_ILi8EEESF_NSE_ILi2EEEEEENSD_IJSG_SF_SL_EEEEENSC_INSE_ILi32EEESG_EESR_EEEEESU_Li4ENS5_6TensorINS5_10ViewEngineINS5_8gmem_ptrIPS9_EEEENSC_INSD_IJiiiiEEENSD_IJiSG_iiEEEEEEES14_NSV_IS10_NSC_IS11_NSD_IJSG_iiiEEEEEEES14_S17_vvvvvEclINSD_IJjjEEEEEvRKNSV_IS10_NSC_INSD_IJiiEEENSD_IJiSG_EEEEEEES1G_RKNSV_IS10_NSC_IS1B_NSD_IJSG_iEEEEEEERNS5_14SubgroupTensorINS5_11ArrayEngineIfLm128EEENSC_INSD_IJSL_SM_SM_NSE_ILi4EEEEEENSD_IJSG_SL_SF_SQ_EEEEENSC_INSD_IJSF_NSD_IJSL_NSD_IJSM_SM_EEES1P_EEEEEENSD_IJNS5_11ScaledBasisISG_JLi1EEEENSD_IJNS1W_ISG_JLi0EEEENSD_IJNS1W_ISL_JLi0EEEENS1W_ISF_JLi1EEEEEEENS1W_ISQ_JLi1EEEEEEEEEEEEEERNSV_INS1N_IfLm1EEENSC_ISG_SI_EEEES2B_T_iiiiiiiiiS1G_S1L_ENKUlS2C_iRT0_RT1_RT2_RT3_RT4_RT5_E_clISt17integral_constantIbLb1EENS5_9TiledCopyINS5_9Copy_Atom._crit_edge ]
  %.sroa.388.1 = phi <8 x float> [ zeroinitializer, %cond-add-join7184 ], [ %1469, %_ZZN7cutlass4fmha10collective15FMHAFwdMainloopINS0_9XeDefaultILi2EEELb0ELb1ELb1EN4cute8TiledMMAINS5_8MMA_AtomIJNS5_10XE_DPAS_TTILi8EfNS_10bfloat16_tES9_fEEEEENS5_6LayoutINS5_5tupleIJNS5_1CILi16EEENSE_ILi1EEESG_EEENSD_IJSG_NSE_ILi0EEESI_EEEEEKNSD_IJNSC_INSD_IJNSE_ILi8EEESF_NSE_ILi2EEEEEENSD_IJSG_SF_SL_EEEEENSC_INSE_ILi32EEESG_EESR_EEEEESU_Li4ENS5_6TensorINS5_10ViewEngineINS5_8gmem_ptrIPS9_EEEENSC_INSD_IJiiiiEEENSD_IJiSG_iiEEEEEEES14_NSV_IS10_NSC_IS11_NSD_IJSG_iiiEEEEEEES14_S17_vvvvvEclINSD_IJjjEEEEEvRKNSV_IS10_NSC_INSD_IJiiEEENSD_IJiSG_EEEEEEES1G_RKNSV_IS10_NSC_IS1B_NSD_IJSG_iEEEEEEERNS5_14SubgroupTensorINS5_11ArrayEngineIfLm128EEENSC_INSD_IJSL_SM_SM_NSE_ILi4EEEEEENSD_IJSG_SL_SF_SQ_EEEEENSC_INSD_IJSF_NSD_IJSL_NSD_IJSM_SM_EEES1P_EEEEEENSD_IJNS5_11ScaledBasisISG_JLi1EEEENSD_IJNS1W_ISG_JLi0EEEENSD_IJNS1W_ISL_JLi0EEEENS1W_ISF_JLi1EEEEEEENS1W_ISQ_JLi1EEEEEEEEEEEEEERNSV_INS1N_IfLm1EEENSC_ISG_SI_EEEES2B_T_iiiiiiiiiS1G_S1L_ENKUlS2C_iRT0_RT1_RT2_RT3_RT4_RT5_E_clISt17integral_constantIbLb1EENS5_9TiledCopyINS5_9Copy_Atom._crit_edge ]
  %.sroa.340.1 = phi <8 x float> [ zeroinitializer, %cond-add-join7184 ], [ %1333, %_ZZN7cutlass4fmha10collective15FMHAFwdMainloopINS0_9XeDefaultILi2EEELb0ELb1ELb1EN4cute8TiledMMAINS5_8MMA_AtomIJNS5_10XE_DPAS_TTILi8EfNS_10bfloat16_tES9_fEEEEENS5_6LayoutINS5_5tupleIJNS5_1CILi16EEENSE_ILi1EEESG_EEENSD_IJSG_NSE_ILi0EEESI_EEEEEKNSD_IJNSC_INSD_IJNSE_ILi8EEESF_NSE_ILi2EEEEEENSD_IJSG_SF_SL_EEEEENSC_INSE_ILi32EEESG_EESR_EEEEESU_Li4ENS5_6TensorINS5_10ViewEngineINS5_8gmem_ptrIPS9_EEEENSC_INSD_IJiiiiEEENSD_IJiSG_iiEEEEEEES14_NSV_IS10_NSC_IS11_NSD_IJSG_iiiEEEEEEES14_S17_vvvvvEclINSD_IJjjEEEEEvRKNSV_IS10_NSC_INSD_IJiiEEENSD_IJiSG_EEEEEEES1G_RKNSV_IS10_NSC_IS1B_NSD_IJSG_iEEEEEEERNS5_14SubgroupTensorINS5_11ArrayEngineIfLm128EEENSC_INSD_IJSL_SM_SM_NSE_ILi4EEEEEENSD_IJSG_SL_SF_SQ_EEEEENSC_INSD_IJSF_NSD_IJSL_NSD_IJSM_SM_EEES1P_EEEEEENSD_IJNS5_11ScaledBasisISG_JLi1EEEENSD_IJNS1W_ISG_JLi0EEEENSD_IJNS1W_ISL_JLi0EEEENS1W_ISF_JLi1EEEEEEENS1W_ISQ_JLi1EEEEEEEEEEEEEERNSV_INS1N_IfLm1EEENSC_ISG_SI_EEEES2B_T_iiiiiiiiiS1G_S1L_ENKUlS2C_iRT0_RT1_RT2_RT3_RT4_RT5_E_clISt17integral_constantIbLb1EENS5_9TiledCopyINS5_9Copy_Atom._crit_edge ]
  %.sroa.292.1 = phi <8 x float> [ zeroinitializer, %cond-add-join7184 ], [ %1334, %_ZZN7cutlass4fmha10collective15FMHAFwdMainloopINS0_9XeDefaultILi2EEELb0ELb1ELb1EN4cute8TiledMMAINS5_8MMA_AtomIJNS5_10XE_DPAS_TTILi8EfNS_10bfloat16_tES9_fEEEEENS5_6LayoutINS5_5tupleIJNS5_1CILi16EEENSE_ILi1EEESG_EEENSD_IJSG_NSE_ILi0EEESI_EEEEEKNSD_IJNSC_INSD_IJNSE_ILi8EEESF_NSE_ILi2EEEEEENSD_IJSG_SF_SL_EEEEENSC_INSE_ILi32EEESG_EESR_EEEEESU_Li4ENS5_6TensorINS5_10ViewEngineINS5_8gmem_ptrIPS9_EEEENSC_INSD_IJiiiiEEENSD_IJiSG_iiEEEEEEES14_NSV_IS10_NSC_IS11_NSD_IJSG_iiiEEEEEEES14_S17_vvvvvEclINSD_IJjjEEEEEvRKNSV_IS10_NSC_INSD_IJiiEEENSD_IJiSG_EEEEEEES1G_RKNSV_IS10_NSC_IS1B_NSD_IJSG_iEEEEEEERNS5_14SubgroupTensorINS5_11ArrayEngineIfLm128EEENSC_INSD_IJSL_SM_SM_NSE_ILi4EEEEEENSD_IJSG_SL_SF_SQ_EEEEENSC_INSD_IJSF_NSD_IJSL_NSD_IJSM_SM_EEES1P_EEEEEENSD_IJNS5_11ScaledBasisISG_JLi1EEEENSD_IJNS1W_ISG_JLi0EEEENSD_IJNS1W_ISL_JLi0EEEENS1W_ISF_JLi1EEEEEEENS1W_ISQ_JLi1EEEEEEEEEEEEEERNSV_INS1N_IfLm1EEENSC_ISG_SI_EEEES2B_T_iiiiiiiiiS1G_S1L_ENKUlS2C_iRT0_RT1_RT2_RT3_RT4_RT5_E_clISt17integral_constantIbLb1EENS5_9TiledCopyINS5_9Copy_Atom._crit_edge ]
  %.sroa.244.1 = phi <8 x float> [ zeroinitializer, %cond-add-join7184 ], [ %1332, %_ZZN7cutlass4fmha10collective15FMHAFwdMainloopINS0_9XeDefaultILi2EEELb0ELb1ELb1EN4cute8TiledMMAINS5_8MMA_AtomIJNS5_10XE_DPAS_TTILi8EfNS_10bfloat16_tES9_fEEEEENS5_6LayoutINS5_5tupleIJNS5_1CILi16EEENSE_ILi1EEESG_EEENSD_IJSG_NSE_ILi0EEESI_EEEEEKNSD_IJNSC_INSD_IJNSE_ILi8EEESF_NSE_ILi2EEEEEENSD_IJSG_SF_SL_EEEEENSC_INSE_ILi32EEESG_EESR_EEEEESU_Li4ENS5_6TensorINS5_10ViewEngineINS5_8gmem_ptrIPS9_EEEENSC_INSD_IJiiiiEEENSD_IJiSG_iiEEEEEEES14_NSV_IS10_NSC_IS11_NSD_IJSG_iiiEEEEEEES14_S17_vvvvvEclINSD_IJjjEEEEEvRKNSV_IS10_NSC_INSD_IJiiEEENSD_IJiSG_EEEEEEES1G_RKNSV_IS10_NSC_IS1B_NSD_IJSG_iEEEEEEERNS5_14SubgroupTensorINS5_11ArrayEngineIfLm128EEENSC_INSD_IJSL_SM_SM_NSE_ILi4EEEEEENSD_IJSG_SL_SF_SQ_EEEEENSC_INSD_IJSF_NSD_IJSL_NSD_IJSM_SM_EEES1P_EEEEEENSD_IJNS5_11ScaledBasisISG_JLi1EEEENSD_IJNS1W_ISG_JLi0EEEENSD_IJNS1W_ISL_JLi0EEEENS1W_ISF_JLi1EEEEEEENS1W_ISQ_JLi1EEEEEEEEEEEEEERNSV_INS1N_IfLm1EEENSC_ISG_SI_EEEES2B_T_iiiiiiiiiS1G_S1L_ENKUlS2C_iRT0_RT1_RT2_RT3_RT4_RT5_E_clISt17integral_constantIbLb1EENS5_9TiledCopyINS5_9Copy_Atom._crit_edge ]
  %.sroa.196.1 = phi <8 x float> [ zeroinitializer, %cond-add-join7184 ], [ %1331, %_ZZN7cutlass4fmha10collective15FMHAFwdMainloopINS0_9XeDefaultILi2EEELb0ELb1ELb1EN4cute8TiledMMAINS5_8MMA_AtomIJNS5_10XE_DPAS_TTILi8EfNS_10bfloat16_tES9_fEEEEENS5_6LayoutINS5_5tupleIJNS5_1CILi16EEENSE_ILi1EEESG_EEENSD_IJSG_NSE_ILi0EEESI_EEEEEKNSD_IJNSC_INSD_IJNSE_ILi8EEESF_NSE_ILi2EEEEEENSD_IJSG_SF_SL_EEEEENSC_INSE_ILi32EEESG_EESR_EEEEESU_Li4ENS5_6TensorINS5_10ViewEngineINS5_8gmem_ptrIPS9_EEEENSC_INSD_IJiiiiEEENSD_IJiSG_iiEEEEEEES14_NSV_IS10_NSC_IS11_NSD_IJSG_iiiEEEEEEES14_S17_vvvvvEclINSD_IJjjEEEEEvRKNSV_IS10_NSC_INSD_IJiiEEENSD_IJiSG_EEEEEEES1G_RKNSV_IS10_NSC_IS1B_NSD_IJSG_iEEEEEEERNS5_14SubgroupTensorINS5_11ArrayEngineIfLm128EEENSC_INSD_IJSL_SM_SM_NSE_ILi4EEEEEENSD_IJSG_SL_SF_SQ_EEEEENSC_INSD_IJSF_NSD_IJSL_NSD_IJSM_SM_EEES1P_EEEEEENSD_IJNS5_11ScaledBasisISG_JLi1EEEENSD_IJNS1W_ISG_JLi0EEEENSD_IJNS1W_ISL_JLi0EEEENS1W_ISF_JLi1EEEEEEENS1W_ISQ_JLi1EEEEEEEEEEEEEERNSV_INS1N_IfLm1EEENSC_ISG_SI_EEEES2B_T_iiiiiiiiiS1G_S1L_ENKUlS2C_iRT0_RT1_RT2_RT3_RT4_RT5_E_clISt17integral_constantIbLb1EENS5_9TiledCopyINS5_9Copy_Atom._crit_edge ]
  %.sroa.148.1 = phi <8 x float> [ zeroinitializer, %cond-add-join7184 ], [ %1195, %_ZZN7cutlass4fmha10collective15FMHAFwdMainloopINS0_9XeDefaultILi2EEELb0ELb1ELb1EN4cute8TiledMMAINS5_8MMA_AtomIJNS5_10XE_DPAS_TTILi8EfNS_10bfloat16_tES9_fEEEEENS5_6LayoutINS5_5tupleIJNS5_1CILi16EEENSE_ILi1EEESG_EEENSD_IJSG_NSE_ILi0EEESI_EEEEEKNSD_IJNSC_INSD_IJNSE_ILi8EEESF_NSE_ILi2EEEEEENSD_IJSG_SF_SL_EEEEENSC_INSE_ILi32EEESG_EESR_EEEEESU_Li4ENS5_6TensorINS5_10ViewEngineINS5_8gmem_ptrIPS9_EEEENSC_INSD_IJiiiiEEENSD_IJiSG_iiEEEEEEES14_NSV_IS10_NSC_IS11_NSD_IJSG_iiiEEEEEEES14_S17_vvvvvEclINSD_IJjjEEEEEvRKNSV_IS10_NSC_INSD_IJiiEEENSD_IJiSG_EEEEEEES1G_RKNSV_IS10_NSC_IS1B_NSD_IJSG_iEEEEEEERNS5_14SubgroupTensorINS5_11ArrayEngineIfLm128EEENSC_INSD_IJSL_SM_SM_NSE_ILi4EEEEEENSD_IJSG_SL_SF_SQ_EEEEENSC_INSD_IJSF_NSD_IJSL_NSD_IJSM_SM_EEES1P_EEEEEENSD_IJNS5_11ScaledBasisISG_JLi1EEEENSD_IJNS1W_ISG_JLi0EEEENSD_IJNS1W_ISL_JLi0EEEENS1W_ISF_JLi1EEEEEEENS1W_ISQ_JLi1EEEEEEEEEEEEEERNSV_INS1N_IfLm1EEENSC_ISG_SI_EEEES2B_T_iiiiiiiiiS1G_S1L_ENKUlS2C_iRT0_RT1_RT2_RT3_RT4_RT5_E_clISt17integral_constantIbLb1EENS5_9TiledCopyINS5_9Copy_Atom._crit_edge ]
  %.sroa.100.1 = phi <8 x float> [ zeroinitializer, %cond-add-join7184 ], [ %1196, %_ZZN7cutlass4fmha10collective15FMHAFwdMainloopINS0_9XeDefaultILi2EEELb0ELb1ELb1EN4cute8TiledMMAINS5_8MMA_AtomIJNS5_10XE_DPAS_TTILi8EfNS_10bfloat16_tES9_fEEEEENS5_6LayoutINS5_5tupleIJNS5_1CILi16EEENSE_ILi1EEESG_EEENSD_IJSG_NSE_ILi0EEESI_EEEEEKNSD_IJNSC_INSD_IJNSE_ILi8EEESF_NSE_ILi2EEEEEENSD_IJSG_SF_SL_EEEEENSC_INSE_ILi32EEESG_EESR_EEEEESU_Li4ENS5_6TensorINS5_10ViewEngineINS5_8gmem_ptrIPS9_EEEENSC_INSD_IJiiiiEEENSD_IJiSG_iiEEEEEEES14_NSV_IS10_NSC_IS11_NSD_IJSG_iiiEEEEEEES14_S17_vvvvvEclINSD_IJjjEEEEEvRKNSV_IS10_NSC_INSD_IJiiEEENSD_IJiSG_EEEEEEES1G_RKNSV_IS10_NSC_IS1B_NSD_IJSG_iEEEEEEERNS5_14SubgroupTensorINS5_11ArrayEngineIfLm128EEENSC_INSD_IJSL_SM_SM_NSE_ILi4EEEEEENSD_IJSG_SL_SF_SQ_EEEEENSC_INSD_IJSF_NSD_IJSL_NSD_IJSM_SM_EEES1P_EEEEEENSD_IJNS5_11ScaledBasisISG_JLi1EEEENSD_IJNS1W_ISG_JLi0EEEENSD_IJNS1W_ISL_JLi0EEEENS1W_ISF_JLi1EEEEEEENS1W_ISQ_JLi1EEEEEEEEEEEEEERNSV_INS1N_IfLm1EEENSC_ISG_SI_EEEES2B_T_iiiiiiiiiS1G_S1L_ENKUlS2C_iRT0_RT1_RT2_RT3_RT4_RT5_E_clISt17integral_constantIbLb1EENS5_9TiledCopyINS5_9Copy_Atom._crit_edge ]
  %.sroa.52.1 = phi <8 x float> [ zeroinitializer, %cond-add-join7184 ], [ %1194, %_ZZN7cutlass4fmha10collective15FMHAFwdMainloopINS0_9XeDefaultILi2EEELb0ELb1ELb1EN4cute8TiledMMAINS5_8MMA_AtomIJNS5_10XE_DPAS_TTILi8EfNS_10bfloat16_tES9_fEEEEENS5_6LayoutINS5_5tupleIJNS5_1CILi16EEENSE_ILi1EEESG_EEENSD_IJSG_NSE_ILi0EEESI_EEEEEKNSD_IJNSC_INSD_IJNSE_ILi8EEESF_NSE_ILi2EEEEEENSD_IJSG_SF_SL_EEEEENSC_INSE_ILi32EEESG_EESR_EEEEESU_Li4ENS5_6TensorINS5_10ViewEngineINS5_8gmem_ptrIPS9_EEEENSC_INSD_IJiiiiEEENSD_IJiSG_iiEEEEEEES14_NSV_IS10_NSC_IS11_NSD_IJSG_iiiEEEEEEES14_S17_vvvvvEclINSD_IJjjEEEEEvRKNSV_IS10_NSC_INSD_IJiiEEENSD_IJiSG_EEEEEEES1G_RKNSV_IS10_NSC_IS1B_NSD_IJSG_iEEEEEEERNS5_14SubgroupTensorINS5_11ArrayEngineIfLm128EEENSC_INSD_IJSL_SM_SM_NSE_ILi4EEEEEENSD_IJSG_SL_SF_SQ_EEEEENSC_INSD_IJSF_NSD_IJSL_NSD_IJSM_SM_EEES1P_EEEEEENSD_IJNS5_11ScaledBasisISG_JLi1EEEENSD_IJNS1W_ISG_JLi0EEEENSD_IJNS1W_ISL_JLi0EEEENS1W_ISF_JLi1EEEEEEENS1W_ISQ_JLi1EEEEEEEEEEEEEERNSV_INS1N_IfLm1EEENSC_ISG_SI_EEEES2B_T_iiiiiiiiiS1G_S1L_ENKUlS2C_iRT0_RT1_RT2_RT3_RT4_RT5_E_clISt17integral_constantIbLb1EENS5_9TiledCopyINS5_9Copy_Atom._crit_edge ]
  %.sroa.0.1 = phi <8 x float> [ zeroinitializer, %cond-add-join7184 ], [ %1193, %_ZZN7cutlass4fmha10collective15FMHAFwdMainloopINS0_9XeDefaultILi2EEELb0ELb1ELb1EN4cute8TiledMMAINS5_8MMA_AtomIJNS5_10XE_DPAS_TTILi8EfNS_10bfloat16_tES9_fEEEEENS5_6LayoutINS5_5tupleIJNS5_1CILi16EEENSE_ILi1EEESG_EEENSD_IJSG_NSE_ILi0EEESI_EEEEEKNSD_IJNSC_INSD_IJNSE_ILi8EEESF_NSE_ILi2EEEEEENSD_IJSG_SF_SL_EEEEENSC_INSE_ILi32EEESG_EESR_EEEEESU_Li4ENS5_6TensorINS5_10ViewEngineINS5_8gmem_ptrIPS9_EEEENSC_INSD_IJiiiiEEENSD_IJiSG_iiEEEEEEES14_NSV_IS10_NSC_IS11_NSD_IJSG_iiiEEEEEEES14_S17_vvvvvEclINSD_IJjjEEEEEvRKNSV_IS10_NSC_INSD_IJiiEEENSD_IJiSG_EEEEEEES1G_RKNSV_IS10_NSC_IS1B_NSD_IJSG_iEEEEEEERNS5_14SubgroupTensorINS5_11ArrayEngineIfLm128EEENSC_INSD_IJSL_SM_SM_NSE_ILi4EEEEEENSD_IJSG_SL_SF_SQ_EEEEENSC_INSD_IJSF_NSD_IJSL_NSD_IJSM_SM_EEES1P_EEEEEENSD_IJNS5_11ScaledBasisISG_JLi1EEEENSD_IJNS1W_ISG_JLi0EEEENSD_IJNS1W_ISL_JLi0EEEENS1W_ISF_JLi1EEEEEEENS1W_ISQ_JLi1EEEEEEEEEEEEEERNSV_INS1N_IfLm1EEENSC_ISG_SI_EEEES2B_T_iiiiiiiiiS1G_S1L_ENKUlS2C_iRT0_RT1_RT2_RT3_RT4_RT5_E_clISt17integral_constantIbLb1EENS5_9TiledCopyINS5_9Copy_Atom._crit_edge ]
  %312 = phi i32 [ 0, %cond-add-join7184 ], [ %1687, %_ZZN7cutlass4fmha10collective15FMHAFwdMainloopINS0_9XeDefaultILi2EEELb0ELb1ELb1EN4cute8TiledMMAINS5_8MMA_AtomIJNS5_10XE_DPAS_TTILi8EfNS_10bfloat16_tES9_fEEEEENS5_6LayoutINS5_5tupleIJNS5_1CILi16EEENSE_ILi1EEESG_EEENSD_IJSG_NSE_ILi0EEESI_EEEEEKNSD_IJNSC_INSD_IJNSE_ILi8EEESF_NSE_ILi2EEEEEENSD_IJSG_SF_SL_EEEEENSC_INSE_ILi32EEESG_EESR_EEEEESU_Li4ENS5_6TensorINS5_10ViewEngineINS5_8gmem_ptrIPS9_EEEENSC_INSD_IJiiiiEEENSD_IJiSG_iiEEEEEEES14_NSV_IS10_NSC_IS11_NSD_IJSG_iiiEEEEEEES14_S17_vvvvvEclINSD_IJjjEEEEEvRKNSV_IS10_NSC_INSD_IJiiEEENSD_IJiSG_EEEEEEES1G_RKNSV_IS10_NSC_IS1B_NSD_IJSG_iEEEEEEERNS5_14SubgroupTensorINS5_11ArrayEngineIfLm128EEENSC_INSD_IJSL_SM_SM_NSE_ILi4EEEEEENSD_IJSG_SL_SF_SQ_EEEEENSC_INSD_IJSF_NSD_IJSL_NSD_IJSM_SM_EEES1P_EEEEEENSD_IJNS5_11ScaledBasisISG_JLi1EEEENSD_IJNS1W_ISG_JLi0EEEENSD_IJNS1W_ISL_JLi0EEEENS1W_ISF_JLi1EEEEEEENS1W_ISQ_JLi1EEEEEEEEEEEEEERNSV_INS1N_IfLm1EEENSC_ISG_SI_EEEES2B_T_iiiiiiiiiS1G_S1L_ENKUlS2C_iRT0_RT1_RT2_RT3_RT4_RT5_E_clISt17integral_constantIbLb1EENS5_9TiledCopyINS5_9Copy_Atom._crit_edge ]
  %.sroa.0218.1251 = phi float [ 0xC7EFFFFFE0000000, %cond-add-join7184 ], [ %684, %_ZZN7cutlass4fmha10collective15FMHAFwdMainloopINS0_9XeDefaultILi2EEELb0ELb1ELb1EN4cute8TiledMMAINS5_8MMA_AtomIJNS5_10XE_DPAS_TTILi8EfNS_10bfloat16_tES9_fEEEEENS5_6LayoutINS5_5tupleIJNS5_1CILi16EEENSE_ILi1EEESG_EEENSD_IJSG_NSE_ILi0EEESI_EEEEEKNSD_IJNSC_INSD_IJNSE_ILi8EEESF_NSE_ILi2EEEEEENSD_IJSG_SF_SL_EEEEENSC_INSE_ILi32EEESG_EESR_EEEEESU_Li4ENS5_6TensorINS5_10ViewEngineINS5_8gmem_ptrIPS9_EEEENSC_INSD_IJiiiiEEENSD_IJiSG_iiEEEEEEES14_NSV_IS10_NSC_IS11_NSD_IJSG_iiiEEEEEEES14_S17_vvvvvEclINSD_IJjjEEEEEvRKNSV_IS10_NSC_INSD_IJiiEEENSD_IJiSG_EEEEEEES1G_RKNSV_IS10_NSC_IS1B_NSD_IJSG_iEEEEEEERNS5_14SubgroupTensorINS5_11ArrayEngineIfLm128EEENSC_INSD_IJSL_SM_SM_NSE_ILi4EEEEEENSD_IJSG_SL_SF_SQ_EEEEENSC_INSD_IJSF_NSD_IJSL_NSD_IJSM_SM_EEES1P_EEEEEENSD_IJNS5_11ScaledBasisISG_JLi1EEEENSD_IJNS1W_ISG_JLi0EEEENSD_IJNS1W_ISL_JLi0EEEENS1W_ISF_JLi1EEEEEEENS1W_ISQ_JLi1EEEEEEEEEEEEEERNSV_INS1N_IfLm1EEENSC_ISG_SI_EEEES2B_T_iiiiiiiiiS1G_S1L_ENKUlS2C_iRT0_RT1_RT2_RT3_RT4_RT5_E_clISt17integral_constantIbLb1EENS5_9TiledCopyINS5_9Copy_Atom._crit_edge ]
  %.sroa.0209.1250 = phi float [ 0.000000e+00, %cond-add-join7184 ], [ %1611, %_ZZN7cutlass4fmha10collective15FMHAFwdMainloopINS0_9XeDefaultILi2EEELb0ELb1ELb1EN4cute8TiledMMAINS5_8MMA_AtomIJNS5_10XE_DPAS_TTILi8EfNS_10bfloat16_tES9_fEEEEENS5_6LayoutINS5_5tupleIJNS5_1CILi16EEENSE_ILi1EEESG_EEENSD_IJSG_NSE_ILi0EEESI_EEEEEKNSD_IJNSC_INSD_IJNSE_ILi8EEESF_NSE_ILi2EEEEEENSD_IJSG_SF_SL_EEEEENSC_INSE_ILi32EEESG_EESR_EEEEESU_Li4ENS5_6TensorINS5_10ViewEngineINS5_8gmem_ptrIPS9_EEEENSC_INSD_IJiiiiEEENSD_IJiSG_iiEEEEEEES14_NSV_IS10_NSC_IS11_NSD_IJSG_iiiEEEEEEES14_S17_vvvvvEclINSD_IJjjEEEEEvRKNSV_IS10_NSC_INSD_IJiiEEENSD_IJiSG_EEEEEEES1G_RKNSV_IS10_NSC_IS1B_NSD_IJSG_iEEEEEEERNS5_14SubgroupTensorINS5_11ArrayEngineIfLm128EEENSC_INSD_IJSL_SM_SM_NSE_ILi4EEEEEENSD_IJSG_SL_SF_SQ_EEEEENSC_INSD_IJSF_NSD_IJSL_NSD_IJSM_SM_EEES1P_EEEEEENSD_IJNS5_11ScaledBasisISG_JLi1EEEENSD_IJNS1W_ISG_JLi0EEEENSD_IJNS1W_ISL_JLi0EEEENS1W_ISF_JLi1EEEEEEENS1W_ISQ_JLi1EEEEEEEEEEEEEERNSV_INS1N_IfLm1EEENSC_ISG_SI_EEEES2B_T_iiiiiiiiiS1G_S1L_ENKUlS2C_iRT0_RT1_RT2_RT3_RT4_RT5_E_clISt17integral_constantIbLb1EENS5_9TiledCopyINS5_9Copy_Atom._crit_edge ]
  br i1 %300, label %313, label %330, !stats.blockFrequency.digits !1216, !stats.blockFrequency.scale !1217		; visa id: 852

313:                                              ; preds = %311
; BB62 :
  br i1 %tobool.i7359, label %if.then.i7360, label %if.end.i7390, !stats.blockFrequency.digits !1222, !stats.blockFrequency.scale !1223		; visa id: 854

if.then.i7360:                                    ; preds = %313
; BB63 :
  br label %precompiled_s32divrem_sp.exit7392, !stats.blockFrequency.digits !1227, !stats.blockFrequency.scale !1206		; visa id: 857

if.end.i7390:                                     ; preds = %313
; BB64 :
  %314 = call float @llvm.genx.GenISA.uitof.rtz.f32.i32(i32 %xor.i7364)		; visa id: 859
  %conv.i7367 = fptoui float %314 to i32		; visa id: 861
  %sub.i7368 = sub i32 %xor.i7364, %conv.i7367		; visa id: 862
  %315 = call float @llvm.genx.GenISA.uitof.rtz.f32.i32(i32 %xor3.i7366)		; visa id: 863
  %div.i7371 = fdiv float 1.000000e+00, %314, !fpmath !1210		; visa id: 864
  %316 = call float @llvm.genx.GenISA.fma.rtz.f32.f32.f32.f32(float %div.i7371, float 0xBE98000000000000, float %div.i7371)		; visa id: 865
  %317 = call float @llvm.genx.GenISA.mul.rtz.f32.f32.f32(float %315, float %316)		; visa id: 866
  %conv6.i7369 = fptoui float %315 to i32		; visa id: 867
  %sub7.i7370 = sub i32 %xor3.i7366, %conv6.i7369		; visa id: 868
  %conv11.i7372 = fptoui float %317 to i32		; visa id: 869
  %318 = call float @llvm.genx.GenISA.uitof.rtz.f32.i32(i32 %sub.i7368)		; visa id: 870
  %319 = call float @llvm.genx.GenISA.uitof.rtz.f32.i32(i32 %sub7.i7370)		; visa id: 871
  %320 = call float @llvm.genx.GenISA.uitof.rtz.f32.i32(i32 %conv11.i7372)		; visa id: 872
  %321 = fsub float 0.000000e+00, %314		; visa id: 873
  %322 = call float @llvm.genx.GenISA.fma.rtz.f32.f32.f32.f32(float %321, float %320, float %315)		; visa id: 874
  %323 = fsub float 0.000000e+00, %318		; visa id: 875
  %324 = call float @llvm.genx.GenISA.fma.rtz.f32.f32.f32.f32(float %323, float %320, float %319)		; visa id: 876
  %325 = call float @llvm.genx.GenISA.add.rtz.f32.f32.f32(float %322, float %324)		; visa id: 877
  %326 = call float @llvm.genx.GenISA.mul.rtz.f32.f32.f32(float %316, float %325)		; visa id: 878
  %conv19.i7375 = fptoui float %326 to i32		; visa id: 880
  %add20.i7376 = add i32 %conv19.i7375, %conv11.i7372		; visa id: 881
  %mul.i7378 = mul i32 %add20.i7376, %xor.i7364		; visa id: 882
  %sub22.i7379 = sub i32 %xor3.i7366, %mul.i7378		; visa id: 883
  %cmp.i7380 = icmp uge i32 %sub22.i7379, %xor.i7364
  %327 = sext i1 %cmp.i7380 to i32		; visa id: 884
  %328 = sub i32 0, %327
  %add24.i7387 = add i32 %add20.i7376, %xor21.i7377
  %add29.i7388 = add i32 %add24.i7387, %328		; visa id: 885
  %xor30.i7389 = xor i32 %add29.i7388, %xor21.i7377		; visa id: 886
  br label %precompiled_s32divrem_sp.exit7392, !stats.blockFrequency.digits !1224, !stats.blockFrequency.scale !1206		; visa id: 887

precompiled_s32divrem_sp.exit7392:                ; preds = %if.then.i7360, %if.end.i7390
; BB65 :
  %retval.0.i7391 = phi i32 [ %xor30.i7389, %if.end.i7390 ], [ -1, %if.then.i7360 ]
  %329 = mul nsw i32 %9, %retval.0.i7391, !spirv.Decorations !1203		; visa id: 888
  br label %332, !stats.blockFrequency.digits !1222, !stats.blockFrequency.scale !1223		; visa id: 889

330:                                              ; preds = %311
; BB66 :
  %331 = load i32, i32 addrspace(1)* %305, align 4		; visa id: 891
  br label %332, !stats.blockFrequency.digits !1222, !stats.blockFrequency.scale !1223		; visa id: 892

332:                                              ; preds = %precompiled_s32divrem_sp.exit7392, %330
; BB67 :
  %333 = phi i32 [ %331, %330 ], [ %329, %precompiled_s32divrem_sp.exit7392 ]
  br i1 %tobool.i7359, label %if.then.i7394, label %if.end.i7424, !stats.blockFrequency.digits !1216, !stats.blockFrequency.scale !1217		; visa id: 893

if.then.i7394:                                    ; preds = %332
; BB68 :
  br label %precompiled_s32divrem_sp.exit7426, !stats.blockFrequency.digits !1233, !stats.blockFrequency.scale !1223		; visa id: 896

if.end.i7424:                                     ; preds = %332
; BB69 :
  %334 = shl nsw i32 %312, 5, !spirv.Decorations !1203		; visa id: 898
  %335 = call float @llvm.genx.GenISA.uitof.rtz.f32.i32(i32 %xor.i7364)		; visa id: 899
  %conv.i7401 = fptoui float %335 to i32		; visa id: 901
  %sub.i7402 = sub i32 %xor.i7364, %conv.i7401		; visa id: 902
  %336 = call float @llvm.genx.GenISA.uitof.rtz.f32.i32(i32 %334)		; visa id: 903
  %div.i7405 = fdiv float 1.000000e+00, %335, !fpmath !1210		; visa id: 904
  %337 = call float @llvm.genx.GenISA.fma.rtz.f32.f32.f32.f32(float %div.i7405, float 0xBE98000000000000, float %div.i7405)		; visa id: 905
  %338 = call float @llvm.genx.GenISA.mul.rtz.f32.f32.f32(float %336, float %337)		; visa id: 906
  %conv6.i7403 = fptoui float %336 to i32		; visa id: 907
  %sub7.i7404 = sub i32 %334, %conv6.i7403		; visa id: 908
  %conv11.i7406 = fptoui float %338 to i32		; visa id: 909
  %339 = call float @llvm.genx.GenISA.uitof.rtz.f32.i32(i32 %sub.i7402)		; visa id: 910
  %340 = call float @llvm.genx.GenISA.uitof.rtz.f32.i32(i32 %sub7.i7404)		; visa id: 911
  %341 = call float @llvm.genx.GenISA.uitof.rtz.f32.i32(i32 %conv11.i7406)		; visa id: 912
  %342 = fsub float 0.000000e+00, %335		; visa id: 913
  %343 = call float @llvm.genx.GenISA.fma.rtz.f32.f32.f32.f32(float %342, float %341, float %336)		; visa id: 914
  %344 = fsub float 0.000000e+00, %339		; visa id: 915
  %345 = call float @llvm.genx.GenISA.fma.rtz.f32.f32.f32.f32(float %344, float %341, float %340)		; visa id: 916
  %346 = call float @llvm.genx.GenISA.add.rtz.f32.f32.f32(float %343, float %345)		; visa id: 917
  %347 = call float @llvm.genx.GenISA.mul.rtz.f32.f32.f32(float %337, float %346)		; visa id: 918
  %conv19.i7409 = fptoui float %347 to i32		; visa id: 920
  %add20.i7410 = add i32 %conv19.i7409, %conv11.i7406		; visa id: 921
  %mul.i7412 = mul i32 %add20.i7410, %xor.i7364		; visa id: 922
  %sub22.i7413 = sub i32 %334, %mul.i7412		; visa id: 923
  %cmp.i7414 = icmp uge i32 %sub22.i7413, %xor.i7364
  %348 = sext i1 %cmp.i7414 to i32		; visa id: 924
  %349 = sub i32 0, %348
  %add24.i7421 = add i32 %add20.i7410, %shr.i7361
  %add29.i7422 = add i32 %add24.i7421, %349		; visa id: 925
  %xor30.i7423 = xor i32 %add29.i7422, %shr.i7361		; visa id: 926
  br label %precompiled_s32divrem_sp.exit7426, !stats.blockFrequency.digits !1234, !stats.blockFrequency.scale !1223		; visa id: 927

precompiled_s32divrem_sp.exit7426:                ; preds = %if.then.i7394, %if.end.i7424
; BB70 :
  %retval.0.i7425 = phi i32 [ %xor30.i7423, %if.end.i7424 ], [ -1, %if.then.i7394 ]
  %350 = add nsw i32 %333, %retval.0.i7425, !spirv.Decorations !1203		; visa id: 928
  %351 = sext i32 %350 to i64		; visa id: 929
  %352 = shl nsw i64 %351, 2		; visa id: 930
  %353 = add i64 %352, %const_reg_qword57		; visa id: 931
  %354 = inttoptr i64 %353 to i32 addrspace(4)*		; visa id: 932
  %355 = addrspacecast i32 addrspace(4)* %354 to i32 addrspace(1)*		; visa id: 932
  %356 = load i32, i32 addrspace(1)* %355, align 4		; visa id: 933
  %357 = mul nsw i32 %356, %qot7187, !spirv.Decorations !1203		; visa id: 934
  br i1 %tobool.i7427, label %if.then.i7428, label %if.end.i7458, !stats.blockFrequency.digits !1216, !stats.blockFrequency.scale !1217		; visa id: 935

if.then.i7428:                                    ; preds = %precompiled_s32divrem_sp.exit7426
; BB71 :
  br label %precompiled_s32divrem_sp.exit7460, !stats.blockFrequency.digits !1222, !stats.blockFrequency.scale !1223		; visa id: 938

if.end.i7458:                                     ; preds = %precompiled_s32divrem_sp.exit7426
; BB72 :
  %358 = call float @llvm.genx.GenISA.uitof.rtz.f32.i32(i32 %xor.i7432)		; visa id: 940
  %conv.i7435 = fptoui float %358 to i32		; visa id: 942
  %sub.i7436 = sub i32 %xor.i7432, %conv.i7435		; visa id: 943
  %359 = call float @llvm.genx.GenISA.uitof.rtz.f32.i32(i32 %312)		; visa id: 944
  %div.i7439 = fdiv float 1.000000e+00, %358, !fpmath !1210		; visa id: 945
  %360 = call float @llvm.genx.GenISA.fma.rtz.f32.f32.f32.f32(float %div.i7439, float 0xBE98000000000000, float %div.i7439)		; visa id: 946
  %361 = call float @llvm.genx.GenISA.mul.rtz.f32.f32.f32(float %359, float %360)		; visa id: 947
  %conv6.i7437 = fptoui float %359 to i32		; visa id: 948
  %sub7.i7438 = sub i32 %312, %conv6.i7437		; visa id: 949
  %conv11.i7440 = fptoui float %361 to i32		; visa id: 950
  %362 = call float @llvm.genx.GenISA.uitof.rtz.f32.i32(i32 %sub.i7436)		; visa id: 951
  %363 = call float @llvm.genx.GenISA.uitof.rtz.f32.i32(i32 %sub7.i7438)		; visa id: 952
  %364 = call float @llvm.genx.GenISA.uitof.rtz.f32.i32(i32 %conv11.i7440)		; visa id: 953
  %365 = fsub float 0.000000e+00, %358		; visa id: 954
  %366 = call float @llvm.genx.GenISA.fma.rtz.f32.f32.f32.f32(float %365, float %364, float %359)		; visa id: 955
  %367 = fsub float 0.000000e+00, %362		; visa id: 956
  %368 = call float @llvm.genx.GenISA.fma.rtz.f32.f32.f32.f32(float %367, float %364, float %363)		; visa id: 957
  %369 = call float @llvm.genx.GenISA.add.rtz.f32.f32.f32(float %366, float %368)		; visa id: 958
  %370 = call float @llvm.genx.GenISA.mul.rtz.f32.f32.f32(float %360, float %369)		; visa id: 959
  %conv19.i7443 = fptoui float %370 to i32		; visa id: 961
  %add20.i7444 = add i32 %conv19.i7443, %conv11.i7440		; visa id: 962
  %mul.i7446 = mul i32 %add20.i7444, %xor.i7432		; visa id: 963
  %sub22.i7447 = sub i32 %312, %mul.i7446		; visa id: 964
  %cmp.i7448.not = icmp ult i32 %sub22.i7447, %xor.i7432		; visa id: 965
  %and25.i7451 = select i1 %cmp.i7448.not, i32 0, i32 %xor.i7432		; visa id: 966
  %add27.i7453 = sub i32 %sub22.i7447, %and25.i7451		; visa id: 967
  br label %precompiled_s32divrem_sp.exit7460, !stats.blockFrequency.digits !1222, !stats.blockFrequency.scale !1223		; visa id: 968

precompiled_s32divrem_sp.exit7460:                ; preds = %if.then.i7428, %if.end.i7458
; BB73 :
  %Remainder7195.0 = phi i32 [ -1, %if.then.i7428 ], [ %add27.i7453, %if.end.i7458 ]
  %371 = add nsw i32 %357, %Remainder7195.0, !spirv.Decorations !1203		; visa id: 969
  %372 = shl nsw i32 %371, 5, !spirv.Decorations !1203		; visa id: 970
  br i1 %170, label %.lr.ph246, label %precompiled_s32divrem_sp.exit7460..preheader3.i.preheader_crit_edge, !stats.blockFrequency.digits !1216, !stats.blockFrequency.scale !1217		; visa id: 971

precompiled_s32divrem_sp.exit7460..preheader3.i.preheader_crit_edge: ; preds = %precompiled_s32divrem_sp.exit7460
; BB74 :
  br label %.preheader3.i.preheader, !stats.blockFrequency.digits !1233, !stats.blockFrequency.scale !1223		; visa id: 1005

.lr.ph246:                                        ; preds = %precompiled_s32divrem_sp.exit7460
; BB75 :
  br i1 %306, label %.lr.ph246..epil.preheader275_crit_edge, label %.lr.ph246.new, !stats.blockFrequency.digits !1234, !stats.blockFrequency.scale !1223		; visa id: 1007

.lr.ph246..epil.preheader275_crit_edge:           ; preds = %.lr.ph246
; BB76 :
  br label %.epil.preheader275, !stats.blockFrequency.digits !1224, !stats.blockFrequency.scale !1206		; visa id: 1042

.lr.ph246.new:                                    ; preds = %.lr.ph246
; BB77 :
  %373 = add i32 %372, 16		; visa id: 1044
  br label %.preheader233, !stats.blockFrequency.digits !1224, !stats.blockFrequency.scale !1206		; visa id: 1079

.preheader233:                                    ; preds = %.preheader233..preheader233_crit_edge, %.lr.ph246.new
; BB78 :
  %.sroa.507.5 = phi <8 x float> [ zeroinitializer, %.lr.ph246.new ], [ %533, %.preheader233..preheader233_crit_edge ]
  %.sroa.339.5 = phi <8 x float> [ zeroinitializer, %.lr.ph246.new ], [ %534, %.preheader233..preheader233_crit_edge ]
  %.sroa.171.5 = phi <8 x float> [ zeroinitializer, %.lr.ph246.new ], [ %532, %.preheader233..preheader233_crit_edge ]
  %.sroa.03239.5 = phi <8 x float> [ zeroinitializer, %.lr.ph246.new ], [ %531, %.preheader233..preheader233_crit_edge ]
  %374 = phi i32 [ 0, %.lr.ph246.new ], [ %535, %.preheader233..preheader233_crit_edge ]
  %niter281 = phi i32 [ 0, %.lr.ph246.new ], [ %niter281.next.1, %.preheader233..preheader233_crit_edge ]
  %375 = shl i32 %374, 5, !spirv.Decorations !1203		; visa id: 1080
  call void @llvm.genx.GenISA.LSC2DBlockSetAddrPayloadField.p4i8.i32(i8 addrspace(4)* %Block2D_AddrPayload, i32 5, i32 %375, i1 false)		; visa id: 1081
  call void @llvm.genx.GenISA.LSC2DBlockSetAddrPayloadField.p4i8.i32(i8 addrspace(4)* %Block2D_AddrPayload, i32 6, i32 %161, i1 false)		; visa id: 1082
  %376 = call <32 x i16> asm "lsc_load_block2d.ugm (M1, 1)  $0:d$2.$3x$4x$5nn flat[$1+(0,0)]", "=rw,rw.u,P,P,P,P"(i8 addrspace(4)* %Block2D_AddrPayload, i32 16, i32 2, i32 16, i32 16) #0		; visa id: 1083
  %377 = lshr exact i32 %375, 1		; visa id: 1083
  call void @llvm.genx.GenISA.LSC2DBlockSetAddrPayloadField.p4i8.i32(i8 addrspace(4)* %Block2D_AddrPayload117, i32 5, i32 %377, i1 false)		; visa id: 1084
  call void @llvm.genx.GenISA.LSC2DBlockSetAddrPayloadField.p4i8.i32(i8 addrspace(4)* %Block2D_AddrPayload117, i32 6, i32 %372, i1 false)		; visa id: 1085
  %378 = call <16 x i16> asm "lsc_load_block2d.ugm (M1, 1)  $0:d$2.$3x$4tn flat[$1+(0,0)]", "=rw,rw.u,P,P,P"(i8 addrspace(4)* %Block2D_AddrPayload117, i32 32, i32 8, i32 16) #0		; visa id: 1086
  call void @llvm.genx.GenISA.LSC2DBlockSetAddrPayloadField.p4i8.i32(i8 addrspace(4)* %Block2D_AddrPayload117, i32 5, i32 %377, i1 false)		; visa id: 1086
  call void @llvm.genx.GenISA.LSC2DBlockSetAddrPayloadField.p4i8.i32(i8 addrspace(4)* %Block2D_AddrPayload117, i32 6, i32 %373, i1 false)		; visa id: 1087
  %379 = call <16 x i16> asm "lsc_load_block2d.ugm (M1, 1)  $0:d$2.$3x$4tn flat[$1+(0,0)]", "=rw,rw.u,P,P,P"(i8 addrspace(4)* %Block2D_AddrPayload117, i32 32, i32 8, i32 16) #0		; visa id: 1088
  %380 = or i32 %377, 8		; visa id: 1088
  call void @llvm.genx.GenISA.LSC2DBlockSetAddrPayloadField.p4i8.i32(i8 addrspace(4)* %Block2D_AddrPayload117, i32 5, i32 %380, i1 false)		; visa id: 1089
  call void @llvm.genx.GenISA.LSC2DBlockSetAddrPayloadField.p4i8.i32(i8 addrspace(4)* %Block2D_AddrPayload117, i32 6, i32 %372, i1 false)		; visa id: 1090
  %381 = call <16 x i16> asm "lsc_load_block2d.ugm (M1, 1)  $0:d$2.$3x$4tn flat[$1+(0,0)]", "=rw,rw.u,P,P,P"(i8 addrspace(4)* %Block2D_AddrPayload117, i32 32, i32 8, i32 16) #0		; visa id: 1091
  call void @llvm.genx.GenISA.LSC2DBlockSetAddrPayloadField.p4i8.i32(i8 addrspace(4)* %Block2D_AddrPayload117, i32 5, i32 %380, i1 false)		; visa id: 1091
  call void @llvm.genx.GenISA.LSC2DBlockSetAddrPayloadField.p4i8.i32(i8 addrspace(4)* %Block2D_AddrPayload117, i32 6, i32 %373, i1 false)		; visa id: 1092
  %382 = call <16 x i16> asm "lsc_load_block2d.ugm (M1, 1)  $0:d$2.$3x$4tn flat[$1+(0,0)]", "=rw,rw.u,P,P,P"(i8 addrspace(4)* %Block2D_AddrPayload117, i32 32, i32 8, i32 16) #0		; visa id: 1093
  %383 = extractelement <32 x i16> %376, i32 0		; visa id: 1093
  %384 = insertelement <8 x i16> undef, i16 %383, i32 0		; visa id: 1093
  %385 = extractelement <32 x i16> %376, i32 1		; visa id: 1093
  %386 = insertelement <8 x i16> %384, i16 %385, i32 1		; visa id: 1093
  %387 = extractelement <32 x i16> %376, i32 2		; visa id: 1093
  %388 = insertelement <8 x i16> %386, i16 %387, i32 2		; visa id: 1093
  %389 = extractelement <32 x i16> %376, i32 3		; visa id: 1093
  %390 = insertelement <8 x i16> %388, i16 %389, i32 3		; visa id: 1093
  %391 = extractelement <32 x i16> %376, i32 4		; visa id: 1093
  %392 = insertelement <8 x i16> %390, i16 %391, i32 4		; visa id: 1093
  %393 = extractelement <32 x i16> %376, i32 5		; visa id: 1093
  %394 = insertelement <8 x i16> %392, i16 %393, i32 5		; visa id: 1093
  %395 = extractelement <32 x i16> %376, i32 6		; visa id: 1093
  %396 = insertelement <8 x i16> %394, i16 %395, i32 6		; visa id: 1093
  %397 = extractelement <32 x i16> %376, i32 7		; visa id: 1093
  %398 = insertelement <8 x i16> %396, i16 %397, i32 7		; visa id: 1093
  %399 = extractelement <32 x i16> %376, i32 8		; visa id: 1093
  %400 = insertelement <8 x i16> undef, i16 %399, i32 0		; visa id: 1093
  %401 = extractelement <32 x i16> %376, i32 9		; visa id: 1093
  %402 = insertelement <8 x i16> %400, i16 %401, i32 1		; visa id: 1093
  %403 = extractelement <32 x i16> %376, i32 10		; visa id: 1093
  %404 = insertelement <8 x i16> %402, i16 %403, i32 2		; visa id: 1093
  %405 = extractelement <32 x i16> %376, i32 11		; visa id: 1093
  %406 = insertelement <8 x i16> %404, i16 %405, i32 3		; visa id: 1093
  %407 = extractelement <32 x i16> %376, i32 12		; visa id: 1093
  %408 = insertelement <8 x i16> %406, i16 %407, i32 4		; visa id: 1093
  %409 = extractelement <32 x i16> %376, i32 13		; visa id: 1093
  %410 = insertelement <8 x i16> %408, i16 %409, i32 5		; visa id: 1093
  %411 = extractelement <32 x i16> %376, i32 14		; visa id: 1093
  %412 = insertelement <8 x i16> %410, i16 %411, i32 6		; visa id: 1093
  %413 = extractelement <32 x i16> %376, i32 15		; visa id: 1093
  %414 = insertelement <8 x i16> %412, i16 %413, i32 7		; visa id: 1093
  %415 = extractelement <32 x i16> %376, i32 16		; visa id: 1093
  %416 = insertelement <8 x i16> undef, i16 %415, i32 0		; visa id: 1093
  %417 = extractelement <32 x i16> %376, i32 17		; visa id: 1093
  %418 = insertelement <8 x i16> %416, i16 %417, i32 1		; visa id: 1093
  %419 = extractelement <32 x i16> %376, i32 18		; visa id: 1093
  %420 = insertelement <8 x i16> %418, i16 %419, i32 2		; visa id: 1093
  %421 = extractelement <32 x i16> %376, i32 19		; visa id: 1093
  %422 = insertelement <8 x i16> %420, i16 %421, i32 3		; visa id: 1093
  %423 = extractelement <32 x i16> %376, i32 20		; visa id: 1093
  %424 = insertelement <8 x i16> %422, i16 %423, i32 4		; visa id: 1093
  %425 = extractelement <32 x i16> %376, i32 21		; visa id: 1093
  %426 = insertelement <8 x i16> %424, i16 %425, i32 5		; visa id: 1093
  %427 = extractelement <32 x i16> %376, i32 22		; visa id: 1093
  %428 = insertelement <8 x i16> %426, i16 %427, i32 6		; visa id: 1093
  %429 = extractelement <32 x i16> %376, i32 23		; visa id: 1093
  %430 = insertelement <8 x i16> %428, i16 %429, i32 7		; visa id: 1093
  %431 = extractelement <32 x i16> %376, i32 24		; visa id: 1093
  %432 = insertelement <8 x i16> undef, i16 %431, i32 0		; visa id: 1093
  %433 = extractelement <32 x i16> %376, i32 25		; visa id: 1093
  %434 = insertelement <8 x i16> %432, i16 %433, i32 1		; visa id: 1093
  %435 = extractelement <32 x i16> %376, i32 26		; visa id: 1093
  %436 = insertelement <8 x i16> %434, i16 %435, i32 2		; visa id: 1093
  %437 = extractelement <32 x i16> %376, i32 27		; visa id: 1093
  %438 = insertelement <8 x i16> %436, i16 %437, i32 3		; visa id: 1093
  %439 = extractelement <32 x i16> %376, i32 28		; visa id: 1093
  %440 = insertelement <8 x i16> %438, i16 %439, i32 4		; visa id: 1093
  %441 = extractelement <32 x i16> %376, i32 29		; visa id: 1093
  %442 = insertelement <8 x i16> %440, i16 %441, i32 5		; visa id: 1093
  %443 = extractelement <32 x i16> %376, i32 30		; visa id: 1093
  %444 = insertelement <8 x i16> %442, i16 %443, i32 6		; visa id: 1093
  %445 = extractelement <32 x i16> %376, i32 31		; visa id: 1093
  %446 = insertelement <8 x i16> %444, i16 %445, i32 7		; visa id: 1093
  %447 = call <8 x float> asm "{\0A.decl DST     v_type=G type=f num_elts=$5 alias=<$0,0>\0A.decl SRC1_UD v_type=G type=UD num_elts=128 alias=<$2,0>\0A.decl SRC2_UD v_type=G type=UD num_elts=$4 alias=<$1,0>\0Adpas.bf.bf.8.$3 (M1, 16) DST.0 DST.0 SRC1_UD.0 SRC2_UD(0,0)\0A}\0A", "=rw,rw,rw,P,P,P,0"(<8 x i16> %398, <16 x i16> %378, i32 8, i32 64, i32 128, <8 x float> %.sroa.03239.5) #0		; visa id: 1093
  %448 = call <8 x float> asm "{\0A.decl DST     v_type=G type=f num_elts=$5 alias=<$0,0>\0A.decl SRC1_UD v_type=G type=UD num_elts=128 alias=<$2,0>\0A.decl SRC2_UD v_type=G type=UD num_elts=$4 alias=<$1,0>\0Adpas.bf.bf.8.$3 (M1, 16) DST.0 DST.0 SRC1_UD.0 SRC2_UD(0,0)\0A}\0A", "=rw,rw,rw,P,P,P,0"(<8 x i16> %414, <16 x i16> %378, i32 8, i32 64, i32 128, <8 x float> %.sroa.171.5) #0		; visa id: 1093
  %449 = call <8 x float> asm "{\0A.decl DST     v_type=G type=f num_elts=$5 alias=<$0,0>\0A.decl SRC1_UD v_type=G type=UD num_elts=128 alias=<$2,0>\0A.decl SRC2_UD v_type=G type=UD num_elts=$4 alias=<$1,0>\0Adpas.bf.bf.8.$3 (M1, 16) DST.0 DST.0 SRC1_UD.0 SRC2_UD(0,0)\0A}\0A", "=rw,rw,rw,P,P,P,0"(<8 x i16> %414, <16 x i16> %379, i32 8, i32 64, i32 128, <8 x float> %.sroa.507.5) #0		; visa id: 1093
  %450 = call <8 x float> asm "{\0A.decl DST     v_type=G type=f num_elts=$5 alias=<$0,0>\0A.decl SRC1_UD v_type=G type=UD num_elts=128 alias=<$2,0>\0A.decl SRC2_UD v_type=G type=UD num_elts=$4 alias=<$1,0>\0Adpas.bf.bf.8.$3 (M1, 16) DST.0 DST.0 SRC1_UD.0 SRC2_UD(0,0)\0A}\0A", "=rw,rw,rw,P,P,P,0"(<8 x i16> %398, <16 x i16> %379, i32 8, i32 64, i32 128, <8 x float> %.sroa.339.5) #0		; visa id: 1093
  %451 = call <8 x float> asm "{\0A.decl DST     v_type=G type=f num_elts=$5 alias=<$0,0>\0A.decl SRC1_UD v_type=G type=UD num_elts=128 alias=<$2,0>\0A.decl SRC2_UD v_type=G type=UD num_elts=$4 alias=<$1,0>\0Adpas.bf.bf.8.$3 (M1, 16) DST.0 DST.0 SRC1_UD.0 SRC2_UD(0,0)\0A}\0A", "=rw,rw,rw,P,P,P,0"(<8 x i16> %430, <16 x i16> %381, i32 8, i32 64, i32 128, <8 x float> %447) #0		; visa id: 1093
  %452 = call <8 x float> asm "{\0A.decl DST     v_type=G type=f num_elts=$5 alias=<$0,0>\0A.decl SRC1_UD v_type=G type=UD num_elts=128 alias=<$2,0>\0A.decl SRC2_UD v_type=G type=UD num_elts=$4 alias=<$1,0>\0Adpas.bf.bf.8.$3 (M1, 16) DST.0 DST.0 SRC1_UD.0 SRC2_UD(0,0)\0A}\0A", "=rw,rw,rw,P,P,P,0"(<8 x i16> %446, <16 x i16> %381, i32 8, i32 64, i32 128, <8 x float> %448) #0		; visa id: 1093
  %453 = call <8 x float> asm "{\0A.decl DST     v_type=G type=f num_elts=$5 alias=<$0,0>\0A.decl SRC1_UD v_type=G type=UD num_elts=128 alias=<$2,0>\0A.decl SRC2_UD v_type=G type=UD num_elts=$4 alias=<$1,0>\0Adpas.bf.bf.8.$3 (M1, 16) DST.0 DST.0 SRC1_UD.0 SRC2_UD(0,0)\0A}\0A", "=rw,rw,rw,P,P,P,0"(<8 x i16> %446, <16 x i16> %382, i32 8, i32 64, i32 128, <8 x float> %449) #0		; visa id: 1093
  %454 = call <8 x float> asm "{\0A.decl DST     v_type=G type=f num_elts=$5 alias=<$0,0>\0A.decl SRC1_UD v_type=G type=UD num_elts=128 alias=<$2,0>\0A.decl SRC2_UD v_type=G type=UD num_elts=$4 alias=<$1,0>\0Adpas.bf.bf.8.$3 (M1, 16) DST.0 DST.0 SRC1_UD.0 SRC2_UD(0,0)\0A}\0A", "=rw,rw,rw,P,P,P,0"(<8 x i16> %430, <16 x i16> %382, i32 8, i32 64, i32 128, <8 x float> %450) #0		; visa id: 1093
  %455 = or i32 %375, 32		; visa id: 1093
  call void @llvm.genx.GenISA.LSC2DBlockSetAddrPayloadField.p4i8.i32(i8 addrspace(4)* %Block2D_AddrPayload, i32 5, i32 %455, i1 false)		; visa id: 1094
  call void @llvm.genx.GenISA.LSC2DBlockSetAddrPayloadField.p4i8.i32(i8 addrspace(4)* %Block2D_AddrPayload, i32 6, i32 %161, i1 false)		; visa id: 1095
  %456 = call <32 x i16> asm "lsc_load_block2d.ugm (M1, 1)  $0:d$2.$3x$4x$5nn flat[$1+(0,0)]", "=rw,rw.u,P,P,P,P"(i8 addrspace(4)* %Block2D_AddrPayload, i32 16, i32 2, i32 16, i32 16) #0		; visa id: 1096
  %457 = lshr exact i32 %455, 1		; visa id: 1096
  call void @llvm.genx.GenISA.LSC2DBlockSetAddrPayloadField.p4i8.i32(i8 addrspace(4)* %Block2D_AddrPayload117, i32 5, i32 %457, i1 false)		; visa id: 1097
  call void @llvm.genx.GenISA.LSC2DBlockSetAddrPayloadField.p4i8.i32(i8 addrspace(4)* %Block2D_AddrPayload117, i32 6, i32 %372, i1 false)		; visa id: 1098
  %458 = call <16 x i16> asm "lsc_load_block2d.ugm (M1, 1)  $0:d$2.$3x$4tn flat[$1+(0,0)]", "=rw,rw.u,P,P,P"(i8 addrspace(4)* %Block2D_AddrPayload117, i32 32, i32 8, i32 16) #0		; visa id: 1099
  call void @llvm.genx.GenISA.LSC2DBlockSetAddrPayloadField.p4i8.i32(i8 addrspace(4)* %Block2D_AddrPayload117, i32 5, i32 %457, i1 false)		; visa id: 1099
  call void @llvm.genx.GenISA.LSC2DBlockSetAddrPayloadField.p4i8.i32(i8 addrspace(4)* %Block2D_AddrPayload117, i32 6, i32 %373, i1 false)		; visa id: 1100
  %459 = call <16 x i16> asm "lsc_load_block2d.ugm (M1, 1)  $0:d$2.$3x$4tn flat[$1+(0,0)]", "=rw,rw.u,P,P,P"(i8 addrspace(4)* %Block2D_AddrPayload117, i32 32, i32 8, i32 16) #0		; visa id: 1101
  %460 = or i32 %457, 8		; visa id: 1101
  call void @llvm.genx.GenISA.LSC2DBlockSetAddrPayloadField.p4i8.i32(i8 addrspace(4)* %Block2D_AddrPayload117, i32 5, i32 %460, i1 false)		; visa id: 1102
  call void @llvm.genx.GenISA.LSC2DBlockSetAddrPayloadField.p4i8.i32(i8 addrspace(4)* %Block2D_AddrPayload117, i32 6, i32 %372, i1 false)		; visa id: 1103
  %461 = call <16 x i16> asm "lsc_load_block2d.ugm (M1, 1)  $0:d$2.$3x$4tn flat[$1+(0,0)]", "=rw,rw.u,P,P,P"(i8 addrspace(4)* %Block2D_AddrPayload117, i32 32, i32 8, i32 16) #0		; visa id: 1104
  call void @llvm.genx.GenISA.LSC2DBlockSetAddrPayloadField.p4i8.i32(i8 addrspace(4)* %Block2D_AddrPayload117, i32 5, i32 %460, i1 false)		; visa id: 1104
  call void @llvm.genx.GenISA.LSC2DBlockSetAddrPayloadField.p4i8.i32(i8 addrspace(4)* %Block2D_AddrPayload117, i32 6, i32 %373, i1 false)		; visa id: 1105
  %462 = call <16 x i16> asm "lsc_load_block2d.ugm (M1, 1)  $0:d$2.$3x$4tn flat[$1+(0,0)]", "=rw,rw.u,P,P,P"(i8 addrspace(4)* %Block2D_AddrPayload117, i32 32, i32 8, i32 16) #0		; visa id: 1106
  %463 = extractelement <32 x i16> %456, i32 0		; visa id: 1106
  %464 = insertelement <8 x i16> undef, i16 %463, i32 0		; visa id: 1106
  %465 = extractelement <32 x i16> %456, i32 1		; visa id: 1106
  %466 = insertelement <8 x i16> %464, i16 %465, i32 1		; visa id: 1106
  %467 = extractelement <32 x i16> %456, i32 2		; visa id: 1106
  %468 = insertelement <8 x i16> %466, i16 %467, i32 2		; visa id: 1106
  %469 = extractelement <32 x i16> %456, i32 3		; visa id: 1106
  %470 = insertelement <8 x i16> %468, i16 %469, i32 3		; visa id: 1106
  %471 = extractelement <32 x i16> %456, i32 4		; visa id: 1106
  %472 = insertelement <8 x i16> %470, i16 %471, i32 4		; visa id: 1106
  %473 = extractelement <32 x i16> %456, i32 5		; visa id: 1106
  %474 = insertelement <8 x i16> %472, i16 %473, i32 5		; visa id: 1106
  %475 = extractelement <32 x i16> %456, i32 6		; visa id: 1106
  %476 = insertelement <8 x i16> %474, i16 %475, i32 6		; visa id: 1106
  %477 = extractelement <32 x i16> %456, i32 7		; visa id: 1106
  %478 = insertelement <8 x i16> %476, i16 %477, i32 7		; visa id: 1106
  %479 = extractelement <32 x i16> %456, i32 8		; visa id: 1106
  %480 = insertelement <8 x i16> undef, i16 %479, i32 0		; visa id: 1106
  %481 = extractelement <32 x i16> %456, i32 9		; visa id: 1106
  %482 = insertelement <8 x i16> %480, i16 %481, i32 1		; visa id: 1106
  %483 = extractelement <32 x i16> %456, i32 10		; visa id: 1106
  %484 = insertelement <8 x i16> %482, i16 %483, i32 2		; visa id: 1106
  %485 = extractelement <32 x i16> %456, i32 11		; visa id: 1106
  %486 = insertelement <8 x i16> %484, i16 %485, i32 3		; visa id: 1106
  %487 = extractelement <32 x i16> %456, i32 12		; visa id: 1106
  %488 = insertelement <8 x i16> %486, i16 %487, i32 4		; visa id: 1106
  %489 = extractelement <32 x i16> %456, i32 13		; visa id: 1106
  %490 = insertelement <8 x i16> %488, i16 %489, i32 5		; visa id: 1106
  %491 = extractelement <32 x i16> %456, i32 14		; visa id: 1106
  %492 = insertelement <8 x i16> %490, i16 %491, i32 6		; visa id: 1106
  %493 = extractelement <32 x i16> %456, i32 15		; visa id: 1106
  %494 = insertelement <8 x i16> %492, i16 %493, i32 7		; visa id: 1106
  %495 = extractelement <32 x i16> %456, i32 16		; visa id: 1106
  %496 = insertelement <8 x i16> undef, i16 %495, i32 0		; visa id: 1106
  %497 = extractelement <32 x i16> %456, i32 17		; visa id: 1106
  %498 = insertelement <8 x i16> %496, i16 %497, i32 1		; visa id: 1106
  %499 = extractelement <32 x i16> %456, i32 18		; visa id: 1106
  %500 = insertelement <8 x i16> %498, i16 %499, i32 2		; visa id: 1106
  %501 = extractelement <32 x i16> %456, i32 19		; visa id: 1106
  %502 = insertelement <8 x i16> %500, i16 %501, i32 3		; visa id: 1106
  %503 = extractelement <32 x i16> %456, i32 20		; visa id: 1106
  %504 = insertelement <8 x i16> %502, i16 %503, i32 4		; visa id: 1106
  %505 = extractelement <32 x i16> %456, i32 21		; visa id: 1106
  %506 = insertelement <8 x i16> %504, i16 %505, i32 5		; visa id: 1106
  %507 = extractelement <32 x i16> %456, i32 22		; visa id: 1106
  %508 = insertelement <8 x i16> %506, i16 %507, i32 6		; visa id: 1106
  %509 = extractelement <32 x i16> %456, i32 23		; visa id: 1106
  %510 = insertelement <8 x i16> %508, i16 %509, i32 7		; visa id: 1106
  %511 = extractelement <32 x i16> %456, i32 24		; visa id: 1106
  %512 = insertelement <8 x i16> undef, i16 %511, i32 0		; visa id: 1106
  %513 = extractelement <32 x i16> %456, i32 25		; visa id: 1106
  %514 = insertelement <8 x i16> %512, i16 %513, i32 1		; visa id: 1106
  %515 = extractelement <32 x i16> %456, i32 26		; visa id: 1106
  %516 = insertelement <8 x i16> %514, i16 %515, i32 2		; visa id: 1106
  %517 = extractelement <32 x i16> %456, i32 27		; visa id: 1106
  %518 = insertelement <8 x i16> %516, i16 %517, i32 3		; visa id: 1106
  %519 = extractelement <32 x i16> %456, i32 28		; visa id: 1106
  %520 = insertelement <8 x i16> %518, i16 %519, i32 4		; visa id: 1106
  %521 = extractelement <32 x i16> %456, i32 29		; visa id: 1106
  %522 = insertelement <8 x i16> %520, i16 %521, i32 5		; visa id: 1106
  %523 = extractelement <32 x i16> %456, i32 30		; visa id: 1106
  %524 = insertelement <8 x i16> %522, i16 %523, i32 6		; visa id: 1106
  %525 = extractelement <32 x i16> %456, i32 31		; visa id: 1106
  %526 = insertelement <8 x i16> %524, i16 %525, i32 7		; visa id: 1106
  %527 = call <8 x float> asm "{\0A.decl DST     v_type=G type=f num_elts=$5 alias=<$0,0>\0A.decl SRC1_UD v_type=G type=UD num_elts=128 alias=<$2,0>\0A.decl SRC2_UD v_type=G type=UD num_elts=$4 alias=<$1,0>\0Adpas.bf.bf.8.$3 (M1, 16) DST.0 DST.0 SRC1_UD.0 SRC2_UD(0,0)\0A}\0A", "=rw,rw,rw,P,P,P,0"(<8 x i16> %478, <16 x i16> %458, i32 8, i32 64, i32 128, <8 x float> %451) #0		; visa id: 1106
  %528 = call <8 x float> asm "{\0A.decl DST     v_type=G type=f num_elts=$5 alias=<$0,0>\0A.decl SRC1_UD v_type=G type=UD num_elts=128 alias=<$2,0>\0A.decl SRC2_UD v_type=G type=UD num_elts=$4 alias=<$1,0>\0Adpas.bf.bf.8.$3 (M1, 16) DST.0 DST.0 SRC1_UD.0 SRC2_UD(0,0)\0A}\0A", "=rw,rw,rw,P,P,P,0"(<8 x i16> %494, <16 x i16> %458, i32 8, i32 64, i32 128, <8 x float> %452) #0		; visa id: 1106
  %529 = call <8 x float> asm "{\0A.decl DST     v_type=G type=f num_elts=$5 alias=<$0,0>\0A.decl SRC1_UD v_type=G type=UD num_elts=128 alias=<$2,0>\0A.decl SRC2_UD v_type=G type=UD num_elts=$4 alias=<$1,0>\0Adpas.bf.bf.8.$3 (M1, 16) DST.0 DST.0 SRC1_UD.0 SRC2_UD(0,0)\0A}\0A", "=rw,rw,rw,P,P,P,0"(<8 x i16> %494, <16 x i16> %459, i32 8, i32 64, i32 128, <8 x float> %453) #0		; visa id: 1106
  %530 = call <8 x float> asm "{\0A.decl DST     v_type=G type=f num_elts=$5 alias=<$0,0>\0A.decl SRC1_UD v_type=G type=UD num_elts=128 alias=<$2,0>\0A.decl SRC2_UD v_type=G type=UD num_elts=$4 alias=<$1,0>\0Adpas.bf.bf.8.$3 (M1, 16) DST.0 DST.0 SRC1_UD.0 SRC2_UD(0,0)\0A}\0A", "=rw,rw,rw,P,P,P,0"(<8 x i16> %478, <16 x i16> %459, i32 8, i32 64, i32 128, <8 x float> %454) #0		; visa id: 1106
  %531 = call <8 x float> asm "{\0A.decl DST     v_type=G type=f num_elts=$5 alias=<$0,0>\0A.decl SRC1_UD v_type=G type=UD num_elts=128 alias=<$2,0>\0A.decl SRC2_UD v_type=G type=UD num_elts=$4 alias=<$1,0>\0Adpas.bf.bf.8.$3 (M1, 16) DST.0 DST.0 SRC1_UD.0 SRC2_UD(0,0)\0A}\0A", "=rw,rw,rw,P,P,P,0"(<8 x i16> %510, <16 x i16> %461, i32 8, i32 64, i32 128, <8 x float> %527) #0		; visa id: 1106
  %532 = call <8 x float> asm "{\0A.decl DST     v_type=G type=f num_elts=$5 alias=<$0,0>\0A.decl SRC1_UD v_type=G type=UD num_elts=128 alias=<$2,0>\0A.decl SRC2_UD v_type=G type=UD num_elts=$4 alias=<$1,0>\0Adpas.bf.bf.8.$3 (M1, 16) DST.0 DST.0 SRC1_UD.0 SRC2_UD(0,0)\0A}\0A", "=rw,rw,rw,P,P,P,0"(<8 x i16> %526, <16 x i16> %461, i32 8, i32 64, i32 128, <8 x float> %528) #0		; visa id: 1106
  %533 = call <8 x float> asm "{\0A.decl DST     v_type=G type=f num_elts=$5 alias=<$0,0>\0A.decl SRC1_UD v_type=G type=UD num_elts=128 alias=<$2,0>\0A.decl SRC2_UD v_type=G type=UD num_elts=$4 alias=<$1,0>\0Adpas.bf.bf.8.$3 (M1, 16) DST.0 DST.0 SRC1_UD.0 SRC2_UD(0,0)\0A}\0A", "=rw,rw,rw,P,P,P,0"(<8 x i16> %526, <16 x i16> %462, i32 8, i32 64, i32 128, <8 x float> %529) #0		; visa id: 1106
  %534 = call <8 x float> asm "{\0A.decl DST     v_type=G type=f num_elts=$5 alias=<$0,0>\0A.decl SRC1_UD v_type=G type=UD num_elts=128 alias=<$2,0>\0A.decl SRC2_UD v_type=G type=UD num_elts=$4 alias=<$1,0>\0Adpas.bf.bf.8.$3 (M1, 16) DST.0 DST.0 SRC1_UD.0 SRC2_UD(0,0)\0A}\0A", "=rw,rw,rw,P,P,P,0"(<8 x i16> %510, <16 x i16> %462, i32 8, i32 64, i32 128, <8 x float> %530) #0		; visa id: 1106
  %535 = add nuw nsw i32 %374, 2, !spirv.Decorations !1214		; visa id: 1106
  %niter281.next.1 = add i32 %niter281, 2		; visa id: 1107
  %niter281.ncmp.1.not = icmp eq i32 %niter281.next.1, %unroll_iter280		; visa id: 1108
  br i1 %niter281.ncmp.1.not, label %._crit_edge247.unr-lcssa, label %.preheader233..preheader233_crit_edge, !llvm.loop !1235, !stats.blockFrequency.digits !1237, !stats.blockFrequency.scale !1238		; visa id: 1109

.preheader233..preheader233_crit_edge:            ; preds = %.preheader233
; BB:
  br label %.preheader233, !stats.blockFrequency.digits !1239, !stats.blockFrequency.scale !1240

._crit_edge247.unr-lcssa:                         ; preds = %.preheader233
; BB80 :
  %.lcssa7656 = phi <8 x float> [ %531, %.preheader233 ]
  %.lcssa7655 = phi <8 x float> [ %532, %.preheader233 ]
  %.lcssa7654 = phi <8 x float> [ %533, %.preheader233 ]
  %.lcssa7653 = phi <8 x float> [ %534, %.preheader233 ]
  %.lcssa7652 = phi i32 [ %535, %.preheader233 ]
  br i1 %lcmp.mod279.not, label %._crit_edge247.unr-lcssa..preheader3.i.preheader_crit_edge, label %._crit_edge247.unr-lcssa..epil.preheader275_crit_edge, !stats.blockFrequency.digits !1224, !stats.blockFrequency.scale !1206		; visa id: 1111

._crit_edge247.unr-lcssa..epil.preheader275_crit_edge: ; preds = %._crit_edge247.unr-lcssa
; BB:
  br label %.epil.preheader275, !stats.blockFrequency.digits !1224, !stats.blockFrequency.scale !1207

.epil.preheader275:                               ; preds = %._crit_edge247.unr-lcssa..epil.preheader275_crit_edge, %.lr.ph246..epil.preheader275_crit_edge
; BB82 :
  %.unr2787141 = phi i32 [ %.lcssa7652, %._crit_edge247.unr-lcssa..epil.preheader275_crit_edge ], [ 0, %.lr.ph246..epil.preheader275_crit_edge ]
  %.sroa.03239.27140 = phi <8 x float> [ %.lcssa7656, %._crit_edge247.unr-lcssa..epil.preheader275_crit_edge ], [ zeroinitializer, %.lr.ph246..epil.preheader275_crit_edge ]
  %.sroa.171.27139 = phi <8 x float> [ %.lcssa7655, %._crit_edge247.unr-lcssa..epil.preheader275_crit_edge ], [ zeroinitializer, %.lr.ph246..epil.preheader275_crit_edge ]
  %.sroa.339.27138 = phi <8 x float> [ %.lcssa7653, %._crit_edge247.unr-lcssa..epil.preheader275_crit_edge ], [ zeroinitializer, %.lr.ph246..epil.preheader275_crit_edge ]
  %.sroa.507.27137 = phi <8 x float> [ %.lcssa7654, %._crit_edge247.unr-lcssa..epil.preheader275_crit_edge ], [ zeroinitializer, %.lr.ph246..epil.preheader275_crit_edge ]
  %536 = shl nsw i32 %.unr2787141, 5, !spirv.Decorations !1203		; visa id: 1113
  call void @llvm.genx.GenISA.LSC2DBlockSetAddrPayloadField.p4i8.i32(i8 addrspace(4)* %Block2D_AddrPayload, i32 5, i32 %536, i1 false)		; visa id: 1114
  call void @llvm.genx.GenISA.LSC2DBlockSetAddrPayloadField.p4i8.i32(i8 addrspace(4)* %Block2D_AddrPayload, i32 6, i32 %161, i1 false)		; visa id: 1115
  %537 = call <32 x i16> asm "lsc_load_block2d.ugm (M1, 1)  $0:d$2.$3x$4x$5nn flat[$1+(0,0)]", "=rw,rw.u,P,P,P,P"(i8 addrspace(4)* %Block2D_AddrPayload, i32 16, i32 2, i32 16, i32 16) #0		; visa id: 1116
  %538 = lshr exact i32 %536, 1		; visa id: 1116
  call void @llvm.genx.GenISA.LSC2DBlockSetAddrPayloadField.p4i8.i32(i8 addrspace(4)* %Block2D_AddrPayload117, i32 5, i32 %538, i1 false)		; visa id: 1117
  call void @llvm.genx.GenISA.LSC2DBlockSetAddrPayloadField.p4i8.i32(i8 addrspace(4)* %Block2D_AddrPayload117, i32 6, i32 %372, i1 false)		; visa id: 1118
  %539 = call <16 x i16> asm "lsc_load_block2d.ugm (M1, 1)  $0:d$2.$3x$4tn flat[$1+(0,0)]", "=rw,rw.u,P,P,P"(i8 addrspace(4)* %Block2D_AddrPayload117, i32 32, i32 8, i32 16) #0		; visa id: 1119
  %540 = add i32 %372, 16		; visa id: 1119
  call void @llvm.genx.GenISA.LSC2DBlockSetAddrPayloadField.p4i8.i32(i8 addrspace(4)* %Block2D_AddrPayload117, i32 5, i32 %538, i1 false)		; visa id: 1120
  call void @llvm.genx.GenISA.LSC2DBlockSetAddrPayloadField.p4i8.i32(i8 addrspace(4)* %Block2D_AddrPayload117, i32 6, i32 %540, i1 false)		; visa id: 1121
  %541 = call <16 x i16> asm "lsc_load_block2d.ugm (M1, 1)  $0:d$2.$3x$4tn flat[$1+(0,0)]", "=rw,rw.u,P,P,P"(i8 addrspace(4)* %Block2D_AddrPayload117, i32 32, i32 8, i32 16) #0		; visa id: 1122
  %542 = or i32 %538, 8		; visa id: 1122
  call void @llvm.genx.GenISA.LSC2DBlockSetAddrPayloadField.p4i8.i32(i8 addrspace(4)* %Block2D_AddrPayload117, i32 5, i32 %542, i1 false)		; visa id: 1123
  call void @llvm.genx.GenISA.LSC2DBlockSetAddrPayloadField.p4i8.i32(i8 addrspace(4)* %Block2D_AddrPayload117, i32 6, i32 %372, i1 false)		; visa id: 1124
  %543 = call <16 x i16> asm "lsc_load_block2d.ugm (M1, 1)  $0:d$2.$3x$4tn flat[$1+(0,0)]", "=rw,rw.u,P,P,P"(i8 addrspace(4)* %Block2D_AddrPayload117, i32 32, i32 8, i32 16) #0		; visa id: 1125
  call void @llvm.genx.GenISA.LSC2DBlockSetAddrPayloadField.p4i8.i32(i8 addrspace(4)* %Block2D_AddrPayload117, i32 5, i32 %542, i1 false)		; visa id: 1125
  call void @llvm.genx.GenISA.LSC2DBlockSetAddrPayloadField.p4i8.i32(i8 addrspace(4)* %Block2D_AddrPayload117, i32 6, i32 %540, i1 false)		; visa id: 1126
  %544 = call <16 x i16> asm "lsc_load_block2d.ugm (M1, 1)  $0:d$2.$3x$4tn flat[$1+(0,0)]", "=rw,rw.u,P,P,P"(i8 addrspace(4)* %Block2D_AddrPayload117, i32 32, i32 8, i32 16) #0		; visa id: 1127
  %545 = extractelement <32 x i16> %537, i32 0		; visa id: 1127
  %546 = insertelement <8 x i16> undef, i16 %545, i32 0		; visa id: 1127
  %547 = extractelement <32 x i16> %537, i32 1		; visa id: 1127
  %548 = insertelement <8 x i16> %546, i16 %547, i32 1		; visa id: 1127
  %549 = extractelement <32 x i16> %537, i32 2		; visa id: 1127
  %550 = insertelement <8 x i16> %548, i16 %549, i32 2		; visa id: 1127
  %551 = extractelement <32 x i16> %537, i32 3		; visa id: 1127
  %552 = insertelement <8 x i16> %550, i16 %551, i32 3		; visa id: 1127
  %553 = extractelement <32 x i16> %537, i32 4		; visa id: 1127
  %554 = insertelement <8 x i16> %552, i16 %553, i32 4		; visa id: 1127
  %555 = extractelement <32 x i16> %537, i32 5		; visa id: 1127
  %556 = insertelement <8 x i16> %554, i16 %555, i32 5		; visa id: 1127
  %557 = extractelement <32 x i16> %537, i32 6		; visa id: 1127
  %558 = insertelement <8 x i16> %556, i16 %557, i32 6		; visa id: 1127
  %559 = extractelement <32 x i16> %537, i32 7		; visa id: 1127
  %560 = insertelement <8 x i16> %558, i16 %559, i32 7		; visa id: 1127
  %561 = extractelement <32 x i16> %537, i32 8		; visa id: 1127
  %562 = insertelement <8 x i16> undef, i16 %561, i32 0		; visa id: 1127
  %563 = extractelement <32 x i16> %537, i32 9		; visa id: 1127
  %564 = insertelement <8 x i16> %562, i16 %563, i32 1		; visa id: 1127
  %565 = extractelement <32 x i16> %537, i32 10		; visa id: 1127
  %566 = insertelement <8 x i16> %564, i16 %565, i32 2		; visa id: 1127
  %567 = extractelement <32 x i16> %537, i32 11		; visa id: 1127
  %568 = insertelement <8 x i16> %566, i16 %567, i32 3		; visa id: 1127
  %569 = extractelement <32 x i16> %537, i32 12		; visa id: 1127
  %570 = insertelement <8 x i16> %568, i16 %569, i32 4		; visa id: 1127
  %571 = extractelement <32 x i16> %537, i32 13		; visa id: 1127
  %572 = insertelement <8 x i16> %570, i16 %571, i32 5		; visa id: 1127
  %573 = extractelement <32 x i16> %537, i32 14		; visa id: 1127
  %574 = insertelement <8 x i16> %572, i16 %573, i32 6		; visa id: 1127
  %575 = extractelement <32 x i16> %537, i32 15		; visa id: 1127
  %576 = insertelement <8 x i16> %574, i16 %575, i32 7		; visa id: 1127
  %577 = extractelement <32 x i16> %537, i32 16		; visa id: 1127
  %578 = insertelement <8 x i16> undef, i16 %577, i32 0		; visa id: 1127
  %579 = extractelement <32 x i16> %537, i32 17		; visa id: 1127
  %580 = insertelement <8 x i16> %578, i16 %579, i32 1		; visa id: 1127
  %581 = extractelement <32 x i16> %537, i32 18		; visa id: 1127
  %582 = insertelement <8 x i16> %580, i16 %581, i32 2		; visa id: 1127
  %583 = extractelement <32 x i16> %537, i32 19		; visa id: 1127
  %584 = insertelement <8 x i16> %582, i16 %583, i32 3		; visa id: 1127
  %585 = extractelement <32 x i16> %537, i32 20		; visa id: 1127
  %586 = insertelement <8 x i16> %584, i16 %585, i32 4		; visa id: 1127
  %587 = extractelement <32 x i16> %537, i32 21		; visa id: 1127
  %588 = insertelement <8 x i16> %586, i16 %587, i32 5		; visa id: 1127
  %589 = extractelement <32 x i16> %537, i32 22		; visa id: 1127
  %590 = insertelement <8 x i16> %588, i16 %589, i32 6		; visa id: 1127
  %591 = extractelement <32 x i16> %537, i32 23		; visa id: 1127
  %592 = insertelement <8 x i16> %590, i16 %591, i32 7		; visa id: 1127
  %593 = extractelement <32 x i16> %537, i32 24		; visa id: 1127
  %594 = insertelement <8 x i16> undef, i16 %593, i32 0		; visa id: 1127
  %595 = extractelement <32 x i16> %537, i32 25		; visa id: 1127
  %596 = insertelement <8 x i16> %594, i16 %595, i32 1		; visa id: 1127
  %597 = extractelement <32 x i16> %537, i32 26		; visa id: 1127
  %598 = insertelement <8 x i16> %596, i16 %597, i32 2		; visa id: 1127
  %599 = extractelement <32 x i16> %537, i32 27		; visa id: 1127
  %600 = insertelement <8 x i16> %598, i16 %599, i32 3		; visa id: 1127
  %601 = extractelement <32 x i16> %537, i32 28		; visa id: 1127
  %602 = insertelement <8 x i16> %600, i16 %601, i32 4		; visa id: 1127
  %603 = extractelement <32 x i16> %537, i32 29		; visa id: 1127
  %604 = insertelement <8 x i16> %602, i16 %603, i32 5		; visa id: 1127
  %605 = extractelement <32 x i16> %537, i32 30		; visa id: 1127
  %606 = insertelement <8 x i16> %604, i16 %605, i32 6		; visa id: 1127
  %607 = extractelement <32 x i16> %537, i32 31		; visa id: 1127
  %608 = insertelement <8 x i16> %606, i16 %607, i32 7		; visa id: 1127
  %609 = call <8 x float> asm "{\0A.decl DST     v_type=G type=f num_elts=$5 alias=<$0,0>\0A.decl SRC1_UD v_type=G type=UD num_elts=128 alias=<$2,0>\0A.decl SRC2_UD v_type=G type=UD num_elts=$4 alias=<$1,0>\0Adpas.bf.bf.8.$3 (M1, 16) DST.0 DST.0 SRC1_UD.0 SRC2_UD(0,0)\0A}\0A", "=rw,rw,rw,P,P,P,0"(<8 x i16> %560, <16 x i16> %539, i32 8, i32 64, i32 128, <8 x float> %.sroa.03239.27140) #0		; visa id: 1127
  %610 = call <8 x float> asm "{\0A.decl DST     v_type=G type=f num_elts=$5 alias=<$0,0>\0A.decl SRC1_UD v_type=G type=UD num_elts=128 alias=<$2,0>\0A.decl SRC2_UD v_type=G type=UD num_elts=$4 alias=<$1,0>\0Adpas.bf.bf.8.$3 (M1, 16) DST.0 DST.0 SRC1_UD.0 SRC2_UD(0,0)\0A}\0A", "=rw,rw,rw,P,P,P,0"(<8 x i16> %576, <16 x i16> %539, i32 8, i32 64, i32 128, <8 x float> %.sroa.171.27139) #0		; visa id: 1127
  %611 = call <8 x float> asm "{\0A.decl DST     v_type=G type=f num_elts=$5 alias=<$0,0>\0A.decl SRC1_UD v_type=G type=UD num_elts=128 alias=<$2,0>\0A.decl SRC2_UD v_type=G type=UD num_elts=$4 alias=<$1,0>\0Adpas.bf.bf.8.$3 (M1, 16) DST.0 DST.0 SRC1_UD.0 SRC2_UD(0,0)\0A}\0A", "=rw,rw,rw,P,P,P,0"(<8 x i16> %576, <16 x i16> %541, i32 8, i32 64, i32 128, <8 x float> %.sroa.507.27137) #0		; visa id: 1127
  %612 = call <8 x float> asm "{\0A.decl DST     v_type=G type=f num_elts=$5 alias=<$0,0>\0A.decl SRC1_UD v_type=G type=UD num_elts=128 alias=<$2,0>\0A.decl SRC2_UD v_type=G type=UD num_elts=$4 alias=<$1,0>\0Adpas.bf.bf.8.$3 (M1, 16) DST.0 DST.0 SRC1_UD.0 SRC2_UD(0,0)\0A}\0A", "=rw,rw,rw,P,P,P,0"(<8 x i16> %560, <16 x i16> %541, i32 8, i32 64, i32 128, <8 x float> %.sroa.339.27138) #0		; visa id: 1127
  %613 = call <8 x float> asm "{\0A.decl DST     v_type=G type=f num_elts=$5 alias=<$0,0>\0A.decl SRC1_UD v_type=G type=UD num_elts=128 alias=<$2,0>\0A.decl SRC2_UD v_type=G type=UD num_elts=$4 alias=<$1,0>\0Adpas.bf.bf.8.$3 (M1, 16) DST.0 DST.0 SRC1_UD.0 SRC2_UD(0,0)\0A}\0A", "=rw,rw,rw,P,P,P,0"(<8 x i16> %592, <16 x i16> %543, i32 8, i32 64, i32 128, <8 x float> %609) #0		; visa id: 1127
  %614 = call <8 x float> asm "{\0A.decl DST     v_type=G type=f num_elts=$5 alias=<$0,0>\0A.decl SRC1_UD v_type=G type=UD num_elts=128 alias=<$2,0>\0A.decl SRC2_UD v_type=G type=UD num_elts=$4 alias=<$1,0>\0Adpas.bf.bf.8.$3 (M1, 16) DST.0 DST.0 SRC1_UD.0 SRC2_UD(0,0)\0A}\0A", "=rw,rw,rw,P,P,P,0"(<8 x i16> %608, <16 x i16> %543, i32 8, i32 64, i32 128, <8 x float> %610) #0		; visa id: 1127
  %615 = call <8 x float> asm "{\0A.decl DST     v_type=G type=f num_elts=$5 alias=<$0,0>\0A.decl SRC1_UD v_type=G type=UD num_elts=128 alias=<$2,0>\0A.decl SRC2_UD v_type=G type=UD num_elts=$4 alias=<$1,0>\0Adpas.bf.bf.8.$3 (M1, 16) DST.0 DST.0 SRC1_UD.0 SRC2_UD(0,0)\0A}\0A", "=rw,rw,rw,P,P,P,0"(<8 x i16> %608, <16 x i16> %544, i32 8, i32 64, i32 128, <8 x float> %611) #0		; visa id: 1127
  %616 = call <8 x float> asm "{\0A.decl DST     v_type=G type=f num_elts=$5 alias=<$0,0>\0A.decl SRC1_UD v_type=G type=UD num_elts=128 alias=<$2,0>\0A.decl SRC2_UD v_type=G type=UD num_elts=$4 alias=<$1,0>\0Adpas.bf.bf.8.$3 (M1, 16) DST.0 DST.0 SRC1_UD.0 SRC2_UD(0,0)\0A}\0A", "=rw,rw,rw,P,P,P,0"(<8 x i16> %592, <16 x i16> %544, i32 8, i32 64, i32 128, <8 x float> %612) #0		; visa id: 1127
  br label %.preheader3.i.preheader, !stats.blockFrequency.digits !1241, !stats.blockFrequency.scale !1223		; visa id: 1127

._crit_edge247.unr-lcssa..preheader3.i.preheader_crit_edge: ; preds = %._crit_edge247.unr-lcssa
; BB:
  br label %.preheader3.i.preheader, !stats.blockFrequency.digits !1224, !stats.blockFrequency.scale !1207

.preheader3.i.preheader:                          ; preds = %._crit_edge247.unr-lcssa..preheader3.i.preheader_crit_edge, %precompiled_s32divrem_sp.exit7460..preheader3.i.preheader_crit_edge, %.epil.preheader275
; BB84 :
  %.sroa.507.4 = phi <8 x float> [ zeroinitializer, %precompiled_s32divrem_sp.exit7460..preheader3.i.preheader_crit_edge ], [ %615, %.epil.preheader275 ], [ %.lcssa7654, %._crit_edge247.unr-lcssa..preheader3.i.preheader_crit_edge ]
  %.sroa.339.4 = phi <8 x float> [ zeroinitializer, %precompiled_s32divrem_sp.exit7460..preheader3.i.preheader_crit_edge ], [ %616, %.epil.preheader275 ], [ %.lcssa7653, %._crit_edge247.unr-lcssa..preheader3.i.preheader_crit_edge ]
  %.sroa.171.4 = phi <8 x float> [ zeroinitializer, %precompiled_s32divrem_sp.exit7460..preheader3.i.preheader_crit_edge ], [ %614, %.epil.preheader275 ], [ %.lcssa7655, %._crit_edge247.unr-lcssa..preheader3.i.preheader_crit_edge ]
  %.sroa.03239.4 = phi <8 x float> [ zeroinitializer, %precompiled_s32divrem_sp.exit7460..preheader3.i.preheader_crit_edge ], [ %613, %.epil.preheader275 ], [ %.lcssa7656, %._crit_edge247.unr-lcssa..preheader3.i.preheader_crit_edge ]
  %617 = add nsw i32 %372, %163, !spirv.Decorations !1203		; visa id: 1128
  call void @llvm.genx.GenISA.LSC2DBlockSetAddrPayloadField.p4i8.i32(i8 addrspace(4)* %Block2D_AddrPayload123, i32 5, i32 %307, i1 false)		; visa id: 1129
  call void @llvm.genx.GenISA.LSC2DBlockSetAddrPayloadField.p4i8.i32(i8 addrspace(4)* %Block2D_AddrPayload123, i32 6, i32 %617, i1 false)		; visa id: 1130
  call void asm sideeffect "lsc_load_block2d.ugm.ca.ca (M1, 1)  %null:d$1.$2x$3nn flat[$0+(0,0)]", "rw.u,P,P,P"(i8 addrspace(4)* %Block2D_AddrPayload123, i32 16, i32 32, i32 2) #0		; visa id: 1131
  call void @llvm.genx.GenISA.LSC2DBlockSetAddrPayloadField.p4i8.i32(i8 addrspace(4)* %Block2D_AddrPayload123, i32 5, i32 %308, i1 false)		; visa id: 1131
  call void @llvm.genx.GenISA.LSC2DBlockSetAddrPayloadField.p4i8.i32(i8 addrspace(4)* %Block2D_AddrPayload123, i32 6, i32 %617, i1 false)		; visa id: 1132
  call void asm sideeffect "lsc_load_block2d.ugm.ca.ca (M1, 1)  %null:d$1.$2x$3nn flat[$0+(0,0)]", "rw.u,P,P,P"(i8 addrspace(4)* %Block2D_AddrPayload123, i32 16, i32 32, i32 2) #0		; visa id: 1133
  call void @llvm.genx.GenISA.LSC2DBlockSetAddrPayloadField.p4i8.i32(i8 addrspace(4)* %Block2D_AddrPayload123, i32 5, i32 %309, i1 false)		; visa id: 1133
  call void @llvm.genx.GenISA.LSC2DBlockSetAddrPayloadField.p4i8.i32(i8 addrspace(4)* %Block2D_AddrPayload123, i32 6, i32 %617, i1 false)		; visa id: 1134
  call void asm sideeffect "lsc_load_block2d.ugm.ca.ca (M1, 1)  %null:d$1.$2x$3nn flat[$0+(0,0)]", "rw.u,P,P,P"(i8 addrspace(4)* %Block2D_AddrPayload123, i32 16, i32 32, i32 2) #0		; visa id: 1135
  call void @llvm.genx.GenISA.LSC2DBlockSetAddrPayloadField.p4i8.i32(i8 addrspace(4)* %Block2D_AddrPayload123, i32 5, i32 %310, i1 false)		; visa id: 1135
  call void @llvm.genx.GenISA.LSC2DBlockSetAddrPayloadField.p4i8.i32(i8 addrspace(4)* %Block2D_AddrPayload123, i32 6, i32 %617, i1 false)		; visa id: 1136
  call void asm sideeffect "lsc_load_block2d.ugm.ca.ca (M1, 1)  %null:d$1.$2x$3nn flat[$0+(0,0)]", "rw.u,P,P,P"(i8 addrspace(4)* %Block2D_AddrPayload123, i32 16, i32 32, i32 2) #0		; visa id: 1137
  %618 = extractelement <8 x float> %.sroa.03239.4, i32 0		; visa id: 1137
  %619 = extractelement <8 x float> %.sroa.339.4, i32 0		; visa id: 1138
  %620 = fcmp reassoc nsz arcp contract olt float %618, %619, !spirv.Decorations !1242		; visa id: 1139
  %621 = select i1 %620, float %619, float %618		; visa id: 1140
  %622 = extractelement <8 x float> %.sroa.03239.4, i32 1		; visa id: 1141
  %623 = extractelement <8 x float> %.sroa.339.4, i32 1		; visa id: 1142
  %624 = fcmp reassoc nsz arcp contract olt float %622, %623, !spirv.Decorations !1242		; visa id: 1143
  %625 = select i1 %624, float %623, float %622		; visa id: 1144
  %626 = extractelement <8 x float> %.sroa.03239.4, i32 2		; visa id: 1145
  %627 = extractelement <8 x float> %.sroa.339.4, i32 2		; visa id: 1146
  %628 = fcmp reassoc nsz arcp contract olt float %626, %627, !spirv.Decorations !1242		; visa id: 1147
  %629 = select i1 %628, float %627, float %626		; visa id: 1148
  %630 = extractelement <8 x float> %.sroa.03239.4, i32 3		; visa id: 1149
  %631 = extractelement <8 x float> %.sroa.339.4, i32 3		; visa id: 1150
  %632 = fcmp reassoc nsz arcp contract olt float %630, %631, !spirv.Decorations !1242		; visa id: 1151
  %633 = select i1 %632, float %631, float %630		; visa id: 1152
  %634 = extractelement <8 x float> %.sroa.03239.4, i32 4		; visa id: 1153
  %635 = extractelement <8 x float> %.sroa.339.4, i32 4		; visa id: 1154
  %636 = fcmp reassoc nsz arcp contract olt float %634, %635, !spirv.Decorations !1242		; visa id: 1155
  %637 = select i1 %636, float %635, float %634		; visa id: 1156
  %638 = extractelement <8 x float> %.sroa.03239.4, i32 5		; visa id: 1157
  %639 = extractelement <8 x float> %.sroa.339.4, i32 5		; visa id: 1158
  %640 = fcmp reassoc nsz arcp contract olt float %638, %639, !spirv.Decorations !1242		; visa id: 1159
  %641 = select i1 %640, float %639, float %638		; visa id: 1160
  %642 = extractelement <8 x float> %.sroa.03239.4, i32 6		; visa id: 1161
  %643 = extractelement <8 x float> %.sroa.339.4, i32 6		; visa id: 1162
  %644 = fcmp reassoc nsz arcp contract olt float %642, %643, !spirv.Decorations !1242		; visa id: 1163
  %645 = select i1 %644, float %643, float %642		; visa id: 1164
  %646 = extractelement <8 x float> %.sroa.03239.4, i32 7		; visa id: 1165
  %647 = extractelement <8 x float> %.sroa.339.4, i32 7		; visa id: 1166
  %648 = fcmp reassoc nsz arcp contract olt float %646, %647, !spirv.Decorations !1242		; visa id: 1167
  %649 = select i1 %648, float %647, float %646		; visa id: 1168
  %650 = extractelement <8 x float> %.sroa.171.4, i32 0		; visa id: 1169
  %651 = extractelement <8 x float> %.sroa.507.4, i32 0		; visa id: 1170
  %652 = fcmp reassoc nsz arcp contract olt float %650, %651, !spirv.Decorations !1242		; visa id: 1171
  %653 = select i1 %652, float %651, float %650		; visa id: 1172
  %654 = extractelement <8 x float> %.sroa.171.4, i32 1		; visa id: 1173
  %655 = extractelement <8 x float> %.sroa.507.4, i32 1		; visa id: 1174
  %656 = fcmp reassoc nsz arcp contract olt float %654, %655, !spirv.Decorations !1242		; visa id: 1175
  %657 = select i1 %656, float %655, float %654		; visa id: 1176
  %658 = extractelement <8 x float> %.sroa.171.4, i32 2		; visa id: 1177
  %659 = extractelement <8 x float> %.sroa.507.4, i32 2		; visa id: 1178
  %660 = fcmp reassoc nsz arcp contract olt float %658, %659, !spirv.Decorations !1242		; visa id: 1179
  %661 = select i1 %660, float %659, float %658		; visa id: 1180
  %662 = extractelement <8 x float> %.sroa.171.4, i32 3		; visa id: 1181
  %663 = extractelement <8 x float> %.sroa.507.4, i32 3		; visa id: 1182
  %664 = fcmp reassoc nsz arcp contract olt float %662, %663, !spirv.Decorations !1242		; visa id: 1183
  %665 = select i1 %664, float %663, float %662		; visa id: 1184
  %666 = extractelement <8 x float> %.sroa.171.4, i32 4		; visa id: 1185
  %667 = extractelement <8 x float> %.sroa.507.4, i32 4		; visa id: 1186
  %668 = fcmp reassoc nsz arcp contract olt float %666, %667, !spirv.Decorations !1242		; visa id: 1187
  %669 = select i1 %668, float %667, float %666		; visa id: 1188
  %670 = extractelement <8 x float> %.sroa.171.4, i32 5		; visa id: 1189
  %671 = extractelement <8 x float> %.sroa.507.4, i32 5		; visa id: 1190
  %672 = fcmp reassoc nsz arcp contract olt float %670, %671, !spirv.Decorations !1242		; visa id: 1191
  %673 = select i1 %672, float %671, float %670		; visa id: 1192
  %674 = extractelement <8 x float> %.sroa.171.4, i32 6		; visa id: 1193
  %675 = extractelement <8 x float> %.sroa.507.4, i32 6		; visa id: 1194
  %676 = fcmp reassoc nsz arcp contract olt float %674, %675, !spirv.Decorations !1242		; visa id: 1195
  %677 = select i1 %676, float %675, float %674		; visa id: 1196
  %678 = extractelement <8 x float> %.sroa.171.4, i32 7		; visa id: 1197
  %679 = extractelement <8 x float> %.sroa.507.4, i32 7		; visa id: 1198
  %680 = fcmp reassoc nsz arcp contract olt float %678, %679, !spirv.Decorations !1242		; visa id: 1199
  %681 = select i1 %680, float %679, float %678		; visa id: 1200
  %682 = call float asm "{\0A.decl INTERLEAVE_2 v_type=P num_elts=16\0A.decl INTERLEAVE_4 v_type=P num_elts=16\0A.decl INTERLEAVE_8 v_type=P num_elts=16\0A.decl IN0 v_type=G type=UD num_elts=16 alias=<$1,0>\0A.decl IN1 v_type=G type=UD num_elts=16 alias=<$2,0>\0A.decl IN2 v_type=G type=UD num_elts=16 alias=<$3,0>\0A.decl IN3 v_type=G type=UD num_elts=16 alias=<$4,0>\0A.decl IN4 v_type=G type=UD num_elts=16 alias=<$5,0>\0A.decl IN5 v_type=G type=UD num_elts=16 alias=<$6,0>\0A.decl IN6 v_type=G type=UD num_elts=16 alias=<$7,0>\0A.decl IN7 v_type=G type=UD num_elts=16 alias=<$8,0>\0A.decl IN8 v_type=G type=UD num_elts=16 alias=<$9,0>\0A.decl IN9 v_type=G type=UD num_elts=16 alias=<$10,0>\0A.decl IN10 v_type=G type=UD num_elts=16 alias=<$11,0>\0A.decl IN11 v_type=G type=UD num_elts=16 alias=<$12,0>\0A.decl IN12 v_type=G type=UD num_elts=16 alias=<$13,0>\0A.decl IN13 v_type=G type=UD num_elts=16 alias=<$14,0>\0A.decl IN14 v_type=G type=UD num_elts=16 alias=<$15,0>\0A.decl IN15 v_type=G type=UD num_elts=16 alias=<$16,0>\0A.decl RA0 v_type=G type=UD num_elts=32 align=64\0A.decl RA2 v_type=G type=UD num_elts=32 align=64\0A.decl RA4 v_type=G type=UD num_elts=32 align=64\0A.decl RA6 v_type=G type=UD num_elts=32 align=64\0A.decl RA8 v_type=G type=UD num_elts=32 align=64\0A.decl RA10 v_type=G type=UD num_elts=32 align=64\0A.decl RA12 v_type=G type=UD num_elts=32 align=64\0A.decl RA14 v_type=G type=UD num_elts=32 align=64\0A.decl RF0 v_type=G type=F num_elts=16 alias=<RA0,0>\0A.decl RF1 v_type=G type=F num_elts=16 alias=<RA0,64>\0A.decl RF2 v_type=G type=F num_elts=16 alias=<RA2,0>\0A.decl RF3 v_type=G type=F num_elts=16 alias=<RA2,64>\0A.decl RF4 v_type=G type=F num_elts=16 alias=<RA4,0>\0A.decl RF5 v_type=G type=F num_elts=16 alias=<RA4,64>\0A.decl RF6 v_type=G type=F num_elts=16 alias=<RA6,0>\0A.decl RF7 v_type=G type=F num_elts=16 alias=<RA6,64>\0A.decl RF8 v_type=G type=F num_elts=16 alias=<RA8,0>\0A.decl RF9 v_type=G type=F num_elts=16 alias=<RA8,64>\0A.decl RF10 v_type=G type=F num_elts=16 alias=<RA10,0>\0A.decl RF11 v_type=G type=F num_elts=16 alias=<RA10,64>\0A.decl RF12 v_type=G type=F num_elts=16 alias=<RA12,0>\0A.decl RF13 v_type=G type=F num_elts=16 alias=<RA12,64>\0A.decl RF14 v_type=G type=F num_elts=16 alias=<RA14,0>\0A.decl RF15 v_type=G type=F num_elts=16 alias=<RA14,64>\0Asetp (M1_NM,16) INTERLEAVE_2 0x5555:uw\0Asetp (M1_NM,16) INTERLEAVE_4 0x3333:uw\0Asetp (M1_NM,16) INTERLEAVE_8 0x0F0F:uw\0A(!INTERLEAVE_2) sel (M1_NM,16) RA0(0,0)<1>  IN1(0,0)<2;2,0>  IN0(0,0)<1;1,0>\0A (INTERLEAVE_2) sel (M1_NM,16) RA0(1,0)<1>  IN0(0,1)<2;2,0>  IN1(0,0)<1;1,0>\0A(!INTERLEAVE_2) sel (M1_NM,16) RA2(0,0)<1>  IN3(0,0)<2;2,0>  IN2(0,0)<1;1,0>\0A (INTERLEAVE_2) sel (M1_NM,16) RA2(1,0)<1>  IN2(0,1)<2;2,0>  IN3(0,0)<1;1,0>\0A(!INTERLEAVE_2) sel (M1_NM,16) RA4(0,0)<1>  IN5(0,0)<2;2,0>  IN4(0,0)<1;1,0>\0A (INTERLEAVE_2) sel (M1_NM,16) RA4(1,0)<1>  IN4(0,1)<2;2,0>  IN5(0,0)<1;1,0>\0A(!INTERLEAVE_2) sel (M1_NM,16) RA6(0,0)<1>  IN7(0,0)<2;2,0>  IN6(0,0)<1;1,0>\0A (INTERLEAVE_2) sel (M1_NM,16) RA6(1,0)<1>  IN6(0,1)<2;2,0>  IN7(0,0)<1;1,0>\0A(!INTERLEAVE_2) sel (M1_NM,16) RA8(0,0)<1>  IN9(0,0)<2;2,0>  IN8(0,0)<1;1,0>\0A (INTERLEAVE_2) sel (M1_NM,16) RA8(1,0)<1>  IN8(0,1)<2;2,0>  IN9(0,0)<1;1,0>\0A(!INTERLEAVE_2) sel (M1_NM,16) RA10(0,0)<1> IN11(0,0)<2;2,0> IN10(0,0)<1;1,0>\0A (INTERLEAVE_2) sel (M1_NM,16) RA10(1,0)<1> IN10(0,1)<2;2,0> IN11(0,0)<1;1,0>\0A(!INTERLEAVE_2) sel (M1_NM,16) RA12(0,0)<1> IN13(0,0)<2;2,0> IN12(0,0)<1;1,0>\0A (INTERLEAVE_2) sel (M1_NM,16) RA12(1,0)<1> IN12(0,1)<2;2,0> IN13(0,0)<1;1,0>\0A(!INTERLEAVE_2) sel (M1_NM,16) RA14(0,0)<1> IN15(0,0)<2;2,0> IN14(0,0)<1;1,0>\0A (INTERLEAVE_2) sel (M1_NM,16) RA14(1,0)<1> IN14(0,1)<2;2,0> IN15(0,0)<1;1,0>\0Amax (M1_NM,16) RF0(0,0)<1> RF0(0,0)<1;1,0> RF1(0,0)<1;1,0>\0Amax (M1_NM,16) RF3(0,0)<1> RF2(0,0)<1;1,0> RF3(0,0)<1;1,0>\0Amax (M1_NM,16) RF4(0,0)<1> RF4(0,0)<1;1,0> RF5(0,0)<1;1,0>\0Amax (M1_NM,16) RF7(0,0)<1> RF6(0,0)<1;1,0> RF7(0,0)<1;1,0>\0Amax (M1_NM,16) RF8(0,0)<1> RF8(0,0)<1;1,0> RF9(0,0)<1;1,0>\0Amax (M1_NM,16) RF11(0,0)<1> RF10(0,0)<1;1,0> RF11(0,0)<1;1,0>\0Amax (M1_NM,16) RF12(0,0)<1> RF12(0,0)<1;1,0> RF13(0,0)<1;1,0>\0Amax (M1_NM,16) RF15(0,0)<1> RF14(0,0)<1;1,0> RF15(0,0)<1;1,0>\0A(!INTERLEAVE_4) sel (M1_NM,16) RA0(1,0)<1>  RA2(0,14)<1;1,0>  RA0(0,0)<1;1,0>\0A (INTERLEAVE_4) sel (M1_NM,16) RA0(0,0)<1>  RA0(0,2)<1;1,0>   RA2(1,0)<1;1,0>\0A(!INTERLEAVE_4) sel (M1_NM,16) RA4(1,0)<1>  RA6(0,14)<1;1,0>  RA4(0,0)<1;1,0>\0A (INTERLEAVE_4) sel (M1_NM,16) RA4(0,0)<1>  RA4(0,2)<1;1,0>   RA6(1,0)<1;1,0>\0A(!INTERLEAVE_4) sel (M1_NM,16) RA8(1,0)<1>  RA10(0,14)<1;1,0> RA8(0,0)<1;1,0>\0A (INTERLEAVE_4) sel (M1_NM,16) RA8(0,0)<1>  RA8(0,2)<1;1,0>   RA10(1,0)<1;1,0>\0A(!INTERLEAVE_4) sel (M1_NM,16) RA12(1,0)<1> RA14(0,14)<1;1,0> RA12(0,0)<1;1,0>\0A (INTERLEAVE_4) sel (M1_NM,16) RA12(0,0)<1> RA12(0,2)<1;1,0>  RA14(1,0)<1;1,0>\0Amax (M1_NM,16) RF0(0,0)<1>  RF0(0,0)<1;1,0>  RF1(0,0)<1;1,0>\0Amax (M1_NM,16) RF5(0,0)<1>  RF4(0,0)<1;1,0>  RF5(0,0)<1;1,0>\0Amax (M1_NM,16) RF8(0,0)<1>  RF8(0,0)<1;1,0>  RF9(0,0)<1;1,0>\0Amax (M1_NM,16) RF13(0,0)<1> RF12(0,0)<1;1,0> RF13(0,0)<1;1,0>\0A(!INTERLEAVE_8) sel (M1_NM,16) RA0(1,0)<1> RA4(0,12)<1;1,0>  RA0(0,0)<1;1,0>\0A (INTERLEAVE_8) sel (M1_NM,16) RA0(0,0)<1> RA0(0,4)<1;1,0>   RA4(1,0)<1;1,0>\0A(!INTERLEAVE_8) sel (M1_NM,16) RA8(1,0)<1> RA12(0,12)<1;1,0> RA8(0,0)<1;1,0>\0A (INTERLEAVE_8) sel (M1_NM,16) RA8(0,0)<1> RA8(0,4)<1;1,0>   RA12(1,0)<1;1,0>\0Amax (M1_NM,16) RF0(0,0)<1> RF0(0,0)<1;1,0> RF1(0,0)<1;1,0>\0Amax (M1_NM,16) RF8(0,0)<1> RF8(0,0)<1;1,0> RF9(0,0)<1;1,0>\0Amov (M1_NM, 8) RA0(1,0)<1> RA0(0,8)<1;1,0>\0Amov (M1_NM, 8) RA8(1,8)<1> RA8(0,0)<1;1,0>\0Amax (M1_NM,8) $0(0,0)<1> RF0(0,0)<1;1,0> RF1(0,0)<1;1,0>\0Amax (M1_NM,8) $0(0,8)<1> RF8(0,8)<1;1,0> RF9(0,8)<1;1,0>\0A}\0A", "=rw,rw,rw,rw,rw,rw,rw,rw,rw,rw,rw,rw,rw,rw,rw,rw,rw"(float %621, float %625, float %629, float %633, float %637, float %641, float %645, float %649, float %653, float %657, float %661, float %665, float %669, float %673, float %677, float %681) #0		; visa id: 1201
  %683 = fmul reassoc nsz arcp contract float %682, %const_reg_fp32, !spirv.Decorations !1242		; visa id: 1201
  %684 = call float @llvm.maxnum.f32(float %.sroa.0218.1251, float %683)		; visa id: 1202
  %685 = fmul reassoc nsz arcp contract float %618, %const_reg_fp32, !spirv.Decorations !1242
  %simdBroadcast109 = call float @llvm.genx.GenISA.WaveBroadcast.f32(float %684, i32 0, i32 0)
  %686 = fsub reassoc nsz arcp contract float %685, %simdBroadcast109, !spirv.Decorations !1242		; visa id: 1203
  %687 = fmul reassoc nsz arcp contract float %622, %const_reg_fp32, !spirv.Decorations !1242
  %simdBroadcast109.1 = call float @llvm.genx.GenISA.WaveBroadcast.f32(float %684, i32 1, i32 0)
  %688 = fsub reassoc nsz arcp contract float %687, %simdBroadcast109.1, !spirv.Decorations !1242		; visa id: 1204
  %689 = fmul reassoc nsz arcp contract float %626, %const_reg_fp32, !spirv.Decorations !1242
  %simdBroadcast109.2 = call float @llvm.genx.GenISA.WaveBroadcast.f32(float %684, i32 2, i32 0)
  %690 = fsub reassoc nsz arcp contract float %689, %simdBroadcast109.2, !spirv.Decorations !1242		; visa id: 1205
  %691 = fmul reassoc nsz arcp contract float %630, %const_reg_fp32, !spirv.Decorations !1242
  %simdBroadcast109.3 = call float @llvm.genx.GenISA.WaveBroadcast.f32(float %684, i32 3, i32 0)
  %692 = fsub reassoc nsz arcp contract float %691, %simdBroadcast109.3, !spirv.Decorations !1242		; visa id: 1206
  %693 = fmul reassoc nsz arcp contract float %634, %const_reg_fp32, !spirv.Decorations !1242
  %simdBroadcast109.4 = call float @llvm.genx.GenISA.WaveBroadcast.f32(float %684, i32 4, i32 0)
  %694 = fsub reassoc nsz arcp contract float %693, %simdBroadcast109.4, !spirv.Decorations !1242		; visa id: 1207
  %695 = fmul reassoc nsz arcp contract float %638, %const_reg_fp32, !spirv.Decorations !1242
  %simdBroadcast109.5 = call float @llvm.genx.GenISA.WaveBroadcast.f32(float %684, i32 5, i32 0)
  %696 = fsub reassoc nsz arcp contract float %695, %simdBroadcast109.5, !spirv.Decorations !1242		; visa id: 1208
  %697 = fmul reassoc nsz arcp contract float %642, %const_reg_fp32, !spirv.Decorations !1242
  %simdBroadcast109.6 = call float @llvm.genx.GenISA.WaveBroadcast.f32(float %684, i32 6, i32 0)
  %698 = fsub reassoc nsz arcp contract float %697, %simdBroadcast109.6, !spirv.Decorations !1242		; visa id: 1209
  %699 = fmul reassoc nsz arcp contract float %646, %const_reg_fp32, !spirv.Decorations !1242
  %simdBroadcast109.7 = call float @llvm.genx.GenISA.WaveBroadcast.f32(float %684, i32 7, i32 0)
  %700 = fsub reassoc nsz arcp contract float %699, %simdBroadcast109.7, !spirv.Decorations !1242		; visa id: 1210
  %701 = fmul reassoc nsz arcp contract float %650, %const_reg_fp32, !spirv.Decorations !1242
  %simdBroadcast109.8 = call float @llvm.genx.GenISA.WaveBroadcast.f32(float %684, i32 8, i32 0)
  %702 = fsub reassoc nsz arcp contract float %701, %simdBroadcast109.8, !spirv.Decorations !1242		; visa id: 1211
  %703 = fmul reassoc nsz arcp contract float %654, %const_reg_fp32, !spirv.Decorations !1242
  %simdBroadcast109.9 = call float @llvm.genx.GenISA.WaveBroadcast.f32(float %684, i32 9, i32 0)
  %704 = fsub reassoc nsz arcp contract float %703, %simdBroadcast109.9, !spirv.Decorations !1242		; visa id: 1212
  %705 = fmul reassoc nsz arcp contract float %658, %const_reg_fp32, !spirv.Decorations !1242
  %simdBroadcast109.10 = call float @llvm.genx.GenISA.WaveBroadcast.f32(float %684, i32 10, i32 0)
  %706 = fsub reassoc nsz arcp contract float %705, %simdBroadcast109.10, !spirv.Decorations !1242		; visa id: 1213
  %707 = fmul reassoc nsz arcp contract float %662, %const_reg_fp32, !spirv.Decorations !1242
  %simdBroadcast109.11 = call float @llvm.genx.GenISA.WaveBroadcast.f32(float %684, i32 11, i32 0)
  %708 = fsub reassoc nsz arcp contract float %707, %simdBroadcast109.11, !spirv.Decorations !1242		; visa id: 1214
  %709 = fmul reassoc nsz arcp contract float %666, %const_reg_fp32, !spirv.Decorations !1242
  %simdBroadcast109.12 = call float @llvm.genx.GenISA.WaveBroadcast.f32(float %684, i32 12, i32 0)
  %710 = fsub reassoc nsz arcp contract float %709, %simdBroadcast109.12, !spirv.Decorations !1242		; visa id: 1215
  %711 = fmul reassoc nsz arcp contract float %670, %const_reg_fp32, !spirv.Decorations !1242
  %simdBroadcast109.13 = call float @llvm.genx.GenISA.WaveBroadcast.f32(float %684, i32 13, i32 0)
  %712 = fsub reassoc nsz arcp contract float %711, %simdBroadcast109.13, !spirv.Decorations !1242		; visa id: 1216
  %713 = fmul reassoc nsz arcp contract float %674, %const_reg_fp32, !spirv.Decorations !1242
  %simdBroadcast109.14 = call float @llvm.genx.GenISA.WaveBroadcast.f32(float %684, i32 14, i32 0)
  %714 = fsub reassoc nsz arcp contract float %713, %simdBroadcast109.14, !spirv.Decorations !1242		; visa id: 1217
  %715 = fmul reassoc nsz arcp contract float %678, %const_reg_fp32, !spirv.Decorations !1242
  %simdBroadcast109.15 = call float @llvm.genx.GenISA.WaveBroadcast.f32(float %684, i32 15, i32 0)
  %716 = fsub reassoc nsz arcp contract float %715, %simdBroadcast109.15, !spirv.Decorations !1242		; visa id: 1218
  %717 = fmul reassoc nsz arcp contract float %619, %const_reg_fp32, !spirv.Decorations !1242
  %718 = fsub reassoc nsz arcp contract float %717, %simdBroadcast109, !spirv.Decorations !1242		; visa id: 1219
  %719 = fmul reassoc nsz arcp contract float %623, %const_reg_fp32, !spirv.Decorations !1242
  %720 = fsub reassoc nsz arcp contract float %719, %simdBroadcast109.1, !spirv.Decorations !1242		; visa id: 1220
  %721 = fmul reassoc nsz arcp contract float %627, %const_reg_fp32, !spirv.Decorations !1242
  %722 = fsub reassoc nsz arcp contract float %721, %simdBroadcast109.2, !spirv.Decorations !1242		; visa id: 1221
  %723 = fmul reassoc nsz arcp contract float %631, %const_reg_fp32, !spirv.Decorations !1242
  %724 = fsub reassoc nsz arcp contract float %723, %simdBroadcast109.3, !spirv.Decorations !1242		; visa id: 1222
  %725 = fmul reassoc nsz arcp contract float %635, %const_reg_fp32, !spirv.Decorations !1242
  %726 = fsub reassoc nsz arcp contract float %725, %simdBroadcast109.4, !spirv.Decorations !1242		; visa id: 1223
  %727 = fmul reassoc nsz arcp contract float %639, %const_reg_fp32, !spirv.Decorations !1242
  %728 = fsub reassoc nsz arcp contract float %727, %simdBroadcast109.5, !spirv.Decorations !1242		; visa id: 1224
  %729 = fmul reassoc nsz arcp contract float %643, %const_reg_fp32, !spirv.Decorations !1242
  %730 = fsub reassoc nsz arcp contract float %729, %simdBroadcast109.6, !spirv.Decorations !1242		; visa id: 1225
  %731 = fmul reassoc nsz arcp contract float %647, %const_reg_fp32, !spirv.Decorations !1242
  %732 = fsub reassoc nsz arcp contract float %731, %simdBroadcast109.7, !spirv.Decorations !1242		; visa id: 1226
  %733 = fmul reassoc nsz arcp contract float %651, %const_reg_fp32, !spirv.Decorations !1242
  %734 = fsub reassoc nsz arcp contract float %733, %simdBroadcast109.8, !spirv.Decorations !1242		; visa id: 1227
  %735 = fmul reassoc nsz arcp contract float %655, %const_reg_fp32, !spirv.Decorations !1242
  %736 = fsub reassoc nsz arcp contract float %735, %simdBroadcast109.9, !spirv.Decorations !1242		; visa id: 1228
  %737 = fmul reassoc nsz arcp contract float %659, %const_reg_fp32, !spirv.Decorations !1242
  %738 = fsub reassoc nsz arcp contract float %737, %simdBroadcast109.10, !spirv.Decorations !1242		; visa id: 1229
  %739 = fmul reassoc nsz arcp contract float %663, %const_reg_fp32, !spirv.Decorations !1242
  %740 = fsub reassoc nsz arcp contract float %739, %simdBroadcast109.11, !spirv.Decorations !1242		; visa id: 1230
  %741 = fmul reassoc nsz arcp contract float %667, %const_reg_fp32, !spirv.Decorations !1242
  %742 = fsub reassoc nsz arcp contract float %741, %simdBroadcast109.12, !spirv.Decorations !1242		; visa id: 1231
  %743 = fmul reassoc nsz arcp contract float %671, %const_reg_fp32, !spirv.Decorations !1242
  %744 = fsub reassoc nsz arcp contract float %743, %simdBroadcast109.13, !spirv.Decorations !1242		; visa id: 1232
  %745 = fmul reassoc nsz arcp contract float %675, %const_reg_fp32, !spirv.Decorations !1242
  %746 = fsub reassoc nsz arcp contract float %745, %simdBroadcast109.14, !spirv.Decorations !1242		; visa id: 1233
  %747 = fmul reassoc nsz arcp contract float %679, %const_reg_fp32, !spirv.Decorations !1242
  %748 = fsub reassoc nsz arcp contract float %747, %simdBroadcast109.15, !spirv.Decorations !1242		; visa id: 1234
  %749 = call float @llvm.exp2.f32(float %686)		; visa id: 1235
  %750 = call float @llvm.exp2.f32(float %688)		; visa id: 1236
  %751 = call float @llvm.exp2.f32(float %690)		; visa id: 1237
  %752 = call float @llvm.exp2.f32(float %692)		; visa id: 1238
  %753 = call float @llvm.exp2.f32(float %694)		; visa id: 1239
  %754 = call float @llvm.exp2.f32(float %696)		; visa id: 1240
  %755 = call float @llvm.exp2.f32(float %698)		; visa id: 1241
  %756 = call float @llvm.exp2.f32(float %700)		; visa id: 1242
  %757 = call float @llvm.exp2.f32(float %702)		; visa id: 1243
  %758 = call float @llvm.exp2.f32(float %704)		; visa id: 1244
  %759 = call float @llvm.exp2.f32(float %706)		; visa id: 1245
  %760 = call float @llvm.exp2.f32(float %708)		; visa id: 1246
  %761 = call float @llvm.exp2.f32(float %710)		; visa id: 1247
  %762 = call float @llvm.exp2.f32(float %712)		; visa id: 1248
  %763 = call float @llvm.exp2.f32(float %714)		; visa id: 1249
  %764 = call float @llvm.exp2.f32(float %716)		; visa id: 1250
  %765 = call float @llvm.exp2.f32(float %718)		; visa id: 1251
  %766 = call float @llvm.exp2.f32(float %720)		; visa id: 1252
  %767 = call float @llvm.exp2.f32(float %722)		; visa id: 1253
  %768 = call float @llvm.exp2.f32(float %724)		; visa id: 1254
  %769 = call float @llvm.exp2.f32(float %726)		; visa id: 1255
  %770 = call float @llvm.exp2.f32(float %728)		; visa id: 1256
  %771 = call float @llvm.exp2.f32(float %730)		; visa id: 1257
  %772 = call float @llvm.exp2.f32(float %732)		; visa id: 1258
  %773 = call float @llvm.exp2.f32(float %734)		; visa id: 1259
  %774 = call float @llvm.exp2.f32(float %736)		; visa id: 1260
  %775 = call float @llvm.exp2.f32(float %738)		; visa id: 1261
  %776 = call float @llvm.exp2.f32(float %740)		; visa id: 1262
  %777 = call float @llvm.exp2.f32(float %742)		; visa id: 1263
  %778 = call float @llvm.exp2.f32(float %744)		; visa id: 1264
  %779 = call float @llvm.exp2.f32(float %746)		; visa id: 1265
  %780 = call float @llvm.exp2.f32(float %748)		; visa id: 1266
  %781 = icmp eq i32 %312, 0		; visa id: 1267
  br i1 %781, label %.preheader3.i.preheader..loopexit.i_crit_edge, label %.loopexit.i.loopexit, !stats.blockFrequency.digits !1216, !stats.blockFrequency.scale !1217		; visa id: 1268

.preheader3.i.preheader..loopexit.i_crit_edge:    ; preds = %.preheader3.i.preheader
; BB:
  br label %.loopexit.i, !stats.blockFrequency.digits !1233, !stats.blockFrequency.scale !1223

.loopexit.i.loopexit:                             ; preds = %.preheader3.i.preheader
; BB86 :
  %782 = fsub reassoc nsz arcp contract float %.sroa.0218.1251, %684, !spirv.Decorations !1242		; visa id: 1270
  %783 = call float @llvm.exp2.f32(float %782)		; visa id: 1271
  %simdBroadcast110 = call float @llvm.genx.GenISA.WaveBroadcast.f32(float %783, i32 0, i32 0)
  %784 = extractelement <8 x float> %.sroa.0.1, i32 0		; visa id: 1272
  %785 = fmul reassoc nsz arcp contract float %784, %simdBroadcast110, !spirv.Decorations !1242		; visa id: 1273
  %.sroa.0.0.vec.insert290 = insertelement <8 x float> poison, float %785, i64 0		; visa id: 1274
  %simdBroadcast110.1 = call float @llvm.genx.GenISA.WaveBroadcast.f32(float %783, i32 1, i32 0)
  %786 = extractelement <8 x float> %.sroa.0.1, i32 1		; visa id: 1275
  %787 = fmul reassoc nsz arcp contract float %786, %simdBroadcast110.1, !spirv.Decorations !1242		; visa id: 1276
  %.sroa.0.4.vec.insert299 = insertelement <8 x float> %.sroa.0.0.vec.insert290, float %787, i64 1		; visa id: 1277
  %simdBroadcast110.2 = call float @llvm.genx.GenISA.WaveBroadcast.f32(float %783, i32 2, i32 0)
  %788 = extractelement <8 x float> %.sroa.0.1, i32 2		; visa id: 1278
  %789 = fmul reassoc nsz arcp contract float %788, %simdBroadcast110.2, !spirv.Decorations !1242		; visa id: 1279
  %.sroa.0.8.vec.insert306 = insertelement <8 x float> %.sroa.0.4.vec.insert299, float %789, i64 2		; visa id: 1280
  %simdBroadcast110.3 = call float @llvm.genx.GenISA.WaveBroadcast.f32(float %783, i32 3, i32 0)
  %790 = extractelement <8 x float> %.sroa.0.1, i32 3		; visa id: 1281
  %791 = fmul reassoc nsz arcp contract float %790, %simdBroadcast110.3, !spirv.Decorations !1242		; visa id: 1282
  %.sroa.0.12.vec.insert313 = insertelement <8 x float> %.sroa.0.8.vec.insert306, float %791, i64 3		; visa id: 1283
  %simdBroadcast110.4 = call float @llvm.genx.GenISA.WaveBroadcast.f32(float %783, i32 4, i32 0)
  %792 = extractelement <8 x float> %.sroa.0.1, i32 4		; visa id: 1284
  %793 = fmul reassoc nsz arcp contract float %792, %simdBroadcast110.4, !spirv.Decorations !1242		; visa id: 1285
  %.sroa.0.16.vec.insert320 = insertelement <8 x float> %.sroa.0.12.vec.insert313, float %793, i64 4		; visa id: 1286
  %simdBroadcast110.5 = call float @llvm.genx.GenISA.WaveBroadcast.f32(float %783, i32 5, i32 0)
  %794 = extractelement <8 x float> %.sroa.0.1, i32 5		; visa id: 1287
  %795 = fmul reassoc nsz arcp contract float %794, %simdBroadcast110.5, !spirv.Decorations !1242		; visa id: 1288
  %.sroa.0.20.vec.insert327 = insertelement <8 x float> %.sroa.0.16.vec.insert320, float %795, i64 5		; visa id: 1289
  %simdBroadcast110.6 = call float @llvm.genx.GenISA.WaveBroadcast.f32(float %783, i32 6, i32 0)
  %796 = extractelement <8 x float> %.sroa.0.1, i32 6		; visa id: 1290
  %797 = fmul reassoc nsz arcp contract float %796, %simdBroadcast110.6, !spirv.Decorations !1242		; visa id: 1291
  %.sroa.0.24.vec.insert334 = insertelement <8 x float> %.sroa.0.20.vec.insert327, float %797, i64 6		; visa id: 1292
  %simdBroadcast110.7 = call float @llvm.genx.GenISA.WaveBroadcast.f32(float %783, i32 7, i32 0)
  %798 = extractelement <8 x float> %.sroa.0.1, i32 7		; visa id: 1293
  %799 = fmul reassoc nsz arcp contract float %798, %simdBroadcast110.7, !spirv.Decorations !1242		; visa id: 1294
  %.sroa.0.28.vec.insert341 = insertelement <8 x float> %.sroa.0.24.vec.insert334, float %799, i64 7		; visa id: 1295
  %simdBroadcast110.8 = call float @llvm.genx.GenISA.WaveBroadcast.f32(float %783, i32 8, i32 0)
  %800 = extractelement <8 x float> %.sroa.52.1, i32 0		; visa id: 1296
  %801 = fmul reassoc nsz arcp contract float %800, %simdBroadcast110.8, !spirv.Decorations !1242		; visa id: 1297
  %.sroa.52.32.vec.insert354 = insertelement <8 x float> poison, float %801, i64 0		; visa id: 1298
  %simdBroadcast110.9 = call float @llvm.genx.GenISA.WaveBroadcast.f32(float %783, i32 9, i32 0)
  %802 = extractelement <8 x float> %.sroa.52.1, i32 1		; visa id: 1299
  %803 = fmul reassoc nsz arcp contract float %802, %simdBroadcast110.9, !spirv.Decorations !1242		; visa id: 1300
  %.sroa.52.36.vec.insert361 = insertelement <8 x float> %.sroa.52.32.vec.insert354, float %803, i64 1		; visa id: 1301
  %simdBroadcast110.10 = call float @llvm.genx.GenISA.WaveBroadcast.f32(float %783, i32 10, i32 0)
  %804 = extractelement <8 x float> %.sroa.52.1, i32 2		; visa id: 1302
  %805 = fmul reassoc nsz arcp contract float %804, %simdBroadcast110.10, !spirv.Decorations !1242		; visa id: 1303
  %.sroa.52.40.vec.insert368 = insertelement <8 x float> %.sroa.52.36.vec.insert361, float %805, i64 2		; visa id: 1304
  %simdBroadcast110.11 = call float @llvm.genx.GenISA.WaveBroadcast.f32(float %783, i32 11, i32 0)
  %806 = extractelement <8 x float> %.sroa.52.1, i32 3		; visa id: 1305
  %807 = fmul reassoc nsz arcp contract float %806, %simdBroadcast110.11, !spirv.Decorations !1242		; visa id: 1306
  %.sroa.52.44.vec.insert375 = insertelement <8 x float> %.sroa.52.40.vec.insert368, float %807, i64 3		; visa id: 1307
  %simdBroadcast110.12 = call float @llvm.genx.GenISA.WaveBroadcast.f32(float %783, i32 12, i32 0)
  %808 = extractelement <8 x float> %.sroa.52.1, i32 4		; visa id: 1308
  %809 = fmul reassoc nsz arcp contract float %808, %simdBroadcast110.12, !spirv.Decorations !1242		; visa id: 1309
  %.sroa.52.48.vec.insert382 = insertelement <8 x float> %.sroa.52.44.vec.insert375, float %809, i64 4		; visa id: 1310
  %simdBroadcast110.13 = call float @llvm.genx.GenISA.WaveBroadcast.f32(float %783, i32 13, i32 0)
  %810 = extractelement <8 x float> %.sroa.52.1, i32 5		; visa id: 1311
  %811 = fmul reassoc nsz arcp contract float %810, %simdBroadcast110.13, !spirv.Decorations !1242		; visa id: 1312
  %.sroa.52.52.vec.insert389 = insertelement <8 x float> %.sroa.52.48.vec.insert382, float %811, i64 5		; visa id: 1313
  %simdBroadcast110.14 = call float @llvm.genx.GenISA.WaveBroadcast.f32(float %783, i32 14, i32 0)
  %812 = extractelement <8 x float> %.sroa.52.1, i32 6		; visa id: 1314
  %813 = fmul reassoc nsz arcp contract float %812, %simdBroadcast110.14, !spirv.Decorations !1242		; visa id: 1315
  %.sroa.52.56.vec.insert396 = insertelement <8 x float> %.sroa.52.52.vec.insert389, float %813, i64 6		; visa id: 1316
  %simdBroadcast110.15 = call float @llvm.genx.GenISA.WaveBroadcast.f32(float %783, i32 15, i32 0)
  %814 = extractelement <8 x float> %.sroa.52.1, i32 7		; visa id: 1317
  %815 = fmul reassoc nsz arcp contract float %814, %simdBroadcast110.15, !spirv.Decorations !1242		; visa id: 1318
  %.sroa.52.60.vec.insert403 = insertelement <8 x float> %.sroa.52.56.vec.insert396, float %815, i64 7		; visa id: 1319
  %816 = extractelement <8 x float> %.sroa.100.1, i32 0		; visa id: 1320
  %817 = fmul reassoc nsz arcp contract float %816, %simdBroadcast110, !spirv.Decorations !1242		; visa id: 1321
  %.sroa.100.64.vec.insert416 = insertelement <8 x float> poison, float %817, i64 0		; visa id: 1322
  %818 = extractelement <8 x float> %.sroa.100.1, i32 1		; visa id: 1323
  %819 = fmul reassoc nsz arcp contract float %818, %simdBroadcast110.1, !spirv.Decorations !1242		; visa id: 1324
  %.sroa.100.68.vec.insert423 = insertelement <8 x float> %.sroa.100.64.vec.insert416, float %819, i64 1		; visa id: 1325
  %820 = extractelement <8 x float> %.sroa.100.1, i32 2		; visa id: 1326
  %821 = fmul reassoc nsz arcp contract float %820, %simdBroadcast110.2, !spirv.Decorations !1242		; visa id: 1327
  %.sroa.100.72.vec.insert430 = insertelement <8 x float> %.sroa.100.68.vec.insert423, float %821, i64 2		; visa id: 1328
  %822 = extractelement <8 x float> %.sroa.100.1, i32 3		; visa id: 1329
  %823 = fmul reassoc nsz arcp contract float %822, %simdBroadcast110.3, !spirv.Decorations !1242		; visa id: 1330
  %.sroa.100.76.vec.insert437 = insertelement <8 x float> %.sroa.100.72.vec.insert430, float %823, i64 3		; visa id: 1331
  %824 = extractelement <8 x float> %.sroa.100.1, i32 4		; visa id: 1332
  %825 = fmul reassoc nsz arcp contract float %824, %simdBroadcast110.4, !spirv.Decorations !1242		; visa id: 1333
  %.sroa.100.80.vec.insert444 = insertelement <8 x float> %.sroa.100.76.vec.insert437, float %825, i64 4		; visa id: 1334
  %826 = extractelement <8 x float> %.sroa.100.1, i32 5		; visa id: 1335
  %827 = fmul reassoc nsz arcp contract float %826, %simdBroadcast110.5, !spirv.Decorations !1242		; visa id: 1336
  %.sroa.100.84.vec.insert451 = insertelement <8 x float> %.sroa.100.80.vec.insert444, float %827, i64 5		; visa id: 1337
  %828 = extractelement <8 x float> %.sroa.100.1, i32 6		; visa id: 1338
  %829 = fmul reassoc nsz arcp contract float %828, %simdBroadcast110.6, !spirv.Decorations !1242		; visa id: 1339
  %.sroa.100.88.vec.insert458 = insertelement <8 x float> %.sroa.100.84.vec.insert451, float %829, i64 6		; visa id: 1340
  %830 = extractelement <8 x float> %.sroa.100.1, i32 7		; visa id: 1341
  %831 = fmul reassoc nsz arcp contract float %830, %simdBroadcast110.7, !spirv.Decorations !1242		; visa id: 1342
  %.sroa.100.92.vec.insert465 = insertelement <8 x float> %.sroa.100.88.vec.insert458, float %831, i64 7		; visa id: 1343
  %832 = extractelement <8 x float> %.sroa.148.1, i32 0		; visa id: 1344
  %833 = fmul reassoc nsz arcp contract float %832, %simdBroadcast110.8, !spirv.Decorations !1242		; visa id: 1345
  %.sroa.148.96.vec.insert478 = insertelement <8 x float> poison, float %833, i64 0		; visa id: 1346
  %834 = extractelement <8 x float> %.sroa.148.1, i32 1		; visa id: 1347
  %835 = fmul reassoc nsz arcp contract float %834, %simdBroadcast110.9, !spirv.Decorations !1242		; visa id: 1348
  %.sroa.148.100.vec.insert485 = insertelement <8 x float> %.sroa.148.96.vec.insert478, float %835, i64 1		; visa id: 1349
  %836 = extractelement <8 x float> %.sroa.148.1, i32 2		; visa id: 1350
  %837 = fmul reassoc nsz arcp contract float %836, %simdBroadcast110.10, !spirv.Decorations !1242		; visa id: 1351
  %.sroa.148.104.vec.insert492 = insertelement <8 x float> %.sroa.148.100.vec.insert485, float %837, i64 2		; visa id: 1352
  %838 = extractelement <8 x float> %.sroa.148.1, i32 3		; visa id: 1353
  %839 = fmul reassoc nsz arcp contract float %838, %simdBroadcast110.11, !spirv.Decorations !1242		; visa id: 1354
  %.sroa.148.108.vec.insert499 = insertelement <8 x float> %.sroa.148.104.vec.insert492, float %839, i64 3		; visa id: 1355
  %840 = extractelement <8 x float> %.sroa.148.1, i32 4		; visa id: 1356
  %841 = fmul reassoc nsz arcp contract float %840, %simdBroadcast110.12, !spirv.Decorations !1242		; visa id: 1357
  %.sroa.148.112.vec.insert506 = insertelement <8 x float> %.sroa.148.108.vec.insert499, float %841, i64 4		; visa id: 1358
  %842 = extractelement <8 x float> %.sroa.148.1, i32 5		; visa id: 1359
  %843 = fmul reassoc nsz arcp contract float %842, %simdBroadcast110.13, !spirv.Decorations !1242		; visa id: 1360
  %.sroa.148.116.vec.insert513 = insertelement <8 x float> %.sroa.148.112.vec.insert506, float %843, i64 5		; visa id: 1361
  %844 = extractelement <8 x float> %.sroa.148.1, i32 6		; visa id: 1362
  %845 = fmul reassoc nsz arcp contract float %844, %simdBroadcast110.14, !spirv.Decorations !1242		; visa id: 1363
  %.sroa.148.120.vec.insert520 = insertelement <8 x float> %.sroa.148.116.vec.insert513, float %845, i64 6		; visa id: 1364
  %846 = extractelement <8 x float> %.sroa.148.1, i32 7		; visa id: 1365
  %847 = fmul reassoc nsz arcp contract float %846, %simdBroadcast110.15, !spirv.Decorations !1242		; visa id: 1366
  %.sroa.148.124.vec.insert527 = insertelement <8 x float> %.sroa.148.120.vec.insert520, float %847, i64 7		; visa id: 1367
  %848 = extractelement <8 x float> %.sroa.196.1, i32 0		; visa id: 1368
  %849 = fmul reassoc nsz arcp contract float %848, %simdBroadcast110, !spirv.Decorations !1242		; visa id: 1369
  %.sroa.196.128.vec.insert540 = insertelement <8 x float> poison, float %849, i64 0		; visa id: 1370
  %850 = extractelement <8 x float> %.sroa.196.1, i32 1		; visa id: 1371
  %851 = fmul reassoc nsz arcp contract float %850, %simdBroadcast110.1, !spirv.Decorations !1242		; visa id: 1372
  %.sroa.196.132.vec.insert547 = insertelement <8 x float> %.sroa.196.128.vec.insert540, float %851, i64 1		; visa id: 1373
  %852 = extractelement <8 x float> %.sroa.196.1, i32 2		; visa id: 1374
  %853 = fmul reassoc nsz arcp contract float %852, %simdBroadcast110.2, !spirv.Decorations !1242		; visa id: 1375
  %.sroa.196.136.vec.insert554 = insertelement <8 x float> %.sroa.196.132.vec.insert547, float %853, i64 2		; visa id: 1376
  %854 = extractelement <8 x float> %.sroa.196.1, i32 3		; visa id: 1377
  %855 = fmul reassoc nsz arcp contract float %854, %simdBroadcast110.3, !spirv.Decorations !1242		; visa id: 1378
  %.sroa.196.140.vec.insert561 = insertelement <8 x float> %.sroa.196.136.vec.insert554, float %855, i64 3		; visa id: 1379
  %856 = extractelement <8 x float> %.sroa.196.1, i32 4		; visa id: 1380
  %857 = fmul reassoc nsz arcp contract float %856, %simdBroadcast110.4, !spirv.Decorations !1242		; visa id: 1381
  %.sroa.196.144.vec.insert568 = insertelement <8 x float> %.sroa.196.140.vec.insert561, float %857, i64 4		; visa id: 1382
  %858 = extractelement <8 x float> %.sroa.196.1, i32 5		; visa id: 1383
  %859 = fmul reassoc nsz arcp contract float %858, %simdBroadcast110.5, !spirv.Decorations !1242		; visa id: 1384
  %.sroa.196.148.vec.insert575 = insertelement <8 x float> %.sroa.196.144.vec.insert568, float %859, i64 5		; visa id: 1385
  %860 = extractelement <8 x float> %.sroa.196.1, i32 6		; visa id: 1386
  %861 = fmul reassoc nsz arcp contract float %860, %simdBroadcast110.6, !spirv.Decorations !1242		; visa id: 1387
  %.sroa.196.152.vec.insert582 = insertelement <8 x float> %.sroa.196.148.vec.insert575, float %861, i64 6		; visa id: 1388
  %862 = extractelement <8 x float> %.sroa.196.1, i32 7		; visa id: 1389
  %863 = fmul reassoc nsz arcp contract float %862, %simdBroadcast110.7, !spirv.Decorations !1242		; visa id: 1390
  %.sroa.196.156.vec.insert589 = insertelement <8 x float> %.sroa.196.152.vec.insert582, float %863, i64 7		; visa id: 1391
  %864 = extractelement <8 x float> %.sroa.244.1, i32 0		; visa id: 1392
  %865 = fmul reassoc nsz arcp contract float %864, %simdBroadcast110.8, !spirv.Decorations !1242		; visa id: 1393
  %.sroa.244.160.vec.insert602 = insertelement <8 x float> poison, float %865, i64 0		; visa id: 1394
  %866 = extractelement <8 x float> %.sroa.244.1, i32 1		; visa id: 1395
  %867 = fmul reassoc nsz arcp contract float %866, %simdBroadcast110.9, !spirv.Decorations !1242		; visa id: 1396
  %.sroa.244.164.vec.insert609 = insertelement <8 x float> %.sroa.244.160.vec.insert602, float %867, i64 1		; visa id: 1397
  %868 = extractelement <8 x float> %.sroa.244.1, i32 2		; visa id: 1398
  %869 = fmul reassoc nsz arcp contract float %868, %simdBroadcast110.10, !spirv.Decorations !1242		; visa id: 1399
  %.sroa.244.168.vec.insert616 = insertelement <8 x float> %.sroa.244.164.vec.insert609, float %869, i64 2		; visa id: 1400
  %870 = extractelement <8 x float> %.sroa.244.1, i32 3		; visa id: 1401
  %871 = fmul reassoc nsz arcp contract float %870, %simdBroadcast110.11, !spirv.Decorations !1242		; visa id: 1402
  %.sroa.244.172.vec.insert623 = insertelement <8 x float> %.sroa.244.168.vec.insert616, float %871, i64 3		; visa id: 1403
  %872 = extractelement <8 x float> %.sroa.244.1, i32 4		; visa id: 1404
  %873 = fmul reassoc nsz arcp contract float %872, %simdBroadcast110.12, !spirv.Decorations !1242		; visa id: 1405
  %.sroa.244.176.vec.insert630 = insertelement <8 x float> %.sroa.244.172.vec.insert623, float %873, i64 4		; visa id: 1406
  %874 = extractelement <8 x float> %.sroa.244.1, i32 5		; visa id: 1407
  %875 = fmul reassoc nsz arcp contract float %874, %simdBroadcast110.13, !spirv.Decorations !1242		; visa id: 1408
  %.sroa.244.180.vec.insert637 = insertelement <8 x float> %.sroa.244.176.vec.insert630, float %875, i64 5		; visa id: 1409
  %876 = extractelement <8 x float> %.sroa.244.1, i32 6		; visa id: 1410
  %877 = fmul reassoc nsz arcp contract float %876, %simdBroadcast110.14, !spirv.Decorations !1242		; visa id: 1411
  %.sroa.244.184.vec.insert644 = insertelement <8 x float> %.sroa.244.180.vec.insert637, float %877, i64 6		; visa id: 1412
  %878 = extractelement <8 x float> %.sroa.244.1, i32 7		; visa id: 1413
  %879 = fmul reassoc nsz arcp contract float %878, %simdBroadcast110.15, !spirv.Decorations !1242		; visa id: 1414
  %.sroa.244.188.vec.insert651 = insertelement <8 x float> %.sroa.244.184.vec.insert644, float %879, i64 7		; visa id: 1415
  %880 = extractelement <8 x float> %.sroa.292.1, i32 0		; visa id: 1416
  %881 = fmul reassoc nsz arcp contract float %880, %simdBroadcast110, !spirv.Decorations !1242		; visa id: 1417
  %.sroa.292.192.vec.insert664 = insertelement <8 x float> poison, float %881, i64 0		; visa id: 1418
  %882 = extractelement <8 x float> %.sroa.292.1, i32 1		; visa id: 1419
  %883 = fmul reassoc nsz arcp contract float %882, %simdBroadcast110.1, !spirv.Decorations !1242		; visa id: 1420
  %.sroa.292.196.vec.insert671 = insertelement <8 x float> %.sroa.292.192.vec.insert664, float %883, i64 1		; visa id: 1421
  %884 = extractelement <8 x float> %.sroa.292.1, i32 2		; visa id: 1422
  %885 = fmul reassoc nsz arcp contract float %884, %simdBroadcast110.2, !spirv.Decorations !1242		; visa id: 1423
  %.sroa.292.200.vec.insert678 = insertelement <8 x float> %.sroa.292.196.vec.insert671, float %885, i64 2		; visa id: 1424
  %886 = extractelement <8 x float> %.sroa.292.1, i32 3		; visa id: 1425
  %887 = fmul reassoc nsz arcp contract float %886, %simdBroadcast110.3, !spirv.Decorations !1242		; visa id: 1426
  %.sroa.292.204.vec.insert685 = insertelement <8 x float> %.sroa.292.200.vec.insert678, float %887, i64 3		; visa id: 1427
  %888 = extractelement <8 x float> %.sroa.292.1, i32 4		; visa id: 1428
  %889 = fmul reassoc nsz arcp contract float %888, %simdBroadcast110.4, !spirv.Decorations !1242		; visa id: 1429
  %.sroa.292.208.vec.insert692 = insertelement <8 x float> %.sroa.292.204.vec.insert685, float %889, i64 4		; visa id: 1430
  %890 = extractelement <8 x float> %.sroa.292.1, i32 5		; visa id: 1431
  %891 = fmul reassoc nsz arcp contract float %890, %simdBroadcast110.5, !spirv.Decorations !1242		; visa id: 1432
  %.sroa.292.212.vec.insert699 = insertelement <8 x float> %.sroa.292.208.vec.insert692, float %891, i64 5		; visa id: 1433
  %892 = extractelement <8 x float> %.sroa.292.1, i32 6		; visa id: 1434
  %893 = fmul reassoc nsz arcp contract float %892, %simdBroadcast110.6, !spirv.Decorations !1242		; visa id: 1435
  %.sroa.292.216.vec.insert706 = insertelement <8 x float> %.sroa.292.212.vec.insert699, float %893, i64 6		; visa id: 1436
  %894 = extractelement <8 x float> %.sroa.292.1, i32 7		; visa id: 1437
  %895 = fmul reassoc nsz arcp contract float %894, %simdBroadcast110.7, !spirv.Decorations !1242		; visa id: 1438
  %.sroa.292.220.vec.insert713 = insertelement <8 x float> %.sroa.292.216.vec.insert706, float %895, i64 7		; visa id: 1439
  %896 = extractelement <8 x float> %.sroa.340.1, i32 0		; visa id: 1440
  %897 = fmul reassoc nsz arcp contract float %896, %simdBroadcast110.8, !spirv.Decorations !1242		; visa id: 1441
  %.sroa.340.224.vec.insert726 = insertelement <8 x float> poison, float %897, i64 0		; visa id: 1442
  %898 = extractelement <8 x float> %.sroa.340.1, i32 1		; visa id: 1443
  %899 = fmul reassoc nsz arcp contract float %898, %simdBroadcast110.9, !spirv.Decorations !1242		; visa id: 1444
  %.sroa.340.228.vec.insert733 = insertelement <8 x float> %.sroa.340.224.vec.insert726, float %899, i64 1		; visa id: 1445
  %900 = extractelement <8 x float> %.sroa.340.1, i32 2		; visa id: 1446
  %901 = fmul reassoc nsz arcp contract float %900, %simdBroadcast110.10, !spirv.Decorations !1242		; visa id: 1447
  %.sroa.340.232.vec.insert740 = insertelement <8 x float> %.sroa.340.228.vec.insert733, float %901, i64 2		; visa id: 1448
  %902 = extractelement <8 x float> %.sroa.340.1, i32 3		; visa id: 1449
  %903 = fmul reassoc nsz arcp contract float %902, %simdBroadcast110.11, !spirv.Decorations !1242		; visa id: 1450
  %.sroa.340.236.vec.insert747 = insertelement <8 x float> %.sroa.340.232.vec.insert740, float %903, i64 3		; visa id: 1451
  %904 = extractelement <8 x float> %.sroa.340.1, i32 4		; visa id: 1452
  %905 = fmul reassoc nsz arcp contract float %904, %simdBroadcast110.12, !spirv.Decorations !1242		; visa id: 1453
  %.sroa.340.240.vec.insert754 = insertelement <8 x float> %.sroa.340.236.vec.insert747, float %905, i64 4		; visa id: 1454
  %906 = extractelement <8 x float> %.sroa.340.1, i32 5		; visa id: 1455
  %907 = fmul reassoc nsz arcp contract float %906, %simdBroadcast110.13, !spirv.Decorations !1242		; visa id: 1456
  %.sroa.340.244.vec.insert761 = insertelement <8 x float> %.sroa.340.240.vec.insert754, float %907, i64 5		; visa id: 1457
  %908 = extractelement <8 x float> %.sroa.340.1, i32 6		; visa id: 1458
  %909 = fmul reassoc nsz arcp contract float %908, %simdBroadcast110.14, !spirv.Decorations !1242		; visa id: 1459
  %.sroa.340.248.vec.insert768 = insertelement <8 x float> %.sroa.340.244.vec.insert761, float %909, i64 6		; visa id: 1460
  %910 = extractelement <8 x float> %.sroa.340.1, i32 7		; visa id: 1461
  %911 = fmul reassoc nsz arcp contract float %910, %simdBroadcast110.15, !spirv.Decorations !1242		; visa id: 1462
  %.sroa.340.252.vec.insert775 = insertelement <8 x float> %.sroa.340.248.vec.insert768, float %911, i64 7		; visa id: 1463
  %912 = extractelement <8 x float> %.sroa.388.1, i32 0		; visa id: 1464
  %913 = fmul reassoc nsz arcp contract float %912, %simdBroadcast110, !spirv.Decorations !1242		; visa id: 1465
  %.sroa.388.256.vec.insert788 = insertelement <8 x float> poison, float %913, i64 0		; visa id: 1466
  %914 = extractelement <8 x float> %.sroa.388.1, i32 1		; visa id: 1467
  %915 = fmul reassoc nsz arcp contract float %914, %simdBroadcast110.1, !spirv.Decorations !1242		; visa id: 1468
  %.sroa.388.260.vec.insert795 = insertelement <8 x float> %.sroa.388.256.vec.insert788, float %915, i64 1		; visa id: 1469
  %916 = extractelement <8 x float> %.sroa.388.1, i32 2		; visa id: 1470
  %917 = fmul reassoc nsz arcp contract float %916, %simdBroadcast110.2, !spirv.Decorations !1242		; visa id: 1471
  %.sroa.388.264.vec.insert802 = insertelement <8 x float> %.sroa.388.260.vec.insert795, float %917, i64 2		; visa id: 1472
  %918 = extractelement <8 x float> %.sroa.388.1, i32 3		; visa id: 1473
  %919 = fmul reassoc nsz arcp contract float %918, %simdBroadcast110.3, !spirv.Decorations !1242		; visa id: 1474
  %.sroa.388.268.vec.insert809 = insertelement <8 x float> %.sroa.388.264.vec.insert802, float %919, i64 3		; visa id: 1475
  %920 = extractelement <8 x float> %.sroa.388.1, i32 4		; visa id: 1476
  %921 = fmul reassoc nsz arcp contract float %920, %simdBroadcast110.4, !spirv.Decorations !1242		; visa id: 1477
  %.sroa.388.272.vec.insert816 = insertelement <8 x float> %.sroa.388.268.vec.insert809, float %921, i64 4		; visa id: 1478
  %922 = extractelement <8 x float> %.sroa.388.1, i32 5		; visa id: 1479
  %923 = fmul reassoc nsz arcp contract float %922, %simdBroadcast110.5, !spirv.Decorations !1242		; visa id: 1480
  %.sroa.388.276.vec.insert823 = insertelement <8 x float> %.sroa.388.272.vec.insert816, float %923, i64 5		; visa id: 1481
  %924 = extractelement <8 x float> %.sroa.388.1, i32 6		; visa id: 1482
  %925 = fmul reassoc nsz arcp contract float %924, %simdBroadcast110.6, !spirv.Decorations !1242		; visa id: 1483
  %.sroa.388.280.vec.insert830 = insertelement <8 x float> %.sroa.388.276.vec.insert823, float %925, i64 6		; visa id: 1484
  %926 = extractelement <8 x float> %.sroa.388.1, i32 7		; visa id: 1485
  %927 = fmul reassoc nsz arcp contract float %926, %simdBroadcast110.7, !spirv.Decorations !1242		; visa id: 1486
  %.sroa.388.284.vec.insert837 = insertelement <8 x float> %.sroa.388.280.vec.insert830, float %927, i64 7		; visa id: 1487
  %928 = extractelement <8 x float> %.sroa.436.1, i32 0		; visa id: 1488
  %929 = fmul reassoc nsz arcp contract float %928, %simdBroadcast110.8, !spirv.Decorations !1242		; visa id: 1489
  %.sroa.436.288.vec.insert850 = insertelement <8 x float> poison, float %929, i64 0		; visa id: 1490
  %930 = extractelement <8 x float> %.sroa.436.1, i32 1		; visa id: 1491
  %931 = fmul reassoc nsz arcp contract float %930, %simdBroadcast110.9, !spirv.Decorations !1242		; visa id: 1492
  %.sroa.436.292.vec.insert857 = insertelement <8 x float> %.sroa.436.288.vec.insert850, float %931, i64 1		; visa id: 1493
  %932 = extractelement <8 x float> %.sroa.436.1, i32 2		; visa id: 1494
  %933 = fmul reassoc nsz arcp contract float %932, %simdBroadcast110.10, !spirv.Decorations !1242		; visa id: 1495
  %.sroa.436.296.vec.insert864 = insertelement <8 x float> %.sroa.436.292.vec.insert857, float %933, i64 2		; visa id: 1496
  %934 = extractelement <8 x float> %.sroa.436.1, i32 3		; visa id: 1497
  %935 = fmul reassoc nsz arcp contract float %934, %simdBroadcast110.11, !spirv.Decorations !1242		; visa id: 1498
  %.sroa.436.300.vec.insert871 = insertelement <8 x float> %.sroa.436.296.vec.insert864, float %935, i64 3		; visa id: 1499
  %936 = extractelement <8 x float> %.sroa.436.1, i32 4		; visa id: 1500
  %937 = fmul reassoc nsz arcp contract float %936, %simdBroadcast110.12, !spirv.Decorations !1242		; visa id: 1501
  %.sroa.436.304.vec.insert878 = insertelement <8 x float> %.sroa.436.300.vec.insert871, float %937, i64 4		; visa id: 1502
  %938 = extractelement <8 x float> %.sroa.436.1, i32 5		; visa id: 1503
  %939 = fmul reassoc nsz arcp contract float %938, %simdBroadcast110.13, !spirv.Decorations !1242		; visa id: 1504
  %.sroa.436.308.vec.insert885 = insertelement <8 x float> %.sroa.436.304.vec.insert878, float %939, i64 5		; visa id: 1505
  %940 = extractelement <8 x float> %.sroa.436.1, i32 6		; visa id: 1506
  %941 = fmul reassoc nsz arcp contract float %940, %simdBroadcast110.14, !spirv.Decorations !1242		; visa id: 1507
  %.sroa.436.312.vec.insert892 = insertelement <8 x float> %.sroa.436.308.vec.insert885, float %941, i64 6		; visa id: 1508
  %942 = extractelement <8 x float> %.sroa.436.1, i32 7		; visa id: 1509
  %943 = fmul reassoc nsz arcp contract float %942, %simdBroadcast110.15, !spirv.Decorations !1242		; visa id: 1510
  %.sroa.436.316.vec.insert899 = insertelement <8 x float> %.sroa.436.312.vec.insert892, float %943, i64 7		; visa id: 1511
  %944 = extractelement <8 x float> %.sroa.484.1, i32 0		; visa id: 1512
  %945 = fmul reassoc nsz arcp contract float %944, %simdBroadcast110, !spirv.Decorations !1242		; visa id: 1513
  %.sroa.484.320.vec.insert912 = insertelement <8 x float> poison, float %945, i64 0		; visa id: 1514
  %946 = extractelement <8 x float> %.sroa.484.1, i32 1		; visa id: 1515
  %947 = fmul reassoc nsz arcp contract float %946, %simdBroadcast110.1, !spirv.Decorations !1242		; visa id: 1516
  %.sroa.484.324.vec.insert919 = insertelement <8 x float> %.sroa.484.320.vec.insert912, float %947, i64 1		; visa id: 1517
  %948 = extractelement <8 x float> %.sroa.484.1, i32 2		; visa id: 1518
  %949 = fmul reassoc nsz arcp contract float %948, %simdBroadcast110.2, !spirv.Decorations !1242		; visa id: 1519
  %.sroa.484.328.vec.insert926 = insertelement <8 x float> %.sroa.484.324.vec.insert919, float %949, i64 2		; visa id: 1520
  %950 = extractelement <8 x float> %.sroa.484.1, i32 3		; visa id: 1521
  %951 = fmul reassoc nsz arcp contract float %950, %simdBroadcast110.3, !spirv.Decorations !1242		; visa id: 1522
  %.sroa.484.332.vec.insert933 = insertelement <8 x float> %.sroa.484.328.vec.insert926, float %951, i64 3		; visa id: 1523
  %952 = extractelement <8 x float> %.sroa.484.1, i32 4		; visa id: 1524
  %953 = fmul reassoc nsz arcp contract float %952, %simdBroadcast110.4, !spirv.Decorations !1242		; visa id: 1525
  %.sroa.484.336.vec.insert940 = insertelement <8 x float> %.sroa.484.332.vec.insert933, float %953, i64 4		; visa id: 1526
  %954 = extractelement <8 x float> %.sroa.484.1, i32 5		; visa id: 1527
  %955 = fmul reassoc nsz arcp contract float %954, %simdBroadcast110.5, !spirv.Decorations !1242		; visa id: 1528
  %.sroa.484.340.vec.insert947 = insertelement <8 x float> %.sroa.484.336.vec.insert940, float %955, i64 5		; visa id: 1529
  %956 = extractelement <8 x float> %.sroa.484.1, i32 6		; visa id: 1530
  %957 = fmul reassoc nsz arcp contract float %956, %simdBroadcast110.6, !spirv.Decorations !1242		; visa id: 1531
  %.sroa.484.344.vec.insert954 = insertelement <8 x float> %.sroa.484.340.vec.insert947, float %957, i64 6		; visa id: 1532
  %958 = extractelement <8 x float> %.sroa.484.1, i32 7		; visa id: 1533
  %959 = fmul reassoc nsz arcp contract float %958, %simdBroadcast110.7, !spirv.Decorations !1242		; visa id: 1534
  %.sroa.484.348.vec.insert961 = insertelement <8 x float> %.sroa.484.344.vec.insert954, float %959, i64 7		; visa id: 1535
  %960 = extractelement <8 x float> %.sroa.532.1, i32 0		; visa id: 1536
  %961 = fmul reassoc nsz arcp contract float %960, %simdBroadcast110.8, !spirv.Decorations !1242		; visa id: 1537
  %.sroa.532.352.vec.insert974 = insertelement <8 x float> poison, float %961, i64 0		; visa id: 1538
  %962 = extractelement <8 x float> %.sroa.532.1, i32 1		; visa id: 1539
  %963 = fmul reassoc nsz arcp contract float %962, %simdBroadcast110.9, !spirv.Decorations !1242		; visa id: 1540
  %.sroa.532.356.vec.insert981 = insertelement <8 x float> %.sroa.532.352.vec.insert974, float %963, i64 1		; visa id: 1541
  %964 = extractelement <8 x float> %.sroa.532.1, i32 2		; visa id: 1542
  %965 = fmul reassoc nsz arcp contract float %964, %simdBroadcast110.10, !spirv.Decorations !1242		; visa id: 1543
  %.sroa.532.360.vec.insert988 = insertelement <8 x float> %.sroa.532.356.vec.insert981, float %965, i64 2		; visa id: 1544
  %966 = extractelement <8 x float> %.sroa.532.1, i32 3		; visa id: 1545
  %967 = fmul reassoc nsz arcp contract float %966, %simdBroadcast110.11, !spirv.Decorations !1242		; visa id: 1546
  %.sroa.532.364.vec.insert995 = insertelement <8 x float> %.sroa.532.360.vec.insert988, float %967, i64 3		; visa id: 1547
  %968 = extractelement <8 x float> %.sroa.532.1, i32 4		; visa id: 1548
  %969 = fmul reassoc nsz arcp contract float %968, %simdBroadcast110.12, !spirv.Decorations !1242		; visa id: 1549
  %.sroa.532.368.vec.insert1002 = insertelement <8 x float> %.sroa.532.364.vec.insert995, float %969, i64 4		; visa id: 1550
  %970 = extractelement <8 x float> %.sroa.532.1, i32 5		; visa id: 1551
  %971 = fmul reassoc nsz arcp contract float %970, %simdBroadcast110.13, !spirv.Decorations !1242		; visa id: 1552
  %.sroa.532.372.vec.insert1009 = insertelement <8 x float> %.sroa.532.368.vec.insert1002, float %971, i64 5		; visa id: 1553
  %972 = extractelement <8 x float> %.sroa.532.1, i32 6		; visa id: 1554
  %973 = fmul reassoc nsz arcp contract float %972, %simdBroadcast110.14, !spirv.Decorations !1242		; visa id: 1555
  %.sroa.532.376.vec.insert1016 = insertelement <8 x float> %.sroa.532.372.vec.insert1009, float %973, i64 6		; visa id: 1556
  %974 = extractelement <8 x float> %.sroa.532.1, i32 7		; visa id: 1557
  %975 = fmul reassoc nsz arcp contract float %974, %simdBroadcast110.15, !spirv.Decorations !1242		; visa id: 1558
  %.sroa.532.380.vec.insert1023 = insertelement <8 x float> %.sroa.532.376.vec.insert1016, float %975, i64 7		; visa id: 1559
  %976 = extractelement <8 x float> %.sroa.580.1, i32 0		; visa id: 1560
  %977 = fmul reassoc nsz arcp contract float %976, %simdBroadcast110, !spirv.Decorations !1242		; visa id: 1561
  %.sroa.580.384.vec.insert1036 = insertelement <8 x float> poison, float %977, i64 0		; visa id: 1562
  %978 = extractelement <8 x float> %.sroa.580.1, i32 1		; visa id: 1563
  %979 = fmul reassoc nsz arcp contract float %978, %simdBroadcast110.1, !spirv.Decorations !1242		; visa id: 1564
  %.sroa.580.388.vec.insert1043 = insertelement <8 x float> %.sroa.580.384.vec.insert1036, float %979, i64 1		; visa id: 1565
  %980 = extractelement <8 x float> %.sroa.580.1, i32 2		; visa id: 1566
  %981 = fmul reassoc nsz arcp contract float %980, %simdBroadcast110.2, !spirv.Decorations !1242		; visa id: 1567
  %.sroa.580.392.vec.insert1050 = insertelement <8 x float> %.sroa.580.388.vec.insert1043, float %981, i64 2		; visa id: 1568
  %982 = extractelement <8 x float> %.sroa.580.1, i32 3		; visa id: 1569
  %983 = fmul reassoc nsz arcp contract float %982, %simdBroadcast110.3, !spirv.Decorations !1242		; visa id: 1570
  %.sroa.580.396.vec.insert1057 = insertelement <8 x float> %.sroa.580.392.vec.insert1050, float %983, i64 3		; visa id: 1571
  %984 = extractelement <8 x float> %.sroa.580.1, i32 4		; visa id: 1572
  %985 = fmul reassoc nsz arcp contract float %984, %simdBroadcast110.4, !spirv.Decorations !1242		; visa id: 1573
  %.sroa.580.400.vec.insert1064 = insertelement <8 x float> %.sroa.580.396.vec.insert1057, float %985, i64 4		; visa id: 1574
  %986 = extractelement <8 x float> %.sroa.580.1, i32 5		; visa id: 1575
  %987 = fmul reassoc nsz arcp contract float %986, %simdBroadcast110.5, !spirv.Decorations !1242		; visa id: 1576
  %.sroa.580.404.vec.insert1071 = insertelement <8 x float> %.sroa.580.400.vec.insert1064, float %987, i64 5		; visa id: 1577
  %988 = extractelement <8 x float> %.sroa.580.1, i32 6		; visa id: 1578
  %989 = fmul reassoc nsz arcp contract float %988, %simdBroadcast110.6, !spirv.Decorations !1242		; visa id: 1579
  %.sroa.580.408.vec.insert1078 = insertelement <8 x float> %.sroa.580.404.vec.insert1071, float %989, i64 6		; visa id: 1580
  %990 = extractelement <8 x float> %.sroa.580.1, i32 7		; visa id: 1581
  %991 = fmul reassoc nsz arcp contract float %990, %simdBroadcast110.7, !spirv.Decorations !1242		; visa id: 1582
  %.sroa.580.412.vec.insert1085 = insertelement <8 x float> %.sroa.580.408.vec.insert1078, float %991, i64 7		; visa id: 1583
  %992 = extractelement <8 x float> %.sroa.628.1, i32 0		; visa id: 1584
  %993 = fmul reassoc nsz arcp contract float %992, %simdBroadcast110.8, !spirv.Decorations !1242		; visa id: 1585
  %.sroa.628.416.vec.insert1098 = insertelement <8 x float> poison, float %993, i64 0		; visa id: 1586
  %994 = extractelement <8 x float> %.sroa.628.1, i32 1		; visa id: 1587
  %995 = fmul reassoc nsz arcp contract float %994, %simdBroadcast110.9, !spirv.Decorations !1242		; visa id: 1588
  %.sroa.628.420.vec.insert1105 = insertelement <8 x float> %.sroa.628.416.vec.insert1098, float %995, i64 1		; visa id: 1589
  %996 = extractelement <8 x float> %.sroa.628.1, i32 2		; visa id: 1590
  %997 = fmul reassoc nsz arcp contract float %996, %simdBroadcast110.10, !spirv.Decorations !1242		; visa id: 1591
  %.sroa.628.424.vec.insert1112 = insertelement <8 x float> %.sroa.628.420.vec.insert1105, float %997, i64 2		; visa id: 1592
  %998 = extractelement <8 x float> %.sroa.628.1, i32 3		; visa id: 1593
  %999 = fmul reassoc nsz arcp contract float %998, %simdBroadcast110.11, !spirv.Decorations !1242		; visa id: 1594
  %.sroa.628.428.vec.insert1119 = insertelement <8 x float> %.sroa.628.424.vec.insert1112, float %999, i64 3		; visa id: 1595
  %1000 = extractelement <8 x float> %.sroa.628.1, i32 4		; visa id: 1596
  %1001 = fmul reassoc nsz arcp contract float %1000, %simdBroadcast110.12, !spirv.Decorations !1242		; visa id: 1597
  %.sroa.628.432.vec.insert1126 = insertelement <8 x float> %.sroa.628.428.vec.insert1119, float %1001, i64 4		; visa id: 1598
  %1002 = extractelement <8 x float> %.sroa.628.1, i32 5		; visa id: 1599
  %1003 = fmul reassoc nsz arcp contract float %1002, %simdBroadcast110.13, !spirv.Decorations !1242		; visa id: 1600
  %.sroa.628.436.vec.insert1133 = insertelement <8 x float> %.sroa.628.432.vec.insert1126, float %1003, i64 5		; visa id: 1601
  %1004 = extractelement <8 x float> %.sroa.628.1, i32 6		; visa id: 1602
  %1005 = fmul reassoc nsz arcp contract float %1004, %simdBroadcast110.14, !spirv.Decorations !1242		; visa id: 1603
  %.sroa.628.440.vec.insert1140 = insertelement <8 x float> %.sroa.628.436.vec.insert1133, float %1005, i64 6		; visa id: 1604
  %1006 = extractelement <8 x float> %.sroa.628.1, i32 7		; visa id: 1605
  %1007 = fmul reassoc nsz arcp contract float %1006, %simdBroadcast110.15, !spirv.Decorations !1242		; visa id: 1606
  %.sroa.628.444.vec.insert1147 = insertelement <8 x float> %.sroa.628.440.vec.insert1140, float %1007, i64 7		; visa id: 1607
  %1008 = extractelement <8 x float> %.sroa.676.1, i32 0		; visa id: 1608
  %1009 = fmul reassoc nsz arcp contract float %1008, %simdBroadcast110, !spirv.Decorations !1242		; visa id: 1609
  %.sroa.676.448.vec.insert1160 = insertelement <8 x float> poison, float %1009, i64 0		; visa id: 1610
  %1010 = extractelement <8 x float> %.sroa.676.1, i32 1		; visa id: 1611
  %1011 = fmul reassoc nsz arcp contract float %1010, %simdBroadcast110.1, !spirv.Decorations !1242		; visa id: 1612
  %.sroa.676.452.vec.insert1167 = insertelement <8 x float> %.sroa.676.448.vec.insert1160, float %1011, i64 1		; visa id: 1613
  %1012 = extractelement <8 x float> %.sroa.676.1, i32 2		; visa id: 1614
  %1013 = fmul reassoc nsz arcp contract float %1012, %simdBroadcast110.2, !spirv.Decorations !1242		; visa id: 1615
  %.sroa.676.456.vec.insert1174 = insertelement <8 x float> %.sroa.676.452.vec.insert1167, float %1013, i64 2		; visa id: 1616
  %1014 = extractelement <8 x float> %.sroa.676.1, i32 3		; visa id: 1617
  %1015 = fmul reassoc nsz arcp contract float %1014, %simdBroadcast110.3, !spirv.Decorations !1242		; visa id: 1618
  %.sroa.676.460.vec.insert1181 = insertelement <8 x float> %.sroa.676.456.vec.insert1174, float %1015, i64 3		; visa id: 1619
  %1016 = extractelement <8 x float> %.sroa.676.1, i32 4		; visa id: 1620
  %1017 = fmul reassoc nsz arcp contract float %1016, %simdBroadcast110.4, !spirv.Decorations !1242		; visa id: 1621
  %.sroa.676.464.vec.insert1188 = insertelement <8 x float> %.sroa.676.460.vec.insert1181, float %1017, i64 4		; visa id: 1622
  %1018 = extractelement <8 x float> %.sroa.676.1, i32 5		; visa id: 1623
  %1019 = fmul reassoc nsz arcp contract float %1018, %simdBroadcast110.5, !spirv.Decorations !1242		; visa id: 1624
  %.sroa.676.468.vec.insert1195 = insertelement <8 x float> %.sroa.676.464.vec.insert1188, float %1019, i64 5		; visa id: 1625
  %1020 = extractelement <8 x float> %.sroa.676.1, i32 6		; visa id: 1626
  %1021 = fmul reassoc nsz arcp contract float %1020, %simdBroadcast110.6, !spirv.Decorations !1242		; visa id: 1627
  %.sroa.676.472.vec.insert1202 = insertelement <8 x float> %.sroa.676.468.vec.insert1195, float %1021, i64 6		; visa id: 1628
  %1022 = extractelement <8 x float> %.sroa.676.1, i32 7		; visa id: 1629
  %1023 = fmul reassoc nsz arcp contract float %1022, %simdBroadcast110.7, !spirv.Decorations !1242		; visa id: 1630
  %.sroa.676.476.vec.insert1209 = insertelement <8 x float> %.sroa.676.472.vec.insert1202, float %1023, i64 7		; visa id: 1631
  %1024 = extractelement <8 x float> %.sroa.724.1, i32 0		; visa id: 1632
  %1025 = fmul reassoc nsz arcp contract float %1024, %simdBroadcast110.8, !spirv.Decorations !1242		; visa id: 1633
  %.sroa.724.480.vec.insert1222 = insertelement <8 x float> poison, float %1025, i64 0		; visa id: 1634
  %1026 = extractelement <8 x float> %.sroa.724.1, i32 1		; visa id: 1635
  %1027 = fmul reassoc nsz arcp contract float %1026, %simdBroadcast110.9, !spirv.Decorations !1242		; visa id: 1636
  %.sroa.724.484.vec.insert1229 = insertelement <8 x float> %.sroa.724.480.vec.insert1222, float %1027, i64 1		; visa id: 1637
  %1028 = extractelement <8 x float> %.sroa.724.1, i32 2		; visa id: 1638
  %1029 = fmul reassoc nsz arcp contract float %1028, %simdBroadcast110.10, !spirv.Decorations !1242		; visa id: 1639
  %.sroa.724.488.vec.insert1236 = insertelement <8 x float> %.sroa.724.484.vec.insert1229, float %1029, i64 2		; visa id: 1640
  %1030 = extractelement <8 x float> %.sroa.724.1, i32 3		; visa id: 1641
  %1031 = fmul reassoc nsz arcp contract float %1030, %simdBroadcast110.11, !spirv.Decorations !1242		; visa id: 1642
  %.sroa.724.492.vec.insert1243 = insertelement <8 x float> %.sroa.724.488.vec.insert1236, float %1031, i64 3		; visa id: 1643
  %1032 = extractelement <8 x float> %.sroa.724.1, i32 4		; visa id: 1644
  %1033 = fmul reassoc nsz arcp contract float %1032, %simdBroadcast110.12, !spirv.Decorations !1242		; visa id: 1645
  %.sroa.724.496.vec.insert1250 = insertelement <8 x float> %.sroa.724.492.vec.insert1243, float %1033, i64 4		; visa id: 1646
  %1034 = extractelement <8 x float> %.sroa.724.1, i32 5		; visa id: 1647
  %1035 = fmul reassoc nsz arcp contract float %1034, %simdBroadcast110.13, !spirv.Decorations !1242		; visa id: 1648
  %.sroa.724.500.vec.insert1257 = insertelement <8 x float> %.sroa.724.496.vec.insert1250, float %1035, i64 5		; visa id: 1649
  %1036 = extractelement <8 x float> %.sroa.724.1, i32 6		; visa id: 1650
  %1037 = fmul reassoc nsz arcp contract float %1036, %simdBroadcast110.14, !spirv.Decorations !1242		; visa id: 1651
  %.sroa.724.504.vec.insert1264 = insertelement <8 x float> %.sroa.724.500.vec.insert1257, float %1037, i64 6		; visa id: 1652
  %1038 = extractelement <8 x float> %.sroa.724.1, i32 7		; visa id: 1653
  %1039 = fmul reassoc nsz arcp contract float %1038, %simdBroadcast110.15, !spirv.Decorations !1242		; visa id: 1654
  %.sroa.724.508.vec.insert1271 = insertelement <8 x float> %.sroa.724.504.vec.insert1264, float %1039, i64 7		; visa id: 1655
  %1040 = fmul reassoc nsz arcp contract float %.sroa.0209.1250, %783, !spirv.Decorations !1242		; visa id: 1656
  br label %.loopexit.i, !stats.blockFrequency.digits !1234, !stats.blockFrequency.scale !1223		; visa id: 1785

.loopexit.i:                                      ; preds = %.preheader3.i.preheader..loopexit.i_crit_edge, %.loopexit.i.loopexit
; BB87 :
  %.sroa.724.2 = phi <8 x float> [ %.sroa.724.508.vec.insert1271, %.loopexit.i.loopexit ], [ %.sroa.724.1, %.preheader3.i.preheader..loopexit.i_crit_edge ]
  %.sroa.676.2 = phi <8 x float> [ %.sroa.676.476.vec.insert1209, %.loopexit.i.loopexit ], [ %.sroa.676.1, %.preheader3.i.preheader..loopexit.i_crit_edge ]
  %.sroa.628.2 = phi <8 x float> [ %.sroa.628.444.vec.insert1147, %.loopexit.i.loopexit ], [ %.sroa.628.1, %.preheader3.i.preheader..loopexit.i_crit_edge ]
  %.sroa.580.2 = phi <8 x float> [ %.sroa.580.412.vec.insert1085, %.loopexit.i.loopexit ], [ %.sroa.580.1, %.preheader3.i.preheader..loopexit.i_crit_edge ]
  %.sroa.532.2 = phi <8 x float> [ %.sroa.532.380.vec.insert1023, %.loopexit.i.loopexit ], [ %.sroa.532.1, %.preheader3.i.preheader..loopexit.i_crit_edge ]
  %.sroa.484.2 = phi <8 x float> [ %.sroa.484.348.vec.insert961, %.loopexit.i.loopexit ], [ %.sroa.484.1, %.preheader3.i.preheader..loopexit.i_crit_edge ]
  %.sroa.436.2 = phi <8 x float> [ %.sroa.436.316.vec.insert899, %.loopexit.i.loopexit ], [ %.sroa.436.1, %.preheader3.i.preheader..loopexit.i_crit_edge ]
  %.sroa.388.2 = phi <8 x float> [ %.sroa.388.284.vec.insert837, %.loopexit.i.loopexit ], [ %.sroa.388.1, %.preheader3.i.preheader..loopexit.i_crit_edge ]
  %.sroa.340.2 = phi <8 x float> [ %.sroa.340.252.vec.insert775, %.loopexit.i.loopexit ], [ %.sroa.340.1, %.preheader3.i.preheader..loopexit.i_crit_edge ]
  %.sroa.292.2 = phi <8 x float> [ %.sroa.292.220.vec.insert713, %.loopexit.i.loopexit ], [ %.sroa.292.1, %.preheader3.i.preheader..loopexit.i_crit_edge ]
  %.sroa.244.2 = phi <8 x float> [ %.sroa.244.188.vec.insert651, %.loopexit.i.loopexit ], [ %.sroa.244.1, %.preheader3.i.preheader..loopexit.i_crit_edge ]
  %.sroa.196.2 = phi <8 x float> [ %.sroa.196.156.vec.insert589, %.loopexit.i.loopexit ], [ %.sroa.196.1, %.preheader3.i.preheader..loopexit.i_crit_edge ]
  %.sroa.148.2 = phi <8 x float> [ %.sroa.148.124.vec.insert527, %.loopexit.i.loopexit ], [ %.sroa.148.1, %.preheader3.i.preheader..loopexit.i_crit_edge ]
  %.sroa.100.2 = phi <8 x float> [ %.sroa.100.92.vec.insert465, %.loopexit.i.loopexit ], [ %.sroa.100.1, %.preheader3.i.preheader..loopexit.i_crit_edge ]
  %.sroa.52.2 = phi <8 x float> [ %.sroa.52.60.vec.insert403, %.loopexit.i.loopexit ], [ %.sroa.52.1, %.preheader3.i.preheader..loopexit.i_crit_edge ]
  %.sroa.0.2 = phi <8 x float> [ %.sroa.0.28.vec.insert341, %.loopexit.i.loopexit ], [ %.sroa.0.1, %.preheader3.i.preheader..loopexit.i_crit_edge ]
  %.sroa.0209.2 = phi float [ %1040, %.loopexit.i.loopexit ], [ %.sroa.0209.1250, %.preheader3.i.preheader..loopexit.i_crit_edge ]
  %1041 = fadd reassoc nsz arcp contract float %749, %765, !spirv.Decorations !1242		; visa id: 1786
  %1042 = fadd reassoc nsz arcp contract float %750, %766, !spirv.Decorations !1242		; visa id: 1787
  %1043 = fadd reassoc nsz arcp contract float %751, %767, !spirv.Decorations !1242		; visa id: 1788
  %1044 = fadd reassoc nsz arcp contract float %752, %768, !spirv.Decorations !1242		; visa id: 1789
  %1045 = fadd reassoc nsz arcp contract float %753, %769, !spirv.Decorations !1242		; visa id: 1790
  %1046 = fadd reassoc nsz arcp contract float %754, %770, !spirv.Decorations !1242		; visa id: 1791
  %1047 = fadd reassoc nsz arcp contract float %755, %771, !spirv.Decorations !1242		; visa id: 1792
  %1048 = fadd reassoc nsz arcp contract float %756, %772, !spirv.Decorations !1242		; visa id: 1793
  %1049 = fadd reassoc nsz arcp contract float %757, %773, !spirv.Decorations !1242		; visa id: 1794
  %1050 = fadd reassoc nsz arcp contract float %758, %774, !spirv.Decorations !1242		; visa id: 1795
  %1051 = fadd reassoc nsz arcp contract float %759, %775, !spirv.Decorations !1242		; visa id: 1796
  %1052 = fadd reassoc nsz arcp contract float %760, %776, !spirv.Decorations !1242		; visa id: 1797
  %1053 = fadd reassoc nsz arcp contract float %761, %777, !spirv.Decorations !1242		; visa id: 1798
  %1054 = fadd reassoc nsz arcp contract float %762, %778, !spirv.Decorations !1242		; visa id: 1799
  %1055 = fadd reassoc nsz arcp contract float %763, %779, !spirv.Decorations !1242		; visa id: 1800
  %1056 = fadd reassoc nsz arcp contract float %764, %780, !spirv.Decorations !1242		; visa id: 1801
  %1057 = call float asm "{\0A.decl INTERLEAVE_2 v_type=P num_elts=16\0A.decl INTERLEAVE_4 v_type=P num_elts=16\0A.decl INTERLEAVE_8 v_type=P num_elts=16\0A.decl IN0 v_type=G type=UD num_elts=16 alias=<$1,0>\0A.decl IN1 v_type=G type=UD num_elts=16 alias=<$2,0>\0A.decl IN2 v_type=G type=UD num_elts=16 alias=<$3,0>\0A.decl IN3 v_type=G type=UD num_elts=16 alias=<$4,0>\0A.decl IN4 v_type=G type=UD num_elts=16 alias=<$5,0>\0A.decl IN5 v_type=G type=UD num_elts=16 alias=<$6,0>\0A.decl IN6 v_type=G type=UD num_elts=16 alias=<$7,0>\0A.decl IN7 v_type=G type=UD num_elts=16 alias=<$8,0>\0A.decl IN8 v_type=G type=UD num_elts=16 alias=<$9,0>\0A.decl IN9 v_type=G type=UD num_elts=16 alias=<$10,0>\0A.decl IN10 v_type=G type=UD num_elts=16 alias=<$11,0>\0A.decl IN11 v_type=G type=UD num_elts=16 alias=<$12,0>\0A.decl IN12 v_type=G type=UD num_elts=16 alias=<$13,0>\0A.decl IN13 v_type=G type=UD num_elts=16 alias=<$14,0>\0A.decl IN14 v_type=G type=UD num_elts=16 alias=<$15,0>\0A.decl IN15 v_type=G type=UD num_elts=16 alias=<$16,0>\0A.decl RA0 v_type=G type=UD num_elts=32 align=64\0A.decl RA2 v_type=G type=UD num_elts=32 align=64\0A.decl RA4 v_type=G type=UD num_elts=32 align=64\0A.decl RA6 v_type=G type=UD num_elts=32 align=64\0A.decl RA8 v_type=G type=UD num_elts=32 align=64\0A.decl RA10 v_type=G type=UD num_elts=32 align=64\0A.decl RA12 v_type=G type=UD num_elts=32 align=64\0A.decl RA14 v_type=G type=UD num_elts=32 align=64\0A.decl RF0 v_type=G type=F num_elts=16 alias=<RA0,0>\0A.decl RF1 v_type=G type=F num_elts=16 alias=<RA0,64>\0A.decl RF2 v_type=G type=F num_elts=16 alias=<RA2,0>\0A.decl RF3 v_type=G type=F num_elts=16 alias=<RA2,64>\0A.decl RF4 v_type=G type=F num_elts=16 alias=<RA4,0>\0A.decl RF5 v_type=G type=F num_elts=16 alias=<RA4,64>\0A.decl RF6 v_type=G type=F num_elts=16 alias=<RA6,0>\0A.decl RF7 v_type=G type=F num_elts=16 alias=<RA6,64>\0A.decl RF8 v_type=G type=F num_elts=16 alias=<RA8,0>\0A.decl RF9 v_type=G type=F num_elts=16 alias=<RA8,64>\0A.decl RF10 v_type=G type=F num_elts=16 alias=<RA10,0>\0A.decl RF11 v_type=G type=F num_elts=16 alias=<RA10,64>\0A.decl RF12 v_type=G type=F num_elts=16 alias=<RA12,0>\0A.decl RF13 v_type=G type=F num_elts=16 alias=<RA12,64>\0A.decl RF14 v_type=G type=F num_elts=16 alias=<RA14,0>\0A.decl RF15 v_type=G type=F num_elts=16 alias=<RA14,64>\0Asetp (M1_NM,16) INTERLEAVE_2 0x5555:uw\0Asetp (M1_NM,16) INTERLEAVE_4 0x3333:uw\0Asetp (M1_NM,16) INTERLEAVE_8 0x0F0F:uw\0A(!INTERLEAVE_2) sel (M1_NM,16) RA0(0,0)<1>  IN1(0,0)<2;2,0>  IN0(0,0)<1;1,0>\0A (INTERLEAVE_2) sel (M1_NM,16) RA0(1,0)<1>  IN0(0,1)<2;2,0>  IN1(0,0)<1;1,0>\0A(!INTERLEAVE_2) sel (M1_NM,16) RA2(0,0)<1>  IN3(0,0)<2;2,0>  IN2(0,0)<1;1,0>\0A (INTERLEAVE_2) sel (M1_NM,16) RA2(1,0)<1>  IN2(0,1)<2;2,0>  IN3(0,0)<1;1,0>\0A(!INTERLEAVE_2) sel (M1_NM,16) RA4(0,0)<1>  IN5(0,0)<2;2,0>  IN4(0,0)<1;1,0>\0A (INTERLEAVE_2) sel (M1_NM,16) RA4(1,0)<1>  IN4(0,1)<2;2,0>  IN5(0,0)<1;1,0>\0A(!INTERLEAVE_2) sel (M1_NM,16) RA6(0,0)<1>  IN7(0,0)<2;2,0>  IN6(0,0)<1;1,0>\0A (INTERLEAVE_2) sel (M1_NM,16) RA6(1,0)<1>  IN6(0,1)<2;2,0>  IN7(0,0)<1;1,0>\0A(!INTERLEAVE_2) sel (M1_NM,16) RA8(0,0)<1>  IN9(0,0)<2;2,0>  IN8(0,0)<1;1,0>\0A (INTERLEAVE_2) sel (M1_NM,16) RA8(1,0)<1>  IN8(0,1)<2;2,0>  IN9(0,0)<1;1,0>\0A(!INTERLEAVE_2) sel (M1_NM,16) RA10(0,0)<1> IN11(0,0)<2;2,0> IN10(0,0)<1;1,0>\0A (INTERLEAVE_2) sel (M1_NM,16) RA10(1,0)<1> IN10(0,1)<2;2,0> IN11(0,0)<1;1,0>\0A(!INTERLEAVE_2) sel (M1_NM,16) RA12(0,0)<1> IN13(0,0)<2;2,0> IN12(0,0)<1;1,0>\0A (INTERLEAVE_2) sel (M1_NM,16) RA12(1,0)<1> IN12(0,1)<2;2,0> IN13(0,0)<1;1,0>\0A(!INTERLEAVE_2) sel (M1_NM,16) RA14(0,0)<1> IN15(0,0)<2;2,0> IN14(0,0)<1;1,0>\0A (INTERLEAVE_2) sel (M1_NM,16) RA14(1,0)<1> IN14(0,1)<2;2,0> IN15(0,0)<1;1,0>\0Aadd (M1_NM,16) RF0(0,0)<1> RF0(0,0)<1;1,0> RF1(0,0)<1;1,0>\0Aadd (M1_NM,16) RF3(0,0)<1> RF2(0,0)<1;1,0> RF3(0,0)<1;1,0>\0Aadd (M1_NM,16) RF4(0,0)<1> RF4(0,0)<1;1,0> RF5(0,0)<1;1,0>\0Aadd (M1_NM,16) RF7(0,0)<1> RF6(0,0)<1;1,0> RF7(0,0)<1;1,0>\0Aadd (M1_NM,16) RF8(0,0)<1> RF8(0,0)<1;1,0> RF9(0,0)<1;1,0>\0Aadd (M1_NM,16) RF11(0,0)<1> RF10(0,0)<1;1,0> RF11(0,0)<1;1,0>\0Aadd (M1_NM,16) RF12(0,0)<1> RF12(0,0)<1;1,0> RF13(0,0)<1;1,0>\0Aadd (M1_NM,16) RF15(0,0)<1> RF14(0,0)<1;1,0> RF15(0,0)<1;1,0>\0A(!INTERLEAVE_4) sel (M1_NM,16) RA0(1,0)<1>  RA2(0,14)<1;1,0>  RA0(0,0)<1;1,0>\0A (INTERLEAVE_4) sel (M1_NM,16) RA0(0,0)<1>  RA0(0,2)<1;1,0>   RA2(1,0)<1;1,0>\0A(!INTERLEAVE_4) sel (M1_NM,16) RA4(1,0)<1>  RA6(0,14)<1;1,0>  RA4(0,0)<1;1,0>\0A (INTERLEAVE_4) sel (M1_NM,16) RA4(0,0)<1>  RA4(0,2)<1;1,0>   RA6(1,0)<1;1,0>\0A(!INTERLEAVE_4) sel (M1_NM,16) RA8(1,0)<1>  RA10(0,14)<1;1,0> RA8(0,0)<1;1,0>\0A (INTERLEAVE_4) sel (M1_NM,16) RA8(0,0)<1>  RA8(0,2)<1;1,0>   RA10(1,0)<1;1,0>\0A(!INTERLEAVE_4) sel (M1_NM,16) RA12(1,0)<1> RA14(0,14)<1;1,0> RA12(0,0)<1;1,0>\0A (INTERLEAVE_4) sel (M1_NM,16) RA12(0,0)<1> RA12(0,2)<1;1,0>  RA14(1,0)<1;1,0>\0Aadd (M1_NM,16) RF0(0,0)<1>  RF0(0,0)<1;1,0>  RF1(0,0)<1;1,0>\0Aadd (M1_NM,16) RF5(0,0)<1>  RF4(0,0)<1;1,0>  RF5(0,0)<1;1,0>\0Aadd (M1_NM,16) RF8(0,0)<1>  RF8(0,0)<1;1,0>  RF9(0,0)<1;1,0>\0Aadd (M1_NM,16) RF13(0,0)<1> RF12(0,0)<1;1,0> RF13(0,0)<1;1,0>\0A(!INTERLEAVE_8) sel (M1_NM,16) RA0(1,0)<1> RA4(0,12)<1;1,0>  RA0(0,0)<1;1,0>\0A (INTERLEAVE_8) sel (M1_NM,16) RA0(0,0)<1> RA0(0,4)<1;1,0>   RA4(1,0)<1;1,0>\0A(!INTERLEAVE_8) sel (M1_NM,16) RA8(1,0)<1> RA12(0,12)<1;1,0> RA8(0,0)<1;1,0>\0A (INTERLEAVE_8) sel (M1_NM,16) RA8(0,0)<1> RA8(0,4)<1;1,0>   RA12(1,0)<1;1,0>\0Aadd (M1_NM,16) RF0(0,0)<1> RF0(0,0)<1;1,0> RF1(0,0)<1;1,0>\0Aadd (M1_NM,16) RF8(0,0)<1> RF8(0,0)<1;1,0> RF9(0,0)<1;1,0>\0Amov (M1_NM, 8) RA0(1,0)<1> RA0(0,8)<1;1,0>\0Amov (M1_NM, 8) RA8(1,8)<1> RA8(0,0)<1;1,0>\0Aadd (M1_NM,8) $0(0,0)<1> RF0(0,0)<1;1,0> RF1(0,0)<1;1,0>\0Aadd (M1_NM,8) $0(0,8)<1> RF8(0,8)<1;1,0> RF9(0,8)<1;1,0>\0A}\0A", "=rw,rw,rw,rw,rw,rw,rw,rw,rw,rw,rw,rw,rw,rw,rw,rw,rw"(float %1041, float %1042, float %1043, float %1044, float %1045, float %1046, float %1047, float %1048, float %1049, float %1050, float %1051, float %1052, float %1053, float %1054, float %1055, float %1056) #0		; visa id: 1802
  %bf_cvt = call i16 @llvm.genx.GenISA.ftobf.i16.f32(float %749, i32 0)		; visa id: 1802
  %.sroa.03106.0.vec.insert3124 = insertelement <8 x i16> poison, i16 %bf_cvt, i64 0		; visa id: 1803
  %bf_cvt.1 = call i16 @llvm.genx.GenISA.ftobf.i16.f32(float %750, i32 0)		; visa id: 1804
  %.sroa.03106.2.vec.insert3127 = insertelement <8 x i16> %.sroa.03106.0.vec.insert3124, i16 %bf_cvt.1, i64 1		; visa id: 1805
  %bf_cvt.2 = call i16 @llvm.genx.GenISA.ftobf.i16.f32(float %751, i32 0)		; visa id: 1806
  %.sroa.03106.4.vec.insert3129 = insertelement <8 x i16> %.sroa.03106.2.vec.insert3127, i16 %bf_cvt.2, i64 2		; visa id: 1807
  %bf_cvt.3 = call i16 @llvm.genx.GenISA.ftobf.i16.f32(float %752, i32 0)		; visa id: 1808
  %.sroa.03106.6.vec.insert3131 = insertelement <8 x i16> %.sroa.03106.4.vec.insert3129, i16 %bf_cvt.3, i64 3		; visa id: 1809
  %bf_cvt.4 = call i16 @llvm.genx.GenISA.ftobf.i16.f32(float %753, i32 0)		; visa id: 1810
  %.sroa.03106.8.vec.insert3133 = insertelement <8 x i16> %.sroa.03106.6.vec.insert3131, i16 %bf_cvt.4, i64 4		; visa id: 1811
  %bf_cvt.5 = call i16 @llvm.genx.GenISA.ftobf.i16.f32(float %754, i32 0)		; visa id: 1812
  %.sroa.03106.10.vec.insert3135 = insertelement <8 x i16> %.sroa.03106.8.vec.insert3133, i16 %bf_cvt.5, i64 5		; visa id: 1813
  %bf_cvt.6 = call i16 @llvm.genx.GenISA.ftobf.i16.f32(float %755, i32 0)		; visa id: 1814
  %.sroa.03106.12.vec.insert3137 = insertelement <8 x i16> %.sroa.03106.10.vec.insert3135, i16 %bf_cvt.6, i64 6		; visa id: 1815
  %bf_cvt.7 = call i16 @llvm.genx.GenISA.ftobf.i16.f32(float %756, i32 0)		; visa id: 1816
  %.sroa.03106.14.vec.insert3139 = insertelement <8 x i16> %.sroa.03106.12.vec.insert3137, i16 %bf_cvt.7, i64 7		; visa id: 1817
  %bf_cvt.8 = call i16 @llvm.genx.GenISA.ftobf.i16.f32(float %757, i32 0)		; visa id: 1818
  %.sroa.35.16.vec.insert3158 = insertelement <8 x i16> poison, i16 %bf_cvt.8, i64 0		; visa id: 1819
  %bf_cvt.9 = call i16 @llvm.genx.GenISA.ftobf.i16.f32(float %758, i32 0)		; visa id: 1820
  %.sroa.35.18.vec.insert3160 = insertelement <8 x i16> %.sroa.35.16.vec.insert3158, i16 %bf_cvt.9, i64 1		; visa id: 1821
  %bf_cvt.10 = call i16 @llvm.genx.GenISA.ftobf.i16.f32(float %759, i32 0)		; visa id: 1822
  %.sroa.35.20.vec.insert3162 = insertelement <8 x i16> %.sroa.35.18.vec.insert3160, i16 %bf_cvt.10, i64 2		; visa id: 1823
  %bf_cvt.11 = call i16 @llvm.genx.GenISA.ftobf.i16.f32(float %760, i32 0)		; visa id: 1824
  %.sroa.35.22.vec.insert3164 = insertelement <8 x i16> %.sroa.35.20.vec.insert3162, i16 %bf_cvt.11, i64 3		; visa id: 1825
  %bf_cvt.12 = call i16 @llvm.genx.GenISA.ftobf.i16.f32(float %761, i32 0)		; visa id: 1826
  %.sroa.35.24.vec.insert3166 = insertelement <8 x i16> %.sroa.35.22.vec.insert3164, i16 %bf_cvt.12, i64 4		; visa id: 1827
  %bf_cvt.13 = call i16 @llvm.genx.GenISA.ftobf.i16.f32(float %762, i32 0)		; visa id: 1828
  %.sroa.35.26.vec.insert3168 = insertelement <8 x i16> %.sroa.35.24.vec.insert3166, i16 %bf_cvt.13, i64 5		; visa id: 1829
  %bf_cvt.14 = call i16 @llvm.genx.GenISA.ftobf.i16.f32(float %763, i32 0)		; visa id: 1830
  %.sroa.35.28.vec.insert3170 = insertelement <8 x i16> %.sroa.35.26.vec.insert3168, i16 %bf_cvt.14, i64 6		; visa id: 1831
  %bf_cvt.15 = call i16 @llvm.genx.GenISA.ftobf.i16.f32(float %764, i32 0)		; visa id: 1832
  %.sroa.35.30.vec.insert3172 = insertelement <8 x i16> %.sroa.35.28.vec.insert3170, i16 %bf_cvt.15, i64 7		; visa id: 1833
  %bf_cvt.16 = call i16 @llvm.genx.GenISA.ftobf.i16.f32(float %765, i32 0)		; visa id: 1834
  %.sroa.67.32.vec.insert3191 = insertelement <8 x i16> poison, i16 %bf_cvt.16, i64 0		; visa id: 1835
  %bf_cvt.17 = call i16 @llvm.genx.GenISA.ftobf.i16.f32(float %766, i32 0)		; visa id: 1836
  %.sroa.67.34.vec.insert3193 = insertelement <8 x i16> %.sroa.67.32.vec.insert3191, i16 %bf_cvt.17, i64 1		; visa id: 1837
  %bf_cvt.18 = call i16 @llvm.genx.GenISA.ftobf.i16.f32(float %767, i32 0)		; visa id: 1838
  %.sroa.67.36.vec.insert3195 = insertelement <8 x i16> %.sroa.67.34.vec.insert3193, i16 %bf_cvt.18, i64 2		; visa id: 1839
  %bf_cvt.19 = call i16 @llvm.genx.GenISA.ftobf.i16.f32(float %768, i32 0)		; visa id: 1840
  %.sroa.67.38.vec.insert3197 = insertelement <8 x i16> %.sroa.67.36.vec.insert3195, i16 %bf_cvt.19, i64 3		; visa id: 1841
  %bf_cvt.20 = call i16 @llvm.genx.GenISA.ftobf.i16.f32(float %769, i32 0)		; visa id: 1842
  %.sroa.67.40.vec.insert3199 = insertelement <8 x i16> %.sroa.67.38.vec.insert3197, i16 %bf_cvt.20, i64 4		; visa id: 1843
  %bf_cvt.21 = call i16 @llvm.genx.GenISA.ftobf.i16.f32(float %770, i32 0)		; visa id: 1844
  %.sroa.67.42.vec.insert3201 = insertelement <8 x i16> %.sroa.67.40.vec.insert3199, i16 %bf_cvt.21, i64 5		; visa id: 1845
  %bf_cvt.22 = call i16 @llvm.genx.GenISA.ftobf.i16.f32(float %771, i32 0)		; visa id: 1846
  %.sroa.67.44.vec.insert3203 = insertelement <8 x i16> %.sroa.67.42.vec.insert3201, i16 %bf_cvt.22, i64 6		; visa id: 1847
  %bf_cvt.23 = call i16 @llvm.genx.GenISA.ftobf.i16.f32(float %772, i32 0)		; visa id: 1848
  %.sroa.67.46.vec.insert3205 = insertelement <8 x i16> %.sroa.67.44.vec.insert3203, i16 %bf_cvt.23, i64 7		; visa id: 1849
  %bf_cvt.24 = call i16 @llvm.genx.GenISA.ftobf.i16.f32(float %773, i32 0)		; visa id: 1850
  %.sroa.99.48.vec.insert3224 = insertelement <8 x i16> poison, i16 %bf_cvt.24, i64 0		; visa id: 1851
  %bf_cvt.25 = call i16 @llvm.genx.GenISA.ftobf.i16.f32(float %774, i32 0)		; visa id: 1852
  %.sroa.99.50.vec.insert3226 = insertelement <8 x i16> %.sroa.99.48.vec.insert3224, i16 %bf_cvt.25, i64 1		; visa id: 1853
  %bf_cvt.26 = call i16 @llvm.genx.GenISA.ftobf.i16.f32(float %775, i32 0)		; visa id: 1854
  %.sroa.99.52.vec.insert3228 = insertelement <8 x i16> %.sroa.99.50.vec.insert3226, i16 %bf_cvt.26, i64 2		; visa id: 1855
  %bf_cvt.27 = call i16 @llvm.genx.GenISA.ftobf.i16.f32(float %776, i32 0)		; visa id: 1856
  %.sroa.99.54.vec.insert3230 = insertelement <8 x i16> %.sroa.99.52.vec.insert3228, i16 %bf_cvt.27, i64 3		; visa id: 1857
  %bf_cvt.28 = call i16 @llvm.genx.GenISA.ftobf.i16.f32(float %777, i32 0)		; visa id: 1858
  %.sroa.99.56.vec.insert3232 = insertelement <8 x i16> %.sroa.99.54.vec.insert3230, i16 %bf_cvt.28, i64 4		; visa id: 1859
  %bf_cvt.29 = call i16 @llvm.genx.GenISA.ftobf.i16.f32(float %778, i32 0)		; visa id: 1860
  %.sroa.99.58.vec.insert3234 = insertelement <8 x i16> %.sroa.99.56.vec.insert3232, i16 %bf_cvt.29, i64 5		; visa id: 1861
  %bf_cvt.30 = call i16 @llvm.genx.GenISA.ftobf.i16.f32(float %779, i32 0)		; visa id: 1862
  %.sroa.99.60.vec.insert3236 = insertelement <8 x i16> %.sroa.99.58.vec.insert3234, i16 %bf_cvt.30, i64 6		; visa id: 1863
  %bf_cvt.31 = call i16 @llvm.genx.GenISA.ftobf.i16.f32(float %780, i32 0)		; visa id: 1864
  %.sroa.99.62.vec.insert3238 = insertelement <8 x i16> %.sroa.99.60.vec.insert3236, i16 %bf_cvt.31, i64 7		; visa id: 1865
  call void @llvm.genx.GenISA.LSC2DBlockSetAddrPayloadField.p4i8.i32(i8 addrspace(4)* %Block2D_AddrPayload118, i32 5, i32 %307, i1 false)		; visa id: 1866
  call void @llvm.genx.GenISA.LSC2DBlockSetAddrPayloadField.p4i8.i32(i8 addrspace(4)* %Block2D_AddrPayload118, i32 6, i32 %372, i1 false)		; visa id: 1867
  %1058 = call <32 x i16> asm "lsc_load_block2d.ugm (M1, 1)  $0:d$2.$3x$4x$5nt flat[$1+(0,0)]", "=rw,rw.u,P,P,P,P"(i8 addrspace(4)* %Block2D_AddrPayload118, i32 16, i32 2, i32 16, i32 16) #0		; visa id: 1868
  %1059 = add i32 %372, 16		; visa id: 1868
  call void @llvm.genx.GenISA.LSC2DBlockSetAddrPayloadField.p4i8.i32(i8 addrspace(4)* %Block2D_AddrPayload118, i32 5, i32 %307, i1 false)		; visa id: 1869
  call void @llvm.genx.GenISA.LSC2DBlockSetAddrPayloadField.p4i8.i32(i8 addrspace(4)* %Block2D_AddrPayload118, i32 6, i32 %1059, i1 false)		; visa id: 1870
  %1060 = call <32 x i16> asm "lsc_load_block2d.ugm (M1, 1)  $0:d$2.$3x$4x$5nt flat[$1+(0,0)]", "=rw,rw.u,P,P,P,P"(i8 addrspace(4)* %Block2D_AddrPayload118, i32 16, i32 2, i32 16, i32 16) #0		; visa id: 1871
  %1061 = extractelement <32 x i16> %1058, i32 0		; visa id: 1871
  %1062 = insertelement <16 x i16> undef, i16 %1061, i32 0		; visa id: 1871
  %1063 = extractelement <32 x i16> %1058, i32 1		; visa id: 1871
  %1064 = insertelement <16 x i16> %1062, i16 %1063, i32 1		; visa id: 1871
  %1065 = extractelement <32 x i16> %1058, i32 2		; visa id: 1871
  %1066 = insertelement <16 x i16> %1064, i16 %1065, i32 2		; visa id: 1871
  %1067 = extractelement <32 x i16> %1058, i32 3		; visa id: 1871
  %1068 = insertelement <16 x i16> %1066, i16 %1067, i32 3		; visa id: 1871
  %1069 = extractelement <32 x i16> %1058, i32 4		; visa id: 1871
  %1070 = insertelement <16 x i16> %1068, i16 %1069, i32 4		; visa id: 1871
  %1071 = extractelement <32 x i16> %1058, i32 5		; visa id: 1871
  %1072 = insertelement <16 x i16> %1070, i16 %1071, i32 5		; visa id: 1871
  %1073 = extractelement <32 x i16> %1058, i32 6		; visa id: 1871
  %1074 = insertelement <16 x i16> %1072, i16 %1073, i32 6		; visa id: 1871
  %1075 = extractelement <32 x i16> %1058, i32 7		; visa id: 1871
  %1076 = insertelement <16 x i16> %1074, i16 %1075, i32 7		; visa id: 1871
  %1077 = extractelement <32 x i16> %1058, i32 8		; visa id: 1871
  %1078 = insertelement <16 x i16> %1076, i16 %1077, i32 8		; visa id: 1871
  %1079 = extractelement <32 x i16> %1058, i32 9		; visa id: 1871
  %1080 = insertelement <16 x i16> %1078, i16 %1079, i32 9		; visa id: 1871
  %1081 = extractelement <32 x i16> %1058, i32 10		; visa id: 1871
  %1082 = insertelement <16 x i16> %1080, i16 %1081, i32 10		; visa id: 1871
  %1083 = extractelement <32 x i16> %1058, i32 11		; visa id: 1871
  %1084 = insertelement <16 x i16> %1082, i16 %1083, i32 11		; visa id: 1871
  %1085 = extractelement <32 x i16> %1058, i32 12		; visa id: 1871
  %1086 = insertelement <16 x i16> %1084, i16 %1085, i32 12		; visa id: 1871
  %1087 = extractelement <32 x i16> %1058, i32 13		; visa id: 1871
  %1088 = insertelement <16 x i16> %1086, i16 %1087, i32 13		; visa id: 1871
  %1089 = extractelement <32 x i16> %1058, i32 14		; visa id: 1871
  %1090 = insertelement <16 x i16> %1088, i16 %1089, i32 14		; visa id: 1871
  %1091 = extractelement <32 x i16> %1058, i32 15		; visa id: 1871
  %1092 = insertelement <16 x i16> %1090, i16 %1091, i32 15		; visa id: 1871
  %1093 = extractelement <32 x i16> %1058, i32 16		; visa id: 1871
  %1094 = insertelement <16 x i16> undef, i16 %1093, i32 0		; visa id: 1871
  %1095 = extractelement <32 x i16> %1058, i32 17		; visa id: 1871
  %1096 = insertelement <16 x i16> %1094, i16 %1095, i32 1		; visa id: 1871
  %1097 = extractelement <32 x i16> %1058, i32 18		; visa id: 1871
  %1098 = insertelement <16 x i16> %1096, i16 %1097, i32 2		; visa id: 1871
  %1099 = extractelement <32 x i16> %1058, i32 19		; visa id: 1871
  %1100 = insertelement <16 x i16> %1098, i16 %1099, i32 3		; visa id: 1871
  %1101 = extractelement <32 x i16> %1058, i32 20		; visa id: 1871
  %1102 = insertelement <16 x i16> %1100, i16 %1101, i32 4		; visa id: 1871
  %1103 = extractelement <32 x i16> %1058, i32 21		; visa id: 1871
  %1104 = insertelement <16 x i16> %1102, i16 %1103, i32 5		; visa id: 1871
  %1105 = extractelement <32 x i16> %1058, i32 22		; visa id: 1871
  %1106 = insertelement <16 x i16> %1104, i16 %1105, i32 6		; visa id: 1871
  %1107 = extractelement <32 x i16> %1058, i32 23		; visa id: 1871
  %1108 = insertelement <16 x i16> %1106, i16 %1107, i32 7		; visa id: 1871
  %1109 = extractelement <32 x i16> %1058, i32 24		; visa id: 1871
  %1110 = insertelement <16 x i16> %1108, i16 %1109, i32 8		; visa id: 1871
  %1111 = extractelement <32 x i16> %1058, i32 25		; visa id: 1871
  %1112 = insertelement <16 x i16> %1110, i16 %1111, i32 9		; visa id: 1871
  %1113 = extractelement <32 x i16> %1058, i32 26		; visa id: 1871
  %1114 = insertelement <16 x i16> %1112, i16 %1113, i32 10		; visa id: 1871
  %1115 = extractelement <32 x i16> %1058, i32 27		; visa id: 1871
  %1116 = insertelement <16 x i16> %1114, i16 %1115, i32 11		; visa id: 1871
  %1117 = extractelement <32 x i16> %1058, i32 28		; visa id: 1871
  %1118 = insertelement <16 x i16> %1116, i16 %1117, i32 12		; visa id: 1871
  %1119 = extractelement <32 x i16> %1058, i32 29		; visa id: 1871
  %1120 = insertelement <16 x i16> %1118, i16 %1119, i32 13		; visa id: 1871
  %1121 = extractelement <32 x i16> %1058, i32 30		; visa id: 1871
  %1122 = insertelement <16 x i16> %1120, i16 %1121, i32 14		; visa id: 1871
  %1123 = extractelement <32 x i16> %1058, i32 31		; visa id: 1871
  %1124 = insertelement <16 x i16> %1122, i16 %1123, i32 15		; visa id: 1871
  %1125 = extractelement <32 x i16> %1060, i32 0		; visa id: 1871
  %1126 = insertelement <16 x i16> undef, i16 %1125, i32 0		; visa id: 1871
  %1127 = extractelement <32 x i16> %1060, i32 1		; visa id: 1871
  %1128 = insertelement <16 x i16> %1126, i16 %1127, i32 1		; visa id: 1871
  %1129 = extractelement <32 x i16> %1060, i32 2		; visa id: 1871
  %1130 = insertelement <16 x i16> %1128, i16 %1129, i32 2		; visa id: 1871
  %1131 = extractelement <32 x i16> %1060, i32 3		; visa id: 1871
  %1132 = insertelement <16 x i16> %1130, i16 %1131, i32 3		; visa id: 1871
  %1133 = extractelement <32 x i16> %1060, i32 4		; visa id: 1871
  %1134 = insertelement <16 x i16> %1132, i16 %1133, i32 4		; visa id: 1871
  %1135 = extractelement <32 x i16> %1060, i32 5		; visa id: 1871
  %1136 = insertelement <16 x i16> %1134, i16 %1135, i32 5		; visa id: 1871
  %1137 = extractelement <32 x i16> %1060, i32 6		; visa id: 1871
  %1138 = insertelement <16 x i16> %1136, i16 %1137, i32 6		; visa id: 1871
  %1139 = extractelement <32 x i16> %1060, i32 7		; visa id: 1871
  %1140 = insertelement <16 x i16> %1138, i16 %1139, i32 7		; visa id: 1871
  %1141 = extractelement <32 x i16> %1060, i32 8		; visa id: 1871
  %1142 = insertelement <16 x i16> %1140, i16 %1141, i32 8		; visa id: 1871
  %1143 = extractelement <32 x i16> %1060, i32 9		; visa id: 1871
  %1144 = insertelement <16 x i16> %1142, i16 %1143, i32 9		; visa id: 1871
  %1145 = extractelement <32 x i16> %1060, i32 10		; visa id: 1871
  %1146 = insertelement <16 x i16> %1144, i16 %1145, i32 10		; visa id: 1871
  %1147 = extractelement <32 x i16> %1060, i32 11		; visa id: 1871
  %1148 = insertelement <16 x i16> %1146, i16 %1147, i32 11		; visa id: 1871
  %1149 = extractelement <32 x i16> %1060, i32 12		; visa id: 1871
  %1150 = insertelement <16 x i16> %1148, i16 %1149, i32 12		; visa id: 1871
  %1151 = extractelement <32 x i16> %1060, i32 13		; visa id: 1871
  %1152 = insertelement <16 x i16> %1150, i16 %1151, i32 13		; visa id: 1871
  %1153 = extractelement <32 x i16> %1060, i32 14		; visa id: 1871
  %1154 = insertelement <16 x i16> %1152, i16 %1153, i32 14		; visa id: 1871
  %1155 = extractelement <32 x i16> %1060, i32 15		; visa id: 1871
  %1156 = insertelement <16 x i16> %1154, i16 %1155, i32 15		; visa id: 1871
  %1157 = extractelement <32 x i16> %1060, i32 16		; visa id: 1871
  %1158 = insertelement <16 x i16> undef, i16 %1157, i32 0		; visa id: 1871
  %1159 = extractelement <32 x i16> %1060, i32 17		; visa id: 1871
  %1160 = insertelement <16 x i16> %1158, i16 %1159, i32 1		; visa id: 1871
  %1161 = extractelement <32 x i16> %1060, i32 18		; visa id: 1871
  %1162 = insertelement <16 x i16> %1160, i16 %1161, i32 2		; visa id: 1871
  %1163 = extractelement <32 x i16> %1060, i32 19		; visa id: 1871
  %1164 = insertelement <16 x i16> %1162, i16 %1163, i32 3		; visa id: 1871
  %1165 = extractelement <32 x i16> %1060, i32 20		; visa id: 1871
  %1166 = insertelement <16 x i16> %1164, i16 %1165, i32 4		; visa id: 1871
  %1167 = extractelement <32 x i16> %1060, i32 21		; visa id: 1871
  %1168 = insertelement <16 x i16> %1166, i16 %1167, i32 5		; visa id: 1871
  %1169 = extractelement <32 x i16> %1060, i32 22		; visa id: 1871
  %1170 = insertelement <16 x i16> %1168, i16 %1169, i32 6		; visa id: 1871
  %1171 = extractelement <32 x i16> %1060, i32 23		; visa id: 1871
  %1172 = insertelement <16 x i16> %1170, i16 %1171, i32 7		; visa id: 1871
  %1173 = extractelement <32 x i16> %1060, i32 24		; visa id: 1871
  %1174 = insertelement <16 x i16> %1172, i16 %1173, i32 8		; visa id: 1871
  %1175 = extractelement <32 x i16> %1060, i32 25		; visa id: 1871
  %1176 = insertelement <16 x i16> %1174, i16 %1175, i32 9		; visa id: 1871
  %1177 = extractelement <32 x i16> %1060, i32 26		; visa id: 1871
  %1178 = insertelement <16 x i16> %1176, i16 %1177, i32 10		; visa id: 1871
  %1179 = extractelement <32 x i16> %1060, i32 27		; visa id: 1871
  %1180 = insertelement <16 x i16> %1178, i16 %1179, i32 11		; visa id: 1871
  %1181 = extractelement <32 x i16> %1060, i32 28		; visa id: 1871
  %1182 = insertelement <16 x i16> %1180, i16 %1181, i32 12		; visa id: 1871
  %1183 = extractelement <32 x i16> %1060, i32 29		; visa id: 1871
  %1184 = insertelement <16 x i16> %1182, i16 %1183, i32 13		; visa id: 1871
  %1185 = extractelement <32 x i16> %1060, i32 30		; visa id: 1871
  %1186 = insertelement <16 x i16> %1184, i16 %1185, i32 14		; visa id: 1871
  %1187 = extractelement <32 x i16> %1060, i32 31		; visa id: 1871
  %1188 = insertelement <16 x i16> %1186, i16 %1187, i32 15		; visa id: 1871
  %1189 = call <8 x float> asm "{\0A.decl DST     v_type=G type=f num_elts=$5 alias=<$0,0>\0A.decl SRC1_UD v_type=G type=UD num_elts=128 alias=<$2,0>\0A.decl SRC2_UD v_type=G type=UD num_elts=$4 alias=<$1,0>\0Adpas.bf.bf.8.$3 (M1, 16) DST.0 DST.0 SRC1_UD.0 SRC2_UD(0,0)\0A}\0A", "=rw,rw,rw,P,P,P,0"(<8 x i16> %.sroa.03106.14.vec.insert3139, <16 x i16> %1092, i32 8, i32 64, i32 128, <8 x float> %.sroa.0.2) #0		; visa id: 1871
  %1190 = call <8 x float> asm "{\0A.decl DST     v_type=G type=f num_elts=$5 alias=<$0,0>\0A.decl SRC1_UD v_type=G type=UD num_elts=128 alias=<$2,0>\0A.decl SRC2_UD v_type=G type=UD num_elts=$4 alias=<$1,0>\0Adpas.bf.bf.8.$3 (M1, 16) DST.0 DST.0 SRC1_UD.0 SRC2_UD(0,0)\0A}\0A", "=rw,rw,rw,P,P,P,0"(<8 x i16> %.sroa.35.30.vec.insert3172, <16 x i16> %1092, i32 8, i32 64, i32 128, <8 x float> %.sroa.52.2) #0		; visa id: 1871
  %1191 = call <8 x float> asm "{\0A.decl DST     v_type=G type=f num_elts=$5 alias=<$0,0>\0A.decl SRC1_UD v_type=G type=UD num_elts=128 alias=<$2,0>\0A.decl SRC2_UD v_type=G type=UD num_elts=$4 alias=<$1,0>\0Adpas.bf.bf.8.$3 (M1, 16) DST.0 DST.0 SRC1_UD.0 SRC2_UD(0,0)\0A}\0A", "=rw,rw,rw,P,P,P,0"(<8 x i16> %.sroa.35.30.vec.insert3172, <16 x i16> %1124, i32 8, i32 64, i32 128, <8 x float> %.sroa.148.2) #0		; visa id: 1871
  %1192 = call <8 x float> asm "{\0A.decl DST     v_type=G type=f num_elts=$5 alias=<$0,0>\0A.decl SRC1_UD v_type=G type=UD num_elts=128 alias=<$2,0>\0A.decl SRC2_UD v_type=G type=UD num_elts=$4 alias=<$1,0>\0Adpas.bf.bf.8.$3 (M1, 16) DST.0 DST.0 SRC1_UD.0 SRC2_UD(0,0)\0A}\0A", "=rw,rw,rw,P,P,P,0"(<8 x i16> %.sroa.03106.14.vec.insert3139, <16 x i16> %1124, i32 8, i32 64, i32 128, <8 x float> %.sroa.100.2) #0		; visa id: 1871
  %1193 = call <8 x float> asm "{\0A.decl DST     v_type=G type=f num_elts=$5 alias=<$0,0>\0A.decl SRC1_UD v_type=G type=UD num_elts=128 alias=<$2,0>\0A.decl SRC2_UD v_type=G type=UD num_elts=$4 alias=<$1,0>\0Adpas.bf.bf.8.$3 (M1, 16) DST.0 DST.0 SRC1_UD.0 SRC2_UD(0,0)\0A}\0A", "=rw,rw,rw,P,P,P,0"(<8 x i16> %.sroa.67.46.vec.insert3205, <16 x i16> %1156, i32 8, i32 64, i32 128, <8 x float> %1189) #0		; visa id: 1871
  %1194 = call <8 x float> asm "{\0A.decl DST     v_type=G type=f num_elts=$5 alias=<$0,0>\0A.decl SRC1_UD v_type=G type=UD num_elts=128 alias=<$2,0>\0A.decl SRC2_UD v_type=G type=UD num_elts=$4 alias=<$1,0>\0Adpas.bf.bf.8.$3 (M1, 16) DST.0 DST.0 SRC1_UD.0 SRC2_UD(0,0)\0A}\0A", "=rw,rw,rw,P,P,P,0"(<8 x i16> %.sroa.99.62.vec.insert3238, <16 x i16> %1156, i32 8, i32 64, i32 128, <8 x float> %1190) #0		; visa id: 1871
  %1195 = call <8 x float> asm "{\0A.decl DST     v_type=G type=f num_elts=$5 alias=<$0,0>\0A.decl SRC1_UD v_type=G type=UD num_elts=128 alias=<$2,0>\0A.decl SRC2_UD v_type=G type=UD num_elts=$4 alias=<$1,0>\0Adpas.bf.bf.8.$3 (M1, 16) DST.0 DST.0 SRC1_UD.0 SRC2_UD(0,0)\0A}\0A", "=rw,rw,rw,P,P,P,0"(<8 x i16> %.sroa.99.62.vec.insert3238, <16 x i16> %1188, i32 8, i32 64, i32 128, <8 x float> %1191) #0		; visa id: 1871
  %1196 = call <8 x float> asm "{\0A.decl DST     v_type=G type=f num_elts=$5 alias=<$0,0>\0A.decl SRC1_UD v_type=G type=UD num_elts=128 alias=<$2,0>\0A.decl SRC2_UD v_type=G type=UD num_elts=$4 alias=<$1,0>\0Adpas.bf.bf.8.$3 (M1, 16) DST.0 DST.0 SRC1_UD.0 SRC2_UD(0,0)\0A}\0A", "=rw,rw,rw,P,P,P,0"(<8 x i16> %.sroa.67.46.vec.insert3205, <16 x i16> %1188, i32 8, i32 64, i32 128, <8 x float> %1192) #0		; visa id: 1871
  call void @llvm.genx.GenISA.LSC2DBlockSetAddrPayloadField.p4i8.i32(i8 addrspace(4)* %Block2D_AddrPayload118, i32 5, i32 %308, i1 false)		; visa id: 1871
  call void @llvm.genx.GenISA.LSC2DBlockSetAddrPayloadField.p4i8.i32(i8 addrspace(4)* %Block2D_AddrPayload118, i32 6, i32 %372, i1 false)		; visa id: 1872
  %1197 = call <32 x i16> asm "lsc_load_block2d.ugm (M1, 1)  $0:d$2.$3x$4x$5nt flat[$1+(0,0)]", "=rw,rw.u,P,P,P,P"(i8 addrspace(4)* %Block2D_AddrPayload118, i32 16, i32 2, i32 16, i32 16) #0		; visa id: 1873
  call void @llvm.genx.GenISA.LSC2DBlockSetAddrPayloadField.p4i8.i32(i8 addrspace(4)* %Block2D_AddrPayload118, i32 5, i32 %308, i1 false)		; visa id: 1873
  call void @llvm.genx.GenISA.LSC2DBlockSetAddrPayloadField.p4i8.i32(i8 addrspace(4)* %Block2D_AddrPayload118, i32 6, i32 %1059, i1 false)		; visa id: 1874
  %1198 = call <32 x i16> asm "lsc_load_block2d.ugm (M1, 1)  $0:d$2.$3x$4x$5nt flat[$1+(0,0)]", "=rw,rw.u,P,P,P,P"(i8 addrspace(4)* %Block2D_AddrPayload118, i32 16, i32 2, i32 16, i32 16) #0		; visa id: 1875
  %1199 = extractelement <32 x i16> %1197, i32 0		; visa id: 1875
  %1200 = insertelement <16 x i16> undef, i16 %1199, i32 0		; visa id: 1875
  %1201 = extractelement <32 x i16> %1197, i32 1		; visa id: 1875
  %1202 = insertelement <16 x i16> %1200, i16 %1201, i32 1		; visa id: 1875
  %1203 = extractelement <32 x i16> %1197, i32 2		; visa id: 1875
  %1204 = insertelement <16 x i16> %1202, i16 %1203, i32 2		; visa id: 1875
  %1205 = extractelement <32 x i16> %1197, i32 3		; visa id: 1875
  %1206 = insertelement <16 x i16> %1204, i16 %1205, i32 3		; visa id: 1875
  %1207 = extractelement <32 x i16> %1197, i32 4		; visa id: 1875
  %1208 = insertelement <16 x i16> %1206, i16 %1207, i32 4		; visa id: 1875
  %1209 = extractelement <32 x i16> %1197, i32 5		; visa id: 1875
  %1210 = insertelement <16 x i16> %1208, i16 %1209, i32 5		; visa id: 1875
  %1211 = extractelement <32 x i16> %1197, i32 6		; visa id: 1875
  %1212 = insertelement <16 x i16> %1210, i16 %1211, i32 6		; visa id: 1875
  %1213 = extractelement <32 x i16> %1197, i32 7		; visa id: 1875
  %1214 = insertelement <16 x i16> %1212, i16 %1213, i32 7		; visa id: 1875
  %1215 = extractelement <32 x i16> %1197, i32 8		; visa id: 1875
  %1216 = insertelement <16 x i16> %1214, i16 %1215, i32 8		; visa id: 1875
  %1217 = extractelement <32 x i16> %1197, i32 9		; visa id: 1875
  %1218 = insertelement <16 x i16> %1216, i16 %1217, i32 9		; visa id: 1875
  %1219 = extractelement <32 x i16> %1197, i32 10		; visa id: 1875
  %1220 = insertelement <16 x i16> %1218, i16 %1219, i32 10		; visa id: 1875
  %1221 = extractelement <32 x i16> %1197, i32 11		; visa id: 1875
  %1222 = insertelement <16 x i16> %1220, i16 %1221, i32 11		; visa id: 1875
  %1223 = extractelement <32 x i16> %1197, i32 12		; visa id: 1875
  %1224 = insertelement <16 x i16> %1222, i16 %1223, i32 12		; visa id: 1875
  %1225 = extractelement <32 x i16> %1197, i32 13		; visa id: 1875
  %1226 = insertelement <16 x i16> %1224, i16 %1225, i32 13		; visa id: 1875
  %1227 = extractelement <32 x i16> %1197, i32 14		; visa id: 1875
  %1228 = insertelement <16 x i16> %1226, i16 %1227, i32 14		; visa id: 1875
  %1229 = extractelement <32 x i16> %1197, i32 15		; visa id: 1875
  %1230 = insertelement <16 x i16> %1228, i16 %1229, i32 15		; visa id: 1875
  %1231 = extractelement <32 x i16> %1197, i32 16		; visa id: 1875
  %1232 = insertelement <16 x i16> undef, i16 %1231, i32 0		; visa id: 1875
  %1233 = extractelement <32 x i16> %1197, i32 17		; visa id: 1875
  %1234 = insertelement <16 x i16> %1232, i16 %1233, i32 1		; visa id: 1875
  %1235 = extractelement <32 x i16> %1197, i32 18		; visa id: 1875
  %1236 = insertelement <16 x i16> %1234, i16 %1235, i32 2		; visa id: 1875
  %1237 = extractelement <32 x i16> %1197, i32 19		; visa id: 1875
  %1238 = insertelement <16 x i16> %1236, i16 %1237, i32 3		; visa id: 1875
  %1239 = extractelement <32 x i16> %1197, i32 20		; visa id: 1875
  %1240 = insertelement <16 x i16> %1238, i16 %1239, i32 4		; visa id: 1875
  %1241 = extractelement <32 x i16> %1197, i32 21		; visa id: 1875
  %1242 = insertelement <16 x i16> %1240, i16 %1241, i32 5		; visa id: 1875
  %1243 = extractelement <32 x i16> %1197, i32 22		; visa id: 1875
  %1244 = insertelement <16 x i16> %1242, i16 %1243, i32 6		; visa id: 1875
  %1245 = extractelement <32 x i16> %1197, i32 23		; visa id: 1875
  %1246 = insertelement <16 x i16> %1244, i16 %1245, i32 7		; visa id: 1875
  %1247 = extractelement <32 x i16> %1197, i32 24		; visa id: 1875
  %1248 = insertelement <16 x i16> %1246, i16 %1247, i32 8		; visa id: 1875
  %1249 = extractelement <32 x i16> %1197, i32 25		; visa id: 1875
  %1250 = insertelement <16 x i16> %1248, i16 %1249, i32 9		; visa id: 1875
  %1251 = extractelement <32 x i16> %1197, i32 26		; visa id: 1875
  %1252 = insertelement <16 x i16> %1250, i16 %1251, i32 10		; visa id: 1875
  %1253 = extractelement <32 x i16> %1197, i32 27		; visa id: 1875
  %1254 = insertelement <16 x i16> %1252, i16 %1253, i32 11		; visa id: 1875
  %1255 = extractelement <32 x i16> %1197, i32 28		; visa id: 1875
  %1256 = insertelement <16 x i16> %1254, i16 %1255, i32 12		; visa id: 1875
  %1257 = extractelement <32 x i16> %1197, i32 29		; visa id: 1875
  %1258 = insertelement <16 x i16> %1256, i16 %1257, i32 13		; visa id: 1875
  %1259 = extractelement <32 x i16> %1197, i32 30		; visa id: 1875
  %1260 = insertelement <16 x i16> %1258, i16 %1259, i32 14		; visa id: 1875
  %1261 = extractelement <32 x i16> %1197, i32 31		; visa id: 1875
  %1262 = insertelement <16 x i16> %1260, i16 %1261, i32 15		; visa id: 1875
  %1263 = extractelement <32 x i16> %1198, i32 0		; visa id: 1875
  %1264 = insertelement <16 x i16> undef, i16 %1263, i32 0		; visa id: 1875
  %1265 = extractelement <32 x i16> %1198, i32 1		; visa id: 1875
  %1266 = insertelement <16 x i16> %1264, i16 %1265, i32 1		; visa id: 1875
  %1267 = extractelement <32 x i16> %1198, i32 2		; visa id: 1875
  %1268 = insertelement <16 x i16> %1266, i16 %1267, i32 2		; visa id: 1875
  %1269 = extractelement <32 x i16> %1198, i32 3		; visa id: 1875
  %1270 = insertelement <16 x i16> %1268, i16 %1269, i32 3		; visa id: 1875
  %1271 = extractelement <32 x i16> %1198, i32 4		; visa id: 1875
  %1272 = insertelement <16 x i16> %1270, i16 %1271, i32 4		; visa id: 1875
  %1273 = extractelement <32 x i16> %1198, i32 5		; visa id: 1875
  %1274 = insertelement <16 x i16> %1272, i16 %1273, i32 5		; visa id: 1875
  %1275 = extractelement <32 x i16> %1198, i32 6		; visa id: 1875
  %1276 = insertelement <16 x i16> %1274, i16 %1275, i32 6		; visa id: 1875
  %1277 = extractelement <32 x i16> %1198, i32 7		; visa id: 1875
  %1278 = insertelement <16 x i16> %1276, i16 %1277, i32 7		; visa id: 1875
  %1279 = extractelement <32 x i16> %1198, i32 8		; visa id: 1875
  %1280 = insertelement <16 x i16> %1278, i16 %1279, i32 8		; visa id: 1875
  %1281 = extractelement <32 x i16> %1198, i32 9		; visa id: 1875
  %1282 = insertelement <16 x i16> %1280, i16 %1281, i32 9		; visa id: 1875
  %1283 = extractelement <32 x i16> %1198, i32 10		; visa id: 1875
  %1284 = insertelement <16 x i16> %1282, i16 %1283, i32 10		; visa id: 1875
  %1285 = extractelement <32 x i16> %1198, i32 11		; visa id: 1875
  %1286 = insertelement <16 x i16> %1284, i16 %1285, i32 11		; visa id: 1875
  %1287 = extractelement <32 x i16> %1198, i32 12		; visa id: 1875
  %1288 = insertelement <16 x i16> %1286, i16 %1287, i32 12		; visa id: 1875
  %1289 = extractelement <32 x i16> %1198, i32 13		; visa id: 1875
  %1290 = insertelement <16 x i16> %1288, i16 %1289, i32 13		; visa id: 1875
  %1291 = extractelement <32 x i16> %1198, i32 14		; visa id: 1875
  %1292 = insertelement <16 x i16> %1290, i16 %1291, i32 14		; visa id: 1875
  %1293 = extractelement <32 x i16> %1198, i32 15		; visa id: 1875
  %1294 = insertelement <16 x i16> %1292, i16 %1293, i32 15		; visa id: 1875
  %1295 = extractelement <32 x i16> %1198, i32 16		; visa id: 1875
  %1296 = insertelement <16 x i16> undef, i16 %1295, i32 0		; visa id: 1875
  %1297 = extractelement <32 x i16> %1198, i32 17		; visa id: 1875
  %1298 = insertelement <16 x i16> %1296, i16 %1297, i32 1		; visa id: 1875
  %1299 = extractelement <32 x i16> %1198, i32 18		; visa id: 1875
  %1300 = insertelement <16 x i16> %1298, i16 %1299, i32 2		; visa id: 1875
  %1301 = extractelement <32 x i16> %1198, i32 19		; visa id: 1875
  %1302 = insertelement <16 x i16> %1300, i16 %1301, i32 3		; visa id: 1875
  %1303 = extractelement <32 x i16> %1198, i32 20		; visa id: 1875
  %1304 = insertelement <16 x i16> %1302, i16 %1303, i32 4		; visa id: 1875
  %1305 = extractelement <32 x i16> %1198, i32 21		; visa id: 1875
  %1306 = insertelement <16 x i16> %1304, i16 %1305, i32 5		; visa id: 1875
  %1307 = extractelement <32 x i16> %1198, i32 22		; visa id: 1875
  %1308 = insertelement <16 x i16> %1306, i16 %1307, i32 6		; visa id: 1875
  %1309 = extractelement <32 x i16> %1198, i32 23		; visa id: 1875
  %1310 = insertelement <16 x i16> %1308, i16 %1309, i32 7		; visa id: 1875
  %1311 = extractelement <32 x i16> %1198, i32 24		; visa id: 1875
  %1312 = insertelement <16 x i16> %1310, i16 %1311, i32 8		; visa id: 1875
  %1313 = extractelement <32 x i16> %1198, i32 25		; visa id: 1875
  %1314 = insertelement <16 x i16> %1312, i16 %1313, i32 9		; visa id: 1875
  %1315 = extractelement <32 x i16> %1198, i32 26		; visa id: 1875
  %1316 = insertelement <16 x i16> %1314, i16 %1315, i32 10		; visa id: 1875
  %1317 = extractelement <32 x i16> %1198, i32 27		; visa id: 1875
  %1318 = insertelement <16 x i16> %1316, i16 %1317, i32 11		; visa id: 1875
  %1319 = extractelement <32 x i16> %1198, i32 28		; visa id: 1875
  %1320 = insertelement <16 x i16> %1318, i16 %1319, i32 12		; visa id: 1875
  %1321 = extractelement <32 x i16> %1198, i32 29		; visa id: 1875
  %1322 = insertelement <16 x i16> %1320, i16 %1321, i32 13		; visa id: 1875
  %1323 = extractelement <32 x i16> %1198, i32 30		; visa id: 1875
  %1324 = insertelement <16 x i16> %1322, i16 %1323, i32 14		; visa id: 1875
  %1325 = extractelement <32 x i16> %1198, i32 31		; visa id: 1875
  %1326 = insertelement <16 x i16> %1324, i16 %1325, i32 15		; visa id: 1875
  %1327 = call <8 x float> asm "{\0A.decl DST     v_type=G type=f num_elts=$5 alias=<$0,0>\0A.decl SRC1_UD v_type=G type=UD num_elts=128 alias=<$2,0>\0A.decl SRC2_UD v_type=G type=UD num_elts=$4 alias=<$1,0>\0Adpas.bf.bf.8.$3 (M1, 16) DST.0 DST.0 SRC1_UD.0 SRC2_UD(0,0)\0A}\0A", "=rw,rw,rw,P,P,P,0"(<8 x i16> %.sroa.03106.14.vec.insert3139, <16 x i16> %1230, i32 8, i32 64, i32 128, <8 x float> %.sroa.196.2) #0		; visa id: 1875
  %1328 = call <8 x float> asm "{\0A.decl DST     v_type=G type=f num_elts=$5 alias=<$0,0>\0A.decl SRC1_UD v_type=G type=UD num_elts=128 alias=<$2,0>\0A.decl SRC2_UD v_type=G type=UD num_elts=$4 alias=<$1,0>\0Adpas.bf.bf.8.$3 (M1, 16) DST.0 DST.0 SRC1_UD.0 SRC2_UD(0,0)\0A}\0A", "=rw,rw,rw,P,P,P,0"(<8 x i16> %.sroa.35.30.vec.insert3172, <16 x i16> %1230, i32 8, i32 64, i32 128, <8 x float> %.sroa.244.2) #0		; visa id: 1875
  %1329 = call <8 x float> asm "{\0A.decl DST     v_type=G type=f num_elts=$5 alias=<$0,0>\0A.decl SRC1_UD v_type=G type=UD num_elts=128 alias=<$2,0>\0A.decl SRC2_UD v_type=G type=UD num_elts=$4 alias=<$1,0>\0Adpas.bf.bf.8.$3 (M1, 16) DST.0 DST.0 SRC1_UD.0 SRC2_UD(0,0)\0A}\0A", "=rw,rw,rw,P,P,P,0"(<8 x i16> %.sroa.35.30.vec.insert3172, <16 x i16> %1262, i32 8, i32 64, i32 128, <8 x float> %.sroa.340.2) #0		; visa id: 1875
  %1330 = call <8 x float> asm "{\0A.decl DST     v_type=G type=f num_elts=$5 alias=<$0,0>\0A.decl SRC1_UD v_type=G type=UD num_elts=128 alias=<$2,0>\0A.decl SRC2_UD v_type=G type=UD num_elts=$4 alias=<$1,0>\0Adpas.bf.bf.8.$3 (M1, 16) DST.0 DST.0 SRC1_UD.0 SRC2_UD(0,0)\0A}\0A", "=rw,rw,rw,P,P,P,0"(<8 x i16> %.sroa.03106.14.vec.insert3139, <16 x i16> %1262, i32 8, i32 64, i32 128, <8 x float> %.sroa.292.2) #0		; visa id: 1875
  %1331 = call <8 x float> asm "{\0A.decl DST     v_type=G type=f num_elts=$5 alias=<$0,0>\0A.decl SRC1_UD v_type=G type=UD num_elts=128 alias=<$2,0>\0A.decl SRC2_UD v_type=G type=UD num_elts=$4 alias=<$1,0>\0Adpas.bf.bf.8.$3 (M1, 16) DST.0 DST.0 SRC1_UD.0 SRC2_UD(0,0)\0A}\0A", "=rw,rw,rw,P,P,P,0"(<8 x i16> %.sroa.67.46.vec.insert3205, <16 x i16> %1294, i32 8, i32 64, i32 128, <8 x float> %1327) #0		; visa id: 1875
  %1332 = call <8 x float> asm "{\0A.decl DST     v_type=G type=f num_elts=$5 alias=<$0,0>\0A.decl SRC1_UD v_type=G type=UD num_elts=128 alias=<$2,0>\0A.decl SRC2_UD v_type=G type=UD num_elts=$4 alias=<$1,0>\0Adpas.bf.bf.8.$3 (M1, 16) DST.0 DST.0 SRC1_UD.0 SRC2_UD(0,0)\0A}\0A", "=rw,rw,rw,P,P,P,0"(<8 x i16> %.sroa.99.62.vec.insert3238, <16 x i16> %1294, i32 8, i32 64, i32 128, <8 x float> %1328) #0		; visa id: 1875
  %1333 = call <8 x float> asm "{\0A.decl DST     v_type=G type=f num_elts=$5 alias=<$0,0>\0A.decl SRC1_UD v_type=G type=UD num_elts=128 alias=<$2,0>\0A.decl SRC2_UD v_type=G type=UD num_elts=$4 alias=<$1,0>\0Adpas.bf.bf.8.$3 (M1, 16) DST.0 DST.0 SRC1_UD.0 SRC2_UD(0,0)\0A}\0A", "=rw,rw,rw,P,P,P,0"(<8 x i16> %.sroa.99.62.vec.insert3238, <16 x i16> %1326, i32 8, i32 64, i32 128, <8 x float> %1329) #0		; visa id: 1875
  %1334 = call <8 x float> asm "{\0A.decl DST     v_type=G type=f num_elts=$5 alias=<$0,0>\0A.decl SRC1_UD v_type=G type=UD num_elts=128 alias=<$2,0>\0A.decl SRC2_UD v_type=G type=UD num_elts=$4 alias=<$1,0>\0Adpas.bf.bf.8.$3 (M1, 16) DST.0 DST.0 SRC1_UD.0 SRC2_UD(0,0)\0A}\0A", "=rw,rw,rw,P,P,P,0"(<8 x i16> %.sroa.67.46.vec.insert3205, <16 x i16> %1326, i32 8, i32 64, i32 128, <8 x float> %1330) #0		; visa id: 1875
  call void @llvm.genx.GenISA.LSC2DBlockSetAddrPayloadField.p4i8.i32(i8 addrspace(4)* %Block2D_AddrPayload118, i32 5, i32 %309, i1 false)		; visa id: 1875
  call void @llvm.genx.GenISA.LSC2DBlockSetAddrPayloadField.p4i8.i32(i8 addrspace(4)* %Block2D_AddrPayload118, i32 6, i32 %372, i1 false)		; visa id: 1876
  %1335 = call <32 x i16> asm "lsc_load_block2d.ugm (M1, 1)  $0:d$2.$3x$4x$5nt flat[$1+(0,0)]", "=rw,rw.u,P,P,P,P"(i8 addrspace(4)* %Block2D_AddrPayload118, i32 16, i32 2, i32 16, i32 16) #0		; visa id: 1877
  call void @llvm.genx.GenISA.LSC2DBlockSetAddrPayloadField.p4i8.i32(i8 addrspace(4)* %Block2D_AddrPayload118, i32 5, i32 %309, i1 false)		; visa id: 1877
  call void @llvm.genx.GenISA.LSC2DBlockSetAddrPayloadField.p4i8.i32(i8 addrspace(4)* %Block2D_AddrPayload118, i32 6, i32 %1059, i1 false)		; visa id: 1878
  %1336 = call <32 x i16> asm "lsc_load_block2d.ugm (M1, 1)  $0:d$2.$3x$4x$5nt flat[$1+(0,0)]", "=rw,rw.u,P,P,P,P"(i8 addrspace(4)* %Block2D_AddrPayload118, i32 16, i32 2, i32 16, i32 16) #0		; visa id: 1879
  %1337 = extractelement <32 x i16> %1335, i32 0		; visa id: 1879
  %1338 = insertelement <16 x i16> undef, i16 %1337, i32 0		; visa id: 1879
  %1339 = extractelement <32 x i16> %1335, i32 1		; visa id: 1879
  %1340 = insertelement <16 x i16> %1338, i16 %1339, i32 1		; visa id: 1879
  %1341 = extractelement <32 x i16> %1335, i32 2		; visa id: 1879
  %1342 = insertelement <16 x i16> %1340, i16 %1341, i32 2		; visa id: 1879
  %1343 = extractelement <32 x i16> %1335, i32 3		; visa id: 1879
  %1344 = insertelement <16 x i16> %1342, i16 %1343, i32 3		; visa id: 1879
  %1345 = extractelement <32 x i16> %1335, i32 4		; visa id: 1879
  %1346 = insertelement <16 x i16> %1344, i16 %1345, i32 4		; visa id: 1879
  %1347 = extractelement <32 x i16> %1335, i32 5		; visa id: 1879
  %1348 = insertelement <16 x i16> %1346, i16 %1347, i32 5		; visa id: 1879
  %1349 = extractelement <32 x i16> %1335, i32 6		; visa id: 1879
  %1350 = insertelement <16 x i16> %1348, i16 %1349, i32 6		; visa id: 1879
  %1351 = extractelement <32 x i16> %1335, i32 7		; visa id: 1879
  %1352 = insertelement <16 x i16> %1350, i16 %1351, i32 7		; visa id: 1879
  %1353 = extractelement <32 x i16> %1335, i32 8		; visa id: 1879
  %1354 = insertelement <16 x i16> %1352, i16 %1353, i32 8		; visa id: 1879
  %1355 = extractelement <32 x i16> %1335, i32 9		; visa id: 1879
  %1356 = insertelement <16 x i16> %1354, i16 %1355, i32 9		; visa id: 1879
  %1357 = extractelement <32 x i16> %1335, i32 10		; visa id: 1879
  %1358 = insertelement <16 x i16> %1356, i16 %1357, i32 10		; visa id: 1879
  %1359 = extractelement <32 x i16> %1335, i32 11		; visa id: 1879
  %1360 = insertelement <16 x i16> %1358, i16 %1359, i32 11		; visa id: 1879
  %1361 = extractelement <32 x i16> %1335, i32 12		; visa id: 1879
  %1362 = insertelement <16 x i16> %1360, i16 %1361, i32 12		; visa id: 1879
  %1363 = extractelement <32 x i16> %1335, i32 13		; visa id: 1879
  %1364 = insertelement <16 x i16> %1362, i16 %1363, i32 13		; visa id: 1879
  %1365 = extractelement <32 x i16> %1335, i32 14		; visa id: 1879
  %1366 = insertelement <16 x i16> %1364, i16 %1365, i32 14		; visa id: 1879
  %1367 = extractelement <32 x i16> %1335, i32 15		; visa id: 1879
  %1368 = insertelement <16 x i16> %1366, i16 %1367, i32 15		; visa id: 1879
  %1369 = extractelement <32 x i16> %1335, i32 16		; visa id: 1879
  %1370 = insertelement <16 x i16> undef, i16 %1369, i32 0		; visa id: 1879
  %1371 = extractelement <32 x i16> %1335, i32 17		; visa id: 1879
  %1372 = insertelement <16 x i16> %1370, i16 %1371, i32 1		; visa id: 1879
  %1373 = extractelement <32 x i16> %1335, i32 18		; visa id: 1879
  %1374 = insertelement <16 x i16> %1372, i16 %1373, i32 2		; visa id: 1879
  %1375 = extractelement <32 x i16> %1335, i32 19		; visa id: 1879
  %1376 = insertelement <16 x i16> %1374, i16 %1375, i32 3		; visa id: 1879
  %1377 = extractelement <32 x i16> %1335, i32 20		; visa id: 1879
  %1378 = insertelement <16 x i16> %1376, i16 %1377, i32 4		; visa id: 1879
  %1379 = extractelement <32 x i16> %1335, i32 21		; visa id: 1879
  %1380 = insertelement <16 x i16> %1378, i16 %1379, i32 5		; visa id: 1879
  %1381 = extractelement <32 x i16> %1335, i32 22		; visa id: 1879
  %1382 = insertelement <16 x i16> %1380, i16 %1381, i32 6		; visa id: 1879
  %1383 = extractelement <32 x i16> %1335, i32 23		; visa id: 1879
  %1384 = insertelement <16 x i16> %1382, i16 %1383, i32 7		; visa id: 1879
  %1385 = extractelement <32 x i16> %1335, i32 24		; visa id: 1879
  %1386 = insertelement <16 x i16> %1384, i16 %1385, i32 8		; visa id: 1879
  %1387 = extractelement <32 x i16> %1335, i32 25		; visa id: 1879
  %1388 = insertelement <16 x i16> %1386, i16 %1387, i32 9		; visa id: 1879
  %1389 = extractelement <32 x i16> %1335, i32 26		; visa id: 1879
  %1390 = insertelement <16 x i16> %1388, i16 %1389, i32 10		; visa id: 1879
  %1391 = extractelement <32 x i16> %1335, i32 27		; visa id: 1879
  %1392 = insertelement <16 x i16> %1390, i16 %1391, i32 11		; visa id: 1879
  %1393 = extractelement <32 x i16> %1335, i32 28		; visa id: 1879
  %1394 = insertelement <16 x i16> %1392, i16 %1393, i32 12		; visa id: 1879
  %1395 = extractelement <32 x i16> %1335, i32 29		; visa id: 1879
  %1396 = insertelement <16 x i16> %1394, i16 %1395, i32 13		; visa id: 1879
  %1397 = extractelement <32 x i16> %1335, i32 30		; visa id: 1879
  %1398 = insertelement <16 x i16> %1396, i16 %1397, i32 14		; visa id: 1879
  %1399 = extractelement <32 x i16> %1335, i32 31		; visa id: 1879
  %1400 = insertelement <16 x i16> %1398, i16 %1399, i32 15		; visa id: 1879
  %1401 = extractelement <32 x i16> %1336, i32 0		; visa id: 1879
  %1402 = insertelement <16 x i16> undef, i16 %1401, i32 0		; visa id: 1879
  %1403 = extractelement <32 x i16> %1336, i32 1		; visa id: 1879
  %1404 = insertelement <16 x i16> %1402, i16 %1403, i32 1		; visa id: 1879
  %1405 = extractelement <32 x i16> %1336, i32 2		; visa id: 1879
  %1406 = insertelement <16 x i16> %1404, i16 %1405, i32 2		; visa id: 1879
  %1407 = extractelement <32 x i16> %1336, i32 3		; visa id: 1879
  %1408 = insertelement <16 x i16> %1406, i16 %1407, i32 3		; visa id: 1879
  %1409 = extractelement <32 x i16> %1336, i32 4		; visa id: 1879
  %1410 = insertelement <16 x i16> %1408, i16 %1409, i32 4		; visa id: 1879
  %1411 = extractelement <32 x i16> %1336, i32 5		; visa id: 1879
  %1412 = insertelement <16 x i16> %1410, i16 %1411, i32 5		; visa id: 1879
  %1413 = extractelement <32 x i16> %1336, i32 6		; visa id: 1879
  %1414 = insertelement <16 x i16> %1412, i16 %1413, i32 6		; visa id: 1879
  %1415 = extractelement <32 x i16> %1336, i32 7		; visa id: 1879
  %1416 = insertelement <16 x i16> %1414, i16 %1415, i32 7		; visa id: 1879
  %1417 = extractelement <32 x i16> %1336, i32 8		; visa id: 1879
  %1418 = insertelement <16 x i16> %1416, i16 %1417, i32 8		; visa id: 1879
  %1419 = extractelement <32 x i16> %1336, i32 9		; visa id: 1879
  %1420 = insertelement <16 x i16> %1418, i16 %1419, i32 9		; visa id: 1879
  %1421 = extractelement <32 x i16> %1336, i32 10		; visa id: 1879
  %1422 = insertelement <16 x i16> %1420, i16 %1421, i32 10		; visa id: 1879
  %1423 = extractelement <32 x i16> %1336, i32 11		; visa id: 1879
  %1424 = insertelement <16 x i16> %1422, i16 %1423, i32 11		; visa id: 1879
  %1425 = extractelement <32 x i16> %1336, i32 12		; visa id: 1879
  %1426 = insertelement <16 x i16> %1424, i16 %1425, i32 12		; visa id: 1879
  %1427 = extractelement <32 x i16> %1336, i32 13		; visa id: 1879
  %1428 = insertelement <16 x i16> %1426, i16 %1427, i32 13		; visa id: 1879
  %1429 = extractelement <32 x i16> %1336, i32 14		; visa id: 1879
  %1430 = insertelement <16 x i16> %1428, i16 %1429, i32 14		; visa id: 1879
  %1431 = extractelement <32 x i16> %1336, i32 15		; visa id: 1879
  %1432 = insertelement <16 x i16> %1430, i16 %1431, i32 15		; visa id: 1879
  %1433 = extractelement <32 x i16> %1336, i32 16		; visa id: 1879
  %1434 = insertelement <16 x i16> undef, i16 %1433, i32 0		; visa id: 1879
  %1435 = extractelement <32 x i16> %1336, i32 17		; visa id: 1879
  %1436 = insertelement <16 x i16> %1434, i16 %1435, i32 1		; visa id: 1879
  %1437 = extractelement <32 x i16> %1336, i32 18		; visa id: 1879
  %1438 = insertelement <16 x i16> %1436, i16 %1437, i32 2		; visa id: 1879
  %1439 = extractelement <32 x i16> %1336, i32 19		; visa id: 1879
  %1440 = insertelement <16 x i16> %1438, i16 %1439, i32 3		; visa id: 1879
  %1441 = extractelement <32 x i16> %1336, i32 20		; visa id: 1879
  %1442 = insertelement <16 x i16> %1440, i16 %1441, i32 4		; visa id: 1879
  %1443 = extractelement <32 x i16> %1336, i32 21		; visa id: 1879
  %1444 = insertelement <16 x i16> %1442, i16 %1443, i32 5		; visa id: 1879
  %1445 = extractelement <32 x i16> %1336, i32 22		; visa id: 1879
  %1446 = insertelement <16 x i16> %1444, i16 %1445, i32 6		; visa id: 1879
  %1447 = extractelement <32 x i16> %1336, i32 23		; visa id: 1879
  %1448 = insertelement <16 x i16> %1446, i16 %1447, i32 7		; visa id: 1879
  %1449 = extractelement <32 x i16> %1336, i32 24		; visa id: 1879
  %1450 = insertelement <16 x i16> %1448, i16 %1449, i32 8		; visa id: 1879
  %1451 = extractelement <32 x i16> %1336, i32 25		; visa id: 1879
  %1452 = insertelement <16 x i16> %1450, i16 %1451, i32 9		; visa id: 1879
  %1453 = extractelement <32 x i16> %1336, i32 26		; visa id: 1879
  %1454 = insertelement <16 x i16> %1452, i16 %1453, i32 10		; visa id: 1879
  %1455 = extractelement <32 x i16> %1336, i32 27		; visa id: 1879
  %1456 = insertelement <16 x i16> %1454, i16 %1455, i32 11		; visa id: 1879
  %1457 = extractelement <32 x i16> %1336, i32 28		; visa id: 1879
  %1458 = insertelement <16 x i16> %1456, i16 %1457, i32 12		; visa id: 1879
  %1459 = extractelement <32 x i16> %1336, i32 29		; visa id: 1879
  %1460 = insertelement <16 x i16> %1458, i16 %1459, i32 13		; visa id: 1879
  %1461 = extractelement <32 x i16> %1336, i32 30		; visa id: 1879
  %1462 = insertelement <16 x i16> %1460, i16 %1461, i32 14		; visa id: 1879
  %1463 = extractelement <32 x i16> %1336, i32 31		; visa id: 1879
  %1464 = insertelement <16 x i16> %1462, i16 %1463, i32 15		; visa id: 1879
  %1465 = call <8 x float> asm "{\0A.decl DST     v_type=G type=f num_elts=$5 alias=<$0,0>\0A.decl SRC1_UD v_type=G type=UD num_elts=128 alias=<$2,0>\0A.decl SRC2_UD v_type=G type=UD num_elts=$4 alias=<$1,0>\0Adpas.bf.bf.8.$3 (M1, 16) DST.0 DST.0 SRC1_UD.0 SRC2_UD(0,0)\0A}\0A", "=rw,rw,rw,P,P,P,0"(<8 x i16> %.sroa.03106.14.vec.insert3139, <16 x i16> %1368, i32 8, i32 64, i32 128, <8 x float> %.sroa.388.2) #0		; visa id: 1879
  %1466 = call <8 x float> asm "{\0A.decl DST     v_type=G type=f num_elts=$5 alias=<$0,0>\0A.decl SRC1_UD v_type=G type=UD num_elts=128 alias=<$2,0>\0A.decl SRC2_UD v_type=G type=UD num_elts=$4 alias=<$1,0>\0Adpas.bf.bf.8.$3 (M1, 16) DST.0 DST.0 SRC1_UD.0 SRC2_UD(0,0)\0A}\0A", "=rw,rw,rw,P,P,P,0"(<8 x i16> %.sroa.35.30.vec.insert3172, <16 x i16> %1368, i32 8, i32 64, i32 128, <8 x float> %.sroa.436.2) #0		; visa id: 1879
  %1467 = call <8 x float> asm "{\0A.decl DST     v_type=G type=f num_elts=$5 alias=<$0,0>\0A.decl SRC1_UD v_type=G type=UD num_elts=128 alias=<$2,0>\0A.decl SRC2_UD v_type=G type=UD num_elts=$4 alias=<$1,0>\0Adpas.bf.bf.8.$3 (M1, 16) DST.0 DST.0 SRC1_UD.0 SRC2_UD(0,0)\0A}\0A", "=rw,rw,rw,P,P,P,0"(<8 x i16> %.sroa.35.30.vec.insert3172, <16 x i16> %1400, i32 8, i32 64, i32 128, <8 x float> %.sroa.532.2) #0		; visa id: 1879
  %1468 = call <8 x float> asm "{\0A.decl DST     v_type=G type=f num_elts=$5 alias=<$0,0>\0A.decl SRC1_UD v_type=G type=UD num_elts=128 alias=<$2,0>\0A.decl SRC2_UD v_type=G type=UD num_elts=$4 alias=<$1,0>\0Adpas.bf.bf.8.$3 (M1, 16) DST.0 DST.0 SRC1_UD.0 SRC2_UD(0,0)\0A}\0A", "=rw,rw,rw,P,P,P,0"(<8 x i16> %.sroa.03106.14.vec.insert3139, <16 x i16> %1400, i32 8, i32 64, i32 128, <8 x float> %.sroa.484.2) #0		; visa id: 1879
  %1469 = call <8 x float> asm "{\0A.decl DST     v_type=G type=f num_elts=$5 alias=<$0,0>\0A.decl SRC1_UD v_type=G type=UD num_elts=128 alias=<$2,0>\0A.decl SRC2_UD v_type=G type=UD num_elts=$4 alias=<$1,0>\0Adpas.bf.bf.8.$3 (M1, 16) DST.0 DST.0 SRC1_UD.0 SRC2_UD(0,0)\0A}\0A", "=rw,rw,rw,P,P,P,0"(<8 x i16> %.sroa.67.46.vec.insert3205, <16 x i16> %1432, i32 8, i32 64, i32 128, <8 x float> %1465) #0		; visa id: 1879
  %1470 = call <8 x float> asm "{\0A.decl DST     v_type=G type=f num_elts=$5 alias=<$0,0>\0A.decl SRC1_UD v_type=G type=UD num_elts=128 alias=<$2,0>\0A.decl SRC2_UD v_type=G type=UD num_elts=$4 alias=<$1,0>\0Adpas.bf.bf.8.$3 (M1, 16) DST.0 DST.0 SRC1_UD.0 SRC2_UD(0,0)\0A}\0A", "=rw,rw,rw,P,P,P,0"(<8 x i16> %.sroa.99.62.vec.insert3238, <16 x i16> %1432, i32 8, i32 64, i32 128, <8 x float> %1466) #0		; visa id: 1879
  %1471 = call <8 x float> asm "{\0A.decl DST     v_type=G type=f num_elts=$5 alias=<$0,0>\0A.decl SRC1_UD v_type=G type=UD num_elts=128 alias=<$2,0>\0A.decl SRC2_UD v_type=G type=UD num_elts=$4 alias=<$1,0>\0Adpas.bf.bf.8.$3 (M1, 16) DST.0 DST.0 SRC1_UD.0 SRC2_UD(0,0)\0A}\0A", "=rw,rw,rw,P,P,P,0"(<8 x i16> %.sroa.99.62.vec.insert3238, <16 x i16> %1464, i32 8, i32 64, i32 128, <8 x float> %1467) #0		; visa id: 1879
  %1472 = call <8 x float> asm "{\0A.decl DST     v_type=G type=f num_elts=$5 alias=<$0,0>\0A.decl SRC1_UD v_type=G type=UD num_elts=128 alias=<$2,0>\0A.decl SRC2_UD v_type=G type=UD num_elts=$4 alias=<$1,0>\0Adpas.bf.bf.8.$3 (M1, 16) DST.0 DST.0 SRC1_UD.0 SRC2_UD(0,0)\0A}\0A", "=rw,rw,rw,P,P,P,0"(<8 x i16> %.sroa.67.46.vec.insert3205, <16 x i16> %1464, i32 8, i32 64, i32 128, <8 x float> %1468) #0		; visa id: 1879
  call void @llvm.genx.GenISA.LSC2DBlockSetAddrPayloadField.p4i8.i32(i8 addrspace(4)* %Block2D_AddrPayload118, i32 5, i32 %310, i1 false)		; visa id: 1879
  call void @llvm.genx.GenISA.LSC2DBlockSetAddrPayloadField.p4i8.i32(i8 addrspace(4)* %Block2D_AddrPayload118, i32 6, i32 %372, i1 false)		; visa id: 1880
  %1473 = call <32 x i16> asm "lsc_load_block2d.ugm (M1, 1)  $0:d$2.$3x$4x$5nt flat[$1+(0,0)]", "=rw,rw.u,P,P,P,P"(i8 addrspace(4)* %Block2D_AddrPayload118, i32 16, i32 2, i32 16, i32 16) #0		; visa id: 1881
  call void @llvm.genx.GenISA.LSC2DBlockSetAddrPayloadField.p4i8.i32(i8 addrspace(4)* %Block2D_AddrPayload118, i32 5, i32 %310, i1 false)		; visa id: 1881
  call void @llvm.genx.GenISA.LSC2DBlockSetAddrPayloadField.p4i8.i32(i8 addrspace(4)* %Block2D_AddrPayload118, i32 6, i32 %1059, i1 false)		; visa id: 1882
  %1474 = call <32 x i16> asm "lsc_load_block2d.ugm (M1, 1)  $0:d$2.$3x$4x$5nt flat[$1+(0,0)]", "=rw,rw.u,P,P,P,P"(i8 addrspace(4)* %Block2D_AddrPayload118, i32 16, i32 2, i32 16, i32 16) #0		; visa id: 1883
  %1475 = extractelement <32 x i16> %1473, i32 0		; visa id: 1883
  %1476 = insertelement <16 x i16> undef, i16 %1475, i32 0		; visa id: 1883
  %1477 = extractelement <32 x i16> %1473, i32 1		; visa id: 1883
  %1478 = insertelement <16 x i16> %1476, i16 %1477, i32 1		; visa id: 1883
  %1479 = extractelement <32 x i16> %1473, i32 2		; visa id: 1883
  %1480 = insertelement <16 x i16> %1478, i16 %1479, i32 2		; visa id: 1883
  %1481 = extractelement <32 x i16> %1473, i32 3		; visa id: 1883
  %1482 = insertelement <16 x i16> %1480, i16 %1481, i32 3		; visa id: 1883
  %1483 = extractelement <32 x i16> %1473, i32 4		; visa id: 1883
  %1484 = insertelement <16 x i16> %1482, i16 %1483, i32 4		; visa id: 1883
  %1485 = extractelement <32 x i16> %1473, i32 5		; visa id: 1883
  %1486 = insertelement <16 x i16> %1484, i16 %1485, i32 5		; visa id: 1883
  %1487 = extractelement <32 x i16> %1473, i32 6		; visa id: 1883
  %1488 = insertelement <16 x i16> %1486, i16 %1487, i32 6		; visa id: 1883
  %1489 = extractelement <32 x i16> %1473, i32 7		; visa id: 1883
  %1490 = insertelement <16 x i16> %1488, i16 %1489, i32 7		; visa id: 1883
  %1491 = extractelement <32 x i16> %1473, i32 8		; visa id: 1883
  %1492 = insertelement <16 x i16> %1490, i16 %1491, i32 8		; visa id: 1883
  %1493 = extractelement <32 x i16> %1473, i32 9		; visa id: 1883
  %1494 = insertelement <16 x i16> %1492, i16 %1493, i32 9		; visa id: 1883
  %1495 = extractelement <32 x i16> %1473, i32 10		; visa id: 1883
  %1496 = insertelement <16 x i16> %1494, i16 %1495, i32 10		; visa id: 1883
  %1497 = extractelement <32 x i16> %1473, i32 11		; visa id: 1883
  %1498 = insertelement <16 x i16> %1496, i16 %1497, i32 11		; visa id: 1883
  %1499 = extractelement <32 x i16> %1473, i32 12		; visa id: 1883
  %1500 = insertelement <16 x i16> %1498, i16 %1499, i32 12		; visa id: 1883
  %1501 = extractelement <32 x i16> %1473, i32 13		; visa id: 1883
  %1502 = insertelement <16 x i16> %1500, i16 %1501, i32 13		; visa id: 1883
  %1503 = extractelement <32 x i16> %1473, i32 14		; visa id: 1883
  %1504 = insertelement <16 x i16> %1502, i16 %1503, i32 14		; visa id: 1883
  %1505 = extractelement <32 x i16> %1473, i32 15		; visa id: 1883
  %1506 = insertelement <16 x i16> %1504, i16 %1505, i32 15		; visa id: 1883
  %1507 = extractelement <32 x i16> %1473, i32 16		; visa id: 1883
  %1508 = insertelement <16 x i16> undef, i16 %1507, i32 0		; visa id: 1883
  %1509 = extractelement <32 x i16> %1473, i32 17		; visa id: 1883
  %1510 = insertelement <16 x i16> %1508, i16 %1509, i32 1		; visa id: 1883
  %1511 = extractelement <32 x i16> %1473, i32 18		; visa id: 1883
  %1512 = insertelement <16 x i16> %1510, i16 %1511, i32 2		; visa id: 1883
  %1513 = extractelement <32 x i16> %1473, i32 19		; visa id: 1883
  %1514 = insertelement <16 x i16> %1512, i16 %1513, i32 3		; visa id: 1883
  %1515 = extractelement <32 x i16> %1473, i32 20		; visa id: 1883
  %1516 = insertelement <16 x i16> %1514, i16 %1515, i32 4		; visa id: 1883
  %1517 = extractelement <32 x i16> %1473, i32 21		; visa id: 1883
  %1518 = insertelement <16 x i16> %1516, i16 %1517, i32 5		; visa id: 1883
  %1519 = extractelement <32 x i16> %1473, i32 22		; visa id: 1883
  %1520 = insertelement <16 x i16> %1518, i16 %1519, i32 6		; visa id: 1883
  %1521 = extractelement <32 x i16> %1473, i32 23		; visa id: 1883
  %1522 = insertelement <16 x i16> %1520, i16 %1521, i32 7		; visa id: 1883
  %1523 = extractelement <32 x i16> %1473, i32 24		; visa id: 1883
  %1524 = insertelement <16 x i16> %1522, i16 %1523, i32 8		; visa id: 1883
  %1525 = extractelement <32 x i16> %1473, i32 25		; visa id: 1883
  %1526 = insertelement <16 x i16> %1524, i16 %1525, i32 9		; visa id: 1883
  %1527 = extractelement <32 x i16> %1473, i32 26		; visa id: 1883
  %1528 = insertelement <16 x i16> %1526, i16 %1527, i32 10		; visa id: 1883
  %1529 = extractelement <32 x i16> %1473, i32 27		; visa id: 1883
  %1530 = insertelement <16 x i16> %1528, i16 %1529, i32 11		; visa id: 1883
  %1531 = extractelement <32 x i16> %1473, i32 28		; visa id: 1883
  %1532 = insertelement <16 x i16> %1530, i16 %1531, i32 12		; visa id: 1883
  %1533 = extractelement <32 x i16> %1473, i32 29		; visa id: 1883
  %1534 = insertelement <16 x i16> %1532, i16 %1533, i32 13		; visa id: 1883
  %1535 = extractelement <32 x i16> %1473, i32 30		; visa id: 1883
  %1536 = insertelement <16 x i16> %1534, i16 %1535, i32 14		; visa id: 1883
  %1537 = extractelement <32 x i16> %1473, i32 31		; visa id: 1883
  %1538 = insertelement <16 x i16> %1536, i16 %1537, i32 15		; visa id: 1883
  %1539 = extractelement <32 x i16> %1474, i32 0		; visa id: 1883
  %1540 = insertelement <16 x i16> undef, i16 %1539, i32 0		; visa id: 1883
  %1541 = extractelement <32 x i16> %1474, i32 1		; visa id: 1883
  %1542 = insertelement <16 x i16> %1540, i16 %1541, i32 1		; visa id: 1883
  %1543 = extractelement <32 x i16> %1474, i32 2		; visa id: 1883
  %1544 = insertelement <16 x i16> %1542, i16 %1543, i32 2		; visa id: 1883
  %1545 = extractelement <32 x i16> %1474, i32 3		; visa id: 1883
  %1546 = insertelement <16 x i16> %1544, i16 %1545, i32 3		; visa id: 1883
  %1547 = extractelement <32 x i16> %1474, i32 4		; visa id: 1883
  %1548 = insertelement <16 x i16> %1546, i16 %1547, i32 4		; visa id: 1883
  %1549 = extractelement <32 x i16> %1474, i32 5		; visa id: 1883
  %1550 = insertelement <16 x i16> %1548, i16 %1549, i32 5		; visa id: 1883
  %1551 = extractelement <32 x i16> %1474, i32 6		; visa id: 1883
  %1552 = insertelement <16 x i16> %1550, i16 %1551, i32 6		; visa id: 1883
  %1553 = extractelement <32 x i16> %1474, i32 7		; visa id: 1883
  %1554 = insertelement <16 x i16> %1552, i16 %1553, i32 7		; visa id: 1883
  %1555 = extractelement <32 x i16> %1474, i32 8		; visa id: 1883
