; ------------------------------------------------
; OCL_asmfad8e37da0145367_simd16_entry_0010.visa.ll
; LLVM major version: 16
; ------------------------------------------------
; Function Attrs: convergent nounwind
define spir_kernel void @_ZTSN7cutlass4fmha6kernel15XeFMHAFwdKernelINS1_16FMHAProblemShapeILb1EEENS0_10collective15FMHAFwdMainloopINS0_9XeDefaultILi2EEELb0ELb1ELb0EN4cute8TiledMMAINS9_8MMA_AtomIJNS9_10XE_DPAS_TTILi8EfNS_10bfloat16_tESD_fEEEEENS9_6LayoutINS9_5tupleIJNS9_1CILi16EEENSI_ILi1EEESK_EEENSH_IJSK_NSI_ILi0EEESM_EEEEEKNSH_IJNSG_INSH_IJNSI_ILi8EEESJ_NSI_ILi2EEEEEENSH_IJSK_SJ_SP_EEEEENSG_INSI_ILi32EEESK_EESV_EEEEESY_Li4ENS9_6TensorINS9_10ViewEngineINS9_8gmem_ptrIPSD_EEEENSG_INSH_IJiiiiEEENSH_IJiSK_iiEEEEEEES18_NSZ_IS14_NSG_IS15_NSH_IJSK_iiiEEEEEEES18_S1B_vvvvvEENS5_15FMHAFwdEpilogueIS1C_NSH_IJNSI_ILi256EEENSI_ILi128EEEEEENSZ_INS10_INS11_IPfEEEES17_EEvEENS1_29XeFHMAIndividualTileSchedulerEEE(%"class.std::__generated_tuple.8943"* byval(%"class.std::__generated_tuple.8943") align 8 %0, i8 addrspace(3)* noalias align 1 %1, <8 x i32> %r0, <3 x i32> %globalOffset, i16 %localIdX, i16 %localIdY, i16 %localIdZ, i8 addrspace(2)* %constBase, i8* %privateBase, i32 %const_reg_dword, i32 %const_reg_dword1, i32 %const_reg_dword2, i32 %const_reg_dword3, i64 %const_reg_qword, i32 %const_reg_dword4, i64 %const_reg_qword5, i32 %const_reg_dword6, i64 %const_reg_qword7, i32 %const_reg_dword8, i32 %const_reg_dword9, i64 %const_reg_qword10, i32 %const_reg_dword11, i32 %const_reg_dword12, i32 %const_reg_dword13, i8 %const_reg_byte, i8 %const_reg_byte14, i8 %const_reg_byte15, i8 %const_reg_byte16, i64 %const_reg_qword17, i32 %const_reg_dword18, i32 %const_reg_dword19, i32 %const_reg_dword20, i8 %const_reg_byte21, i8 %const_reg_byte22, i8 %const_reg_byte23, i8 %const_reg_byte24, i64 %const_reg_qword25, i32 %const_reg_dword26, i32 %const_reg_dword27, i32 %const_reg_dword28, i8 %const_reg_byte29, i8 %const_reg_byte30, i8 %const_reg_byte31, i8 %const_reg_byte32, i64 %const_reg_qword33, i32 %const_reg_dword34, i32 %const_reg_dword35, i32 %const_reg_dword36, i8 %const_reg_byte37, i8 %const_reg_byte38, i8 %const_reg_byte39, i8 %const_reg_byte40, i64 %const_reg_qword41, i32 %const_reg_dword42, i32 %const_reg_dword43, i32 %const_reg_dword44, i8 %const_reg_byte45, i8 %const_reg_byte46, i8 %const_reg_byte47, i8 %const_reg_byte48, i64 %const_reg_qword49, i32 %const_reg_dword50, i32 %const_reg_dword51, i32 %const_reg_dword52, i8 %const_reg_byte53, i8 %const_reg_byte54, i8 %const_reg_byte55, i8 %const_reg_byte56, float %const_reg_fp32, i64 %const_reg_qword57, i32 %const_reg_dword58, i64 %const_reg_qword59, i8 %const_reg_byte60, i8 %const_reg_byte61, i8 %const_reg_byte62, i8 %const_reg_byte63, i32 %const_reg_dword64, i32 %const_reg_dword65, i32 %const_reg_dword66, i32 %const_reg_dword67, i32 %const_reg_dword68, i32 %const_reg_dword69, i8 %const_reg_byte70, i8 %const_reg_byte71, i8 %const_reg_byte72, i8 %const_reg_byte73, i32 %bindlessOffset) #1 {
; BB0 :
  %3 = extractelement <8 x i32> %r0, i32 6		; visa id: 2
  %4 = extractelement <8 x i32> %r0, i32 7		; visa id: 2
  %5 = call { i32, i32 } @llvm.genx.GenISA.mul.pair(i32 %4, i32 0, i32 %const_reg_dword68, i32 0)
  %6 = extractvalue { i32, i32 } %5, 1		; visa id: 2
  %7 = lshr i32 %6, %const_reg_dword69		; visa id: 7
  %8 = icmp eq i32 %const_reg_dword67, 1
  %9 = select i1 %8, i32 %4, i32 %7		; visa id: 8
  %10 = zext i32 %9 to i64		; visa id: 10
  %11 = shl nuw nsw i64 %10, 2		; visa id: 11
  %12 = add i64 %11, %const_reg_qword		; visa id: 12
  %13 = inttoptr i64 %12 to <2 x i32> addrspace(4)*		; visa id: 13
  %14 = addrspacecast <2 x i32> addrspace(4)* %13 to <2 x i32> addrspace(1)*		; visa id: 13
  %15 = load <2 x i32>, <2 x i32> addrspace(1)* %14, align 4		; visa id: 14
  %16 = extractelement <2 x i32> %15, i32 1		; visa id: 15
  %17 = extractelement <2 x i32> %15, i32 0		; visa id: 15
  %18 = sub nsw i32 %16, %17, !spirv.Decorations !1203		; visa id: 15
  %19 = shl i32 %3, 8		; visa id: 16
  %20 = icmp ult i32 %19, %18		; visa id: 17
  br i1 %20, label %21, label %.._crit_edge_crit_edge, !stats.blockFrequency.digits !1205, !stats.blockFrequency.scale !1206		; visa id: 18

.._crit_edge_crit_edge:                           ; preds = %2
; BB:
  br label %._crit_edge, !stats.blockFrequency.digits !1207, !stats.blockFrequency.scale !1208

21:                                               ; preds = %2
; BB2 :
  %22 = add i64 %11, %const_reg_qword7		; visa id: 20
  %23 = inttoptr i64 %22 to <2 x i32> addrspace(4)*		; visa id: 21
  %24 = addrspacecast <2 x i32> addrspace(4)* %23 to <2 x i32> addrspace(1)*		; visa id: 21
  %25 = load <2 x i32>, <2 x i32> addrspace(1)* %24, align 4		; visa id: 22
  %26 = add i64 %11, %const_reg_qword5		; visa id: 23
  %27 = inttoptr i64 %26 to <2 x i32> addrspace(4)*		; visa id: 24
  %28 = addrspacecast <2 x i32> addrspace(4)* %27 to <2 x i32> addrspace(1)*		; visa id: 24
  %29 = load <2 x i32>, <2 x i32> addrspace(1)* %28, align 4		; visa id: 25
  %30 = extractelement <2 x i32> %25, i32 1		; visa id: 26
  %31 = extractelement <2 x i32> %25, i32 0		; visa id: 26
  %32 = sub nsw i32 %30, %31, !spirv.Decorations !1203		; visa id: 26
  %33 = extractelement <2 x i32> %29, i32 1		; visa id: 27
  %34 = extractelement <2 x i32> %29, i32 0		; visa id: 27
  %35 = sub nsw i32 %33, %34, !spirv.Decorations !1203		; visa id: 27
  %tobool.i = icmp eq i32 %const_reg_dword2, 0		; visa id: 28
  br i1 %tobool.i, label %if.then.i, label %if.end.i, !stats.blockFrequency.digits !1207, !stats.blockFrequency.scale !1208		; visa id: 29

if.then.i:                                        ; preds = %21
; BB3 :
  br label %precompiled_s32divrem_sp.exit, !stats.blockFrequency.digits !1209, !stats.blockFrequency.scale !1210		; visa id: 32

if.end.i:                                         ; preds = %21
; BB4 :
  %shr.i = ashr i32 %const_reg_dword2, 31		; visa id: 34
  %shr1.i = ashr i32 %const_reg_dword1, 31		; visa id: 35
  %add.i = add nsw i32 %shr.i, %const_reg_dword2		; visa id: 36
  %xor.i = xor i32 %add.i, %shr.i		; visa id: 37
  %add2.i = add nsw i32 %shr1.i, %const_reg_dword1		; visa id: 38
  %xor3.i = xor i32 %add2.i, %shr1.i		; visa id: 39
  %36 = call float @llvm.genx.GenISA.uitof.rtz.f32.i32(i32 %xor.i)		; visa id: 40
  %conv.i = fptoui float %36 to i32		; visa id: 42
  %sub.i = sub i32 %xor.i, %conv.i		; visa id: 43
  %37 = call float @llvm.genx.GenISA.uitof.rtz.f32.i32(i32 %xor3.i)		; visa id: 44
  %div.i = fdiv float 1.000000e+00, %36, !fpmath !1211		; visa id: 45
  %38 = call float @llvm.genx.GenISA.fma.rtz.f32.f32.f32.f32(float %div.i, float 0xBE98000000000000, float %div.i)		; visa id: 46
  %39 = call float @llvm.genx.GenISA.mul.rtz.f32.f32.f32(float %37, float %38)		; visa id: 47
  %conv6.i = fptoui float %37 to i32		; visa id: 48
  %sub7.i = sub i32 %xor3.i, %conv6.i		; visa id: 49
  %conv11.i = fptoui float %39 to i32		; visa id: 50
  %40 = call float @llvm.genx.GenISA.uitof.rtz.f32.i32(i32 %sub.i)		; visa id: 51
  %41 = call float @llvm.genx.GenISA.uitof.rtz.f32.i32(i32 %sub7.i)		; visa id: 52
  %42 = call float @llvm.genx.GenISA.uitof.rtz.f32.i32(i32 %conv11.i)		; visa id: 53
  %43 = fsub float 0.000000e+00, %36		; visa id: 54
  %44 = call float @llvm.genx.GenISA.fma.rtz.f32.f32.f32.f32(float %43, float %42, float %37)		; visa id: 55
  %45 = fsub float 0.000000e+00, %40		; visa id: 56
  %46 = call float @llvm.genx.GenISA.fma.rtz.f32.f32.f32.f32(float %45, float %42, float %41)		; visa id: 57
  %47 = call float @llvm.genx.GenISA.add.rtz.f32.f32.f32(float %44, float %46)		; visa id: 58
  %48 = call float @llvm.genx.GenISA.mul.rtz.f32.f32.f32(float %38, float %47)		; visa id: 59
  %conv19.i = fptoui float %48 to i32		; visa id: 61
  %add20.i = add i32 %conv19.i, %conv11.i		; visa id: 62
  %xor21.i = xor i32 %shr.i, %shr1.i		; visa id: 63
  %mul.i = mul i32 %add20.i, %xor.i		; visa id: 64
  %sub22.i = sub i32 %xor3.i, %mul.i		; visa id: 65
  %cmp.i = icmp uge i32 %sub22.i, %xor.i
  %49 = sext i1 %cmp.i to i32		; visa id: 66
  %50 = sub i32 0, %49
  %add24.i = add i32 %add20.i, %xor21.i
  %add29.i = add i32 %add24.i, %50		; visa id: 67
  %xor30.i = xor i32 %add29.i, %xor21.i		; visa id: 68
  br label %precompiled_s32divrem_sp.exit, !stats.blockFrequency.digits !1212, !stats.blockFrequency.scale !1213		; visa id: 69

precompiled_s32divrem_sp.exit:                    ; preds = %if.then.i, %if.end.i
; BB5 :
  %retval.0.i = phi i32 [ %xor30.i, %if.end.i ], [ -1, %if.then.i ]
  %51 = mul nsw i32 %9, %const_reg_dword67, !spirv.Decorations !1203		; visa id: 70
  %52 = sub nsw i32 %4, %51, !spirv.Decorations !1203		; visa id: 71
  %tobool.i7166 = icmp eq i32 %retval.0.i, 0		; visa id: 72
  br i1 %tobool.i7166, label %if.then.i7167, label %if.end.i7197, !stats.blockFrequency.digits !1207, !stats.blockFrequency.scale !1208		; visa id: 73

if.then.i7167:                                    ; preds = %precompiled_s32divrem_sp.exit
; BB6 :
  br label %precompiled_s32divrem_sp.exit7199, !stats.blockFrequency.digits !1209, !stats.blockFrequency.scale !1210		; visa id: 76

if.end.i7197:                                     ; preds = %precompiled_s32divrem_sp.exit
; BB7 :
  %shr.i7168 = ashr i32 %retval.0.i, 31		; visa id: 78
  %shr1.i7169 = ashr i32 %52, 31		; visa id: 79
  %add.i7170 = add nsw i32 %shr.i7168, %retval.0.i		; visa id: 80
  %xor.i7171 = xor i32 %add.i7170, %shr.i7168		; visa id: 81
  %add2.i7172 = add nsw i32 %shr1.i7169, %52		; visa id: 82
  %xor3.i7173 = xor i32 %add2.i7172, %shr1.i7169		; visa id: 83
  %53 = call float @llvm.genx.GenISA.uitof.rtz.f32.i32(i32 %xor.i7171)		; visa id: 84
  %conv.i7174 = fptoui float %53 to i32		; visa id: 86
  %sub.i7175 = sub i32 %xor.i7171, %conv.i7174		; visa id: 87
  %54 = call float @llvm.genx.GenISA.uitof.rtz.f32.i32(i32 %xor3.i7173)		; visa id: 88
  %div.i7178 = fdiv float 1.000000e+00, %53, !fpmath !1211		; visa id: 89
  %55 = call float @llvm.genx.GenISA.fma.rtz.f32.f32.f32.f32(float %div.i7178, float 0xBE98000000000000, float %div.i7178)		; visa id: 90
  %56 = call float @llvm.genx.GenISA.mul.rtz.f32.f32.f32(float %54, float %55)		; visa id: 91
  %conv6.i7176 = fptoui float %54 to i32		; visa id: 92
  %sub7.i7177 = sub i32 %xor3.i7173, %conv6.i7176		; visa id: 93
  %conv11.i7179 = fptoui float %56 to i32		; visa id: 94
  %57 = call float @llvm.genx.GenISA.uitof.rtz.f32.i32(i32 %sub.i7175)		; visa id: 95
  %58 = call float @llvm.genx.GenISA.uitof.rtz.f32.i32(i32 %sub7.i7177)		; visa id: 96
  %59 = call float @llvm.genx.GenISA.uitof.rtz.f32.i32(i32 %conv11.i7179)		; visa id: 97
  %60 = fsub float 0.000000e+00, %53		; visa id: 98
  %61 = call float @llvm.genx.GenISA.fma.rtz.f32.f32.f32.f32(float %60, float %59, float %54)		; visa id: 99
  %62 = fsub float 0.000000e+00, %57		; visa id: 100
  %63 = call float @llvm.genx.GenISA.fma.rtz.f32.f32.f32.f32(float %62, float %59, float %58)		; visa id: 101
  %64 = call float @llvm.genx.GenISA.add.rtz.f32.f32.f32(float %61, float %63)		; visa id: 102
  %65 = call float @llvm.genx.GenISA.mul.rtz.f32.f32.f32(float %55, float %64)		; visa id: 103
  %conv19.i7182 = fptoui float %65 to i32		; visa id: 105
  %add20.i7183 = add i32 %conv19.i7182, %conv11.i7179		; visa id: 106
  %xor21.i7184 = xor i32 %shr.i7168, %shr1.i7169		; visa id: 107
  %mul.i7185 = mul i32 %add20.i7183, %xor.i7171		; visa id: 108
  %sub22.i7186 = sub i32 %xor3.i7173, %mul.i7185		; visa id: 109
  %cmp.i7187 = icmp uge i32 %sub22.i7186, %xor.i7171
  %66 = sext i1 %cmp.i7187 to i32		; visa id: 110
  %67 = sub i32 0, %66
  %add24.i7194 = add i32 %add20.i7183, %xor21.i7184
  %add29.i7195 = add i32 %add24.i7194, %67		; visa id: 111
  %xor30.i7196 = xor i32 %add29.i7195, %xor21.i7184		; visa id: 112
  br label %precompiled_s32divrem_sp.exit7199, !stats.blockFrequency.digits !1212, !stats.blockFrequency.scale !1213		; visa id: 113

precompiled_s32divrem_sp.exit7199:                ; preds = %if.then.i7167, %if.end.i7197
; BB8 :
  %retval.0.i7198 = phi i32 [ %xor30.i7196, %if.end.i7197 ], [ -1, %if.then.i7167 ]
  %68 = add nsw i32 %35, %32, !spirv.Decorations !1203		; visa id: 114
  %is-neg = icmp slt i32 %68, -31		; visa id: 115
  br i1 %is-neg, label %cond-add, label %precompiled_s32divrem_sp.exit7199.cond-add-join_crit_edge, !stats.blockFrequency.digits !1207, !stats.blockFrequency.scale !1208		; visa id: 116

precompiled_s32divrem_sp.exit7199.cond-add-join_crit_edge: ; preds = %precompiled_s32divrem_sp.exit7199
; BB9 :
  %69 = add nsw i32 %68, 31, !spirv.Decorations !1203		; visa id: 118
  br label %cond-add-join, !stats.blockFrequency.digits !1214, !stats.blockFrequency.scale !1213		; visa id: 119

cond-add:                                         ; preds = %precompiled_s32divrem_sp.exit7199
; BB10 :
  %70 = add i32 %68, 62		; visa id: 121
  br label %cond-add-join, !stats.blockFrequency.digits !1214, !stats.blockFrequency.scale !1213		; visa id: 122

cond-add-join:                                    ; preds = %precompiled_s32divrem_sp.exit7199.cond-add-join_crit_edge, %cond-add
; BB11 :
  %71 = phi i32 [ %69, %precompiled_s32divrem_sp.exit7199.cond-add-join_crit_edge ], [ %70, %cond-add ]
  %72 = bitcast i64 %const_reg_qword7 to <2 x i32>		; visa id: 123
  %73 = extractelement <2 x i32> %72, i32 0		; visa id: 124
  %74 = extractelement <2 x i32> %72, i32 1		; visa id: 124
  %qot = ashr i32 %71, 5		; visa id: 124
  %75 = mul nsw i32 %const_reg_dword1, %const_reg_dword8, !spirv.Decorations !1203		; visa id: 125
  %76 = mul nsw i32 %75, %17, !spirv.Decorations !1203		; visa id: 126
  %77 = mul nsw i32 %const_reg_dword2, %const_reg_dword8, !spirv.Decorations !1203		; visa id: 127
  %78 = mul nsw i32 %77, %34, !spirv.Decorations !1203		; visa id: 128
  %79 = mul nsw i32 %const_reg_dword2, %const_reg_dword9, !spirv.Decorations !1203		; visa id: 129
  %80 = mul nsw i32 %79, %34, !spirv.Decorations !1203		; visa id: 130
  %81 = icmp eq i32 %74, 0
  %82 = icmp eq i32 %73, 0		; visa id: 131
  %83 = and i1 %81, %82		; visa id: 132
  %84 = mul nsw i32 %77, %31, !spirv.Decorations !1203		; visa id: 134
  %85 = mul nsw i32 %79, %31, !spirv.Decorations !1203		; visa id: 135
  %86 = sext i32 %76 to i64		; visa id: 136
  %87 = shl nsw i64 %86, 1		; visa id: 137
  %88 = add i64 %87, %const_reg_qword10		; visa id: 138
  %89 = sext i32 %78 to i64		; visa id: 139
  %90 = shl nsw i64 %89, 1		; visa id: 140
  %91 = add i64 %90, %const_reg_qword17		; visa id: 141
  %92 = sext i32 %80 to i64		; visa id: 142
  %93 = shl nsw i64 %92, 1		; visa id: 143
  %94 = add i64 %93, %const_reg_qword25		; visa id: 144
  %95 = sext i32 %84 to i64		; visa id: 145
  %.op = shl nsw i64 %95, 1		; visa id: 146
  %96 = bitcast i64 %.op to <2 x i32>		; visa id: 147
  %97 = extractelement <2 x i32> %96, i32 0		; visa id: 148
  %98 = extractelement <2 x i32> %96, i32 1		; visa id: 148
  %99 = select i1 %83, i32 0, i32 %97		; visa id: 148
  %100 = select i1 %83, i32 0, i32 %98		; visa id: 149
  %101 = insertelement <2 x i32> undef, i32 %99, i32 0		; visa id: 150
  %102 = insertelement <2 x i32> %101, i32 %100, i32 1		; visa id: 151
  %103 = bitcast <2 x i32> %102 to i64		; visa id: 152
  %104 = add i64 %103, %const_reg_qword41		; visa id: 154
  %105 = sext i32 %85 to i64		; visa id: 155
  %.op7213 = shl nsw i64 %105, 1		; visa id: 156
  %106 = bitcast i64 %.op7213 to <2 x i32>		; visa id: 157
  %107 = extractelement <2 x i32> %106, i32 0		; visa id: 158
  %108 = extractelement <2 x i32> %106, i32 1		; visa id: 158
  %109 = select i1 %83, i32 0, i32 %107		; visa id: 158
  %110 = select i1 %83, i32 0, i32 %108		; visa id: 159
  %111 = insertelement <2 x i32> undef, i32 %109, i32 0		; visa id: 160
  %112 = insertelement <2 x i32> %111, i32 %110, i32 1		; visa id: 161
  %113 = bitcast <2 x i32> %112 to i64		; visa id: 162
  %114 = add i64 %113, %const_reg_qword49		; visa id: 164
  %115 = mul nsw i32 %18, %const_reg_dword8, !spirv.Decorations !1203		; visa id: 165
  %116 = icmp slt i32 %const_reg_dword1, 2		; visa id: 166
  %117 = select i1 %116, i32 0, i32 %115		; visa id: 167
  %118 = mul nsw i32 %35, %const_reg_dword8, !spirv.Decorations !1203		; visa id: 168
  %119 = mul nsw i32 %35, %const_reg_dword9, !spirv.Decorations !1203		; visa id: 169
  %120 = icmp slt i32 %const_reg_dword2, 2		; visa id: 170
  %121 = select i1 %120, i32 0, i32 %119		; visa id: 171
  %122 = select i1 %120, i32 0, i32 %118		; visa id: 172
  %123 = mul nsw i32 %32, %const_reg_dword8, !spirv.Decorations !1203		; visa id: 173
  %124 = mul nsw i32 %32, %const_reg_dword9, !spirv.Decorations !1203		; visa id: 174
  %125 = select i1 %120, i32 0, i32 %124		; visa id: 175
  %126 = select i1 %120, i32 0, i32 %123		; visa id: 176
  %127 = mul nsw i32 %52, %117, !spirv.Decorations !1203		; visa id: 177
  %128 = sext i32 %127 to i64		; visa id: 178
  %129 = shl nsw i64 %128, 1		; visa id: 179
  %130 = add i64 %88, %129		; visa id: 180
  %131 = mul nsw i32 %retval.0.i7198, %122, !spirv.Decorations !1203		; visa id: 181
  %132 = sext i32 %131 to i64		; visa id: 182
  %133 = shl nsw i64 %132, 1		; visa id: 183
  %134 = add i64 %91, %133		; visa id: 184
  %135 = mul nsw i32 %retval.0.i7198, %121, !spirv.Decorations !1203		; visa id: 185
  %136 = sext i32 %135 to i64		; visa id: 186
  %137 = shl nsw i64 %136, 1		; visa id: 187
  %138 = add i64 %94, %137		; visa id: 188
  %139 = mul nsw i32 %retval.0.i7198, %126, !spirv.Decorations !1203		; visa id: 189
  %140 = sext i32 %139 to i64		; visa id: 190
  %141 = shl nsw i64 %140, 1		; visa id: 191
  %142 = add i64 %104, %141		; visa id: 192
  %143 = mul nsw i32 %retval.0.i7198, %125, !spirv.Decorations !1203		; visa id: 193
  %144 = sext i32 %143 to i64		; visa id: 194
  %145 = shl nsw i64 %144, 1		; visa id: 195
  %146 = add i64 %114, %145		; visa id: 196
  %is-neg7157 = icmp slt i32 %const_reg_dword8, -31		; visa id: 197
  br i1 %is-neg7157, label %cond-add7158, label %cond-add-join.cond-add-join7159_crit_edge, !stats.blockFrequency.digits !1207, !stats.blockFrequency.scale !1208		; visa id: 198

cond-add-join.cond-add-join7159_crit_edge:        ; preds = %cond-add-join
; BB12 :
  %147 = add nsw i32 %const_reg_dword8, 31, !spirv.Decorations !1203		; visa id: 200
  br label %cond-add-join7159, !stats.blockFrequency.digits !1214, !stats.blockFrequency.scale !1213		; visa id: 201

cond-add7158:                                     ; preds = %cond-add-join
; BB13 :
  %148 = add i32 %const_reg_dword8, 62		; visa id: 203
  br label %cond-add-join7159, !stats.blockFrequency.digits !1214, !stats.blockFrequency.scale !1213		; visa id: 204

cond-add-join7159:                                ; preds = %cond-add-join.cond-add-join7159_crit_edge, %cond-add7158
; BB14 :
  %149 = phi i32 [ %147, %cond-add-join.cond-add-join7159_crit_edge ], [ %148, %cond-add7158 ]
  %150 = extractelement <8 x i32> %r0, i32 1		; visa id: 205
  %qot7160 = ashr i32 %149, 5		; visa id: 205
  %151 = shl i32 %150, 7		; visa id: 206
  %152 = shl nsw i32 %const_reg_dword8, 1, !spirv.Decorations !1203		; visa id: 207
  %153 = add i32 %152, -1		; visa id: 208
  %154 = add i32 %18, -1		; visa id: 209
  %Block2D_AddrPayload = call i8 addrspace(4)* @llvm.genx.GenISA.LSC2DBlockCreateAddrPayload.p4i8(i64 %130, i32 %153, i32 %154, i32 %153, i32 0, i32 0, i32 16, i32 16, i32 2)		; visa id: 210
  %155 = add i32 %35, -1		; visa id: 217
  %Block2D_AddrPayload115 = call i8 addrspace(4)* @llvm.genx.GenISA.LSC2DBlockCreateAddrPayload.p4i8(i64 %134, i32 %153, i32 %155, i32 %153, i32 0, i32 0, i32 8, i32 16, i32 1)		; visa id: 218
  %156 = shl nsw i32 %const_reg_dword9, 1, !spirv.Decorations !1203		; visa id: 225
  %157 = add i32 %156, -1		; visa id: 226
  %Block2D_AddrPayload116 = call i8 addrspace(4)* @llvm.genx.GenISA.LSC2DBlockCreateAddrPayload.p4i8(i64 %138, i32 %157, i32 %155, i32 %157, i32 0, i32 0, i32 16, i32 16, i32 2)		; visa id: 227
  %158 = add i32 %32, -1		; visa id: 234
  %Block2D_AddrPayload117 = call i8 addrspace(4)* @llvm.genx.GenISA.LSC2DBlockCreateAddrPayload.p4i8(i64 %142, i32 %153, i32 %158, i32 %153, i32 0, i32 0, i32 8, i32 16, i32 1)		; visa id: 235
  %Block2D_AddrPayload118 = call i8 addrspace(4)* @llvm.genx.GenISA.LSC2DBlockCreateAddrPayload.p4i8(i64 %146, i32 %157, i32 %158, i32 %157, i32 0, i32 0, i32 16, i32 16, i32 2)		; visa id: 242
  %159 = zext i16 %localIdX to i32		; visa id: 249
  %160 = and i32 %159, 65520		; visa id: 250
  %161 = add i32 %19, %160		; visa id: 251
  %Block2D_AddrPayload119 = call i8 addrspace(4)* @llvm.genx.GenISA.LSC2DBlockCreateAddrPayload.p4i8(i64 %130, i32 %153, i32 %154, i32 %153, i32 0, i32 0, i32 32, i32 16, i32 1)		; visa id: 252
  %Block2D_AddrPayload120 = call i8 addrspace(4)* @llvm.genx.GenISA.LSC2DBlockCreateAddrPayload.p4i8(i64 %134, i32 %153, i32 %155, i32 %153, i32 0, i32 0, i32 32, i32 2, i32 1)		; visa id: 259
  %Block2D_AddrPayload121 = call i8 addrspace(4)* @llvm.genx.GenISA.LSC2DBlockCreateAddrPayload.p4i8(i64 %138, i32 %157, i32 %155, i32 %157, i32 0, i32 0, i32 32, i32 2, i32 1)		; visa id: 266
  %Block2D_AddrPayload122 = call i8 addrspace(4)* @llvm.genx.GenISA.LSC2DBlockCreateAddrPayload.p4i8(i64 %142, i32 %153, i32 %158, i32 %153, i32 0, i32 0, i32 32, i32 2, i32 1)		; visa id: 273
  %Block2D_AddrPayload123 = call i8 addrspace(4)* @llvm.genx.GenISA.LSC2DBlockCreateAddrPayload.p4i8(i64 %146, i32 %157, i32 %158, i32 %157, i32 0, i32 0, i32 32, i32 2, i32 1)		; visa id: 280
  %162 = lshr i32 %159, 3		; visa id: 287
  %163 = and i32 %162, 8190		; visa id: 288
  %is-neg7161 = icmp slt i32 %32, -31		; visa id: 289
  br i1 %is-neg7161, label %cond-add7162, label %cond-add-join7159.cond-add-join7163_crit_edge, !stats.blockFrequency.digits !1207, !stats.blockFrequency.scale !1208		; visa id: 290

cond-add-join7159.cond-add-join7163_crit_edge:    ; preds = %cond-add-join7159
; BB15 :
  %164 = add nsw i32 %32, 31, !spirv.Decorations !1203		; visa id: 292
  br label %cond-add-join7163, !stats.blockFrequency.digits !1214, !stats.blockFrequency.scale !1213		; visa id: 293

cond-add7162:                                     ; preds = %cond-add-join7159
; BB16 :
  %165 = add i32 %32, 62		; visa id: 295
  br label %cond-add-join7163, !stats.blockFrequency.digits !1214, !stats.blockFrequency.scale !1213		; visa id: 296

cond-add-join7163:                                ; preds = %cond-add-join7159.cond-add-join7163_crit_edge, %cond-add7162
; BB17 :
  %166 = phi i32 [ %164, %cond-add-join7159.cond-add-join7163_crit_edge ], [ %165, %cond-add7162 ]
  %qot7164 = ashr i32 %166, 5		; visa id: 297
  %167 = icmp sgt i32 %const_reg_dword8, 0		; visa id: 298
  br i1 %167, label %.lr.ph248.preheader, label %cond-add-join7163..preheader_crit_edge, !stats.blockFrequency.digits !1207, !stats.blockFrequency.scale !1208		; visa id: 299

cond-add-join7163..preheader_crit_edge:           ; preds = %cond-add-join7163
; BB:
  br label %.preheader, !stats.blockFrequency.digits !1209, !stats.blockFrequency.scale !1210

.lr.ph248.preheader:                              ; preds = %cond-add-join7163
; BB19 :
  br label %.lr.ph248, !stats.blockFrequency.digits !1212, !stats.blockFrequency.scale !1213		; visa id: 302

.lr.ph248:                                        ; preds = %.lr.ph248..lr.ph248_crit_edge, %.lr.ph248.preheader
; BB20 :
  %168 = phi i32 [ %170, %.lr.ph248..lr.ph248_crit_edge ], [ 0, %.lr.ph248.preheader ]
  %169 = shl nsw i32 %168, 5, !spirv.Decorations !1203		; visa id: 303
  call void @llvm.genx.GenISA.LSC2DBlockSetAddrPayloadField.p4i8.i32(i8 addrspace(4)* %Block2D_AddrPayload119, i32 5, i32 %169, i1 false)		; visa id: 304
  call void @llvm.genx.GenISA.LSC2DBlockSetAddrPayloadField.p4i8.i32(i8 addrspace(4)* %Block2D_AddrPayload119, i32 6, i32 %161, i1 false)		; visa id: 305
  call void asm sideeffect "lsc_load_block2d.ugm.ca.ca (M1, 1)  %null:d$1.$2x$3nn flat[$0+(0,0)]", "rw.u,P,P,P"(i8 addrspace(4)* %Block2D_AddrPayload119, i32 16, i32 32, i32 16) #0		; visa id: 306
  %170 = add nuw nsw i32 %168, 1, !spirv.Decorations !1215		; visa id: 306
  %171 = icmp slt i32 %170, %qot7160		; visa id: 307
  br i1 %171, label %.lr.ph248..lr.ph248_crit_edge, label %.preheader1.preheader, !stats.blockFrequency.digits !1217, !stats.blockFrequency.scale !1218		; visa id: 308

.lr.ph248..lr.ph248_crit_edge:                    ; preds = %.lr.ph248
; BB:
  br label %.lr.ph248, !stats.blockFrequency.digits !1219, !stats.blockFrequency.scale !1218

.preheader1.preheader:                            ; preds = %.lr.ph248
; BB22 :
  br i1 true, label %.lr.ph246, label %.preheader1.preheader..preheader_crit_edge, !stats.blockFrequency.digits !1212, !stats.blockFrequency.scale !1213		; visa id: 310

.preheader1.preheader..preheader_crit_edge:       ; preds = %.preheader1.preheader
; BB:
  br label %.preheader, !stats.blockFrequency.digits !1220, !stats.blockFrequency.scale !1210

.lr.ph246:                                        ; preds = %.preheader1.preheader
; BB24 :
  %172 = icmp sgt i32 %32, 0		; visa id: 313
  %173 = and i32 %166, -32		; visa id: 314
  %174 = sub i32 %163, %173		; visa id: 315
  %175 = icmp sgt i32 %32, 32		; visa id: 316
  %176 = sub i32 32, %173
  %177 = add nuw nsw i32 %163, %176		; visa id: 317
  %178 = add nuw nsw i32 %163, 32		; visa id: 318
  br label %179, !stats.blockFrequency.digits !1220, !stats.blockFrequency.scale !1210		; visa id: 320

179:                                              ; preds = %.preheader1._crit_edge, %.lr.ph246
; BB25 :
  %180 = phi i32 [ 0, %.lr.ph246 ], [ %187, %.preheader1._crit_edge ]
  %181 = shl nsw i32 %180, 5, !spirv.Decorations !1203		; visa id: 321
  br i1 %172, label %183, label %182, !stats.blockFrequency.digits !1220, !stats.blockFrequency.scale !1206		; visa id: 322

182:                                              ; preds = %179
; BB26 :
  call void @llvm.genx.GenISA.LSC2DBlockSetAddrPayloadField.p4i8.i32(i8 addrspace(4)* %Block2D_AddrPayload120, i32 5, i32 %181, i1 false)		; visa id: 324
  call void @llvm.genx.GenISA.LSC2DBlockSetAddrPayloadField.p4i8.i32(i8 addrspace(4)* %Block2D_AddrPayload120, i32 6, i32 %174, i1 false)		; visa id: 325
  call void asm sideeffect "lsc_load_block2d.ugm.ca.ca (M1, 1)  %null:d$1.$2x$3nn flat[$0+(0,0)]", "rw.u,P,P,P"(i8 addrspace(4)* %Block2D_AddrPayload120, i32 16, i32 32, i32 2) #0		; visa id: 326
  br label %184, !stats.blockFrequency.digits !1214, !stats.blockFrequency.scale !1221		; visa id: 326

183:                                              ; preds = %179
; BB27 :
  call void @llvm.genx.GenISA.LSC2DBlockSetAddrPayloadField.p4i8.i32(i8 addrspace(4)* %Block2D_AddrPayload122, i32 5, i32 %181, i1 false)		; visa id: 328
  call void @llvm.genx.GenISA.LSC2DBlockSetAddrPayloadField.p4i8.i32(i8 addrspace(4)* %Block2D_AddrPayload122, i32 6, i32 %163, i1 false)		; visa id: 329
  call void asm sideeffect "lsc_load_block2d.ugm.ca.ca (M1, 1)  %null:d$1.$2x$3nn flat[$0+(0,0)]", "rw.u,P,P,P"(i8 addrspace(4)* %Block2D_AddrPayload122, i32 16, i32 32, i32 2) #0		; visa id: 330
  br label %184, !stats.blockFrequency.digits !1222, !stats.blockFrequency.scale !1221		; visa id: 330

184:                                              ; preds = %182, %183
; BB28 :
  br i1 %175, label %186, label %185, !stats.blockFrequency.digits !1220, !stats.blockFrequency.scale !1206		; visa id: 331

185:                                              ; preds = %184
; BB29 :
  call void @llvm.genx.GenISA.LSC2DBlockSetAddrPayloadField.p4i8.i32(i8 addrspace(4)* %Block2D_AddrPayload120, i32 5, i32 %181, i1 false)		; visa id: 333
  call void @llvm.genx.GenISA.LSC2DBlockSetAddrPayloadField.p4i8.i32(i8 addrspace(4)* %Block2D_AddrPayload120, i32 6, i32 %177, i1 false)		; visa id: 334
  call void asm sideeffect "lsc_load_block2d.ugm.ca.ca (M1, 1)  %null:d$1.$2x$3nn flat[$0+(0,0)]", "rw.u,P,P,P"(i8 addrspace(4)* %Block2D_AddrPayload120, i32 16, i32 32, i32 2) #0		; visa id: 335
  br label %.preheader1, !stats.blockFrequency.digits !1220, !stats.blockFrequency.scale !1221		; visa id: 335

186:                                              ; preds = %184
; BB30 :
  call void @llvm.genx.GenISA.LSC2DBlockSetAddrPayloadField.p4i8.i32(i8 addrspace(4)* %Block2D_AddrPayload122, i32 5, i32 %181, i1 false)		; visa id: 337
  call void @llvm.genx.GenISA.LSC2DBlockSetAddrPayloadField.p4i8.i32(i8 addrspace(4)* %Block2D_AddrPayload122, i32 6, i32 %178, i1 false)		; visa id: 338
  call void asm sideeffect "lsc_load_block2d.ugm.ca.ca (M1, 1)  %null:d$1.$2x$3nn flat[$0+(0,0)]", "rw.u,P,P,P"(i8 addrspace(4)* %Block2D_AddrPayload122, i32 16, i32 32, i32 2) #0		; visa id: 339
  br label %.preheader1, !stats.blockFrequency.digits !1220, !stats.blockFrequency.scale !1221		; visa id: 339

.preheader1:                                      ; preds = %186, %185
; BB31 :
  %187 = add nuw nsw i32 %180, 1, !spirv.Decorations !1215		; visa id: 340
  %188 = icmp slt i32 %187, %qot7160		; visa id: 341
  br i1 %188, label %.preheader1._crit_edge, label %.preheader.loopexit, !stats.blockFrequency.digits !1220, !stats.blockFrequency.scale !1206		; visa id: 342

.preheader.loopexit:                              ; preds = %.preheader1
; BB:
  br label %.preheader, !stats.blockFrequency.digits !1220, !stats.blockFrequency.scale !1210

.preheader1._crit_edge:                           ; preds = %.preheader1
; BB:
  br label %179, !stats.blockFrequency.digits !1223, !stats.blockFrequency.scale !1206

.preheader:                                       ; preds = %.preheader1.preheader..preheader_crit_edge, %cond-add-join7163..preheader_crit_edge, %.preheader.loopexit
; BB34 :
  %189 = mul nsw i32 %const_reg_dword1, %const_reg_dword9, !spirv.Decorations !1203		; visa id: 344
  %190 = mul nsw i32 %189, %17, !spirv.Decorations !1203		; visa id: 345
  %191 = mul nsw i32 %18, %const_reg_dword9, !spirv.Decorations !1203		; visa id: 346
  %192 = sext i32 %190 to i64		; visa id: 347
  %193 = shl nsw i64 %192, 2		; visa id: 348
  %194 = add i64 %193, %const_reg_qword33		; visa id: 349
  %195 = select i1 %116, i32 0, i32 %191		; visa id: 350
  %196 = icmp sgt i32 %32, 0		; visa id: 351
  br i1 %196, label %.preheader227.lr.ph, label %.preheader.._crit_edge243_crit_edge, !stats.blockFrequency.digits !1207, !stats.blockFrequency.scale !1208		; visa id: 352

.preheader.._crit_edge243_crit_edge:              ; preds = %.preheader
; BB35 :
  br label %._crit_edge243, !stats.blockFrequency.digits !1209, !stats.blockFrequency.scale !1210		; visa id: 484

.preheader227.lr.ph:                              ; preds = %.preheader
; BB36 :
  %smax265 = call i32 @llvm.smax.i32(i32 %qot7160, i32 1)		; visa id: 486
  %xtraiter266 = and i32 %smax265, 1
  %197 = icmp slt i32 %const_reg_dword8, 33		; visa id: 487
  %unroll_iter269 = and i32 %smax265, 2147483646		; visa id: 488
  %lcmp.mod268.not = icmp eq i32 %xtraiter266, 0		; visa id: 489
  %198 = and i32 %151, 268435328		; visa id: 491
  %199 = or i32 %198, 32		; visa id: 492
  %200 = or i32 %198, 64		; visa id: 493
  %201 = or i32 %198, 96		; visa id: 494
  br label %.preheader227, !stats.blockFrequency.digits !1212, !stats.blockFrequency.scale !1213		; visa id: 626

.preheader227:                                    ; preds = %_ZZN7cutlass4fmha10collective15FMHAFwdMainloopINS0_9XeDefaultILi2EEELb0ELb1ELb0EN4cute8TiledMMAINS5_8MMA_AtomIJNS5_10XE_DPAS_TTILi8EfNS_10bfloat16_tES9_fEEEEENS5_6LayoutINS5_5tupleIJNS5_1CILi16EEENSE_ILi1EEESG_EEENSD_IJSG_NSE_ILi0EEESI_EEEEEKNSD_IJNSC_INSD_IJNSE_ILi8EEESF_NSE_ILi2EEEEEENSD_IJSG_SF_SL_EEEEENSC_INSE_ILi32EEESG_EESR_EEEEESU_Li4ENS5_6TensorINS5_10ViewEngineINS5_8gmem_ptrIPS9_EEEENSC_INSD_IJiiiiEEENSD_IJiSG_iiEEEEEEES14_NSV_IS10_NSC_IS11_NSD_IJSG_iiiEEEEEEES14_S17_vvvvvEclINSD_IJjjEEEEEvRKNSV_IS10_NSC_INSD_IJiiEEENSD_IJiSG_EEEEEEES1G_RKNSV_IS10_NSC_IS1B_NSD_IJSG_iEEEEEEERNS5_14SubgroupTensorINS5_11ArrayEngineIfLm128EEENSC_INSD_IJSL_SM_SM_NSE_ILi4EEEEEENSD_IJSG_SL_SF_SQ_EEEEENSC_INSD_IJSF_NSD_IJSL_NSD_IJSM_SM_EEES1P_EEEEEENSD_IJNS5_11ScaledBasisISG_JLi1EEEENSD_IJNS1W_ISG_JLi0EEEENSD_IJNS1W_ISL_JLi0EEEENS1W_ISF_JLi1EEEEEEENS1W_ISQ_JLi1EEEEEEEEEEEEEERNSV_INS1N_IfLm1EEENSC_ISG_SI_EEEES2B_T_iiiiiiiiiS1G_S1L_ENKUlS2C_iRT0_RT1_RT2_RT3_RT4_RT5_E_clISt17integral_constantIbLb1EENS5_9TiledCopyINS5_9Copy_Atom..preheader227_crit_edge, %.preheader227.lr.ph
; BB37 :
  %.sroa.724.0 = phi <8 x float> [ zeroinitializer, %.preheader227.lr.ph ], [ %1440, %_ZZN7cutlass4fmha10collective15FMHAFwdMainloopINS0_9XeDefaultILi2EEELb0ELb1ELb0EN4cute8TiledMMAINS5_8MMA_AtomIJNS5_10XE_DPAS_TTILi8EfNS_10bfloat16_tES9_fEEEEENS5_6LayoutINS5_5tupleIJNS5_1CILi16EEENSE_ILi1EEESG_EEENSD_IJSG_NSE_ILi0EEESI_EEEEEKNSD_IJNSC_INSD_IJNSE_ILi8EEESF_NSE_ILi2EEEEEENSD_IJSG_SF_SL_EEEEENSC_INSE_ILi32EEESG_EESR_EEEEESU_Li4ENS5_6TensorINS5_10ViewEngineINS5_8gmem_ptrIPS9_EEEENSC_INSD_IJiiiiEEENSD_IJiSG_iiEEEEEEES14_NSV_IS10_NSC_IS11_NSD_IJSG_iiiEEEEEEES14_S17_vvvvvEclINSD_IJjjEEEEEvRKNSV_IS10_NSC_INSD_IJiiEEENSD_IJiSG_EEEEEEES1G_RKNSV_IS10_NSC_IS1B_NSD_IJSG_iEEEEEEERNS5_14SubgroupTensorINS5_11ArrayEngineIfLm128EEENSC_INSD_IJSL_SM_SM_NSE_ILi4EEEEEENSD_IJSG_SL_SF_SQ_EEEEENSC_INSD_IJSF_NSD_IJSL_NSD_IJSM_SM_EEES1P_EEEEEENSD_IJNS5_11ScaledBasisISG_JLi1EEEENSD_IJNS1W_ISG_JLi0EEEENSD_IJNS1W_ISL_JLi0EEEENS1W_ISF_JLi1EEEEEEENS1W_ISQ_JLi1EEEEEEEEEEEEEERNSV_INS1N_IfLm1EEENSC_ISG_SI_EEEES2B_T_iiiiiiiiiS1G_S1L_ENKUlS2C_iRT0_RT1_RT2_RT3_RT4_RT5_E_clISt17integral_constantIbLb1EENS5_9TiledCopyINS5_9Copy_Atom..preheader227_crit_edge ]
  %.sroa.676.0 = phi <8 x float> [ zeroinitializer, %.preheader227.lr.ph ], [ %1441, %_ZZN7cutlass4fmha10collective15FMHAFwdMainloopINS0_9XeDefaultILi2EEELb0ELb1ELb0EN4cute8TiledMMAINS5_8MMA_AtomIJNS5_10XE_DPAS_TTILi8EfNS_10bfloat16_tES9_fEEEEENS5_6LayoutINS5_5tupleIJNS5_1CILi16EEENSE_ILi1EEESG_EEENSD_IJSG_NSE_ILi0EEESI_EEEEEKNSD_IJNSC_INSD_IJNSE_ILi8EEESF_NSE_ILi2EEEEEENSD_IJSG_SF_SL_EEEEENSC_INSE_ILi32EEESG_EESR_EEEEESU_Li4ENS5_6TensorINS5_10ViewEngineINS5_8gmem_ptrIPS9_EEEENSC_INSD_IJiiiiEEENSD_IJiSG_iiEEEEEEES14_NSV_IS10_NSC_IS11_NSD_IJSG_iiiEEEEEEES14_S17_vvvvvEclINSD_IJjjEEEEEvRKNSV_IS10_NSC_INSD_IJiiEEENSD_IJiSG_EEEEEEES1G_RKNSV_IS10_NSC_IS1B_NSD_IJSG_iEEEEEEERNS5_14SubgroupTensorINS5_11ArrayEngineIfLm128EEENSC_INSD_IJSL_SM_SM_NSE_ILi4EEEEEENSD_IJSG_SL_SF_SQ_EEEEENSC_INSD_IJSF_NSD_IJSL_NSD_IJSM_SM_EEES1P_EEEEEENSD_IJNS5_11ScaledBasisISG_JLi1EEEENSD_IJNS1W_ISG_JLi0EEEENSD_IJNS1W_ISL_JLi0EEEENS1W_ISF_JLi1EEEEEEENS1W_ISQ_JLi1EEEEEEEEEEEEEERNSV_INS1N_IfLm1EEENSC_ISG_SI_EEEES2B_T_iiiiiiiiiS1G_S1L_ENKUlS2C_iRT0_RT1_RT2_RT3_RT4_RT5_E_clISt17integral_constantIbLb1EENS5_9TiledCopyINS5_9Copy_Atom..preheader227_crit_edge ]
  %.sroa.628.0 = phi <8 x float> [ zeroinitializer, %.preheader227.lr.ph ], [ %1439, %_ZZN7cutlass4fmha10collective15FMHAFwdMainloopINS0_9XeDefaultILi2EEELb0ELb1ELb0EN4cute8TiledMMAINS5_8MMA_AtomIJNS5_10XE_DPAS_TTILi8EfNS_10bfloat16_tES9_fEEEEENS5_6LayoutINS5_5tupleIJNS5_1CILi16EEENSE_ILi1EEESG_EEENSD_IJSG_NSE_ILi0EEESI_EEEEEKNSD_IJNSC_INSD_IJNSE_ILi8EEESF_NSE_ILi2EEEEEENSD_IJSG_SF_SL_EEEEENSC_INSE_ILi32EEESG_EESR_EEEEESU_Li4ENS5_6TensorINS5_10ViewEngineINS5_8gmem_ptrIPS9_EEEENSC_INSD_IJiiiiEEENSD_IJiSG_iiEEEEEEES14_NSV_IS10_NSC_IS11_NSD_IJSG_iiiEEEEEEES14_S17_vvvvvEclINSD_IJjjEEEEEvRKNSV_IS10_NSC_INSD_IJiiEEENSD_IJiSG_EEEEEEES1G_RKNSV_IS10_NSC_IS1B_NSD_IJSG_iEEEEEEERNS5_14SubgroupTensorINS5_11ArrayEngineIfLm128EEENSC_INSD_IJSL_SM_SM_NSE_ILi4EEEEEENSD_IJSG_SL_SF_SQ_EEEEENSC_INSD_IJSF_NSD_IJSL_NSD_IJSM_SM_EEES1P_EEEEEENSD_IJNS5_11ScaledBasisISG_JLi1EEEENSD_IJNS1W_ISG_JLi0EEEENSD_IJNS1W_ISL_JLi0EEEENS1W_ISF_JLi1EEEEEEENS1W_ISQ_JLi1EEEEEEEEEEEEEERNSV_INS1N_IfLm1EEENSC_ISG_SI_EEEES2B_T_iiiiiiiiiS1G_S1L_ENKUlS2C_iRT0_RT1_RT2_RT3_RT4_RT5_E_clISt17integral_constantIbLb1EENS5_9TiledCopyINS5_9Copy_Atom..preheader227_crit_edge ]
  %.sroa.580.0 = phi <8 x float> [ zeroinitializer, %.preheader227.lr.ph ], [ %1438, %_ZZN7cutlass4fmha10collective15FMHAFwdMainloopINS0_9XeDefaultILi2EEELb0ELb1ELb0EN4cute8TiledMMAINS5_8MMA_AtomIJNS5_10XE_DPAS_TTILi8EfNS_10bfloat16_tES9_fEEEEENS5_6LayoutINS5_5tupleIJNS5_1CILi16EEENSE_ILi1EEESG_EEENSD_IJSG_NSE_ILi0EEESI_EEEEEKNSD_IJNSC_INSD_IJNSE_ILi8EEESF_NSE_ILi2EEEEEENSD_IJSG_SF_SL_EEEEENSC_INSE_ILi32EEESG_EESR_EEEEESU_Li4ENS5_6TensorINS5_10ViewEngineINS5_8gmem_ptrIPS9_EEEENSC_INSD_IJiiiiEEENSD_IJiSG_iiEEEEEEES14_NSV_IS10_NSC_IS11_NSD_IJSG_iiiEEEEEEES14_S17_vvvvvEclINSD_IJjjEEEEEvRKNSV_IS10_NSC_INSD_IJiiEEENSD_IJiSG_EEEEEEES1G_RKNSV_IS10_NSC_IS1B_NSD_IJSG_iEEEEEEERNS5_14SubgroupTensorINS5_11ArrayEngineIfLm128EEENSC_INSD_IJSL_SM_SM_NSE_ILi4EEEEEENSD_IJSG_SL_SF_SQ_EEEEENSC_INSD_IJSF_NSD_IJSL_NSD_IJSM_SM_EEES1P_EEEEEENSD_IJNS5_11ScaledBasisISG_JLi1EEEENSD_IJNS1W_ISG_JLi0EEEENSD_IJNS1W_ISL_JLi0EEEENS1W_ISF_JLi1EEEEEEENS1W_ISQ_JLi1EEEEEEEEEEEEEERNSV_INS1N_IfLm1EEENSC_ISG_SI_EEEES2B_T_iiiiiiiiiS1G_S1L_ENKUlS2C_iRT0_RT1_RT2_RT3_RT4_RT5_E_clISt17integral_constantIbLb1EENS5_9TiledCopyINS5_9Copy_Atom..preheader227_crit_edge ]
  %.sroa.532.0 = phi <8 x float> [ zeroinitializer, %.preheader227.lr.ph ], [ %1302, %_ZZN7cutlass4fmha10collective15FMHAFwdMainloopINS0_9XeDefaultILi2EEELb0ELb1ELb0EN4cute8TiledMMAINS5_8MMA_AtomIJNS5_10XE_DPAS_TTILi8EfNS_10bfloat16_tES9_fEEEEENS5_6LayoutINS5_5tupleIJNS5_1CILi16EEENSE_ILi1EEESG_EEENSD_IJSG_NSE_ILi0EEESI_EEEEEKNSD_IJNSC_INSD_IJNSE_ILi8EEESF_NSE_ILi2EEEEEENSD_IJSG_SF_SL_EEEEENSC_INSE_ILi32EEESG_EESR_EEEEESU_Li4ENS5_6TensorINS5_10ViewEngineINS5_8gmem_ptrIPS9_EEEENSC_INSD_IJiiiiEEENSD_IJiSG_iiEEEEEEES14_NSV_IS10_NSC_IS11_NSD_IJSG_iiiEEEEEEES14_S17_vvvvvEclINSD_IJjjEEEEEvRKNSV_IS10_NSC_INSD_IJiiEEENSD_IJiSG_EEEEEEES1G_RKNSV_IS10_NSC_IS1B_NSD_IJSG_iEEEEEEERNS5_14SubgroupTensorINS5_11ArrayEngineIfLm128EEENSC_INSD_IJSL_SM_SM_NSE_ILi4EEEEEENSD_IJSG_SL_SF_SQ_EEEEENSC_INSD_IJSF_NSD_IJSL_NSD_IJSM_SM_EEES1P_EEEEEENSD_IJNS5_11ScaledBasisISG_JLi1EEEENSD_IJNS1W_ISG_JLi0EEEENSD_IJNS1W_ISL_JLi0EEEENS1W_ISF_JLi1EEEEEEENS1W_ISQ_JLi1EEEEEEEEEEEEEERNSV_INS1N_IfLm1EEENSC_ISG_SI_EEEES2B_T_iiiiiiiiiS1G_S1L_ENKUlS2C_iRT0_RT1_RT2_RT3_RT4_RT5_E_clISt17integral_constantIbLb1EENS5_9TiledCopyINS5_9Copy_Atom..preheader227_crit_edge ]
  %.sroa.484.0 = phi <8 x float> [ zeroinitializer, %.preheader227.lr.ph ], [ %1303, %_ZZN7cutlass4fmha10collective15FMHAFwdMainloopINS0_9XeDefaultILi2EEELb0ELb1ELb0EN4cute8TiledMMAINS5_8MMA_AtomIJNS5_10XE_DPAS_TTILi8EfNS_10bfloat16_tES9_fEEEEENS5_6LayoutINS5_5tupleIJNS5_1CILi16EEENSE_ILi1EEESG_EEENSD_IJSG_NSE_ILi0EEESI_EEEEEKNSD_IJNSC_INSD_IJNSE_ILi8EEESF_NSE_ILi2EEEEEENSD_IJSG_SF_SL_EEEEENSC_INSE_ILi32EEESG_EESR_EEEEESU_Li4ENS5_6TensorINS5_10ViewEngineINS5_8gmem_ptrIPS9_EEEENSC_INSD_IJiiiiEEENSD_IJiSG_iiEEEEEEES14_NSV_IS10_NSC_IS11_NSD_IJSG_iiiEEEEEEES14_S17_vvvvvEclINSD_IJjjEEEEEvRKNSV_IS10_NSC_INSD_IJiiEEENSD_IJiSG_EEEEEEES1G_RKNSV_IS10_NSC_IS1B_NSD_IJSG_iEEEEEEERNS5_14SubgroupTensorINS5_11ArrayEngineIfLm128EEENSC_INSD_IJSL_SM_SM_NSE_ILi4EEEEEENSD_IJSG_SL_SF_SQ_EEEEENSC_INSD_IJSF_NSD_IJSL_NSD_IJSM_SM_EEES1P_EEEEEENSD_IJNS5_11ScaledBasisISG_JLi1EEEENSD_IJNS1W_ISG_JLi0EEEENSD_IJNS1W_ISL_JLi0EEEENS1W_ISF_JLi1EEEEEEENS1W_ISQ_JLi1EEEEEEEEEEEEEERNSV_INS1N_IfLm1EEENSC_ISG_SI_EEEES2B_T_iiiiiiiiiS1G_S1L_ENKUlS2C_iRT0_RT1_RT2_RT3_RT4_RT5_E_clISt17integral_constantIbLb1EENS5_9TiledCopyINS5_9Copy_Atom..preheader227_crit_edge ]
  %.sroa.436.0 = phi <8 x float> [ zeroinitializer, %.preheader227.lr.ph ], [ %1301, %_ZZN7cutlass4fmha10collective15FMHAFwdMainloopINS0_9XeDefaultILi2EEELb0ELb1ELb0EN4cute8TiledMMAINS5_8MMA_AtomIJNS5_10XE_DPAS_TTILi8EfNS_10bfloat16_tES9_fEEEEENS5_6LayoutINS5_5tupleIJNS5_1CILi16EEENSE_ILi1EEESG_EEENSD_IJSG_NSE_ILi0EEESI_EEEEEKNSD_IJNSC_INSD_IJNSE_ILi8EEESF_NSE_ILi2EEEEEENSD_IJSG_SF_SL_EEEEENSC_INSE_ILi32EEESG_EESR_EEEEESU_Li4ENS5_6TensorINS5_10ViewEngineINS5_8gmem_ptrIPS9_EEEENSC_INSD_IJiiiiEEENSD_IJiSG_iiEEEEEEES14_NSV_IS10_NSC_IS11_NSD_IJSG_iiiEEEEEEES14_S17_vvvvvEclINSD_IJjjEEEEEvRKNSV_IS10_NSC_INSD_IJiiEEENSD_IJiSG_EEEEEEES1G_RKNSV_IS10_NSC_IS1B_NSD_IJSG_iEEEEEEERNS5_14SubgroupTensorINS5_11ArrayEngineIfLm128EEENSC_INSD_IJSL_SM_SM_NSE_ILi4EEEEEENSD_IJSG_SL_SF_SQ_EEEEENSC_INSD_IJSF_NSD_IJSL_NSD_IJSM_SM_EEES1P_EEEEEENSD_IJNS5_11ScaledBasisISG_JLi1EEEENSD_IJNS1W_ISG_JLi0EEEENSD_IJNS1W_ISL_JLi0EEEENS1W_ISF_JLi1EEEEEEENS1W_ISQ_JLi1EEEEEEEEEEEEEERNSV_INS1N_IfLm1EEENSC_ISG_SI_EEEES2B_T_iiiiiiiiiS1G_S1L_ENKUlS2C_iRT0_RT1_RT2_RT3_RT4_RT5_E_clISt17integral_constantIbLb1EENS5_9TiledCopyINS5_9Copy_Atom..preheader227_crit_edge ]
  %.sroa.388.0 = phi <8 x float> [ zeroinitializer, %.preheader227.lr.ph ], [ %1300, %_ZZN7cutlass4fmha10collective15FMHAFwdMainloopINS0_9XeDefaultILi2EEELb0ELb1ELb0EN4cute8TiledMMAINS5_8MMA_AtomIJNS5_10XE_DPAS_TTILi8EfNS_10bfloat16_tES9_fEEEEENS5_6LayoutINS5_5tupleIJNS5_1CILi16EEENSE_ILi1EEESG_EEENSD_IJSG_NSE_ILi0EEESI_EEEEEKNSD_IJNSC_INSD_IJNSE_ILi8EEESF_NSE_ILi2EEEEEENSD_IJSG_SF_SL_EEEEENSC_INSE_ILi32EEESG_EESR_EEEEESU_Li4ENS5_6TensorINS5_10ViewEngineINS5_8gmem_ptrIPS9_EEEENSC_INSD_IJiiiiEEENSD_IJiSG_iiEEEEEEES14_NSV_IS10_NSC_IS11_NSD_IJSG_iiiEEEEEEES14_S17_vvvvvEclINSD_IJjjEEEEEvRKNSV_IS10_NSC_INSD_IJiiEEENSD_IJiSG_EEEEEEES1G_RKNSV_IS10_NSC_IS1B_NSD_IJSG_iEEEEEEERNS5_14SubgroupTensorINS5_11ArrayEngineIfLm128EEENSC_INSD_IJSL_SM_SM_NSE_ILi4EEEEEENSD_IJSG_SL_SF_SQ_EEEEENSC_INSD_IJSF_NSD_IJSL_NSD_IJSM_SM_EEES1P_EEEEEENSD_IJNS5_11ScaledBasisISG_JLi1EEEENSD_IJNS1W_ISG_JLi0EEEENSD_IJNS1W_ISL_JLi0EEEENS1W_ISF_JLi1EEEEEEENS1W_ISQ_JLi1EEEEEEEEEEEEEERNSV_INS1N_IfLm1EEENSC_ISG_SI_EEEES2B_T_iiiiiiiiiS1G_S1L_ENKUlS2C_iRT0_RT1_RT2_RT3_RT4_RT5_E_clISt17integral_constantIbLb1EENS5_9TiledCopyINS5_9Copy_Atom..preheader227_crit_edge ]
  %.sroa.340.0 = phi <8 x float> [ zeroinitializer, %.preheader227.lr.ph ], [ %1164, %_ZZN7cutlass4fmha10collective15FMHAFwdMainloopINS0_9XeDefaultILi2EEELb0ELb1ELb0EN4cute8TiledMMAINS5_8MMA_AtomIJNS5_10XE_DPAS_TTILi8EfNS_10bfloat16_tES9_fEEEEENS5_6LayoutINS5_5tupleIJNS5_1CILi16EEENSE_ILi1EEESG_EEENSD_IJSG_NSE_ILi0EEESI_EEEEEKNSD_IJNSC_INSD_IJNSE_ILi8EEESF_NSE_ILi2EEEEEENSD_IJSG_SF_SL_EEEEENSC_INSE_ILi32EEESG_EESR_EEEEESU_Li4ENS5_6TensorINS5_10ViewEngineINS5_8gmem_ptrIPS9_EEEENSC_INSD_IJiiiiEEENSD_IJiSG_iiEEEEEEES14_NSV_IS10_NSC_IS11_NSD_IJSG_iiiEEEEEEES14_S17_vvvvvEclINSD_IJjjEEEEEvRKNSV_IS10_NSC_INSD_IJiiEEENSD_IJiSG_EEEEEEES1G_RKNSV_IS10_NSC_IS1B_NSD_IJSG_iEEEEEEERNS5_14SubgroupTensorINS5_11ArrayEngineIfLm128EEENSC_INSD_IJSL_SM_SM_NSE_ILi4EEEEEENSD_IJSG_SL_SF_SQ_EEEEENSC_INSD_IJSF_NSD_IJSL_NSD_IJSM_SM_EEES1P_EEEEEENSD_IJNS5_11ScaledBasisISG_JLi1EEEENSD_IJNS1W_ISG_JLi0EEEENSD_IJNS1W_ISL_JLi0EEEENS1W_ISF_JLi1EEEEEEENS1W_ISQ_JLi1EEEEEEEEEEEEEERNSV_INS1N_IfLm1EEENSC_ISG_SI_EEEES2B_T_iiiiiiiiiS1G_S1L_ENKUlS2C_iRT0_RT1_RT2_RT3_RT4_RT5_E_clISt17integral_constantIbLb1EENS5_9TiledCopyINS5_9Copy_Atom..preheader227_crit_edge ]
  %.sroa.292.0 = phi <8 x float> [ zeroinitializer, %.preheader227.lr.ph ], [ %1165, %_ZZN7cutlass4fmha10collective15FMHAFwdMainloopINS0_9XeDefaultILi2EEELb0ELb1ELb0EN4cute8TiledMMAINS5_8MMA_AtomIJNS5_10XE_DPAS_TTILi8EfNS_10bfloat16_tES9_fEEEEENS5_6LayoutINS5_5tupleIJNS5_1CILi16EEENSE_ILi1EEESG_EEENSD_IJSG_NSE_ILi0EEESI_EEEEEKNSD_IJNSC_INSD_IJNSE_ILi8EEESF_NSE_ILi2EEEEEENSD_IJSG_SF_SL_EEEEENSC_INSE_ILi32EEESG_EESR_EEEEESU_Li4ENS5_6TensorINS5_10ViewEngineINS5_8gmem_ptrIPS9_EEEENSC_INSD_IJiiiiEEENSD_IJiSG_iiEEEEEEES14_NSV_IS10_NSC_IS11_NSD_IJSG_iiiEEEEEEES14_S17_vvvvvEclINSD_IJjjEEEEEvRKNSV_IS10_NSC_INSD_IJiiEEENSD_IJiSG_EEEEEEES1G_RKNSV_IS10_NSC_IS1B_NSD_IJSG_iEEEEEEERNS5_14SubgroupTensorINS5_11ArrayEngineIfLm128EEENSC_INSD_IJSL_SM_SM_NSE_ILi4EEEEEENSD_IJSG_SL_SF_SQ_EEEEENSC_INSD_IJSF_NSD_IJSL_NSD_IJSM_SM_EEES1P_EEEEEENSD_IJNS5_11ScaledBasisISG_JLi1EEEENSD_IJNS1W_ISG_JLi0EEEENSD_IJNS1W_ISL_JLi0EEEENS1W_ISF_JLi1EEEEEEENS1W_ISQ_JLi1EEEEEEEEEEEEEERNSV_INS1N_IfLm1EEENSC_ISG_SI_EEEES2B_T_iiiiiiiiiS1G_S1L_ENKUlS2C_iRT0_RT1_RT2_RT3_RT4_RT5_E_clISt17integral_constantIbLb1EENS5_9TiledCopyINS5_9Copy_Atom..preheader227_crit_edge ]
  %.sroa.244.0 = phi <8 x float> [ zeroinitializer, %.preheader227.lr.ph ], [ %1163, %_ZZN7cutlass4fmha10collective15FMHAFwdMainloopINS0_9XeDefaultILi2EEELb0ELb1ELb0EN4cute8TiledMMAINS5_8MMA_AtomIJNS5_10XE_DPAS_TTILi8EfNS_10bfloat16_tES9_fEEEEENS5_6LayoutINS5_5tupleIJNS5_1CILi16EEENSE_ILi1EEESG_EEENSD_IJSG_NSE_ILi0EEESI_EEEEEKNSD_IJNSC_INSD_IJNSE_ILi8EEESF_NSE_ILi2EEEEEENSD_IJSG_SF_SL_EEEEENSC_INSE_ILi32EEESG_EESR_EEEEESU_Li4ENS5_6TensorINS5_10ViewEngineINS5_8gmem_ptrIPS9_EEEENSC_INSD_IJiiiiEEENSD_IJiSG_iiEEEEEEES14_NSV_IS10_NSC_IS11_NSD_IJSG_iiiEEEEEEES14_S17_vvvvvEclINSD_IJjjEEEEEvRKNSV_IS10_NSC_INSD_IJiiEEENSD_IJiSG_EEEEEEES1G_RKNSV_IS10_NSC_IS1B_NSD_IJSG_iEEEEEEERNS5_14SubgroupTensorINS5_11ArrayEngineIfLm128EEENSC_INSD_IJSL_SM_SM_NSE_ILi4EEEEEENSD_IJSG_SL_SF_SQ_EEEEENSC_INSD_IJSF_NSD_IJSL_NSD_IJSM_SM_EEES1P_EEEEEENSD_IJNS5_11ScaledBasisISG_JLi1EEEENSD_IJNS1W_ISG_JLi0EEEENSD_IJNS1W_ISL_JLi0EEEENS1W_ISF_JLi1EEEEEEENS1W_ISQ_JLi1EEEEEEEEEEEEEERNSV_INS1N_IfLm1EEENSC_ISG_SI_EEEES2B_T_iiiiiiiiiS1G_S1L_ENKUlS2C_iRT0_RT1_RT2_RT3_RT4_RT5_E_clISt17integral_constantIbLb1EENS5_9TiledCopyINS5_9Copy_Atom..preheader227_crit_edge ]
  %.sroa.196.0 = phi <8 x float> [ zeroinitializer, %.preheader227.lr.ph ], [ %1162, %_ZZN7cutlass4fmha10collective15FMHAFwdMainloopINS0_9XeDefaultILi2EEELb0ELb1ELb0EN4cute8TiledMMAINS5_8MMA_AtomIJNS5_10XE_DPAS_TTILi8EfNS_10bfloat16_tES9_fEEEEENS5_6LayoutINS5_5tupleIJNS5_1CILi16EEENSE_ILi1EEESG_EEENSD_IJSG_NSE_ILi0EEESI_EEEEEKNSD_IJNSC_INSD_IJNSE_ILi8EEESF_NSE_ILi2EEEEEENSD_IJSG_SF_SL_EEEEENSC_INSE_ILi32EEESG_EESR_EEEEESU_Li4ENS5_6TensorINS5_10ViewEngineINS5_8gmem_ptrIPS9_EEEENSC_INSD_IJiiiiEEENSD_IJiSG_iiEEEEEEES14_NSV_IS10_NSC_IS11_NSD_IJSG_iiiEEEEEEES14_S17_vvvvvEclINSD_IJjjEEEEEvRKNSV_IS10_NSC_INSD_IJiiEEENSD_IJiSG_EEEEEEES1G_RKNSV_IS10_NSC_IS1B_NSD_IJSG_iEEEEEEERNS5_14SubgroupTensorINS5_11ArrayEngineIfLm128EEENSC_INSD_IJSL_SM_SM_NSE_ILi4EEEEEENSD_IJSG_SL_SF_SQ_EEEEENSC_INSD_IJSF_NSD_IJSL_NSD_IJSM_SM_EEES1P_EEEEEENSD_IJNS5_11ScaledBasisISG_JLi1EEEENSD_IJNS1W_ISG_JLi0EEEENSD_IJNS1W_ISL_JLi0EEEENS1W_ISF_JLi1EEEEEEENS1W_ISQ_JLi1EEEEEEEEEEEEEERNSV_INS1N_IfLm1EEENSC_ISG_SI_EEEES2B_T_iiiiiiiiiS1G_S1L_ENKUlS2C_iRT0_RT1_RT2_RT3_RT4_RT5_E_clISt17integral_constantIbLb1EENS5_9TiledCopyINS5_9Copy_Atom..preheader227_crit_edge ]
  %.sroa.148.0 = phi <8 x float> [ zeroinitializer, %.preheader227.lr.ph ], [ %1026, %_ZZN7cutlass4fmha10collective15FMHAFwdMainloopINS0_9XeDefaultILi2EEELb0ELb1ELb0EN4cute8TiledMMAINS5_8MMA_AtomIJNS5_10XE_DPAS_TTILi8EfNS_10bfloat16_tES9_fEEEEENS5_6LayoutINS5_5tupleIJNS5_1CILi16EEENSE_ILi1EEESG_EEENSD_IJSG_NSE_ILi0EEESI_EEEEEKNSD_IJNSC_INSD_IJNSE_ILi8EEESF_NSE_ILi2EEEEEENSD_IJSG_SF_SL_EEEEENSC_INSE_ILi32EEESG_EESR_EEEEESU_Li4ENS5_6TensorINS5_10ViewEngineINS5_8gmem_ptrIPS9_EEEENSC_INSD_IJiiiiEEENSD_IJiSG_iiEEEEEEES14_NSV_IS10_NSC_IS11_NSD_IJSG_iiiEEEEEEES14_S17_vvvvvEclINSD_IJjjEEEEEvRKNSV_IS10_NSC_INSD_IJiiEEENSD_IJiSG_EEEEEEES1G_RKNSV_IS10_NSC_IS1B_NSD_IJSG_iEEEEEEERNS5_14SubgroupTensorINS5_11ArrayEngineIfLm128EEENSC_INSD_IJSL_SM_SM_NSE_ILi4EEEEEENSD_IJSG_SL_SF_SQ_EEEEENSC_INSD_IJSF_NSD_IJSL_NSD_IJSM_SM_EEES1P_EEEEEENSD_IJNS5_11ScaledBasisISG_JLi1EEEENSD_IJNS1W_ISG_JLi0EEEENSD_IJNS1W_ISL_JLi0EEEENS1W_ISF_JLi1EEEEEEENS1W_ISQ_JLi1EEEEEEEEEEEEEERNSV_INS1N_IfLm1EEENSC_ISG_SI_EEEES2B_T_iiiiiiiiiS1G_S1L_ENKUlS2C_iRT0_RT1_RT2_RT3_RT4_RT5_E_clISt17integral_constantIbLb1EENS5_9TiledCopyINS5_9Copy_Atom..preheader227_crit_edge ]
  %.sroa.100.0 = phi <8 x float> [ zeroinitializer, %.preheader227.lr.ph ], [ %1027, %_ZZN7cutlass4fmha10collective15FMHAFwdMainloopINS0_9XeDefaultILi2EEELb0ELb1ELb0EN4cute8TiledMMAINS5_8MMA_AtomIJNS5_10XE_DPAS_TTILi8EfNS_10bfloat16_tES9_fEEEEENS5_6LayoutINS5_5tupleIJNS5_1CILi16EEENSE_ILi1EEESG_EEENSD_IJSG_NSE_ILi0EEESI_EEEEEKNSD_IJNSC_INSD_IJNSE_ILi8EEESF_NSE_ILi2EEEEEENSD_IJSG_SF_SL_EEEEENSC_INSE_ILi32EEESG_EESR_EEEEESU_Li4ENS5_6TensorINS5_10ViewEngineINS5_8gmem_ptrIPS9_EEEENSC_INSD_IJiiiiEEENSD_IJiSG_iiEEEEEEES14_NSV_IS10_NSC_IS11_NSD_IJSG_iiiEEEEEEES14_S17_vvvvvEclINSD_IJjjEEEEEvRKNSV_IS10_NSC_INSD_IJiiEEENSD_IJiSG_EEEEEEES1G_RKNSV_IS10_NSC_IS1B_NSD_IJSG_iEEEEEEERNS5_14SubgroupTensorINS5_11ArrayEngineIfLm128EEENSC_INSD_IJSL_SM_SM_NSE_ILi4EEEEEENSD_IJSG_SL_SF_SQ_EEEEENSC_INSD_IJSF_NSD_IJSL_NSD_IJSM_SM_EEES1P_EEEEEENSD_IJNS5_11ScaledBasisISG_JLi1EEEENSD_IJNS1W_ISG_JLi0EEEENSD_IJNS1W_ISL_JLi0EEEENS1W_ISF_JLi1EEEEEEENS1W_ISQ_JLi1EEEEEEEEEEEEEERNSV_INS1N_IfLm1EEENSC_ISG_SI_EEEES2B_T_iiiiiiiiiS1G_S1L_ENKUlS2C_iRT0_RT1_RT2_RT3_RT4_RT5_E_clISt17integral_constantIbLb1EENS5_9TiledCopyINS5_9Copy_Atom..preheader227_crit_edge ]
  %.sroa.52.0 = phi <8 x float> [ zeroinitializer, %.preheader227.lr.ph ], [ %1025, %_ZZN7cutlass4fmha10collective15FMHAFwdMainloopINS0_9XeDefaultILi2EEELb0ELb1ELb0EN4cute8TiledMMAINS5_8MMA_AtomIJNS5_10XE_DPAS_TTILi8EfNS_10bfloat16_tES9_fEEEEENS5_6LayoutINS5_5tupleIJNS5_1CILi16EEENSE_ILi1EEESG_EEENSD_IJSG_NSE_ILi0EEESI_EEEEEKNSD_IJNSC_INSD_IJNSE_ILi8EEESF_NSE_ILi2EEEEEENSD_IJSG_SF_SL_EEEEENSC_INSE_ILi32EEESG_EESR_EEEEESU_Li4ENS5_6TensorINS5_10ViewEngineINS5_8gmem_ptrIPS9_EEEENSC_INSD_IJiiiiEEENSD_IJiSG_iiEEEEEEES14_NSV_IS10_NSC_IS11_NSD_IJSG_iiiEEEEEEES14_S17_vvvvvEclINSD_IJjjEEEEEvRKNSV_IS10_NSC_INSD_IJiiEEENSD_IJiSG_EEEEEEES1G_RKNSV_IS10_NSC_IS1B_NSD_IJSG_iEEEEEEERNS5_14SubgroupTensorINS5_11ArrayEngineIfLm128EEENSC_INSD_IJSL_SM_SM_NSE_ILi4EEEEEENSD_IJSG_SL_SF_SQ_EEEEENSC_INSD_IJSF_NSD_IJSL_NSD_IJSM_SM_EEES1P_EEEEEENSD_IJNS5_11ScaledBasisISG_JLi1EEEENSD_IJNS1W_ISG_JLi0EEEENSD_IJNS1W_ISL_JLi0EEEENS1W_ISF_JLi1EEEEEEENS1W_ISQ_JLi1EEEEEEEEEEEEEERNSV_INS1N_IfLm1EEENSC_ISG_SI_EEEES2B_T_iiiiiiiiiS1G_S1L_ENKUlS2C_iRT0_RT1_RT2_RT3_RT4_RT5_E_clISt17integral_constantIbLb1EENS5_9TiledCopyINS5_9Copy_Atom..preheader227_crit_edge ]
  %.sroa.0.0 = phi <8 x float> [ zeroinitializer, %.preheader227.lr.ph ], [ %1024, %_ZZN7cutlass4fmha10collective15FMHAFwdMainloopINS0_9XeDefaultILi2EEELb0ELb1ELb0EN4cute8TiledMMAINS5_8MMA_AtomIJNS5_10XE_DPAS_TTILi8EfNS_10bfloat16_tES9_fEEEEENS5_6LayoutINS5_5tupleIJNS5_1CILi16EEENSE_ILi1EEESG_EEENSD_IJSG_NSE_ILi0EEESI_EEEEEKNSD_IJNSC_INSD_IJNSE_ILi8EEESF_NSE_ILi2EEEEEENSD_IJSG_SF_SL_EEEEENSC_INSE_ILi32EEESG_EESR_EEEEESU_Li4ENS5_6TensorINS5_10ViewEngineINS5_8gmem_ptrIPS9_EEEENSC_INSD_IJiiiiEEENSD_IJiSG_iiEEEEEEES14_NSV_IS10_NSC_IS11_NSD_IJSG_iiiEEEEEEES14_S17_vvvvvEclINSD_IJjjEEEEEvRKNSV_IS10_NSC_INSD_IJiiEEENSD_IJiSG_EEEEEEES1G_RKNSV_IS10_NSC_IS1B_NSD_IJSG_iEEEEEEERNS5_14SubgroupTensorINS5_11ArrayEngineIfLm128EEENSC_INSD_IJSL_SM_SM_NSE_ILi4EEEEEENSD_IJSG_SL_SF_SQ_EEEEENSC_INSD_IJSF_NSD_IJSL_NSD_IJSM_SM_EEES1P_EEEEEENSD_IJNS5_11ScaledBasisISG_JLi1EEEENSD_IJNS1W_ISG_JLi0EEEENSD_IJNS1W_ISL_JLi0EEEENS1W_ISF_JLi1EEEEEEENS1W_ISQ_JLi1EEEEEEEEEEEEEERNSV_INS1N_IfLm1EEENSC_ISG_SI_EEEES2B_T_iiiiiiiiiS1G_S1L_ENKUlS2C_iRT0_RT1_RT2_RT3_RT4_RT5_E_clISt17integral_constantIbLb1EENS5_9TiledCopyINS5_9Copy_Atom..preheader227_crit_edge ]
  %202 = phi i32 [ 0, %.preheader227.lr.ph ], [ %1459, %_ZZN7cutlass4fmha10collective15FMHAFwdMainloopINS0_9XeDefaultILi2EEELb0ELb1ELb0EN4cute8TiledMMAINS5_8MMA_AtomIJNS5_10XE_DPAS_TTILi8EfNS_10bfloat16_tES9_fEEEEENS5_6LayoutINS5_5tupleIJNS5_1CILi16EEENSE_ILi1EEESG_EEENSD_IJSG_NSE_ILi0EEESI_EEEEEKNSD_IJNSC_INSD_IJNSE_ILi8EEESF_NSE_ILi2EEEEEENSD_IJSG_SF_SL_EEEEENSC_INSE_ILi32EEESG_EESR_EEEEESU_Li4ENS5_6TensorINS5_10ViewEngineINS5_8gmem_ptrIPS9_EEEENSC_INSD_IJiiiiEEENSD_IJiSG_iiEEEEEEES14_NSV_IS10_NSC_IS11_NSD_IJSG_iiiEEEEEEES14_S17_vvvvvEclINSD_IJjjEEEEEvRKNSV_IS10_NSC_INSD_IJiiEEENSD_IJiSG_EEEEEEES1G_RKNSV_IS10_NSC_IS1B_NSD_IJSG_iEEEEEEERNS5_14SubgroupTensorINS5_11ArrayEngineIfLm128EEENSC_INSD_IJSL_SM_SM_NSE_ILi4EEEEEENSD_IJSG_SL_SF_SQ_EEEEENSC_INSD_IJSF_NSD_IJSL_NSD_IJSM_SM_EEES1P_EEEEEENSD_IJNS5_11ScaledBasisISG_JLi1EEEENSD_IJNS1W_ISG_JLi0EEEENSD_IJNS1W_ISL_JLi0EEEENS1W_ISF_JLi1EEEEEEENS1W_ISQ_JLi1EEEEEEEEEEEEEERNSV_INS1N_IfLm1EEENSC_ISG_SI_EEEES2B_T_iiiiiiiiiS1G_S1L_ENKUlS2C_iRT0_RT1_RT2_RT3_RT4_RT5_E_clISt17integral_constantIbLb1EENS5_9TiledCopyINS5_9Copy_Atom..preheader227_crit_edge ]
  %.sroa.0214.1242 = phi float [ 0xC7EFFFFFE0000000, %.preheader227.lr.ph ], [ %515, %_ZZN7cutlass4fmha10collective15FMHAFwdMainloopINS0_9XeDefaultILi2EEELb0ELb1ELb0EN4cute8TiledMMAINS5_8MMA_AtomIJNS5_10XE_DPAS_TTILi8EfNS_10bfloat16_tES9_fEEEEENS5_6LayoutINS5_5tupleIJNS5_1CILi16EEENSE_ILi1EEESG_EEENSD_IJSG_NSE_ILi0EEESI_EEEEEKNSD_IJNSC_INSD_IJNSE_ILi8EEESF_NSE_ILi2EEEEEENSD_IJSG_SF_SL_EEEEENSC_INSE_ILi32EEESG_EESR_EEEEESU_Li4ENS5_6TensorINS5_10ViewEngineINS5_8gmem_ptrIPS9_EEEENSC_INSD_IJiiiiEEENSD_IJiSG_iiEEEEEEES14_NSV_IS10_NSC_IS11_NSD_IJSG_iiiEEEEEEES14_S17_vvvvvEclINSD_IJjjEEEEEvRKNSV_IS10_NSC_INSD_IJiiEEENSD_IJiSG_EEEEEEES1G_RKNSV_IS10_NSC_IS1B_NSD_IJSG_iEEEEEEERNS5_14SubgroupTensorINS5_11ArrayEngineIfLm128EEENSC_INSD_IJSL_SM_SM_NSE_ILi4EEEEEENSD_IJSG_SL_SF_SQ_EEEEENSC_INSD_IJSF_NSD_IJSL_NSD_IJSM_SM_EEES1P_EEEEEENSD_IJNS5_11ScaledBasisISG_JLi1EEEENSD_IJNS1W_ISG_JLi0EEEENSD_IJNS1W_ISL_JLi0EEEENS1W_ISF_JLi1EEEEEEENS1W_ISQ_JLi1EEEEEEEEEEEEEERNSV_INS1N_IfLm1EEENSC_ISG_SI_EEEES2B_T_iiiiiiiiiS1G_S1L_ENKUlS2C_iRT0_RT1_RT2_RT3_RT4_RT5_E_clISt17integral_constantIbLb1EENS5_9TiledCopyINS5_9Copy_Atom..preheader227_crit_edge ]
  %.sroa.0205.1241 = phi float [ 0.000000e+00, %.preheader227.lr.ph ], [ %1442, %_ZZN7cutlass4fmha10collective15FMHAFwdMainloopINS0_9XeDefaultILi2EEELb0ELb1ELb0EN4cute8TiledMMAINS5_8MMA_AtomIJNS5_10XE_DPAS_TTILi8EfNS_10bfloat16_tES9_fEEEEENS5_6LayoutINS5_5tupleIJNS5_1CILi16EEENSE_ILi1EEESG_EEENSD_IJSG_NSE_ILi0EEESI_EEEEEKNSD_IJNSC_INSD_IJNSE_ILi8EEESF_NSE_ILi2EEEEEENSD_IJSG_SF_SL_EEEEENSC_INSE_ILi32EEESG_EESR_EEEEESU_Li4ENS5_6TensorINS5_10ViewEngineINS5_8gmem_ptrIPS9_EEEENSC_INSD_IJiiiiEEENSD_IJiSG_iiEEEEEEES14_NSV_IS10_NSC_IS11_NSD_IJSG_iiiEEEEEEES14_S17_vvvvvEclINSD_IJjjEEEEEvRKNSV_IS10_NSC_INSD_IJiiEEENSD_IJiSG_EEEEEEES1G_RKNSV_IS10_NSC_IS1B_NSD_IJSG_iEEEEEEERNS5_14SubgroupTensorINS5_11ArrayEngineIfLm128EEENSC_INSD_IJSL_SM_SM_NSE_ILi4EEEEEENSD_IJSG_SL_SF_SQ_EEEEENSC_INSD_IJSF_NSD_IJSL_NSD_IJSM_SM_EEES1P_EEEEEENSD_IJNS5_11ScaledBasisISG_JLi1EEEENSD_IJNS1W_ISG_JLi0EEEENSD_IJNS1W_ISL_JLi0EEEENS1W_ISF_JLi1EEEEEEENS1W_ISQ_JLi1EEEEEEEEEEEEEERNSV_INS1N_IfLm1EEENSC_ISG_SI_EEEES2B_T_iiiiiiiiiS1G_S1L_ENKUlS2C_iRT0_RT1_RT2_RT3_RT4_RT5_E_clISt17integral_constantIbLb1EENS5_9TiledCopyINS5_9Copy_Atom..preheader227_crit_edge ]
  %203 = shl nsw i32 %202, 5, !spirv.Decorations !1203		; visa id: 627
  br i1 %167, label %.lr.ph237, label %.preheader227..preheader3.i.preheader_crit_edge, !stats.blockFrequency.digits !1217, !stats.blockFrequency.scale !1218		; visa id: 628

.preheader227..preheader3.i.preheader_crit_edge:  ; preds = %.preheader227
; BB38 :
  br label %.preheader3.i.preheader, !stats.blockFrequency.digits !1224, !stats.blockFrequency.scale !1206		; visa id: 662

.lr.ph237:                                        ; preds = %.preheader227
; BB39 :
  br i1 %197, label %.lr.ph237..epil.preheader264_crit_edge, label %.lr.ph237.new, !stats.blockFrequency.digits !1225, !stats.blockFrequency.scale !1206		; visa id: 664

.lr.ph237..epil.preheader264_crit_edge:           ; preds = %.lr.ph237
; BB40 :
  br label %.epil.preheader264, !stats.blockFrequency.digits !1222, !stats.blockFrequency.scale !1221		; visa id: 699

.lr.ph237.new:                                    ; preds = %.lr.ph237
; BB41 :
  %204 = add i32 %203, 16		; visa id: 701
  br label %.preheader224, !stats.blockFrequency.digits !1222, !stats.blockFrequency.scale !1221		; visa id: 736

.preheader224:                                    ; preds = %.preheader224..preheader224_crit_edge, %.lr.ph237.new
; BB42 :
  %.sroa.507.5 = phi <8 x float> [ zeroinitializer, %.lr.ph237.new ], [ %364, %.preheader224..preheader224_crit_edge ]
  %.sroa.339.5 = phi <8 x float> [ zeroinitializer, %.lr.ph237.new ], [ %365, %.preheader224..preheader224_crit_edge ]
  %.sroa.171.5 = phi <8 x float> [ zeroinitializer, %.lr.ph237.new ], [ %363, %.preheader224..preheader224_crit_edge ]
  %.sroa.03228.5 = phi <8 x float> [ zeroinitializer, %.lr.ph237.new ], [ %362, %.preheader224..preheader224_crit_edge ]
  %205 = phi i32 [ 0, %.lr.ph237.new ], [ %366, %.preheader224..preheader224_crit_edge ]
  %niter270 = phi i32 [ 0, %.lr.ph237.new ], [ %niter270.next.1, %.preheader224..preheader224_crit_edge ]
  %206 = shl i32 %205, 5, !spirv.Decorations !1203		; visa id: 737
  call void @llvm.genx.GenISA.LSC2DBlockSetAddrPayloadField.p4i8.i32(i8 addrspace(4)* %Block2D_AddrPayload, i32 5, i32 %206, i1 false)		; visa id: 738
  call void @llvm.genx.GenISA.LSC2DBlockSetAddrPayloadField.p4i8.i32(i8 addrspace(4)* %Block2D_AddrPayload, i32 6, i32 %161, i1 false)		; visa id: 739
  %207 = call <32 x i16> asm "lsc_load_block2d.ugm (M1, 1)  $0:d$2.$3x$4x$5nn flat[$1+(0,0)]", "=rw,rw.u,P,P,P,P"(i8 addrspace(4)* %Block2D_AddrPayload, i32 16, i32 2, i32 16, i32 16) #0		; visa id: 740
  %208 = lshr exact i32 %206, 1		; visa id: 740
  call void @llvm.genx.GenISA.LSC2DBlockSetAddrPayloadField.p4i8.i32(i8 addrspace(4)* %Block2D_AddrPayload117, i32 5, i32 %208, i1 false)		; visa id: 741
  call void @llvm.genx.GenISA.LSC2DBlockSetAddrPayloadField.p4i8.i32(i8 addrspace(4)* %Block2D_AddrPayload117, i32 6, i32 %203, i1 false)		; visa id: 742
  %209 = call <16 x i16> asm "lsc_load_block2d.ugm (M1, 1)  $0:d$2.$3x$4tn flat[$1+(0,0)]", "=rw,rw.u,P,P,P"(i8 addrspace(4)* %Block2D_AddrPayload117, i32 32, i32 8, i32 16) #0		; visa id: 743
  call void @llvm.genx.GenISA.LSC2DBlockSetAddrPayloadField.p4i8.i32(i8 addrspace(4)* %Block2D_AddrPayload117, i32 5, i32 %208, i1 false)		; visa id: 743
  call void @llvm.genx.GenISA.LSC2DBlockSetAddrPayloadField.p4i8.i32(i8 addrspace(4)* %Block2D_AddrPayload117, i32 6, i32 %204, i1 false)		; visa id: 744
  %210 = call <16 x i16> asm "lsc_load_block2d.ugm (M1, 1)  $0:d$2.$3x$4tn flat[$1+(0,0)]", "=rw,rw.u,P,P,P"(i8 addrspace(4)* %Block2D_AddrPayload117, i32 32, i32 8, i32 16) #0		; visa id: 745
  %211 = or i32 %208, 8		; visa id: 745
  call void @llvm.genx.GenISA.LSC2DBlockSetAddrPayloadField.p4i8.i32(i8 addrspace(4)* %Block2D_AddrPayload117, i32 5, i32 %211, i1 false)		; visa id: 746
  call void @llvm.genx.GenISA.LSC2DBlockSetAddrPayloadField.p4i8.i32(i8 addrspace(4)* %Block2D_AddrPayload117, i32 6, i32 %203, i1 false)		; visa id: 747
  %212 = call <16 x i16> asm "lsc_load_block2d.ugm (M1, 1)  $0:d$2.$3x$4tn flat[$1+(0,0)]", "=rw,rw.u,P,P,P"(i8 addrspace(4)* %Block2D_AddrPayload117, i32 32, i32 8, i32 16) #0		; visa id: 748
  call void @llvm.genx.GenISA.LSC2DBlockSetAddrPayloadField.p4i8.i32(i8 addrspace(4)* %Block2D_AddrPayload117, i32 5, i32 %211, i1 false)		; visa id: 748
  call void @llvm.genx.GenISA.LSC2DBlockSetAddrPayloadField.p4i8.i32(i8 addrspace(4)* %Block2D_AddrPayload117, i32 6, i32 %204, i1 false)		; visa id: 749
  %213 = call <16 x i16> asm "lsc_load_block2d.ugm (M1, 1)  $0:d$2.$3x$4tn flat[$1+(0,0)]", "=rw,rw.u,P,P,P"(i8 addrspace(4)* %Block2D_AddrPayload117, i32 32, i32 8, i32 16) #0		; visa id: 750
  %214 = extractelement <32 x i16> %207, i32 0		; visa id: 750
  %215 = insertelement <8 x i16> undef, i16 %214, i32 0		; visa id: 750
  %216 = extractelement <32 x i16> %207, i32 1		; visa id: 750
  %217 = insertelement <8 x i16> %215, i16 %216, i32 1		; visa id: 750
  %218 = extractelement <32 x i16> %207, i32 2		; visa id: 750
  %219 = insertelement <8 x i16> %217, i16 %218, i32 2		; visa id: 750
  %220 = extractelement <32 x i16> %207, i32 3		; visa id: 750
  %221 = insertelement <8 x i16> %219, i16 %220, i32 3		; visa id: 750
  %222 = extractelement <32 x i16> %207, i32 4		; visa id: 750
  %223 = insertelement <8 x i16> %221, i16 %222, i32 4		; visa id: 750
  %224 = extractelement <32 x i16> %207, i32 5		; visa id: 750
  %225 = insertelement <8 x i16> %223, i16 %224, i32 5		; visa id: 750
  %226 = extractelement <32 x i16> %207, i32 6		; visa id: 750
  %227 = insertelement <8 x i16> %225, i16 %226, i32 6		; visa id: 750
  %228 = extractelement <32 x i16> %207, i32 7		; visa id: 750
  %229 = insertelement <8 x i16> %227, i16 %228, i32 7		; visa id: 750
  %230 = extractelement <32 x i16> %207, i32 8		; visa id: 750
  %231 = insertelement <8 x i16> undef, i16 %230, i32 0		; visa id: 750
  %232 = extractelement <32 x i16> %207, i32 9		; visa id: 750
  %233 = insertelement <8 x i16> %231, i16 %232, i32 1		; visa id: 750
  %234 = extractelement <32 x i16> %207, i32 10		; visa id: 750
  %235 = insertelement <8 x i16> %233, i16 %234, i32 2		; visa id: 750
  %236 = extractelement <32 x i16> %207, i32 11		; visa id: 750
  %237 = insertelement <8 x i16> %235, i16 %236, i32 3		; visa id: 750
  %238 = extractelement <32 x i16> %207, i32 12		; visa id: 750
  %239 = insertelement <8 x i16> %237, i16 %238, i32 4		; visa id: 750
  %240 = extractelement <32 x i16> %207, i32 13		; visa id: 750
  %241 = insertelement <8 x i16> %239, i16 %240, i32 5		; visa id: 750
  %242 = extractelement <32 x i16> %207, i32 14		; visa id: 750
  %243 = insertelement <8 x i16> %241, i16 %242, i32 6		; visa id: 750
  %244 = extractelement <32 x i16> %207, i32 15		; visa id: 750
  %245 = insertelement <8 x i16> %243, i16 %244, i32 7		; visa id: 750
  %246 = extractelement <32 x i16> %207, i32 16		; visa id: 750
  %247 = insertelement <8 x i16> undef, i16 %246, i32 0		; visa id: 750
  %248 = extractelement <32 x i16> %207, i32 17		; visa id: 750
  %249 = insertelement <8 x i16> %247, i16 %248, i32 1		; visa id: 750
  %250 = extractelement <32 x i16> %207, i32 18		; visa id: 750
  %251 = insertelement <8 x i16> %249, i16 %250, i32 2		; visa id: 750
  %252 = extractelement <32 x i16> %207, i32 19		; visa id: 750
  %253 = insertelement <8 x i16> %251, i16 %252, i32 3		; visa id: 750
  %254 = extractelement <32 x i16> %207, i32 20		; visa id: 750
  %255 = insertelement <8 x i16> %253, i16 %254, i32 4		; visa id: 750
  %256 = extractelement <32 x i16> %207, i32 21		; visa id: 750
  %257 = insertelement <8 x i16> %255, i16 %256, i32 5		; visa id: 750
  %258 = extractelement <32 x i16> %207, i32 22		; visa id: 750
  %259 = insertelement <8 x i16> %257, i16 %258, i32 6		; visa id: 750
  %260 = extractelement <32 x i16> %207, i32 23		; visa id: 750
  %261 = insertelement <8 x i16> %259, i16 %260, i32 7		; visa id: 750
  %262 = extractelement <32 x i16> %207, i32 24		; visa id: 750
  %263 = insertelement <8 x i16> undef, i16 %262, i32 0		; visa id: 750
  %264 = extractelement <32 x i16> %207, i32 25		; visa id: 750
  %265 = insertelement <8 x i16> %263, i16 %264, i32 1		; visa id: 750
  %266 = extractelement <32 x i16> %207, i32 26		; visa id: 750
  %267 = insertelement <8 x i16> %265, i16 %266, i32 2		; visa id: 750
  %268 = extractelement <32 x i16> %207, i32 27		; visa id: 750
  %269 = insertelement <8 x i16> %267, i16 %268, i32 3		; visa id: 750
  %270 = extractelement <32 x i16> %207, i32 28		; visa id: 750
  %271 = insertelement <8 x i16> %269, i16 %270, i32 4		; visa id: 750
  %272 = extractelement <32 x i16> %207, i32 29		; visa id: 750
  %273 = insertelement <8 x i16> %271, i16 %272, i32 5		; visa id: 750
  %274 = extractelement <32 x i16> %207, i32 30		; visa id: 750
  %275 = insertelement <8 x i16> %273, i16 %274, i32 6		; visa id: 750
  %276 = extractelement <32 x i16> %207, i32 31		; visa id: 750
  %277 = insertelement <8 x i16> %275, i16 %276, i32 7		; visa id: 750
  %278 = call <8 x float> asm "{\0A.decl DST     v_type=G type=f num_elts=$5 alias=<$0,0>\0A.decl SRC1_UD v_type=G type=UD num_elts=128 alias=<$2,0>\0A.decl SRC2_UD v_type=G type=UD num_elts=$4 alias=<$1,0>\0Adpas.bf.bf.8.$3 (M1, 16) DST.0 DST.0 SRC1_UD.0 SRC2_UD(0,0)\0A}\0A", "=rw,rw,rw,P,P,P,0"(<8 x i16> %229, <16 x i16> %209, i32 8, i32 64, i32 128, <8 x float> %.sroa.03228.5) #0		; visa id: 750
  %279 = call <8 x float> asm "{\0A.decl DST     v_type=G type=f num_elts=$5 alias=<$0,0>\0A.decl SRC1_UD v_type=G type=UD num_elts=128 alias=<$2,0>\0A.decl SRC2_UD v_type=G type=UD num_elts=$4 alias=<$1,0>\0Adpas.bf.bf.8.$3 (M1, 16) DST.0 DST.0 SRC1_UD.0 SRC2_UD(0,0)\0A}\0A", "=rw,rw,rw,P,P,P,0"(<8 x i16> %245, <16 x i16> %209, i32 8, i32 64, i32 128, <8 x float> %.sroa.171.5) #0		; visa id: 750
  %280 = call <8 x float> asm "{\0A.decl DST     v_type=G type=f num_elts=$5 alias=<$0,0>\0A.decl SRC1_UD v_type=G type=UD num_elts=128 alias=<$2,0>\0A.decl SRC2_UD v_type=G type=UD num_elts=$4 alias=<$1,0>\0Adpas.bf.bf.8.$3 (M1, 16) DST.0 DST.0 SRC1_UD.0 SRC2_UD(0,0)\0A}\0A", "=rw,rw,rw,P,P,P,0"(<8 x i16> %245, <16 x i16> %210, i32 8, i32 64, i32 128, <8 x float> %.sroa.507.5) #0		; visa id: 750
  %281 = call <8 x float> asm "{\0A.decl DST     v_type=G type=f num_elts=$5 alias=<$0,0>\0A.decl SRC1_UD v_type=G type=UD num_elts=128 alias=<$2,0>\0A.decl SRC2_UD v_type=G type=UD num_elts=$4 alias=<$1,0>\0Adpas.bf.bf.8.$3 (M1, 16) DST.0 DST.0 SRC1_UD.0 SRC2_UD(0,0)\0A}\0A", "=rw,rw,rw,P,P,P,0"(<8 x i16> %229, <16 x i16> %210, i32 8, i32 64, i32 128, <8 x float> %.sroa.339.5) #0		; visa id: 750
  %282 = call <8 x float> asm "{\0A.decl DST     v_type=G type=f num_elts=$5 alias=<$0,0>\0A.decl SRC1_UD v_type=G type=UD num_elts=128 alias=<$2,0>\0A.decl SRC2_UD v_type=G type=UD num_elts=$4 alias=<$1,0>\0Adpas.bf.bf.8.$3 (M1, 16) DST.0 DST.0 SRC1_UD.0 SRC2_UD(0,0)\0A}\0A", "=rw,rw,rw,P,P,P,0"(<8 x i16> %261, <16 x i16> %212, i32 8, i32 64, i32 128, <8 x float> %278) #0		; visa id: 750
  %283 = call <8 x float> asm "{\0A.decl DST     v_type=G type=f num_elts=$5 alias=<$0,0>\0A.decl SRC1_UD v_type=G type=UD num_elts=128 alias=<$2,0>\0A.decl SRC2_UD v_type=G type=UD num_elts=$4 alias=<$1,0>\0Adpas.bf.bf.8.$3 (M1, 16) DST.0 DST.0 SRC1_UD.0 SRC2_UD(0,0)\0A}\0A", "=rw,rw,rw,P,P,P,0"(<8 x i16> %277, <16 x i16> %212, i32 8, i32 64, i32 128, <8 x float> %279) #0		; visa id: 750
  %284 = call <8 x float> asm "{\0A.decl DST     v_type=G type=f num_elts=$5 alias=<$0,0>\0A.decl SRC1_UD v_type=G type=UD num_elts=128 alias=<$2,0>\0A.decl SRC2_UD v_type=G type=UD num_elts=$4 alias=<$1,0>\0Adpas.bf.bf.8.$3 (M1, 16) DST.0 DST.0 SRC1_UD.0 SRC2_UD(0,0)\0A}\0A", "=rw,rw,rw,P,P,P,0"(<8 x i16> %277, <16 x i16> %213, i32 8, i32 64, i32 128, <8 x float> %280) #0		; visa id: 750
  %285 = call <8 x float> asm "{\0A.decl DST     v_type=G type=f num_elts=$5 alias=<$0,0>\0A.decl SRC1_UD v_type=G type=UD num_elts=128 alias=<$2,0>\0A.decl SRC2_UD v_type=G type=UD num_elts=$4 alias=<$1,0>\0Adpas.bf.bf.8.$3 (M1, 16) DST.0 DST.0 SRC1_UD.0 SRC2_UD(0,0)\0A}\0A", "=rw,rw,rw,P,P,P,0"(<8 x i16> %261, <16 x i16> %213, i32 8, i32 64, i32 128, <8 x float> %281) #0		; visa id: 750
  %286 = or i32 %206, 32		; visa id: 750
  call void @llvm.genx.GenISA.LSC2DBlockSetAddrPayloadField.p4i8.i32(i8 addrspace(4)* %Block2D_AddrPayload, i32 5, i32 %286, i1 false)		; visa id: 751
  call void @llvm.genx.GenISA.LSC2DBlockSetAddrPayloadField.p4i8.i32(i8 addrspace(4)* %Block2D_AddrPayload, i32 6, i32 %161, i1 false)		; visa id: 752
  %287 = call <32 x i16> asm "lsc_load_block2d.ugm (M1, 1)  $0:d$2.$3x$4x$5nn flat[$1+(0,0)]", "=rw,rw.u,P,P,P,P"(i8 addrspace(4)* %Block2D_AddrPayload, i32 16, i32 2, i32 16, i32 16) #0		; visa id: 753
  %288 = lshr exact i32 %286, 1		; visa id: 753
  call void @llvm.genx.GenISA.LSC2DBlockSetAddrPayloadField.p4i8.i32(i8 addrspace(4)* %Block2D_AddrPayload117, i32 5, i32 %288, i1 false)		; visa id: 754
  call void @llvm.genx.GenISA.LSC2DBlockSetAddrPayloadField.p4i8.i32(i8 addrspace(4)* %Block2D_AddrPayload117, i32 6, i32 %203, i1 false)		; visa id: 755
  %289 = call <16 x i16> asm "lsc_load_block2d.ugm (M1, 1)  $0:d$2.$3x$4tn flat[$1+(0,0)]", "=rw,rw.u,P,P,P"(i8 addrspace(4)* %Block2D_AddrPayload117, i32 32, i32 8, i32 16) #0		; visa id: 756
  call void @llvm.genx.GenISA.LSC2DBlockSetAddrPayloadField.p4i8.i32(i8 addrspace(4)* %Block2D_AddrPayload117, i32 5, i32 %288, i1 false)		; visa id: 756
  call void @llvm.genx.GenISA.LSC2DBlockSetAddrPayloadField.p4i8.i32(i8 addrspace(4)* %Block2D_AddrPayload117, i32 6, i32 %204, i1 false)		; visa id: 757
  %290 = call <16 x i16> asm "lsc_load_block2d.ugm (M1, 1)  $0:d$2.$3x$4tn flat[$1+(0,0)]", "=rw,rw.u,P,P,P"(i8 addrspace(4)* %Block2D_AddrPayload117, i32 32, i32 8, i32 16) #0		; visa id: 758
  %291 = or i32 %288, 8		; visa id: 758
  call void @llvm.genx.GenISA.LSC2DBlockSetAddrPayloadField.p4i8.i32(i8 addrspace(4)* %Block2D_AddrPayload117, i32 5, i32 %291, i1 false)		; visa id: 759
  call void @llvm.genx.GenISA.LSC2DBlockSetAddrPayloadField.p4i8.i32(i8 addrspace(4)* %Block2D_AddrPayload117, i32 6, i32 %203, i1 false)		; visa id: 760
  %292 = call <16 x i16> asm "lsc_load_block2d.ugm (M1, 1)  $0:d$2.$3x$4tn flat[$1+(0,0)]", "=rw,rw.u,P,P,P"(i8 addrspace(4)* %Block2D_AddrPayload117, i32 32, i32 8, i32 16) #0		; visa id: 761
  call void @llvm.genx.GenISA.LSC2DBlockSetAddrPayloadField.p4i8.i32(i8 addrspace(4)* %Block2D_AddrPayload117, i32 5, i32 %291, i1 false)		; visa id: 761
  call void @llvm.genx.GenISA.LSC2DBlockSetAddrPayloadField.p4i8.i32(i8 addrspace(4)* %Block2D_AddrPayload117, i32 6, i32 %204, i1 false)		; visa id: 762
  %293 = call <16 x i16> asm "lsc_load_block2d.ugm (M1, 1)  $0:d$2.$3x$4tn flat[$1+(0,0)]", "=rw,rw.u,P,P,P"(i8 addrspace(4)* %Block2D_AddrPayload117, i32 32, i32 8, i32 16) #0		; visa id: 763
  %294 = extractelement <32 x i16> %287, i32 0		; visa id: 763
  %295 = insertelement <8 x i16> undef, i16 %294, i32 0		; visa id: 763
  %296 = extractelement <32 x i16> %287, i32 1		; visa id: 763
  %297 = insertelement <8 x i16> %295, i16 %296, i32 1		; visa id: 763
  %298 = extractelement <32 x i16> %287, i32 2		; visa id: 763
  %299 = insertelement <8 x i16> %297, i16 %298, i32 2		; visa id: 763
  %300 = extractelement <32 x i16> %287, i32 3		; visa id: 763
  %301 = insertelement <8 x i16> %299, i16 %300, i32 3		; visa id: 763
  %302 = extractelement <32 x i16> %287, i32 4		; visa id: 763
  %303 = insertelement <8 x i16> %301, i16 %302, i32 4		; visa id: 763
  %304 = extractelement <32 x i16> %287, i32 5		; visa id: 763
  %305 = insertelement <8 x i16> %303, i16 %304, i32 5		; visa id: 763
  %306 = extractelement <32 x i16> %287, i32 6		; visa id: 763
  %307 = insertelement <8 x i16> %305, i16 %306, i32 6		; visa id: 763
  %308 = extractelement <32 x i16> %287, i32 7		; visa id: 763
  %309 = insertelement <8 x i16> %307, i16 %308, i32 7		; visa id: 763
  %310 = extractelement <32 x i16> %287, i32 8		; visa id: 763
  %311 = insertelement <8 x i16> undef, i16 %310, i32 0		; visa id: 763
  %312 = extractelement <32 x i16> %287, i32 9		; visa id: 763
  %313 = insertelement <8 x i16> %311, i16 %312, i32 1		; visa id: 763
  %314 = extractelement <32 x i16> %287, i32 10		; visa id: 763
  %315 = insertelement <8 x i16> %313, i16 %314, i32 2		; visa id: 763
  %316 = extractelement <32 x i16> %287, i32 11		; visa id: 763
  %317 = insertelement <8 x i16> %315, i16 %316, i32 3		; visa id: 763
  %318 = extractelement <32 x i16> %287, i32 12		; visa id: 763
  %319 = insertelement <8 x i16> %317, i16 %318, i32 4		; visa id: 763
  %320 = extractelement <32 x i16> %287, i32 13		; visa id: 763
  %321 = insertelement <8 x i16> %319, i16 %320, i32 5		; visa id: 763
  %322 = extractelement <32 x i16> %287, i32 14		; visa id: 763
  %323 = insertelement <8 x i16> %321, i16 %322, i32 6		; visa id: 763
  %324 = extractelement <32 x i16> %287, i32 15		; visa id: 763
  %325 = insertelement <8 x i16> %323, i16 %324, i32 7		; visa id: 763
  %326 = extractelement <32 x i16> %287, i32 16		; visa id: 763
  %327 = insertelement <8 x i16> undef, i16 %326, i32 0		; visa id: 763
  %328 = extractelement <32 x i16> %287, i32 17		; visa id: 763
  %329 = insertelement <8 x i16> %327, i16 %328, i32 1		; visa id: 763
  %330 = extractelement <32 x i16> %287, i32 18		; visa id: 763
  %331 = insertelement <8 x i16> %329, i16 %330, i32 2		; visa id: 763
  %332 = extractelement <32 x i16> %287, i32 19		; visa id: 763
  %333 = insertelement <8 x i16> %331, i16 %332, i32 3		; visa id: 763
  %334 = extractelement <32 x i16> %287, i32 20		; visa id: 763
  %335 = insertelement <8 x i16> %333, i16 %334, i32 4		; visa id: 763
  %336 = extractelement <32 x i16> %287, i32 21		; visa id: 763
  %337 = insertelement <8 x i16> %335, i16 %336, i32 5		; visa id: 763
  %338 = extractelement <32 x i16> %287, i32 22		; visa id: 763
  %339 = insertelement <8 x i16> %337, i16 %338, i32 6		; visa id: 763
  %340 = extractelement <32 x i16> %287, i32 23		; visa id: 763
  %341 = insertelement <8 x i16> %339, i16 %340, i32 7		; visa id: 763
  %342 = extractelement <32 x i16> %287, i32 24		; visa id: 763
  %343 = insertelement <8 x i16> undef, i16 %342, i32 0		; visa id: 763
  %344 = extractelement <32 x i16> %287, i32 25		; visa id: 763
  %345 = insertelement <8 x i16> %343, i16 %344, i32 1		; visa id: 763
  %346 = extractelement <32 x i16> %287, i32 26		; visa id: 763
  %347 = insertelement <8 x i16> %345, i16 %346, i32 2		; visa id: 763
  %348 = extractelement <32 x i16> %287, i32 27		; visa id: 763
  %349 = insertelement <8 x i16> %347, i16 %348, i32 3		; visa id: 763
  %350 = extractelement <32 x i16> %287, i32 28		; visa id: 763
  %351 = insertelement <8 x i16> %349, i16 %350, i32 4		; visa id: 763
  %352 = extractelement <32 x i16> %287, i32 29		; visa id: 763
  %353 = insertelement <8 x i16> %351, i16 %352, i32 5		; visa id: 763
  %354 = extractelement <32 x i16> %287, i32 30		; visa id: 763
  %355 = insertelement <8 x i16> %353, i16 %354, i32 6		; visa id: 763
  %356 = extractelement <32 x i16> %287, i32 31		; visa id: 763
  %357 = insertelement <8 x i16> %355, i16 %356, i32 7		; visa id: 763
  %358 = call <8 x float> asm "{\0A.decl DST     v_type=G type=f num_elts=$5 alias=<$0,0>\0A.decl SRC1_UD v_type=G type=UD num_elts=128 alias=<$2,0>\0A.decl SRC2_UD v_type=G type=UD num_elts=$4 alias=<$1,0>\0Adpas.bf.bf.8.$3 (M1, 16) DST.0 DST.0 SRC1_UD.0 SRC2_UD(0,0)\0A}\0A", "=rw,rw,rw,P,P,P,0"(<8 x i16> %309, <16 x i16> %289, i32 8, i32 64, i32 128, <8 x float> %282) #0		; visa id: 763
  %359 = call <8 x float> asm "{\0A.decl DST     v_type=G type=f num_elts=$5 alias=<$0,0>\0A.decl SRC1_UD v_type=G type=UD num_elts=128 alias=<$2,0>\0A.decl SRC2_UD v_type=G type=UD num_elts=$4 alias=<$1,0>\0Adpas.bf.bf.8.$3 (M1, 16) DST.0 DST.0 SRC1_UD.0 SRC2_UD(0,0)\0A}\0A", "=rw,rw,rw,P,P,P,0"(<8 x i16> %325, <16 x i16> %289, i32 8, i32 64, i32 128, <8 x float> %283) #0		; visa id: 763
  %360 = call <8 x float> asm "{\0A.decl DST     v_type=G type=f num_elts=$5 alias=<$0,0>\0A.decl SRC1_UD v_type=G type=UD num_elts=128 alias=<$2,0>\0A.decl SRC2_UD v_type=G type=UD num_elts=$4 alias=<$1,0>\0Adpas.bf.bf.8.$3 (M1, 16) DST.0 DST.0 SRC1_UD.0 SRC2_UD(0,0)\0A}\0A", "=rw,rw,rw,P,P,P,0"(<8 x i16> %325, <16 x i16> %290, i32 8, i32 64, i32 128, <8 x float> %284) #0		; visa id: 763
  %361 = call <8 x float> asm "{\0A.decl DST     v_type=G type=f num_elts=$5 alias=<$0,0>\0A.decl SRC1_UD v_type=G type=UD num_elts=128 alias=<$2,0>\0A.decl SRC2_UD v_type=G type=UD num_elts=$4 alias=<$1,0>\0Adpas.bf.bf.8.$3 (M1, 16) DST.0 DST.0 SRC1_UD.0 SRC2_UD(0,0)\0A}\0A", "=rw,rw,rw,P,P,P,0"(<8 x i16> %309, <16 x i16> %290, i32 8, i32 64, i32 128, <8 x float> %285) #0		; visa id: 763
  %362 = call <8 x float> asm "{\0A.decl DST     v_type=G type=f num_elts=$5 alias=<$0,0>\0A.decl SRC1_UD v_type=G type=UD num_elts=128 alias=<$2,0>\0A.decl SRC2_UD v_type=G type=UD num_elts=$4 alias=<$1,0>\0Adpas.bf.bf.8.$3 (M1, 16) DST.0 DST.0 SRC1_UD.0 SRC2_UD(0,0)\0A}\0A", "=rw,rw,rw,P,P,P,0"(<8 x i16> %341, <16 x i16> %292, i32 8, i32 64, i32 128, <8 x float> %358) #0		; visa id: 763
  %363 = call <8 x float> asm "{\0A.decl DST     v_type=G type=f num_elts=$5 alias=<$0,0>\0A.decl SRC1_UD v_type=G type=UD num_elts=128 alias=<$2,0>\0A.decl SRC2_UD v_type=G type=UD num_elts=$4 alias=<$1,0>\0Adpas.bf.bf.8.$3 (M1, 16) DST.0 DST.0 SRC1_UD.0 SRC2_UD(0,0)\0A}\0A", "=rw,rw,rw,P,P,P,0"(<8 x i16> %357, <16 x i16> %292, i32 8, i32 64, i32 128, <8 x float> %359) #0		; visa id: 763
  %364 = call <8 x float> asm "{\0A.decl DST     v_type=G type=f num_elts=$5 alias=<$0,0>\0A.decl SRC1_UD v_type=G type=UD num_elts=128 alias=<$2,0>\0A.decl SRC2_UD v_type=G type=UD num_elts=$4 alias=<$1,0>\0Adpas.bf.bf.8.$3 (M1, 16) DST.0 DST.0 SRC1_UD.0 SRC2_UD(0,0)\0A}\0A", "=rw,rw,rw,P,P,P,0"(<8 x i16> %357, <16 x i16> %293, i32 8, i32 64, i32 128, <8 x float> %360) #0		; visa id: 763
  %365 = call <8 x float> asm "{\0A.decl DST     v_type=G type=f num_elts=$5 alias=<$0,0>\0A.decl SRC1_UD v_type=G type=UD num_elts=128 alias=<$2,0>\0A.decl SRC2_UD v_type=G type=UD num_elts=$4 alias=<$1,0>\0Adpas.bf.bf.8.$3 (M1, 16) DST.0 DST.0 SRC1_UD.0 SRC2_UD(0,0)\0A}\0A", "=rw,rw,rw,P,P,P,0"(<8 x i16> %341, <16 x i16> %293, i32 8, i32 64, i32 128, <8 x float> %361) #0		; visa id: 763
  %366 = add nuw nsw i32 %205, 2, !spirv.Decorations !1215		; visa id: 763
  %niter270.next.1 = add i32 %niter270, 2		; visa id: 764
  %niter270.ncmp.1.not = icmp eq i32 %niter270.next.1, %unroll_iter269		; visa id: 765
  br i1 %niter270.ncmp.1.not, label %._crit_edge238.unr-lcssa, label %.preheader224..preheader224_crit_edge, !llvm.loop !1226, !stats.blockFrequency.digits !1228, !stats.blockFrequency.scale !1229		; visa id: 766

.preheader224..preheader224_crit_edge:            ; preds = %.preheader224
; BB:
  br label %.preheader224, !stats.blockFrequency.digits !1230, !stats.blockFrequency.scale !1229

._crit_edge238.unr-lcssa:                         ; preds = %.preheader224
; BB44 :
  %.lcssa7285 = phi <8 x float> [ %362, %.preheader224 ]
  %.lcssa7284 = phi <8 x float> [ %363, %.preheader224 ]
  %.lcssa7283 = phi <8 x float> [ %364, %.preheader224 ]
  %.lcssa7282 = phi <8 x float> [ %365, %.preheader224 ]
  %.lcssa7281 = phi i32 [ %366, %.preheader224 ]
  br i1 %lcmp.mod268.not, label %._crit_edge238.unr-lcssa..preheader3.i.preheader_crit_edge, label %._crit_edge238.unr-lcssa..epil.preheader264_crit_edge, !stats.blockFrequency.digits !1222, !stats.blockFrequency.scale !1221		; visa id: 768

._crit_edge238.unr-lcssa..epil.preheader264_crit_edge: ; preds = %._crit_edge238.unr-lcssa
; BB:
  br label %.epil.preheader264, !stats.blockFrequency.digits !1222, !stats.blockFrequency.scale !1231

.epil.preheader264:                               ; preds = %._crit_edge238.unr-lcssa..epil.preheader264_crit_edge, %.lr.ph237..epil.preheader264_crit_edge
; BB46 :
  %.unr2677130 = phi i32 [ %.lcssa7281, %._crit_edge238.unr-lcssa..epil.preheader264_crit_edge ], [ 0, %.lr.ph237..epil.preheader264_crit_edge ]
  %.sroa.03228.27129 = phi <8 x float> [ %.lcssa7285, %._crit_edge238.unr-lcssa..epil.preheader264_crit_edge ], [ zeroinitializer, %.lr.ph237..epil.preheader264_crit_edge ]
  %.sroa.171.27128 = phi <8 x float> [ %.lcssa7284, %._crit_edge238.unr-lcssa..epil.preheader264_crit_edge ], [ zeroinitializer, %.lr.ph237..epil.preheader264_crit_edge ]
  %.sroa.339.27127 = phi <8 x float> [ %.lcssa7282, %._crit_edge238.unr-lcssa..epil.preheader264_crit_edge ], [ zeroinitializer, %.lr.ph237..epil.preheader264_crit_edge ]
  %.sroa.507.27126 = phi <8 x float> [ %.lcssa7283, %._crit_edge238.unr-lcssa..epil.preheader264_crit_edge ], [ zeroinitializer, %.lr.ph237..epil.preheader264_crit_edge ]
  %367 = shl nsw i32 %.unr2677130, 5, !spirv.Decorations !1203		; visa id: 770
  call void @llvm.genx.GenISA.LSC2DBlockSetAddrPayloadField.p4i8.i32(i8 addrspace(4)* %Block2D_AddrPayload, i32 5, i32 %367, i1 false)		; visa id: 771
  call void @llvm.genx.GenISA.LSC2DBlockSetAddrPayloadField.p4i8.i32(i8 addrspace(4)* %Block2D_AddrPayload, i32 6, i32 %161, i1 false)		; visa id: 772
  %368 = call <32 x i16> asm "lsc_load_block2d.ugm (M1, 1)  $0:d$2.$3x$4x$5nn flat[$1+(0,0)]", "=rw,rw.u,P,P,P,P"(i8 addrspace(4)* %Block2D_AddrPayload, i32 16, i32 2, i32 16, i32 16) #0		; visa id: 773
  %369 = lshr exact i32 %367, 1		; visa id: 773
  call void @llvm.genx.GenISA.LSC2DBlockSetAddrPayloadField.p4i8.i32(i8 addrspace(4)* %Block2D_AddrPayload117, i32 5, i32 %369, i1 false)		; visa id: 774
  call void @llvm.genx.GenISA.LSC2DBlockSetAddrPayloadField.p4i8.i32(i8 addrspace(4)* %Block2D_AddrPayload117, i32 6, i32 %203, i1 false)		; visa id: 775
  %370 = call <16 x i16> asm "lsc_load_block2d.ugm (M1, 1)  $0:d$2.$3x$4tn flat[$1+(0,0)]", "=rw,rw.u,P,P,P"(i8 addrspace(4)* %Block2D_AddrPayload117, i32 32, i32 8, i32 16) #0		; visa id: 776
  %371 = add i32 %203, 16		; visa id: 776
  call void @llvm.genx.GenISA.LSC2DBlockSetAddrPayloadField.p4i8.i32(i8 addrspace(4)* %Block2D_AddrPayload117, i32 5, i32 %369, i1 false)		; visa id: 777
  call void @llvm.genx.GenISA.LSC2DBlockSetAddrPayloadField.p4i8.i32(i8 addrspace(4)* %Block2D_AddrPayload117, i32 6, i32 %371, i1 false)		; visa id: 778
  %372 = call <16 x i16> asm "lsc_load_block2d.ugm (M1, 1)  $0:d$2.$3x$4tn flat[$1+(0,0)]", "=rw,rw.u,P,P,P"(i8 addrspace(4)* %Block2D_AddrPayload117, i32 32, i32 8, i32 16) #0		; visa id: 779
  %373 = or i32 %369, 8		; visa id: 779
  call void @llvm.genx.GenISA.LSC2DBlockSetAddrPayloadField.p4i8.i32(i8 addrspace(4)* %Block2D_AddrPayload117, i32 5, i32 %373, i1 false)		; visa id: 780
  call void @llvm.genx.GenISA.LSC2DBlockSetAddrPayloadField.p4i8.i32(i8 addrspace(4)* %Block2D_AddrPayload117, i32 6, i32 %203, i1 false)		; visa id: 781
  %374 = call <16 x i16> asm "lsc_load_block2d.ugm (M1, 1)  $0:d$2.$3x$4tn flat[$1+(0,0)]", "=rw,rw.u,P,P,P"(i8 addrspace(4)* %Block2D_AddrPayload117, i32 32, i32 8, i32 16) #0		; visa id: 782
  call void @llvm.genx.GenISA.LSC2DBlockSetAddrPayloadField.p4i8.i32(i8 addrspace(4)* %Block2D_AddrPayload117, i32 5, i32 %373, i1 false)		; visa id: 782
  call void @llvm.genx.GenISA.LSC2DBlockSetAddrPayloadField.p4i8.i32(i8 addrspace(4)* %Block2D_AddrPayload117, i32 6, i32 %371, i1 false)		; visa id: 783
  %375 = call <16 x i16> asm "lsc_load_block2d.ugm (M1, 1)  $0:d$2.$3x$4tn flat[$1+(0,0)]", "=rw,rw.u,P,P,P"(i8 addrspace(4)* %Block2D_AddrPayload117, i32 32, i32 8, i32 16) #0		; visa id: 784
  %376 = extractelement <32 x i16> %368, i32 0		; visa id: 784
  %377 = insertelement <8 x i16> undef, i16 %376, i32 0		; visa id: 784
  %378 = extractelement <32 x i16> %368, i32 1		; visa id: 784
  %379 = insertelement <8 x i16> %377, i16 %378, i32 1		; visa id: 784
  %380 = extractelement <32 x i16> %368, i32 2		; visa id: 784
  %381 = insertelement <8 x i16> %379, i16 %380, i32 2		; visa id: 784
  %382 = extractelement <32 x i16> %368, i32 3		; visa id: 784
  %383 = insertelement <8 x i16> %381, i16 %382, i32 3		; visa id: 784
  %384 = extractelement <32 x i16> %368, i32 4		; visa id: 784
  %385 = insertelement <8 x i16> %383, i16 %384, i32 4		; visa id: 784
  %386 = extractelement <32 x i16> %368, i32 5		; visa id: 784
  %387 = insertelement <8 x i16> %385, i16 %386, i32 5		; visa id: 784
  %388 = extractelement <32 x i16> %368, i32 6		; visa id: 784
  %389 = insertelement <8 x i16> %387, i16 %388, i32 6		; visa id: 784
  %390 = extractelement <32 x i16> %368, i32 7		; visa id: 784
  %391 = insertelement <8 x i16> %389, i16 %390, i32 7		; visa id: 784
  %392 = extractelement <32 x i16> %368, i32 8		; visa id: 784
  %393 = insertelement <8 x i16> undef, i16 %392, i32 0		; visa id: 784
  %394 = extractelement <32 x i16> %368, i32 9		; visa id: 784
  %395 = insertelement <8 x i16> %393, i16 %394, i32 1		; visa id: 784
  %396 = extractelement <32 x i16> %368, i32 10		; visa id: 784
  %397 = insertelement <8 x i16> %395, i16 %396, i32 2		; visa id: 784
  %398 = extractelement <32 x i16> %368, i32 11		; visa id: 784
  %399 = insertelement <8 x i16> %397, i16 %398, i32 3		; visa id: 784
  %400 = extractelement <32 x i16> %368, i32 12		; visa id: 784
  %401 = insertelement <8 x i16> %399, i16 %400, i32 4		; visa id: 784
  %402 = extractelement <32 x i16> %368, i32 13		; visa id: 784
  %403 = insertelement <8 x i16> %401, i16 %402, i32 5		; visa id: 784
  %404 = extractelement <32 x i16> %368, i32 14		; visa id: 784
  %405 = insertelement <8 x i16> %403, i16 %404, i32 6		; visa id: 784
  %406 = extractelement <32 x i16> %368, i32 15		; visa id: 784
  %407 = insertelement <8 x i16> %405, i16 %406, i32 7		; visa id: 784
  %408 = extractelement <32 x i16> %368, i32 16		; visa id: 784
  %409 = insertelement <8 x i16> undef, i16 %408, i32 0		; visa id: 784
  %410 = extractelement <32 x i16> %368, i32 17		; visa id: 784
  %411 = insertelement <8 x i16> %409, i16 %410, i32 1		; visa id: 784
  %412 = extractelement <32 x i16> %368, i32 18		; visa id: 784
  %413 = insertelement <8 x i16> %411, i16 %412, i32 2		; visa id: 784
  %414 = extractelement <32 x i16> %368, i32 19		; visa id: 784
  %415 = insertelement <8 x i16> %413, i16 %414, i32 3		; visa id: 784
  %416 = extractelement <32 x i16> %368, i32 20		; visa id: 784
  %417 = insertelement <8 x i16> %415, i16 %416, i32 4		; visa id: 784
  %418 = extractelement <32 x i16> %368, i32 21		; visa id: 784
  %419 = insertelement <8 x i16> %417, i16 %418, i32 5		; visa id: 784
  %420 = extractelement <32 x i16> %368, i32 22		; visa id: 784
  %421 = insertelement <8 x i16> %419, i16 %420, i32 6		; visa id: 784
  %422 = extractelement <32 x i16> %368, i32 23		; visa id: 784
  %423 = insertelement <8 x i16> %421, i16 %422, i32 7		; visa id: 784
  %424 = extractelement <32 x i16> %368, i32 24		; visa id: 784
  %425 = insertelement <8 x i16> undef, i16 %424, i32 0		; visa id: 784
  %426 = extractelement <32 x i16> %368, i32 25		; visa id: 784
  %427 = insertelement <8 x i16> %425, i16 %426, i32 1		; visa id: 784
  %428 = extractelement <32 x i16> %368, i32 26		; visa id: 784
  %429 = insertelement <8 x i16> %427, i16 %428, i32 2		; visa id: 784
  %430 = extractelement <32 x i16> %368, i32 27		; visa id: 784
  %431 = insertelement <8 x i16> %429, i16 %430, i32 3		; visa id: 784
  %432 = extractelement <32 x i16> %368, i32 28		; visa id: 784
  %433 = insertelement <8 x i16> %431, i16 %432, i32 4		; visa id: 784
  %434 = extractelement <32 x i16> %368, i32 29		; visa id: 784
  %435 = insertelement <8 x i16> %433, i16 %434, i32 5		; visa id: 784
  %436 = extractelement <32 x i16> %368, i32 30		; visa id: 784
  %437 = insertelement <8 x i16> %435, i16 %436, i32 6		; visa id: 784
  %438 = extractelement <32 x i16> %368, i32 31		; visa id: 784
  %439 = insertelement <8 x i16> %437, i16 %438, i32 7		; visa id: 784
  %440 = call <8 x float> asm "{\0A.decl DST     v_type=G type=f num_elts=$5 alias=<$0,0>\0A.decl SRC1_UD v_type=G type=UD num_elts=128 alias=<$2,0>\0A.decl SRC2_UD v_type=G type=UD num_elts=$4 alias=<$1,0>\0Adpas.bf.bf.8.$3 (M1, 16) DST.0 DST.0 SRC1_UD.0 SRC2_UD(0,0)\0A}\0A", "=rw,rw,rw,P,P,P,0"(<8 x i16> %391, <16 x i16> %370, i32 8, i32 64, i32 128, <8 x float> %.sroa.03228.27129) #0		; visa id: 784
  %441 = call <8 x float> asm "{\0A.decl DST     v_type=G type=f num_elts=$5 alias=<$0,0>\0A.decl SRC1_UD v_type=G type=UD num_elts=128 alias=<$2,0>\0A.decl SRC2_UD v_type=G type=UD num_elts=$4 alias=<$1,0>\0Adpas.bf.bf.8.$3 (M1, 16) DST.0 DST.0 SRC1_UD.0 SRC2_UD(0,0)\0A}\0A", "=rw,rw,rw,P,P,P,0"(<8 x i16> %407, <16 x i16> %370, i32 8, i32 64, i32 128, <8 x float> %.sroa.171.27128) #0		; visa id: 784
  %442 = call <8 x float> asm "{\0A.decl DST     v_type=G type=f num_elts=$5 alias=<$0,0>\0A.decl SRC1_UD v_type=G type=UD num_elts=128 alias=<$2,0>\0A.decl SRC2_UD v_type=G type=UD num_elts=$4 alias=<$1,0>\0Adpas.bf.bf.8.$3 (M1, 16) DST.0 DST.0 SRC1_UD.0 SRC2_UD(0,0)\0A}\0A", "=rw,rw,rw,P,P,P,0"(<8 x i16> %407, <16 x i16> %372, i32 8, i32 64, i32 128, <8 x float> %.sroa.507.27126) #0		; visa id: 784
  %443 = call <8 x float> asm "{\0A.decl DST     v_type=G type=f num_elts=$5 alias=<$0,0>\0A.decl SRC1_UD v_type=G type=UD num_elts=128 alias=<$2,0>\0A.decl SRC2_UD v_type=G type=UD num_elts=$4 alias=<$1,0>\0Adpas.bf.bf.8.$3 (M1, 16) DST.0 DST.0 SRC1_UD.0 SRC2_UD(0,0)\0A}\0A", "=rw,rw,rw,P,P,P,0"(<8 x i16> %391, <16 x i16> %372, i32 8, i32 64, i32 128, <8 x float> %.sroa.339.27127) #0		; visa id: 784
  %444 = call <8 x float> asm "{\0A.decl DST     v_type=G type=f num_elts=$5 alias=<$0,0>\0A.decl SRC1_UD v_type=G type=UD num_elts=128 alias=<$2,0>\0A.decl SRC2_UD v_type=G type=UD num_elts=$4 alias=<$1,0>\0Adpas.bf.bf.8.$3 (M1, 16) DST.0 DST.0 SRC1_UD.0 SRC2_UD(0,0)\0A}\0A", "=rw,rw,rw,P,P,P,0"(<8 x i16> %423, <16 x i16> %374, i32 8, i32 64, i32 128, <8 x float> %440) #0		; visa id: 784
  %445 = call <8 x float> asm "{\0A.decl DST     v_type=G type=f num_elts=$5 alias=<$0,0>\0A.decl SRC1_UD v_type=G type=UD num_elts=128 alias=<$2,0>\0A.decl SRC2_UD v_type=G type=UD num_elts=$4 alias=<$1,0>\0Adpas.bf.bf.8.$3 (M1, 16) DST.0 DST.0 SRC1_UD.0 SRC2_UD(0,0)\0A}\0A", "=rw,rw,rw,P,P,P,0"(<8 x i16> %439, <16 x i16> %374, i32 8, i32 64, i32 128, <8 x float> %441) #0		; visa id: 784
  %446 = call <8 x float> asm "{\0A.decl DST     v_type=G type=f num_elts=$5 alias=<$0,0>\0A.decl SRC1_UD v_type=G type=UD num_elts=128 alias=<$2,0>\0A.decl SRC2_UD v_type=G type=UD num_elts=$4 alias=<$1,0>\0Adpas.bf.bf.8.$3 (M1, 16) DST.0 DST.0 SRC1_UD.0 SRC2_UD(0,0)\0A}\0A", "=rw,rw,rw,P,P,P,0"(<8 x i16> %439, <16 x i16> %375, i32 8, i32 64, i32 128, <8 x float> %442) #0		; visa id: 784
  %447 = call <8 x float> asm "{\0A.decl DST     v_type=G type=f num_elts=$5 alias=<$0,0>\0A.decl SRC1_UD v_type=G type=UD num_elts=128 alias=<$2,0>\0A.decl SRC2_UD v_type=G type=UD num_elts=$4 alias=<$1,0>\0Adpas.bf.bf.8.$3 (M1, 16) DST.0 DST.0 SRC1_UD.0 SRC2_UD(0,0)\0A}\0A", "=rw,rw,rw,P,P,P,0"(<8 x i16> %423, <16 x i16> %375, i32 8, i32 64, i32 128, <8 x float> %443) #0		; visa id: 784
  br label %.preheader3.i.preheader, !stats.blockFrequency.digits !1232, !stats.blockFrequency.scale !1206		; visa id: 784

._crit_edge238.unr-lcssa..preheader3.i.preheader_crit_edge: ; preds = %._crit_edge238.unr-lcssa
; BB:
  br label %.preheader3.i.preheader, !stats.blockFrequency.digits !1222, !stats.blockFrequency.scale !1231

.preheader3.i.preheader:                          ; preds = %._crit_edge238.unr-lcssa..preheader3.i.preheader_crit_edge, %.preheader227..preheader3.i.preheader_crit_edge, %.epil.preheader264
; BB48 :
  %.sroa.507.4 = phi <8 x float> [ zeroinitializer, %.preheader227..preheader3.i.preheader_crit_edge ], [ %446, %.epil.preheader264 ], [ %.lcssa7283, %._crit_edge238.unr-lcssa..preheader3.i.preheader_crit_edge ]
  %.sroa.339.4 = phi <8 x float> [ zeroinitializer, %.preheader227..preheader3.i.preheader_crit_edge ], [ %447, %.epil.preheader264 ], [ %.lcssa7282, %._crit_edge238.unr-lcssa..preheader3.i.preheader_crit_edge ]
  %.sroa.171.4 = phi <8 x float> [ zeroinitializer, %.preheader227..preheader3.i.preheader_crit_edge ], [ %445, %.epil.preheader264 ], [ %.lcssa7284, %._crit_edge238.unr-lcssa..preheader3.i.preheader_crit_edge ]
  %.sroa.03228.4 = phi <8 x float> [ zeroinitializer, %.preheader227..preheader3.i.preheader_crit_edge ], [ %444, %.epil.preheader264 ], [ %.lcssa7285, %._crit_edge238.unr-lcssa..preheader3.i.preheader_crit_edge ]
  %448 = add nuw nsw i32 %203, %163, !spirv.Decorations !1203		; visa id: 785
  call void @llvm.genx.GenISA.LSC2DBlockSetAddrPayloadField.p4i8.i32(i8 addrspace(4)* %Block2D_AddrPayload123, i32 5, i32 %198, i1 false)		; visa id: 786
  call void @llvm.genx.GenISA.LSC2DBlockSetAddrPayloadField.p4i8.i32(i8 addrspace(4)* %Block2D_AddrPayload123, i32 6, i32 %448, i1 false)		; visa id: 787
  call void asm sideeffect "lsc_load_block2d.ugm.ca.ca (M1, 1)  %null:d$1.$2x$3nn flat[$0+(0,0)]", "rw.u,P,P,P"(i8 addrspace(4)* %Block2D_AddrPayload123, i32 16, i32 32, i32 2) #0		; visa id: 788
  call void @llvm.genx.GenISA.LSC2DBlockSetAddrPayloadField.p4i8.i32(i8 addrspace(4)* %Block2D_AddrPayload123, i32 5, i32 %199, i1 false)		; visa id: 788
  call void @llvm.genx.GenISA.LSC2DBlockSetAddrPayloadField.p4i8.i32(i8 addrspace(4)* %Block2D_AddrPayload123, i32 6, i32 %448, i1 false)		; visa id: 789
  call void asm sideeffect "lsc_load_block2d.ugm.ca.ca (M1, 1)  %null:d$1.$2x$3nn flat[$0+(0,0)]", "rw.u,P,P,P"(i8 addrspace(4)* %Block2D_AddrPayload123, i32 16, i32 32, i32 2) #0		; visa id: 790
  call void @llvm.genx.GenISA.LSC2DBlockSetAddrPayloadField.p4i8.i32(i8 addrspace(4)* %Block2D_AddrPayload123, i32 5, i32 %200, i1 false)		; visa id: 790
  call void @llvm.genx.GenISA.LSC2DBlockSetAddrPayloadField.p4i8.i32(i8 addrspace(4)* %Block2D_AddrPayload123, i32 6, i32 %448, i1 false)		; visa id: 791
  call void asm sideeffect "lsc_load_block2d.ugm.ca.ca (M1, 1)  %null:d$1.$2x$3nn flat[$0+(0,0)]", "rw.u,P,P,P"(i8 addrspace(4)* %Block2D_AddrPayload123, i32 16, i32 32, i32 2) #0		; visa id: 792
  call void @llvm.genx.GenISA.LSC2DBlockSetAddrPayloadField.p4i8.i32(i8 addrspace(4)* %Block2D_AddrPayload123, i32 5, i32 %201, i1 false)		; visa id: 792
  call void @llvm.genx.GenISA.LSC2DBlockSetAddrPayloadField.p4i8.i32(i8 addrspace(4)* %Block2D_AddrPayload123, i32 6, i32 %448, i1 false)		; visa id: 793
  call void asm sideeffect "lsc_load_block2d.ugm.ca.ca (M1, 1)  %null:d$1.$2x$3nn flat[$0+(0,0)]", "rw.u,P,P,P"(i8 addrspace(4)* %Block2D_AddrPayload123, i32 16, i32 32, i32 2) #0		; visa id: 794
  %449 = extractelement <8 x float> %.sroa.03228.4, i32 0		; visa id: 794
  %450 = extractelement <8 x float> %.sroa.339.4, i32 0		; visa id: 795
  %451 = fcmp reassoc nsz arcp contract olt float %449, %450, !spirv.Decorations !1233		; visa id: 796
  %452 = select i1 %451, float %450, float %449		; visa id: 797
  %453 = extractelement <8 x float> %.sroa.03228.4, i32 1		; visa id: 798
  %454 = extractelement <8 x float> %.sroa.339.4, i32 1		; visa id: 799
  %455 = fcmp reassoc nsz arcp contract olt float %453, %454, !spirv.Decorations !1233		; visa id: 800
  %456 = select i1 %455, float %454, float %453		; visa id: 801
  %457 = extractelement <8 x float> %.sroa.03228.4, i32 2		; visa id: 802
  %458 = extractelement <8 x float> %.sroa.339.4, i32 2		; visa id: 803
  %459 = fcmp reassoc nsz arcp contract olt float %457, %458, !spirv.Decorations !1233		; visa id: 804
  %460 = select i1 %459, float %458, float %457		; visa id: 805
  %461 = extractelement <8 x float> %.sroa.03228.4, i32 3		; visa id: 806
  %462 = extractelement <8 x float> %.sroa.339.4, i32 3		; visa id: 807
  %463 = fcmp reassoc nsz arcp contract olt float %461, %462, !spirv.Decorations !1233		; visa id: 808
  %464 = select i1 %463, float %462, float %461		; visa id: 809
  %465 = extractelement <8 x float> %.sroa.03228.4, i32 4		; visa id: 810
  %466 = extractelement <8 x float> %.sroa.339.4, i32 4		; visa id: 811
  %467 = fcmp reassoc nsz arcp contract olt float %465, %466, !spirv.Decorations !1233		; visa id: 812
  %468 = select i1 %467, float %466, float %465		; visa id: 813
  %469 = extractelement <8 x float> %.sroa.03228.4, i32 5		; visa id: 814
  %470 = extractelement <8 x float> %.sroa.339.4, i32 5		; visa id: 815
  %471 = fcmp reassoc nsz arcp contract olt float %469, %470, !spirv.Decorations !1233		; visa id: 816
  %472 = select i1 %471, float %470, float %469		; visa id: 817
  %473 = extractelement <8 x float> %.sroa.03228.4, i32 6		; visa id: 818
  %474 = extractelement <8 x float> %.sroa.339.4, i32 6		; visa id: 819
  %475 = fcmp reassoc nsz arcp contract olt float %473, %474, !spirv.Decorations !1233		; visa id: 820
  %476 = select i1 %475, float %474, float %473		; visa id: 821
  %477 = extractelement <8 x float> %.sroa.03228.4, i32 7		; visa id: 822
  %478 = extractelement <8 x float> %.sroa.339.4, i32 7		; visa id: 823
  %479 = fcmp reassoc nsz arcp contract olt float %477, %478, !spirv.Decorations !1233		; visa id: 824
  %480 = select i1 %479, float %478, float %477		; visa id: 825
  %481 = extractelement <8 x float> %.sroa.171.4, i32 0		; visa id: 826
  %482 = extractelement <8 x float> %.sroa.507.4, i32 0		; visa id: 827
  %483 = fcmp reassoc nsz arcp contract olt float %481, %482, !spirv.Decorations !1233		; visa id: 828
  %484 = select i1 %483, float %482, float %481		; visa id: 829
  %485 = extractelement <8 x float> %.sroa.171.4, i32 1		; visa id: 830
  %486 = extractelement <8 x float> %.sroa.507.4, i32 1		; visa id: 831
  %487 = fcmp reassoc nsz arcp contract olt float %485, %486, !spirv.Decorations !1233		; visa id: 832
  %488 = select i1 %487, float %486, float %485		; visa id: 833
  %489 = extractelement <8 x float> %.sroa.171.4, i32 2		; visa id: 834
  %490 = extractelement <8 x float> %.sroa.507.4, i32 2		; visa id: 835
  %491 = fcmp reassoc nsz arcp contract olt float %489, %490, !spirv.Decorations !1233		; visa id: 836
  %492 = select i1 %491, float %490, float %489		; visa id: 837
  %493 = extractelement <8 x float> %.sroa.171.4, i32 3		; visa id: 838
  %494 = extractelement <8 x float> %.sroa.507.4, i32 3		; visa id: 839
  %495 = fcmp reassoc nsz arcp contract olt float %493, %494, !spirv.Decorations !1233		; visa id: 840
  %496 = select i1 %495, float %494, float %493		; visa id: 841
  %497 = extractelement <8 x float> %.sroa.171.4, i32 4		; visa id: 842
  %498 = extractelement <8 x float> %.sroa.507.4, i32 4		; visa id: 843
  %499 = fcmp reassoc nsz arcp contract olt float %497, %498, !spirv.Decorations !1233		; visa id: 844
  %500 = select i1 %499, float %498, float %497		; visa id: 845
  %501 = extractelement <8 x float> %.sroa.171.4, i32 5		; visa id: 846
  %502 = extractelement <8 x float> %.sroa.507.4, i32 5		; visa id: 847
  %503 = fcmp reassoc nsz arcp contract olt float %501, %502, !spirv.Decorations !1233		; visa id: 848
  %504 = select i1 %503, float %502, float %501		; visa id: 849
  %505 = extractelement <8 x float> %.sroa.171.4, i32 6		; visa id: 850
  %506 = extractelement <8 x float> %.sroa.507.4, i32 6		; visa id: 851
  %507 = fcmp reassoc nsz arcp contract olt float %505, %506, !spirv.Decorations !1233		; visa id: 852
  %508 = select i1 %507, float %506, float %505		; visa id: 853
  %509 = extractelement <8 x float> %.sroa.171.4, i32 7		; visa id: 854
  %510 = extractelement <8 x float> %.sroa.507.4, i32 7		; visa id: 855
  %511 = fcmp reassoc nsz arcp contract olt float %509, %510, !spirv.Decorations !1233		; visa id: 856
  %512 = select i1 %511, float %510, float %509		; visa id: 857
  %513 = call float asm "{\0A.decl INTERLEAVE_2 v_type=P num_elts=16\0A.decl INTERLEAVE_4 v_type=P num_elts=16\0A.decl INTERLEAVE_8 v_type=P num_elts=16\0A.decl IN0 v_type=G type=UD num_elts=16 alias=<$1,0>\0A.decl IN1 v_type=G type=UD num_elts=16 alias=<$2,0>\0A.decl IN2 v_type=G type=UD num_elts=16 alias=<$3,0>\0A.decl IN3 v_type=G type=UD num_elts=16 alias=<$4,0>\0A.decl IN4 v_type=G type=UD num_elts=16 alias=<$5,0>\0A.decl IN5 v_type=G type=UD num_elts=16 alias=<$6,0>\0A.decl IN6 v_type=G type=UD num_elts=16 alias=<$7,0>\0A.decl IN7 v_type=G type=UD num_elts=16 alias=<$8,0>\0A.decl IN8 v_type=G type=UD num_elts=16 alias=<$9,0>\0A.decl IN9 v_type=G type=UD num_elts=16 alias=<$10,0>\0A.decl IN10 v_type=G type=UD num_elts=16 alias=<$11,0>\0A.decl IN11 v_type=G type=UD num_elts=16 alias=<$12,0>\0A.decl IN12 v_type=G type=UD num_elts=16 alias=<$13,0>\0A.decl IN13 v_type=G type=UD num_elts=16 alias=<$14,0>\0A.decl IN14 v_type=G type=UD num_elts=16 alias=<$15,0>\0A.decl IN15 v_type=G type=UD num_elts=16 alias=<$16,0>\0A.decl RA0 v_type=G type=UD num_elts=32 align=64\0A.decl RA2 v_type=G type=UD num_elts=32 align=64\0A.decl RA4 v_type=G type=UD num_elts=32 align=64\0A.decl RA6 v_type=G type=UD num_elts=32 align=64\0A.decl RA8 v_type=G type=UD num_elts=32 align=64\0A.decl RA10 v_type=G type=UD num_elts=32 align=64\0A.decl RA12 v_type=G type=UD num_elts=32 align=64\0A.decl RA14 v_type=G type=UD num_elts=32 align=64\0A.decl RF0 v_type=G type=F num_elts=16 alias=<RA0,0>\0A.decl RF1 v_type=G type=F num_elts=16 alias=<RA0,64>\0A.decl RF2 v_type=G type=F num_elts=16 alias=<RA2,0>\0A.decl RF3 v_type=G type=F num_elts=16 alias=<RA2,64>\0A.decl RF4 v_type=G type=F num_elts=16 alias=<RA4,0>\0A.decl RF5 v_type=G type=F num_elts=16 alias=<RA4,64>\0A.decl RF6 v_type=G type=F num_elts=16 alias=<RA6,0>\0A.decl RF7 v_type=G type=F num_elts=16 alias=<RA6,64>\0A.decl RF8 v_type=G type=F num_elts=16 alias=<RA8,0>\0A.decl RF9 v_type=G type=F num_elts=16 alias=<RA8,64>\0A.decl RF10 v_type=G type=F num_elts=16 alias=<RA10,0>\0A.decl RF11 v_type=G type=F num_elts=16 alias=<RA10,64>\0A.decl RF12 v_type=G type=F num_elts=16 alias=<RA12,0>\0A.decl RF13 v_type=G type=F num_elts=16 alias=<RA12,64>\0A.decl RF14 v_type=G type=F num_elts=16 alias=<RA14,0>\0A.decl RF15 v_type=G type=F num_elts=16 alias=<RA14,64>\0Asetp (M1_NM,16) INTERLEAVE_2 0x5555:uw\0Asetp (M1_NM,16) INTERLEAVE_4 0x3333:uw\0Asetp (M1_NM,16) INTERLEAVE_8 0x0F0F:uw\0A(!INTERLEAVE_2) sel (M1_NM,16) RA0(0,0)<1>  IN1(0,0)<2;2,0>  IN0(0,0)<1;1,0>\0A (INTERLEAVE_2) sel (M1_NM,16) RA0(1,0)<1>  IN0(0,1)<2;2,0>  IN1(0,0)<1;1,0>\0A(!INTERLEAVE_2) sel (M1_NM,16) RA2(0,0)<1>  IN3(0,0)<2;2,0>  IN2(0,0)<1;1,0>\0A (INTERLEAVE_2) sel (M1_NM,16) RA2(1,0)<1>  IN2(0,1)<2;2,0>  IN3(0,0)<1;1,0>\0A(!INTERLEAVE_2) sel (M1_NM,16) RA4(0,0)<1>  IN5(0,0)<2;2,0>  IN4(0,0)<1;1,0>\0A (INTERLEAVE_2) sel (M1_NM,16) RA4(1,0)<1>  IN4(0,1)<2;2,0>  IN5(0,0)<1;1,0>\0A(!INTERLEAVE_2) sel (M1_NM,16) RA6(0,0)<1>  IN7(0,0)<2;2,0>  IN6(0,0)<1;1,0>\0A (INTERLEAVE_2) sel (M1_NM,16) RA6(1,0)<1>  IN6(0,1)<2;2,0>  IN7(0,0)<1;1,0>\0A(!INTERLEAVE_2) sel (M1_NM,16) RA8(0,0)<1>  IN9(0,0)<2;2,0>  IN8(0,0)<1;1,0>\0A (INTERLEAVE_2) sel (M1_NM,16) RA8(1,0)<1>  IN8(0,1)<2;2,0>  IN9(0,0)<1;1,0>\0A(!INTERLEAVE_2) sel (M1_NM,16) RA10(0,0)<1> IN11(0,0)<2;2,0> IN10(0,0)<1;1,0>\0A (INTERLEAVE_2) sel (M1_NM,16) RA10(1,0)<1> IN10(0,1)<2;2,0> IN11(0,0)<1;1,0>\0A(!INTERLEAVE_2) sel (M1_NM,16) RA12(0,0)<1> IN13(0,0)<2;2,0> IN12(0,0)<1;1,0>\0A (INTERLEAVE_2) sel (M1_NM,16) RA12(1,0)<1> IN12(0,1)<2;2,0> IN13(0,0)<1;1,0>\0A(!INTERLEAVE_2) sel (M1_NM,16) RA14(0,0)<1> IN15(0,0)<2;2,0> IN14(0,0)<1;1,0>\0A (INTERLEAVE_2) sel (M1_NM,16) RA14(1,0)<1> IN14(0,1)<2;2,0> IN15(0,0)<1;1,0>\0Amax (M1_NM,16) RF0(0,0)<1> RF0(0,0)<1;1,0> RF1(0,0)<1;1,0>\0Amax (M1_NM,16) RF3(0,0)<1> RF2(0,0)<1;1,0> RF3(0,0)<1;1,0>\0Amax (M1_NM,16) RF4(0,0)<1> RF4(0,0)<1;1,0> RF5(0,0)<1;1,0>\0Amax (M1_NM,16) RF7(0,0)<1> RF6(0,0)<1;1,0> RF7(0,0)<1;1,0>\0Amax (M1_NM,16) RF8(0,0)<1> RF8(0,0)<1;1,0> RF9(0,0)<1;1,0>\0Amax (M1_NM,16) RF11(0,0)<1> RF10(0,0)<1;1,0> RF11(0,0)<1;1,0>\0Amax (M1_NM,16) RF12(0,0)<1> RF12(0,0)<1;1,0> RF13(0,0)<1;1,0>\0Amax (M1_NM,16) RF15(0,0)<1> RF14(0,0)<1;1,0> RF15(0,0)<1;1,0>\0A(!INTERLEAVE_4) sel (M1_NM,16) RA0(1,0)<1>  RA2(0,14)<1;1,0>  RA0(0,0)<1;1,0>\0A (INTERLEAVE_4) sel (M1_NM,16) RA0(0,0)<1>  RA0(0,2)<1;1,0>   RA2(1,0)<1;1,0>\0A(!INTERLEAVE_4) sel (M1_NM,16) RA4(1,0)<1>  RA6(0,14)<1;1,0>  RA4(0,0)<1;1,0>\0A (INTERLEAVE_4) sel (M1_NM,16) RA4(0,0)<1>  RA4(0,2)<1;1,0>   RA6(1,0)<1;1,0>\0A(!INTERLEAVE_4) sel (M1_NM,16) RA8(1,0)<1>  RA10(0,14)<1;1,0> RA8(0,0)<1;1,0>\0A (INTERLEAVE_4) sel (M1_NM,16) RA8(0,0)<1>  RA8(0,2)<1;1,0>   RA10(1,0)<1;1,0>\0A(!INTERLEAVE_4) sel (M1_NM,16) RA12(1,0)<1> RA14(0,14)<1;1,0> RA12(0,0)<1;1,0>\0A (INTERLEAVE_4) sel (M1_NM,16) RA12(0,0)<1> RA12(0,2)<1;1,0>  RA14(1,0)<1;1,0>\0Amax (M1_NM,16) RF0(0,0)<1>  RF0(0,0)<1;1,0>  RF1(0,0)<1;1,0>\0Amax (M1_NM,16) RF5(0,0)<1>  RF4(0,0)<1;1,0>  RF5(0,0)<1;1,0>\0Amax (M1_NM,16) RF8(0,0)<1>  RF8(0,0)<1;1,0>  RF9(0,0)<1;1,0>\0Amax (M1_NM,16) RF13(0,0)<1> RF12(0,0)<1;1,0> RF13(0,0)<1;1,0>\0A(!INTERLEAVE_8) sel (M1_NM,16) RA0(1,0)<1> RA4(0,12)<1;1,0>  RA0(0,0)<1;1,0>\0A (INTERLEAVE_8) sel (M1_NM,16) RA0(0,0)<1> RA0(0,4)<1;1,0>   RA4(1,0)<1;1,0>\0A(!INTERLEAVE_8) sel (M1_NM,16) RA8(1,0)<1> RA12(0,12)<1;1,0> RA8(0,0)<1;1,0>\0A (INTERLEAVE_8) sel (M1_NM,16) RA8(0,0)<1> RA8(0,4)<1;1,0>   RA12(1,0)<1;1,0>\0Amax (M1_NM,16) RF0(0,0)<1> RF0(0,0)<1;1,0> RF1(0,0)<1;1,0>\0Amax (M1_NM,16) RF8(0,0)<1> RF8(0,0)<1;1,0> RF9(0,0)<1;1,0>\0Amov (M1_NM, 8) RA0(1,0)<1> RA0(0,8)<1;1,0>\0Amov (M1_NM, 8) RA8(1,8)<1> RA8(0,0)<1;1,0>\0Amax (M1_NM,8) $0(0,0)<1> RF0(0,0)<1;1,0> RF1(0,0)<1;1,0>\0Amax (M1_NM,8) $0(0,8)<1> RF8(0,8)<1;1,0> RF9(0,8)<1;1,0>\0A}\0A", "=rw,rw,rw,rw,rw,rw,rw,rw,rw,rw,rw,rw,rw,rw,rw,rw,rw"(float %452, float %456, float %460, float %464, float %468, float %472, float %476, float %480, float %484, float %488, float %492, float %496, float %500, float %504, float %508, float %512) #0		; visa id: 858
  %514 = fmul reassoc nsz arcp contract float %513, %const_reg_fp32, !spirv.Decorations !1233		; visa id: 858
  %515 = call float @llvm.maxnum.f32(float %.sroa.0214.1242, float %514)		; visa id: 859
  %516 = fmul reassoc nsz arcp contract float %449, %const_reg_fp32, !spirv.Decorations !1233
  %simdBroadcast109 = call float @llvm.genx.GenISA.WaveBroadcast.f32(float %515, i32 0, i32 0)
  %517 = fsub reassoc nsz arcp contract float %516, %simdBroadcast109, !spirv.Decorations !1233		; visa id: 860
  %518 = fmul reassoc nsz arcp contract float %453, %const_reg_fp32, !spirv.Decorations !1233
  %simdBroadcast109.1 = call float @llvm.genx.GenISA.WaveBroadcast.f32(float %515, i32 1, i32 0)
  %519 = fsub reassoc nsz arcp contract float %518, %simdBroadcast109.1, !spirv.Decorations !1233		; visa id: 861
  %520 = fmul reassoc nsz arcp contract float %457, %const_reg_fp32, !spirv.Decorations !1233
  %simdBroadcast109.2 = call float @llvm.genx.GenISA.WaveBroadcast.f32(float %515, i32 2, i32 0)
  %521 = fsub reassoc nsz arcp contract float %520, %simdBroadcast109.2, !spirv.Decorations !1233		; visa id: 862
  %522 = fmul reassoc nsz arcp contract float %461, %const_reg_fp32, !spirv.Decorations !1233
  %simdBroadcast109.3 = call float @llvm.genx.GenISA.WaveBroadcast.f32(float %515, i32 3, i32 0)
  %523 = fsub reassoc nsz arcp contract float %522, %simdBroadcast109.3, !spirv.Decorations !1233		; visa id: 863
  %524 = fmul reassoc nsz arcp contract float %465, %const_reg_fp32, !spirv.Decorations !1233
  %simdBroadcast109.4 = call float @llvm.genx.GenISA.WaveBroadcast.f32(float %515, i32 4, i32 0)
  %525 = fsub reassoc nsz arcp contract float %524, %simdBroadcast109.4, !spirv.Decorations !1233		; visa id: 864
  %526 = fmul reassoc nsz arcp contract float %469, %const_reg_fp32, !spirv.Decorations !1233
  %simdBroadcast109.5 = call float @llvm.genx.GenISA.WaveBroadcast.f32(float %515, i32 5, i32 0)
  %527 = fsub reassoc nsz arcp contract float %526, %simdBroadcast109.5, !spirv.Decorations !1233		; visa id: 865
  %528 = fmul reassoc nsz arcp contract float %473, %const_reg_fp32, !spirv.Decorations !1233
  %simdBroadcast109.6 = call float @llvm.genx.GenISA.WaveBroadcast.f32(float %515, i32 6, i32 0)
  %529 = fsub reassoc nsz arcp contract float %528, %simdBroadcast109.6, !spirv.Decorations !1233		; visa id: 866
  %530 = fmul reassoc nsz arcp contract float %477, %const_reg_fp32, !spirv.Decorations !1233
  %simdBroadcast109.7 = call float @llvm.genx.GenISA.WaveBroadcast.f32(float %515, i32 7, i32 0)
  %531 = fsub reassoc nsz arcp contract float %530, %simdBroadcast109.7, !spirv.Decorations !1233		; visa id: 867
  %532 = fmul reassoc nsz arcp contract float %481, %const_reg_fp32, !spirv.Decorations !1233
  %simdBroadcast109.8 = call float @llvm.genx.GenISA.WaveBroadcast.f32(float %515, i32 8, i32 0)
  %533 = fsub reassoc nsz arcp contract float %532, %simdBroadcast109.8, !spirv.Decorations !1233		; visa id: 868
  %534 = fmul reassoc nsz arcp contract float %485, %const_reg_fp32, !spirv.Decorations !1233
  %simdBroadcast109.9 = call float @llvm.genx.GenISA.WaveBroadcast.f32(float %515, i32 9, i32 0)
  %535 = fsub reassoc nsz arcp contract float %534, %simdBroadcast109.9, !spirv.Decorations !1233		; visa id: 869
  %536 = fmul reassoc nsz arcp contract float %489, %const_reg_fp32, !spirv.Decorations !1233
  %simdBroadcast109.10 = call float @llvm.genx.GenISA.WaveBroadcast.f32(float %515, i32 10, i32 0)
  %537 = fsub reassoc nsz arcp contract float %536, %simdBroadcast109.10, !spirv.Decorations !1233		; visa id: 870
  %538 = fmul reassoc nsz arcp contract float %493, %const_reg_fp32, !spirv.Decorations !1233
  %simdBroadcast109.11 = call float @llvm.genx.GenISA.WaveBroadcast.f32(float %515, i32 11, i32 0)
  %539 = fsub reassoc nsz arcp contract float %538, %simdBroadcast109.11, !spirv.Decorations !1233		; visa id: 871
  %540 = fmul reassoc nsz arcp contract float %497, %const_reg_fp32, !spirv.Decorations !1233
  %simdBroadcast109.12 = call float @llvm.genx.GenISA.WaveBroadcast.f32(float %515, i32 12, i32 0)
  %541 = fsub reassoc nsz arcp contract float %540, %simdBroadcast109.12, !spirv.Decorations !1233		; visa id: 872
  %542 = fmul reassoc nsz arcp contract float %501, %const_reg_fp32, !spirv.Decorations !1233
  %simdBroadcast109.13 = call float @llvm.genx.GenISA.WaveBroadcast.f32(float %515, i32 13, i32 0)
  %543 = fsub reassoc nsz arcp contract float %542, %simdBroadcast109.13, !spirv.Decorations !1233		; visa id: 873
  %544 = fmul reassoc nsz arcp contract float %505, %const_reg_fp32, !spirv.Decorations !1233
  %simdBroadcast109.14 = call float @llvm.genx.GenISA.WaveBroadcast.f32(float %515, i32 14, i32 0)
  %545 = fsub reassoc nsz arcp contract float %544, %simdBroadcast109.14, !spirv.Decorations !1233		; visa id: 874
  %546 = fmul reassoc nsz arcp contract float %509, %const_reg_fp32, !spirv.Decorations !1233
  %simdBroadcast109.15 = call float @llvm.genx.GenISA.WaveBroadcast.f32(float %515, i32 15, i32 0)
  %547 = fsub reassoc nsz arcp contract float %546, %simdBroadcast109.15, !spirv.Decorations !1233		; visa id: 875
  %548 = fmul reassoc nsz arcp contract float %450, %const_reg_fp32, !spirv.Decorations !1233
  %549 = fsub reassoc nsz arcp contract float %548, %simdBroadcast109, !spirv.Decorations !1233		; visa id: 876
  %550 = fmul reassoc nsz arcp contract float %454, %const_reg_fp32, !spirv.Decorations !1233
  %551 = fsub reassoc nsz arcp contract float %550, %simdBroadcast109.1, !spirv.Decorations !1233		; visa id: 877
  %552 = fmul reassoc nsz arcp contract float %458, %const_reg_fp32, !spirv.Decorations !1233
  %553 = fsub reassoc nsz arcp contract float %552, %simdBroadcast109.2, !spirv.Decorations !1233		; visa id: 878
  %554 = fmul reassoc nsz arcp contract float %462, %const_reg_fp32, !spirv.Decorations !1233
  %555 = fsub reassoc nsz arcp contract float %554, %simdBroadcast109.3, !spirv.Decorations !1233		; visa id: 879
  %556 = fmul reassoc nsz arcp contract float %466, %const_reg_fp32, !spirv.Decorations !1233
  %557 = fsub reassoc nsz arcp contract float %556, %simdBroadcast109.4, !spirv.Decorations !1233		; visa id: 880
  %558 = fmul reassoc nsz arcp contract float %470, %const_reg_fp32, !spirv.Decorations !1233
  %559 = fsub reassoc nsz arcp contract float %558, %simdBroadcast109.5, !spirv.Decorations !1233		; visa id: 881
  %560 = fmul reassoc nsz arcp contract float %474, %const_reg_fp32, !spirv.Decorations !1233
  %561 = fsub reassoc nsz arcp contract float %560, %simdBroadcast109.6, !spirv.Decorations !1233		; visa id: 882
  %562 = fmul reassoc nsz arcp contract float %478, %const_reg_fp32, !spirv.Decorations !1233
  %563 = fsub reassoc nsz arcp contract float %562, %simdBroadcast109.7, !spirv.Decorations !1233		; visa id: 883
  %564 = fmul reassoc nsz arcp contract float %482, %const_reg_fp32, !spirv.Decorations !1233
  %565 = fsub reassoc nsz arcp contract float %564, %simdBroadcast109.8, !spirv.Decorations !1233		; visa id: 884
  %566 = fmul reassoc nsz arcp contract float %486, %const_reg_fp32, !spirv.Decorations !1233
  %567 = fsub reassoc nsz arcp contract float %566, %simdBroadcast109.9, !spirv.Decorations !1233		; visa id: 885
  %568 = fmul reassoc nsz arcp contract float %490, %const_reg_fp32, !spirv.Decorations !1233
  %569 = fsub reassoc nsz arcp contract float %568, %simdBroadcast109.10, !spirv.Decorations !1233		; visa id: 886
  %570 = fmul reassoc nsz arcp contract float %494, %const_reg_fp32, !spirv.Decorations !1233
  %571 = fsub reassoc nsz arcp contract float %570, %simdBroadcast109.11, !spirv.Decorations !1233		; visa id: 887
  %572 = fmul reassoc nsz arcp contract float %498, %const_reg_fp32, !spirv.Decorations !1233
  %573 = fsub reassoc nsz arcp contract float %572, %simdBroadcast109.12, !spirv.Decorations !1233		; visa id: 888
  %574 = fmul reassoc nsz arcp contract float %502, %const_reg_fp32, !spirv.Decorations !1233
  %575 = fsub reassoc nsz arcp contract float %574, %simdBroadcast109.13, !spirv.Decorations !1233		; visa id: 889
  %576 = fmul reassoc nsz arcp contract float %506, %const_reg_fp32, !spirv.Decorations !1233
  %577 = fsub reassoc nsz arcp contract float %576, %simdBroadcast109.14, !spirv.Decorations !1233		; visa id: 890
  %578 = fmul reassoc nsz arcp contract float %510, %const_reg_fp32, !spirv.Decorations !1233
  %579 = fsub reassoc nsz arcp contract float %578, %simdBroadcast109.15, !spirv.Decorations !1233		; visa id: 891
  %580 = call float @llvm.exp2.f32(float %517)		; visa id: 892
  %581 = call float @llvm.exp2.f32(float %519)		; visa id: 893
  %582 = call float @llvm.exp2.f32(float %521)		; visa id: 894
  %583 = call float @llvm.exp2.f32(float %523)		; visa id: 895
  %584 = call float @llvm.exp2.f32(float %525)		; visa id: 896
  %585 = call float @llvm.exp2.f32(float %527)		; visa id: 897
  %586 = call float @llvm.exp2.f32(float %529)		; visa id: 898
  %587 = call float @llvm.exp2.f32(float %531)		; visa id: 899
  %588 = call float @llvm.exp2.f32(float %533)		; visa id: 900
  %589 = call float @llvm.exp2.f32(float %535)		; visa id: 901
  %590 = call float @llvm.exp2.f32(float %537)		; visa id: 902
  %591 = call float @llvm.exp2.f32(float %539)		; visa id: 903
  %592 = call float @llvm.exp2.f32(float %541)		; visa id: 904
  %593 = call float @llvm.exp2.f32(float %543)		; visa id: 905
  %594 = call float @llvm.exp2.f32(float %545)		; visa id: 906
  %595 = call float @llvm.exp2.f32(float %547)		; visa id: 907
  %596 = call float @llvm.exp2.f32(float %549)		; visa id: 908
  %597 = call float @llvm.exp2.f32(float %551)		; visa id: 909
  %598 = call float @llvm.exp2.f32(float %553)		; visa id: 910
  %599 = call float @llvm.exp2.f32(float %555)		; visa id: 911
  %600 = call float @llvm.exp2.f32(float %557)		; visa id: 912
  %601 = call float @llvm.exp2.f32(float %559)		; visa id: 913
  %602 = call float @llvm.exp2.f32(float %561)		; visa id: 914
  %603 = call float @llvm.exp2.f32(float %563)		; visa id: 915
  %604 = call float @llvm.exp2.f32(float %565)		; visa id: 916
  %605 = call float @llvm.exp2.f32(float %567)		; visa id: 917
  %606 = call float @llvm.exp2.f32(float %569)		; visa id: 918
  %607 = call float @llvm.exp2.f32(float %571)		; visa id: 919
  %608 = call float @llvm.exp2.f32(float %573)		; visa id: 920
  %609 = call float @llvm.exp2.f32(float %575)		; visa id: 921
  %610 = call float @llvm.exp2.f32(float %577)		; visa id: 922
  %611 = call float @llvm.exp2.f32(float %579)		; visa id: 923
  %612 = icmp eq i32 %202, 0		; visa id: 924
  br i1 %612, label %.preheader3.i.preheader..loopexit.i_crit_edge, label %.loopexit.i.loopexit, !stats.blockFrequency.digits !1217, !stats.blockFrequency.scale !1218		; visa id: 925

.preheader3.i.preheader..loopexit.i_crit_edge:    ; preds = %.preheader3.i.preheader
; BB:
  br label %.loopexit.i, !stats.blockFrequency.digits !1214, !stats.blockFrequency.scale !1206

.loopexit.i.loopexit:                             ; preds = %.preheader3.i.preheader
; BB50 :
  %613 = fsub reassoc nsz arcp contract float %.sroa.0214.1242, %515, !spirv.Decorations !1233		; visa id: 927
  %614 = call float @llvm.exp2.f32(float %613)		; visa id: 928
  %simdBroadcast110 = call float @llvm.genx.GenISA.WaveBroadcast.f32(float %614, i32 0, i32 0)
  %615 = extractelement <8 x float> %.sroa.0.0, i32 0		; visa id: 929
  %616 = fmul reassoc nsz arcp contract float %615, %simdBroadcast110, !spirv.Decorations !1233		; visa id: 930
  %.sroa.0.0.vec.insert279 = insertelement <8 x float> poison, float %616, i64 0		; visa id: 931
  %simdBroadcast110.1 = call float @llvm.genx.GenISA.WaveBroadcast.f32(float %614, i32 1, i32 0)
  %617 = extractelement <8 x float> %.sroa.0.0, i32 1		; visa id: 932
  %618 = fmul reassoc nsz arcp contract float %617, %simdBroadcast110.1, !spirv.Decorations !1233		; visa id: 933
  %.sroa.0.4.vec.insert288 = insertelement <8 x float> %.sroa.0.0.vec.insert279, float %618, i64 1		; visa id: 934
  %simdBroadcast110.2 = call float @llvm.genx.GenISA.WaveBroadcast.f32(float %614, i32 2, i32 0)
  %619 = extractelement <8 x float> %.sroa.0.0, i32 2		; visa id: 935
  %620 = fmul reassoc nsz arcp contract float %619, %simdBroadcast110.2, !spirv.Decorations !1233		; visa id: 936
  %.sroa.0.8.vec.insert295 = insertelement <8 x float> %.sroa.0.4.vec.insert288, float %620, i64 2		; visa id: 937
  %simdBroadcast110.3 = call float @llvm.genx.GenISA.WaveBroadcast.f32(float %614, i32 3, i32 0)
  %621 = extractelement <8 x float> %.sroa.0.0, i32 3		; visa id: 938
  %622 = fmul reassoc nsz arcp contract float %621, %simdBroadcast110.3, !spirv.Decorations !1233		; visa id: 939
  %.sroa.0.12.vec.insert302 = insertelement <8 x float> %.sroa.0.8.vec.insert295, float %622, i64 3		; visa id: 940
  %simdBroadcast110.4 = call float @llvm.genx.GenISA.WaveBroadcast.f32(float %614, i32 4, i32 0)
  %623 = extractelement <8 x float> %.sroa.0.0, i32 4		; visa id: 941
  %624 = fmul reassoc nsz arcp contract float %623, %simdBroadcast110.4, !spirv.Decorations !1233		; visa id: 942
  %.sroa.0.16.vec.insert309 = insertelement <8 x float> %.sroa.0.12.vec.insert302, float %624, i64 4		; visa id: 943
  %simdBroadcast110.5 = call float @llvm.genx.GenISA.WaveBroadcast.f32(float %614, i32 5, i32 0)
  %625 = extractelement <8 x float> %.sroa.0.0, i32 5		; visa id: 944
  %626 = fmul reassoc nsz arcp contract float %625, %simdBroadcast110.5, !spirv.Decorations !1233		; visa id: 945
  %.sroa.0.20.vec.insert316 = insertelement <8 x float> %.sroa.0.16.vec.insert309, float %626, i64 5		; visa id: 946
  %simdBroadcast110.6 = call float @llvm.genx.GenISA.WaveBroadcast.f32(float %614, i32 6, i32 0)
  %627 = extractelement <8 x float> %.sroa.0.0, i32 6		; visa id: 947
  %628 = fmul reassoc nsz arcp contract float %627, %simdBroadcast110.6, !spirv.Decorations !1233		; visa id: 948
  %.sroa.0.24.vec.insert323 = insertelement <8 x float> %.sroa.0.20.vec.insert316, float %628, i64 6		; visa id: 949
  %simdBroadcast110.7 = call float @llvm.genx.GenISA.WaveBroadcast.f32(float %614, i32 7, i32 0)
  %629 = extractelement <8 x float> %.sroa.0.0, i32 7		; visa id: 950
  %630 = fmul reassoc nsz arcp contract float %629, %simdBroadcast110.7, !spirv.Decorations !1233		; visa id: 951
  %.sroa.0.28.vec.insert330 = insertelement <8 x float> %.sroa.0.24.vec.insert323, float %630, i64 7		; visa id: 952
  %simdBroadcast110.8 = call float @llvm.genx.GenISA.WaveBroadcast.f32(float %614, i32 8, i32 0)
  %631 = extractelement <8 x float> %.sroa.52.0, i32 0		; visa id: 953
  %632 = fmul reassoc nsz arcp contract float %631, %simdBroadcast110.8, !spirv.Decorations !1233		; visa id: 954
  %.sroa.52.32.vec.insert343 = insertelement <8 x float> poison, float %632, i64 0		; visa id: 955
  %simdBroadcast110.9 = call float @llvm.genx.GenISA.WaveBroadcast.f32(float %614, i32 9, i32 0)
  %633 = extractelement <8 x float> %.sroa.52.0, i32 1		; visa id: 956
  %634 = fmul reassoc nsz arcp contract float %633, %simdBroadcast110.9, !spirv.Decorations !1233		; visa id: 957
  %.sroa.52.36.vec.insert350 = insertelement <8 x float> %.sroa.52.32.vec.insert343, float %634, i64 1		; visa id: 958
  %simdBroadcast110.10 = call float @llvm.genx.GenISA.WaveBroadcast.f32(float %614, i32 10, i32 0)
  %635 = extractelement <8 x float> %.sroa.52.0, i32 2		; visa id: 959
  %636 = fmul reassoc nsz arcp contract float %635, %simdBroadcast110.10, !spirv.Decorations !1233		; visa id: 960
  %.sroa.52.40.vec.insert357 = insertelement <8 x float> %.sroa.52.36.vec.insert350, float %636, i64 2		; visa id: 961
  %simdBroadcast110.11 = call float @llvm.genx.GenISA.WaveBroadcast.f32(float %614, i32 11, i32 0)
  %637 = extractelement <8 x float> %.sroa.52.0, i32 3		; visa id: 962
  %638 = fmul reassoc nsz arcp contract float %637, %simdBroadcast110.11, !spirv.Decorations !1233		; visa id: 963
  %.sroa.52.44.vec.insert364 = insertelement <8 x float> %.sroa.52.40.vec.insert357, float %638, i64 3		; visa id: 964
  %simdBroadcast110.12 = call float @llvm.genx.GenISA.WaveBroadcast.f32(float %614, i32 12, i32 0)
  %639 = extractelement <8 x float> %.sroa.52.0, i32 4		; visa id: 965
  %640 = fmul reassoc nsz arcp contract float %639, %simdBroadcast110.12, !spirv.Decorations !1233		; visa id: 966
  %.sroa.52.48.vec.insert371 = insertelement <8 x float> %.sroa.52.44.vec.insert364, float %640, i64 4		; visa id: 967
  %simdBroadcast110.13 = call float @llvm.genx.GenISA.WaveBroadcast.f32(float %614, i32 13, i32 0)
  %641 = extractelement <8 x float> %.sroa.52.0, i32 5		; visa id: 968
  %642 = fmul reassoc nsz arcp contract float %641, %simdBroadcast110.13, !spirv.Decorations !1233		; visa id: 969
  %.sroa.52.52.vec.insert378 = insertelement <8 x float> %.sroa.52.48.vec.insert371, float %642, i64 5		; visa id: 970
  %simdBroadcast110.14 = call float @llvm.genx.GenISA.WaveBroadcast.f32(float %614, i32 14, i32 0)
  %643 = extractelement <8 x float> %.sroa.52.0, i32 6		; visa id: 971
  %644 = fmul reassoc nsz arcp contract float %643, %simdBroadcast110.14, !spirv.Decorations !1233		; visa id: 972
  %.sroa.52.56.vec.insert385 = insertelement <8 x float> %.sroa.52.52.vec.insert378, float %644, i64 6		; visa id: 973
  %simdBroadcast110.15 = call float @llvm.genx.GenISA.WaveBroadcast.f32(float %614, i32 15, i32 0)
  %645 = extractelement <8 x float> %.sroa.52.0, i32 7		; visa id: 974
  %646 = fmul reassoc nsz arcp contract float %645, %simdBroadcast110.15, !spirv.Decorations !1233		; visa id: 975
  %.sroa.52.60.vec.insert392 = insertelement <8 x float> %.sroa.52.56.vec.insert385, float %646, i64 7		; visa id: 976
  %647 = extractelement <8 x float> %.sroa.100.0, i32 0		; visa id: 977
  %648 = fmul reassoc nsz arcp contract float %647, %simdBroadcast110, !spirv.Decorations !1233		; visa id: 978
  %.sroa.100.64.vec.insert405 = insertelement <8 x float> poison, float %648, i64 0		; visa id: 979
  %649 = extractelement <8 x float> %.sroa.100.0, i32 1		; visa id: 980
  %650 = fmul reassoc nsz arcp contract float %649, %simdBroadcast110.1, !spirv.Decorations !1233		; visa id: 981
  %.sroa.100.68.vec.insert412 = insertelement <8 x float> %.sroa.100.64.vec.insert405, float %650, i64 1		; visa id: 982
  %651 = extractelement <8 x float> %.sroa.100.0, i32 2		; visa id: 983
  %652 = fmul reassoc nsz arcp contract float %651, %simdBroadcast110.2, !spirv.Decorations !1233		; visa id: 984
  %.sroa.100.72.vec.insert419 = insertelement <8 x float> %.sroa.100.68.vec.insert412, float %652, i64 2		; visa id: 985
  %653 = extractelement <8 x float> %.sroa.100.0, i32 3		; visa id: 986
  %654 = fmul reassoc nsz arcp contract float %653, %simdBroadcast110.3, !spirv.Decorations !1233		; visa id: 987
  %.sroa.100.76.vec.insert426 = insertelement <8 x float> %.sroa.100.72.vec.insert419, float %654, i64 3		; visa id: 988
  %655 = extractelement <8 x float> %.sroa.100.0, i32 4		; visa id: 989
  %656 = fmul reassoc nsz arcp contract float %655, %simdBroadcast110.4, !spirv.Decorations !1233		; visa id: 990
  %.sroa.100.80.vec.insert433 = insertelement <8 x float> %.sroa.100.76.vec.insert426, float %656, i64 4		; visa id: 991
  %657 = extractelement <8 x float> %.sroa.100.0, i32 5		; visa id: 992
  %658 = fmul reassoc nsz arcp contract float %657, %simdBroadcast110.5, !spirv.Decorations !1233		; visa id: 993
  %.sroa.100.84.vec.insert440 = insertelement <8 x float> %.sroa.100.80.vec.insert433, float %658, i64 5		; visa id: 994
  %659 = extractelement <8 x float> %.sroa.100.0, i32 6		; visa id: 995
  %660 = fmul reassoc nsz arcp contract float %659, %simdBroadcast110.6, !spirv.Decorations !1233		; visa id: 996
  %.sroa.100.88.vec.insert447 = insertelement <8 x float> %.sroa.100.84.vec.insert440, float %660, i64 6		; visa id: 997
  %661 = extractelement <8 x float> %.sroa.100.0, i32 7		; visa id: 998
  %662 = fmul reassoc nsz arcp contract float %661, %simdBroadcast110.7, !spirv.Decorations !1233		; visa id: 999
  %.sroa.100.92.vec.insert454 = insertelement <8 x float> %.sroa.100.88.vec.insert447, float %662, i64 7		; visa id: 1000
  %663 = extractelement <8 x float> %.sroa.148.0, i32 0		; visa id: 1001
  %664 = fmul reassoc nsz arcp contract float %663, %simdBroadcast110.8, !spirv.Decorations !1233		; visa id: 1002
  %.sroa.148.96.vec.insert467 = insertelement <8 x float> poison, float %664, i64 0		; visa id: 1003
  %665 = extractelement <8 x float> %.sroa.148.0, i32 1		; visa id: 1004
  %666 = fmul reassoc nsz arcp contract float %665, %simdBroadcast110.9, !spirv.Decorations !1233		; visa id: 1005
  %.sroa.148.100.vec.insert474 = insertelement <8 x float> %.sroa.148.96.vec.insert467, float %666, i64 1		; visa id: 1006
  %667 = extractelement <8 x float> %.sroa.148.0, i32 2		; visa id: 1007
  %668 = fmul reassoc nsz arcp contract float %667, %simdBroadcast110.10, !spirv.Decorations !1233		; visa id: 1008
  %.sroa.148.104.vec.insert481 = insertelement <8 x float> %.sroa.148.100.vec.insert474, float %668, i64 2		; visa id: 1009
  %669 = extractelement <8 x float> %.sroa.148.0, i32 3		; visa id: 1010
  %670 = fmul reassoc nsz arcp contract float %669, %simdBroadcast110.11, !spirv.Decorations !1233		; visa id: 1011
  %.sroa.148.108.vec.insert488 = insertelement <8 x float> %.sroa.148.104.vec.insert481, float %670, i64 3		; visa id: 1012
  %671 = extractelement <8 x float> %.sroa.148.0, i32 4		; visa id: 1013
  %672 = fmul reassoc nsz arcp contract float %671, %simdBroadcast110.12, !spirv.Decorations !1233		; visa id: 1014
  %.sroa.148.112.vec.insert495 = insertelement <8 x float> %.sroa.148.108.vec.insert488, float %672, i64 4		; visa id: 1015
  %673 = extractelement <8 x float> %.sroa.148.0, i32 5		; visa id: 1016
  %674 = fmul reassoc nsz arcp contract float %673, %simdBroadcast110.13, !spirv.Decorations !1233		; visa id: 1017
  %.sroa.148.116.vec.insert502 = insertelement <8 x float> %.sroa.148.112.vec.insert495, float %674, i64 5		; visa id: 1018
  %675 = extractelement <8 x float> %.sroa.148.0, i32 6		; visa id: 1019
  %676 = fmul reassoc nsz arcp contract float %675, %simdBroadcast110.14, !spirv.Decorations !1233		; visa id: 1020
  %.sroa.148.120.vec.insert509 = insertelement <8 x float> %.sroa.148.116.vec.insert502, float %676, i64 6		; visa id: 1021
  %677 = extractelement <8 x float> %.sroa.148.0, i32 7		; visa id: 1022
  %678 = fmul reassoc nsz arcp contract float %677, %simdBroadcast110.15, !spirv.Decorations !1233		; visa id: 1023
  %.sroa.148.124.vec.insert516 = insertelement <8 x float> %.sroa.148.120.vec.insert509, float %678, i64 7		; visa id: 1024
  %679 = extractelement <8 x float> %.sroa.196.0, i32 0		; visa id: 1025
  %680 = fmul reassoc nsz arcp contract float %679, %simdBroadcast110, !spirv.Decorations !1233		; visa id: 1026
  %.sroa.196.128.vec.insert529 = insertelement <8 x float> poison, float %680, i64 0		; visa id: 1027
  %681 = extractelement <8 x float> %.sroa.196.0, i32 1		; visa id: 1028
  %682 = fmul reassoc nsz arcp contract float %681, %simdBroadcast110.1, !spirv.Decorations !1233		; visa id: 1029
  %.sroa.196.132.vec.insert536 = insertelement <8 x float> %.sroa.196.128.vec.insert529, float %682, i64 1		; visa id: 1030
  %683 = extractelement <8 x float> %.sroa.196.0, i32 2		; visa id: 1031
  %684 = fmul reassoc nsz arcp contract float %683, %simdBroadcast110.2, !spirv.Decorations !1233		; visa id: 1032
  %.sroa.196.136.vec.insert543 = insertelement <8 x float> %.sroa.196.132.vec.insert536, float %684, i64 2		; visa id: 1033
  %685 = extractelement <8 x float> %.sroa.196.0, i32 3		; visa id: 1034
  %686 = fmul reassoc nsz arcp contract float %685, %simdBroadcast110.3, !spirv.Decorations !1233		; visa id: 1035
  %.sroa.196.140.vec.insert550 = insertelement <8 x float> %.sroa.196.136.vec.insert543, float %686, i64 3		; visa id: 1036
  %687 = extractelement <8 x float> %.sroa.196.0, i32 4		; visa id: 1037
  %688 = fmul reassoc nsz arcp contract float %687, %simdBroadcast110.4, !spirv.Decorations !1233		; visa id: 1038
  %.sroa.196.144.vec.insert557 = insertelement <8 x float> %.sroa.196.140.vec.insert550, float %688, i64 4		; visa id: 1039
  %689 = extractelement <8 x float> %.sroa.196.0, i32 5		; visa id: 1040
  %690 = fmul reassoc nsz arcp contract float %689, %simdBroadcast110.5, !spirv.Decorations !1233		; visa id: 1041
  %.sroa.196.148.vec.insert564 = insertelement <8 x float> %.sroa.196.144.vec.insert557, float %690, i64 5		; visa id: 1042
  %691 = extractelement <8 x float> %.sroa.196.0, i32 6		; visa id: 1043
  %692 = fmul reassoc nsz arcp contract float %691, %simdBroadcast110.6, !spirv.Decorations !1233		; visa id: 1044
  %.sroa.196.152.vec.insert571 = insertelement <8 x float> %.sroa.196.148.vec.insert564, float %692, i64 6		; visa id: 1045
  %693 = extractelement <8 x float> %.sroa.196.0, i32 7		; visa id: 1046
  %694 = fmul reassoc nsz arcp contract float %693, %simdBroadcast110.7, !spirv.Decorations !1233		; visa id: 1047
  %.sroa.196.156.vec.insert578 = insertelement <8 x float> %.sroa.196.152.vec.insert571, float %694, i64 7		; visa id: 1048
  %695 = extractelement <8 x float> %.sroa.244.0, i32 0		; visa id: 1049
  %696 = fmul reassoc nsz arcp contract float %695, %simdBroadcast110.8, !spirv.Decorations !1233		; visa id: 1050
  %.sroa.244.160.vec.insert591 = insertelement <8 x float> poison, float %696, i64 0		; visa id: 1051
  %697 = extractelement <8 x float> %.sroa.244.0, i32 1		; visa id: 1052
  %698 = fmul reassoc nsz arcp contract float %697, %simdBroadcast110.9, !spirv.Decorations !1233		; visa id: 1053
  %.sroa.244.164.vec.insert598 = insertelement <8 x float> %.sroa.244.160.vec.insert591, float %698, i64 1		; visa id: 1054
  %699 = extractelement <8 x float> %.sroa.244.0, i32 2		; visa id: 1055
  %700 = fmul reassoc nsz arcp contract float %699, %simdBroadcast110.10, !spirv.Decorations !1233		; visa id: 1056
  %.sroa.244.168.vec.insert605 = insertelement <8 x float> %.sroa.244.164.vec.insert598, float %700, i64 2		; visa id: 1057
  %701 = extractelement <8 x float> %.sroa.244.0, i32 3		; visa id: 1058
  %702 = fmul reassoc nsz arcp contract float %701, %simdBroadcast110.11, !spirv.Decorations !1233		; visa id: 1059
  %.sroa.244.172.vec.insert612 = insertelement <8 x float> %.sroa.244.168.vec.insert605, float %702, i64 3		; visa id: 1060
  %703 = extractelement <8 x float> %.sroa.244.0, i32 4		; visa id: 1061
  %704 = fmul reassoc nsz arcp contract float %703, %simdBroadcast110.12, !spirv.Decorations !1233		; visa id: 1062
  %.sroa.244.176.vec.insert619 = insertelement <8 x float> %.sroa.244.172.vec.insert612, float %704, i64 4		; visa id: 1063
  %705 = extractelement <8 x float> %.sroa.244.0, i32 5		; visa id: 1064
  %706 = fmul reassoc nsz arcp contract float %705, %simdBroadcast110.13, !spirv.Decorations !1233		; visa id: 1065
  %.sroa.244.180.vec.insert626 = insertelement <8 x float> %.sroa.244.176.vec.insert619, float %706, i64 5		; visa id: 1066
  %707 = extractelement <8 x float> %.sroa.244.0, i32 6		; visa id: 1067
  %708 = fmul reassoc nsz arcp contract float %707, %simdBroadcast110.14, !spirv.Decorations !1233		; visa id: 1068
  %.sroa.244.184.vec.insert633 = insertelement <8 x float> %.sroa.244.180.vec.insert626, float %708, i64 6		; visa id: 1069
  %709 = extractelement <8 x float> %.sroa.244.0, i32 7		; visa id: 1070
  %710 = fmul reassoc nsz arcp contract float %709, %simdBroadcast110.15, !spirv.Decorations !1233		; visa id: 1071
  %.sroa.244.188.vec.insert640 = insertelement <8 x float> %.sroa.244.184.vec.insert633, float %710, i64 7		; visa id: 1072
  %711 = extractelement <8 x float> %.sroa.292.0, i32 0		; visa id: 1073
  %712 = fmul reassoc nsz arcp contract float %711, %simdBroadcast110, !spirv.Decorations !1233		; visa id: 1074
  %.sroa.292.192.vec.insert653 = insertelement <8 x float> poison, float %712, i64 0		; visa id: 1075
  %713 = extractelement <8 x float> %.sroa.292.0, i32 1		; visa id: 1076
  %714 = fmul reassoc nsz arcp contract float %713, %simdBroadcast110.1, !spirv.Decorations !1233		; visa id: 1077
  %.sroa.292.196.vec.insert660 = insertelement <8 x float> %.sroa.292.192.vec.insert653, float %714, i64 1		; visa id: 1078
  %715 = extractelement <8 x float> %.sroa.292.0, i32 2		; visa id: 1079
  %716 = fmul reassoc nsz arcp contract float %715, %simdBroadcast110.2, !spirv.Decorations !1233		; visa id: 1080
  %.sroa.292.200.vec.insert667 = insertelement <8 x float> %.sroa.292.196.vec.insert660, float %716, i64 2		; visa id: 1081
  %717 = extractelement <8 x float> %.sroa.292.0, i32 3		; visa id: 1082
  %718 = fmul reassoc nsz arcp contract float %717, %simdBroadcast110.3, !spirv.Decorations !1233		; visa id: 1083
  %.sroa.292.204.vec.insert674 = insertelement <8 x float> %.sroa.292.200.vec.insert667, float %718, i64 3		; visa id: 1084
  %719 = extractelement <8 x float> %.sroa.292.0, i32 4		; visa id: 1085
  %720 = fmul reassoc nsz arcp contract float %719, %simdBroadcast110.4, !spirv.Decorations !1233		; visa id: 1086
  %.sroa.292.208.vec.insert681 = insertelement <8 x float> %.sroa.292.204.vec.insert674, float %720, i64 4		; visa id: 1087
  %721 = extractelement <8 x float> %.sroa.292.0, i32 5		; visa id: 1088
  %722 = fmul reassoc nsz arcp contract float %721, %simdBroadcast110.5, !spirv.Decorations !1233		; visa id: 1089
  %.sroa.292.212.vec.insert688 = insertelement <8 x float> %.sroa.292.208.vec.insert681, float %722, i64 5		; visa id: 1090
  %723 = extractelement <8 x float> %.sroa.292.0, i32 6		; visa id: 1091
  %724 = fmul reassoc nsz arcp contract float %723, %simdBroadcast110.6, !spirv.Decorations !1233		; visa id: 1092
  %.sroa.292.216.vec.insert695 = insertelement <8 x float> %.sroa.292.212.vec.insert688, float %724, i64 6		; visa id: 1093
  %725 = extractelement <8 x float> %.sroa.292.0, i32 7		; visa id: 1094
  %726 = fmul reassoc nsz arcp contract float %725, %simdBroadcast110.7, !spirv.Decorations !1233		; visa id: 1095
  %.sroa.292.220.vec.insert702 = insertelement <8 x float> %.sroa.292.216.vec.insert695, float %726, i64 7		; visa id: 1096
  %727 = extractelement <8 x float> %.sroa.340.0, i32 0		; visa id: 1097
  %728 = fmul reassoc nsz arcp contract float %727, %simdBroadcast110.8, !spirv.Decorations !1233		; visa id: 1098
  %.sroa.340.224.vec.insert715 = insertelement <8 x float> poison, float %728, i64 0		; visa id: 1099
  %729 = extractelement <8 x float> %.sroa.340.0, i32 1		; visa id: 1100
  %730 = fmul reassoc nsz arcp contract float %729, %simdBroadcast110.9, !spirv.Decorations !1233		; visa id: 1101
  %.sroa.340.228.vec.insert722 = insertelement <8 x float> %.sroa.340.224.vec.insert715, float %730, i64 1		; visa id: 1102
  %731 = extractelement <8 x float> %.sroa.340.0, i32 2		; visa id: 1103
  %732 = fmul reassoc nsz arcp contract float %731, %simdBroadcast110.10, !spirv.Decorations !1233		; visa id: 1104
  %.sroa.340.232.vec.insert729 = insertelement <8 x float> %.sroa.340.228.vec.insert722, float %732, i64 2		; visa id: 1105
  %733 = extractelement <8 x float> %.sroa.340.0, i32 3		; visa id: 1106
  %734 = fmul reassoc nsz arcp contract float %733, %simdBroadcast110.11, !spirv.Decorations !1233		; visa id: 1107
  %.sroa.340.236.vec.insert736 = insertelement <8 x float> %.sroa.340.232.vec.insert729, float %734, i64 3		; visa id: 1108
  %735 = extractelement <8 x float> %.sroa.340.0, i32 4		; visa id: 1109
  %736 = fmul reassoc nsz arcp contract float %735, %simdBroadcast110.12, !spirv.Decorations !1233		; visa id: 1110
  %.sroa.340.240.vec.insert743 = insertelement <8 x float> %.sroa.340.236.vec.insert736, float %736, i64 4		; visa id: 1111
  %737 = extractelement <8 x float> %.sroa.340.0, i32 5		; visa id: 1112
  %738 = fmul reassoc nsz arcp contract float %737, %simdBroadcast110.13, !spirv.Decorations !1233		; visa id: 1113
  %.sroa.340.244.vec.insert750 = insertelement <8 x float> %.sroa.340.240.vec.insert743, float %738, i64 5		; visa id: 1114
  %739 = extractelement <8 x float> %.sroa.340.0, i32 6		; visa id: 1115
  %740 = fmul reassoc nsz arcp contract float %739, %simdBroadcast110.14, !spirv.Decorations !1233		; visa id: 1116
  %.sroa.340.248.vec.insert757 = insertelement <8 x float> %.sroa.340.244.vec.insert750, float %740, i64 6		; visa id: 1117
  %741 = extractelement <8 x float> %.sroa.340.0, i32 7		; visa id: 1118
  %742 = fmul reassoc nsz arcp contract float %741, %simdBroadcast110.15, !spirv.Decorations !1233		; visa id: 1119
  %.sroa.340.252.vec.insert764 = insertelement <8 x float> %.sroa.340.248.vec.insert757, float %742, i64 7		; visa id: 1120
  %743 = extractelement <8 x float> %.sroa.388.0, i32 0		; visa id: 1121
  %744 = fmul reassoc nsz arcp contract float %743, %simdBroadcast110, !spirv.Decorations !1233		; visa id: 1122
  %.sroa.388.256.vec.insert777 = insertelement <8 x float> poison, float %744, i64 0		; visa id: 1123
  %745 = extractelement <8 x float> %.sroa.388.0, i32 1		; visa id: 1124
  %746 = fmul reassoc nsz arcp contract float %745, %simdBroadcast110.1, !spirv.Decorations !1233		; visa id: 1125
  %.sroa.388.260.vec.insert784 = insertelement <8 x float> %.sroa.388.256.vec.insert777, float %746, i64 1		; visa id: 1126
  %747 = extractelement <8 x float> %.sroa.388.0, i32 2		; visa id: 1127
  %748 = fmul reassoc nsz arcp contract float %747, %simdBroadcast110.2, !spirv.Decorations !1233		; visa id: 1128
  %.sroa.388.264.vec.insert791 = insertelement <8 x float> %.sroa.388.260.vec.insert784, float %748, i64 2		; visa id: 1129
  %749 = extractelement <8 x float> %.sroa.388.0, i32 3		; visa id: 1130
  %750 = fmul reassoc nsz arcp contract float %749, %simdBroadcast110.3, !spirv.Decorations !1233		; visa id: 1131
  %.sroa.388.268.vec.insert798 = insertelement <8 x float> %.sroa.388.264.vec.insert791, float %750, i64 3		; visa id: 1132
  %751 = extractelement <8 x float> %.sroa.388.0, i32 4		; visa id: 1133
  %752 = fmul reassoc nsz arcp contract float %751, %simdBroadcast110.4, !spirv.Decorations !1233		; visa id: 1134
  %.sroa.388.272.vec.insert805 = insertelement <8 x float> %.sroa.388.268.vec.insert798, float %752, i64 4		; visa id: 1135
  %753 = extractelement <8 x float> %.sroa.388.0, i32 5		; visa id: 1136
  %754 = fmul reassoc nsz arcp contract float %753, %simdBroadcast110.5, !spirv.Decorations !1233		; visa id: 1137
  %.sroa.388.276.vec.insert812 = insertelement <8 x float> %.sroa.388.272.vec.insert805, float %754, i64 5		; visa id: 1138
  %755 = extractelement <8 x float> %.sroa.388.0, i32 6		; visa id: 1139
  %756 = fmul reassoc nsz arcp contract float %755, %simdBroadcast110.6, !spirv.Decorations !1233		; visa id: 1140
  %.sroa.388.280.vec.insert819 = insertelement <8 x float> %.sroa.388.276.vec.insert812, float %756, i64 6		; visa id: 1141
  %757 = extractelement <8 x float> %.sroa.388.0, i32 7		; visa id: 1142
  %758 = fmul reassoc nsz arcp contract float %757, %simdBroadcast110.7, !spirv.Decorations !1233		; visa id: 1143
  %.sroa.388.284.vec.insert826 = insertelement <8 x float> %.sroa.388.280.vec.insert819, float %758, i64 7		; visa id: 1144
  %759 = extractelement <8 x float> %.sroa.436.0, i32 0		; visa id: 1145
  %760 = fmul reassoc nsz arcp contract float %759, %simdBroadcast110.8, !spirv.Decorations !1233		; visa id: 1146
  %.sroa.436.288.vec.insert839 = insertelement <8 x float> poison, float %760, i64 0		; visa id: 1147
  %761 = extractelement <8 x float> %.sroa.436.0, i32 1		; visa id: 1148
  %762 = fmul reassoc nsz arcp contract float %761, %simdBroadcast110.9, !spirv.Decorations !1233		; visa id: 1149
  %.sroa.436.292.vec.insert846 = insertelement <8 x float> %.sroa.436.288.vec.insert839, float %762, i64 1		; visa id: 1150
  %763 = extractelement <8 x float> %.sroa.436.0, i32 2		; visa id: 1151
  %764 = fmul reassoc nsz arcp contract float %763, %simdBroadcast110.10, !spirv.Decorations !1233		; visa id: 1152
  %.sroa.436.296.vec.insert853 = insertelement <8 x float> %.sroa.436.292.vec.insert846, float %764, i64 2		; visa id: 1153
  %765 = extractelement <8 x float> %.sroa.436.0, i32 3		; visa id: 1154
  %766 = fmul reassoc nsz arcp contract float %765, %simdBroadcast110.11, !spirv.Decorations !1233		; visa id: 1155
  %.sroa.436.300.vec.insert860 = insertelement <8 x float> %.sroa.436.296.vec.insert853, float %766, i64 3		; visa id: 1156
  %767 = extractelement <8 x float> %.sroa.436.0, i32 4		; visa id: 1157
  %768 = fmul reassoc nsz arcp contract float %767, %simdBroadcast110.12, !spirv.Decorations !1233		; visa id: 1158
  %.sroa.436.304.vec.insert867 = insertelement <8 x float> %.sroa.436.300.vec.insert860, float %768, i64 4		; visa id: 1159
  %769 = extractelement <8 x float> %.sroa.436.0, i32 5		; visa id: 1160
  %770 = fmul reassoc nsz arcp contract float %769, %simdBroadcast110.13, !spirv.Decorations !1233		; visa id: 1161
  %.sroa.436.308.vec.insert874 = insertelement <8 x float> %.sroa.436.304.vec.insert867, float %770, i64 5		; visa id: 1162
  %771 = extractelement <8 x float> %.sroa.436.0, i32 6		; visa id: 1163
  %772 = fmul reassoc nsz arcp contract float %771, %simdBroadcast110.14, !spirv.Decorations !1233		; visa id: 1164
  %.sroa.436.312.vec.insert881 = insertelement <8 x float> %.sroa.436.308.vec.insert874, float %772, i64 6		; visa id: 1165
  %773 = extractelement <8 x float> %.sroa.436.0, i32 7		; visa id: 1166
  %774 = fmul reassoc nsz arcp contract float %773, %simdBroadcast110.15, !spirv.Decorations !1233		; visa id: 1167
  %.sroa.436.316.vec.insert888 = insertelement <8 x float> %.sroa.436.312.vec.insert881, float %774, i64 7		; visa id: 1168
  %775 = extractelement <8 x float> %.sroa.484.0, i32 0		; visa id: 1169
  %776 = fmul reassoc nsz arcp contract float %775, %simdBroadcast110, !spirv.Decorations !1233		; visa id: 1170
  %.sroa.484.320.vec.insert901 = insertelement <8 x float> poison, float %776, i64 0		; visa id: 1171
  %777 = extractelement <8 x float> %.sroa.484.0, i32 1		; visa id: 1172
  %778 = fmul reassoc nsz arcp contract float %777, %simdBroadcast110.1, !spirv.Decorations !1233		; visa id: 1173
  %.sroa.484.324.vec.insert908 = insertelement <8 x float> %.sroa.484.320.vec.insert901, float %778, i64 1		; visa id: 1174
  %779 = extractelement <8 x float> %.sroa.484.0, i32 2		; visa id: 1175
  %780 = fmul reassoc nsz arcp contract float %779, %simdBroadcast110.2, !spirv.Decorations !1233		; visa id: 1176
  %.sroa.484.328.vec.insert915 = insertelement <8 x float> %.sroa.484.324.vec.insert908, float %780, i64 2		; visa id: 1177
  %781 = extractelement <8 x float> %.sroa.484.0, i32 3		; visa id: 1178
  %782 = fmul reassoc nsz arcp contract float %781, %simdBroadcast110.3, !spirv.Decorations !1233		; visa id: 1179
  %.sroa.484.332.vec.insert922 = insertelement <8 x float> %.sroa.484.328.vec.insert915, float %782, i64 3		; visa id: 1180
  %783 = extractelement <8 x float> %.sroa.484.0, i32 4		; visa id: 1181
  %784 = fmul reassoc nsz arcp contract float %783, %simdBroadcast110.4, !spirv.Decorations !1233		; visa id: 1182
  %.sroa.484.336.vec.insert929 = insertelement <8 x float> %.sroa.484.332.vec.insert922, float %784, i64 4		; visa id: 1183
  %785 = extractelement <8 x float> %.sroa.484.0, i32 5		; visa id: 1184
  %786 = fmul reassoc nsz arcp contract float %785, %simdBroadcast110.5, !spirv.Decorations !1233		; visa id: 1185
  %.sroa.484.340.vec.insert936 = insertelement <8 x float> %.sroa.484.336.vec.insert929, float %786, i64 5		; visa id: 1186
  %787 = extractelement <8 x float> %.sroa.484.0, i32 6		; visa id: 1187
  %788 = fmul reassoc nsz arcp contract float %787, %simdBroadcast110.6, !spirv.Decorations !1233		; visa id: 1188
  %.sroa.484.344.vec.insert943 = insertelement <8 x float> %.sroa.484.340.vec.insert936, float %788, i64 6		; visa id: 1189
  %789 = extractelement <8 x float> %.sroa.484.0, i32 7		; visa id: 1190
  %790 = fmul reassoc nsz arcp contract float %789, %simdBroadcast110.7, !spirv.Decorations !1233		; visa id: 1191
  %.sroa.484.348.vec.insert950 = insertelement <8 x float> %.sroa.484.344.vec.insert943, float %790, i64 7		; visa id: 1192
  %791 = extractelement <8 x float> %.sroa.532.0, i32 0		; visa id: 1193
  %792 = fmul reassoc nsz arcp contract float %791, %simdBroadcast110.8, !spirv.Decorations !1233		; visa id: 1194
  %.sroa.532.352.vec.insert963 = insertelement <8 x float> poison, float %792, i64 0		; visa id: 1195
  %793 = extractelement <8 x float> %.sroa.532.0, i32 1		; visa id: 1196
  %794 = fmul reassoc nsz arcp contract float %793, %simdBroadcast110.9, !spirv.Decorations !1233		; visa id: 1197
  %.sroa.532.356.vec.insert970 = insertelement <8 x float> %.sroa.532.352.vec.insert963, float %794, i64 1		; visa id: 1198
  %795 = extractelement <8 x float> %.sroa.532.0, i32 2		; visa id: 1199
  %796 = fmul reassoc nsz arcp contract float %795, %simdBroadcast110.10, !spirv.Decorations !1233		; visa id: 1200
  %.sroa.532.360.vec.insert977 = insertelement <8 x float> %.sroa.532.356.vec.insert970, float %796, i64 2		; visa id: 1201
  %797 = extractelement <8 x float> %.sroa.532.0, i32 3		; visa id: 1202
  %798 = fmul reassoc nsz arcp contract float %797, %simdBroadcast110.11, !spirv.Decorations !1233		; visa id: 1203
  %.sroa.532.364.vec.insert984 = insertelement <8 x float> %.sroa.532.360.vec.insert977, float %798, i64 3		; visa id: 1204
  %799 = extractelement <8 x float> %.sroa.532.0, i32 4		; visa id: 1205
  %800 = fmul reassoc nsz arcp contract float %799, %simdBroadcast110.12, !spirv.Decorations !1233		; visa id: 1206
  %.sroa.532.368.vec.insert991 = insertelement <8 x float> %.sroa.532.364.vec.insert984, float %800, i64 4		; visa id: 1207
  %801 = extractelement <8 x float> %.sroa.532.0, i32 5		; visa id: 1208
  %802 = fmul reassoc nsz arcp contract float %801, %simdBroadcast110.13, !spirv.Decorations !1233		; visa id: 1209
  %.sroa.532.372.vec.insert998 = insertelement <8 x float> %.sroa.532.368.vec.insert991, float %802, i64 5		; visa id: 1210
  %803 = extractelement <8 x float> %.sroa.532.0, i32 6		; visa id: 1211
  %804 = fmul reassoc nsz arcp contract float %803, %simdBroadcast110.14, !spirv.Decorations !1233		; visa id: 1212
  %.sroa.532.376.vec.insert1005 = insertelement <8 x float> %.sroa.532.372.vec.insert998, float %804, i64 6		; visa id: 1213
  %805 = extractelement <8 x float> %.sroa.532.0, i32 7		; visa id: 1214
  %806 = fmul reassoc nsz arcp contract float %805, %simdBroadcast110.15, !spirv.Decorations !1233		; visa id: 1215
  %.sroa.532.380.vec.insert1012 = insertelement <8 x float> %.sroa.532.376.vec.insert1005, float %806, i64 7		; visa id: 1216
  %807 = extractelement <8 x float> %.sroa.580.0, i32 0		; visa id: 1217
  %808 = fmul reassoc nsz arcp contract float %807, %simdBroadcast110, !spirv.Decorations !1233		; visa id: 1218
  %.sroa.580.384.vec.insert1025 = insertelement <8 x float> poison, float %808, i64 0		; visa id: 1219
  %809 = extractelement <8 x float> %.sroa.580.0, i32 1		; visa id: 1220
  %810 = fmul reassoc nsz arcp contract float %809, %simdBroadcast110.1, !spirv.Decorations !1233		; visa id: 1221
  %.sroa.580.388.vec.insert1032 = insertelement <8 x float> %.sroa.580.384.vec.insert1025, float %810, i64 1		; visa id: 1222
  %811 = extractelement <8 x float> %.sroa.580.0, i32 2		; visa id: 1223
  %812 = fmul reassoc nsz arcp contract float %811, %simdBroadcast110.2, !spirv.Decorations !1233		; visa id: 1224
  %.sroa.580.392.vec.insert1039 = insertelement <8 x float> %.sroa.580.388.vec.insert1032, float %812, i64 2		; visa id: 1225
  %813 = extractelement <8 x float> %.sroa.580.0, i32 3		; visa id: 1226
  %814 = fmul reassoc nsz arcp contract float %813, %simdBroadcast110.3, !spirv.Decorations !1233		; visa id: 1227
  %.sroa.580.396.vec.insert1046 = insertelement <8 x float> %.sroa.580.392.vec.insert1039, float %814, i64 3		; visa id: 1228
  %815 = extractelement <8 x float> %.sroa.580.0, i32 4		; visa id: 1229
  %816 = fmul reassoc nsz arcp contract float %815, %simdBroadcast110.4, !spirv.Decorations !1233		; visa id: 1230
  %.sroa.580.400.vec.insert1053 = insertelement <8 x float> %.sroa.580.396.vec.insert1046, float %816, i64 4		; visa id: 1231
  %817 = extractelement <8 x float> %.sroa.580.0, i32 5		; visa id: 1232
  %818 = fmul reassoc nsz arcp contract float %817, %simdBroadcast110.5, !spirv.Decorations !1233		; visa id: 1233
  %.sroa.580.404.vec.insert1060 = insertelement <8 x float> %.sroa.580.400.vec.insert1053, float %818, i64 5		; visa id: 1234
  %819 = extractelement <8 x float> %.sroa.580.0, i32 6		; visa id: 1235
  %820 = fmul reassoc nsz arcp contract float %819, %simdBroadcast110.6, !spirv.Decorations !1233		; visa id: 1236
  %.sroa.580.408.vec.insert1067 = insertelement <8 x float> %.sroa.580.404.vec.insert1060, float %820, i64 6		; visa id: 1237
  %821 = extractelement <8 x float> %.sroa.580.0, i32 7		; visa id: 1238
  %822 = fmul reassoc nsz arcp contract float %821, %simdBroadcast110.7, !spirv.Decorations !1233		; visa id: 1239
  %.sroa.580.412.vec.insert1074 = insertelement <8 x float> %.sroa.580.408.vec.insert1067, float %822, i64 7		; visa id: 1240
  %823 = extractelement <8 x float> %.sroa.628.0, i32 0		; visa id: 1241
  %824 = fmul reassoc nsz arcp contract float %823, %simdBroadcast110.8, !spirv.Decorations !1233		; visa id: 1242
  %.sroa.628.416.vec.insert1087 = insertelement <8 x float> poison, float %824, i64 0		; visa id: 1243
  %825 = extractelement <8 x float> %.sroa.628.0, i32 1		; visa id: 1244
  %826 = fmul reassoc nsz arcp contract float %825, %simdBroadcast110.9, !spirv.Decorations !1233		; visa id: 1245
  %.sroa.628.420.vec.insert1094 = insertelement <8 x float> %.sroa.628.416.vec.insert1087, float %826, i64 1		; visa id: 1246
  %827 = extractelement <8 x float> %.sroa.628.0, i32 2		; visa id: 1247
  %828 = fmul reassoc nsz arcp contract float %827, %simdBroadcast110.10, !spirv.Decorations !1233		; visa id: 1248
  %.sroa.628.424.vec.insert1101 = insertelement <8 x float> %.sroa.628.420.vec.insert1094, float %828, i64 2		; visa id: 1249
  %829 = extractelement <8 x float> %.sroa.628.0, i32 3		; visa id: 1250
  %830 = fmul reassoc nsz arcp contract float %829, %simdBroadcast110.11, !spirv.Decorations !1233		; visa id: 1251
  %.sroa.628.428.vec.insert1108 = insertelement <8 x float> %.sroa.628.424.vec.insert1101, float %830, i64 3		; visa id: 1252
  %831 = extractelement <8 x float> %.sroa.628.0, i32 4		; visa id: 1253
  %832 = fmul reassoc nsz arcp contract float %831, %simdBroadcast110.12, !spirv.Decorations !1233		; visa id: 1254
  %.sroa.628.432.vec.insert1115 = insertelement <8 x float> %.sroa.628.428.vec.insert1108, float %832, i64 4		; visa id: 1255
  %833 = extractelement <8 x float> %.sroa.628.0, i32 5		; visa id: 1256
  %834 = fmul reassoc nsz arcp contract float %833, %simdBroadcast110.13, !spirv.Decorations !1233		; visa id: 1257
  %.sroa.628.436.vec.insert1122 = insertelement <8 x float> %.sroa.628.432.vec.insert1115, float %834, i64 5		; visa id: 1258
  %835 = extractelement <8 x float> %.sroa.628.0, i32 6		; visa id: 1259
  %836 = fmul reassoc nsz arcp contract float %835, %simdBroadcast110.14, !spirv.Decorations !1233		; visa id: 1260
  %.sroa.628.440.vec.insert1129 = insertelement <8 x float> %.sroa.628.436.vec.insert1122, float %836, i64 6		; visa id: 1261
  %837 = extractelement <8 x float> %.sroa.628.0, i32 7		; visa id: 1262
  %838 = fmul reassoc nsz arcp contract float %837, %simdBroadcast110.15, !spirv.Decorations !1233		; visa id: 1263
  %.sroa.628.444.vec.insert1136 = insertelement <8 x float> %.sroa.628.440.vec.insert1129, float %838, i64 7		; visa id: 1264
  %839 = extractelement <8 x float> %.sroa.676.0, i32 0		; visa id: 1265
  %840 = fmul reassoc nsz arcp contract float %839, %simdBroadcast110, !spirv.Decorations !1233		; visa id: 1266
  %.sroa.676.448.vec.insert1149 = insertelement <8 x float> poison, float %840, i64 0		; visa id: 1267
  %841 = extractelement <8 x float> %.sroa.676.0, i32 1		; visa id: 1268
  %842 = fmul reassoc nsz arcp contract float %841, %simdBroadcast110.1, !spirv.Decorations !1233		; visa id: 1269
  %.sroa.676.452.vec.insert1156 = insertelement <8 x float> %.sroa.676.448.vec.insert1149, float %842, i64 1		; visa id: 1270
  %843 = extractelement <8 x float> %.sroa.676.0, i32 2		; visa id: 1271
  %844 = fmul reassoc nsz arcp contract float %843, %simdBroadcast110.2, !spirv.Decorations !1233		; visa id: 1272
  %.sroa.676.456.vec.insert1163 = insertelement <8 x float> %.sroa.676.452.vec.insert1156, float %844, i64 2		; visa id: 1273
  %845 = extractelement <8 x float> %.sroa.676.0, i32 3		; visa id: 1274
  %846 = fmul reassoc nsz arcp contract float %845, %simdBroadcast110.3, !spirv.Decorations !1233		; visa id: 1275
  %.sroa.676.460.vec.insert1170 = insertelement <8 x float> %.sroa.676.456.vec.insert1163, float %846, i64 3		; visa id: 1276
  %847 = extractelement <8 x float> %.sroa.676.0, i32 4		; visa id: 1277
  %848 = fmul reassoc nsz arcp contract float %847, %simdBroadcast110.4, !spirv.Decorations !1233		; visa id: 1278
  %.sroa.676.464.vec.insert1177 = insertelement <8 x float> %.sroa.676.460.vec.insert1170, float %848, i64 4		; visa id: 1279
  %849 = extractelement <8 x float> %.sroa.676.0, i32 5		; visa id: 1280
  %850 = fmul reassoc nsz arcp contract float %849, %simdBroadcast110.5, !spirv.Decorations !1233		; visa id: 1281
  %.sroa.676.468.vec.insert1184 = insertelement <8 x float> %.sroa.676.464.vec.insert1177, float %850, i64 5		; visa id: 1282
  %851 = extractelement <8 x float> %.sroa.676.0, i32 6		; visa id: 1283
  %852 = fmul reassoc nsz arcp contract float %851, %simdBroadcast110.6, !spirv.Decorations !1233		; visa id: 1284
  %.sroa.676.472.vec.insert1191 = insertelement <8 x float> %.sroa.676.468.vec.insert1184, float %852, i64 6		; visa id: 1285
  %853 = extractelement <8 x float> %.sroa.676.0, i32 7		; visa id: 1286
  %854 = fmul reassoc nsz arcp contract float %853, %simdBroadcast110.7, !spirv.Decorations !1233		; visa id: 1287
  %.sroa.676.476.vec.insert1198 = insertelement <8 x float> %.sroa.676.472.vec.insert1191, float %854, i64 7		; visa id: 1288
  %855 = extractelement <8 x float> %.sroa.724.0, i32 0		; visa id: 1289
  %856 = fmul reassoc nsz arcp contract float %855, %simdBroadcast110.8, !spirv.Decorations !1233		; visa id: 1290
  %.sroa.724.480.vec.insert1211 = insertelement <8 x float> poison, float %856, i64 0		; visa id: 1291
  %857 = extractelement <8 x float> %.sroa.724.0, i32 1		; visa id: 1292
  %858 = fmul reassoc nsz arcp contract float %857, %simdBroadcast110.9, !spirv.Decorations !1233		; visa id: 1293
  %.sroa.724.484.vec.insert1218 = insertelement <8 x float> %.sroa.724.480.vec.insert1211, float %858, i64 1		; visa id: 1294
  %859 = extractelement <8 x float> %.sroa.724.0, i32 2		; visa id: 1295
  %860 = fmul reassoc nsz arcp contract float %859, %simdBroadcast110.10, !spirv.Decorations !1233		; visa id: 1296
  %.sroa.724.488.vec.insert1225 = insertelement <8 x float> %.sroa.724.484.vec.insert1218, float %860, i64 2		; visa id: 1297
  %861 = extractelement <8 x float> %.sroa.724.0, i32 3		; visa id: 1298
  %862 = fmul reassoc nsz arcp contract float %861, %simdBroadcast110.11, !spirv.Decorations !1233		; visa id: 1299
  %.sroa.724.492.vec.insert1232 = insertelement <8 x float> %.sroa.724.488.vec.insert1225, float %862, i64 3		; visa id: 1300
  %863 = extractelement <8 x float> %.sroa.724.0, i32 4		; visa id: 1301
  %864 = fmul reassoc nsz arcp contract float %863, %simdBroadcast110.12, !spirv.Decorations !1233		; visa id: 1302
  %.sroa.724.496.vec.insert1239 = insertelement <8 x float> %.sroa.724.492.vec.insert1232, float %864, i64 4		; visa id: 1303
  %865 = extractelement <8 x float> %.sroa.724.0, i32 5		; visa id: 1304
  %866 = fmul reassoc nsz arcp contract float %865, %simdBroadcast110.13, !spirv.Decorations !1233		; visa id: 1305
  %.sroa.724.500.vec.insert1246 = insertelement <8 x float> %.sroa.724.496.vec.insert1239, float %866, i64 5		; visa id: 1306
  %867 = extractelement <8 x float> %.sroa.724.0, i32 6		; visa id: 1307
  %868 = fmul reassoc nsz arcp contract float %867, %simdBroadcast110.14, !spirv.Decorations !1233		; visa id: 1308
  %.sroa.724.504.vec.insert1253 = insertelement <8 x float> %.sroa.724.500.vec.insert1246, float %868, i64 6		; visa id: 1309
  %869 = extractelement <8 x float> %.sroa.724.0, i32 7		; visa id: 1310
  %870 = fmul reassoc nsz arcp contract float %869, %simdBroadcast110.15, !spirv.Decorations !1233		; visa id: 1311
  %.sroa.724.508.vec.insert1260 = insertelement <8 x float> %.sroa.724.504.vec.insert1253, float %870, i64 7		; visa id: 1312
  %871 = fmul reassoc nsz arcp contract float %.sroa.0205.1241, %614, !spirv.Decorations !1233		; visa id: 1313
  br label %.loopexit.i, !stats.blockFrequency.digits !1225, !stats.blockFrequency.scale !1206		; visa id: 1442

.loopexit.i:                                      ; preds = %.preheader3.i.preheader..loopexit.i_crit_edge, %.loopexit.i.loopexit
; BB51 :
  %.sroa.724.2 = phi <8 x float> [ %.sroa.724.508.vec.insert1260, %.loopexit.i.loopexit ], [ %.sroa.724.0, %.preheader3.i.preheader..loopexit.i_crit_edge ]
  %.sroa.676.2 = phi <8 x float> [ %.sroa.676.476.vec.insert1198, %.loopexit.i.loopexit ], [ %.sroa.676.0, %.preheader3.i.preheader..loopexit.i_crit_edge ]
  %.sroa.628.2 = phi <8 x float> [ %.sroa.628.444.vec.insert1136, %.loopexit.i.loopexit ], [ %.sroa.628.0, %.preheader3.i.preheader..loopexit.i_crit_edge ]
  %.sroa.580.2 = phi <8 x float> [ %.sroa.580.412.vec.insert1074, %.loopexit.i.loopexit ], [ %.sroa.580.0, %.preheader3.i.preheader..loopexit.i_crit_edge ]
  %.sroa.532.2 = phi <8 x float> [ %.sroa.532.380.vec.insert1012, %.loopexit.i.loopexit ], [ %.sroa.532.0, %.preheader3.i.preheader..loopexit.i_crit_edge ]
  %.sroa.484.2 = phi <8 x float> [ %.sroa.484.348.vec.insert950, %.loopexit.i.loopexit ], [ %.sroa.484.0, %.preheader3.i.preheader..loopexit.i_crit_edge ]
  %.sroa.436.2 = phi <8 x float> [ %.sroa.436.316.vec.insert888, %.loopexit.i.loopexit ], [ %.sroa.436.0, %.preheader3.i.preheader..loopexit.i_crit_edge ]
  %.sroa.388.2 = phi <8 x float> [ %.sroa.388.284.vec.insert826, %.loopexit.i.loopexit ], [ %.sroa.388.0, %.preheader3.i.preheader..loopexit.i_crit_edge ]
  %.sroa.340.2 = phi <8 x float> [ %.sroa.340.252.vec.insert764, %.loopexit.i.loopexit ], [ %.sroa.340.0, %.preheader3.i.preheader..loopexit.i_crit_edge ]
  %.sroa.292.2 = phi <8 x float> [ %.sroa.292.220.vec.insert702, %.loopexit.i.loopexit ], [ %.sroa.292.0, %.preheader3.i.preheader..loopexit.i_crit_edge ]
  %.sroa.244.2 = phi <8 x float> [ %.sroa.244.188.vec.insert640, %.loopexit.i.loopexit ], [ %.sroa.244.0, %.preheader3.i.preheader..loopexit.i_crit_edge ]
  %.sroa.196.2 = phi <8 x float> [ %.sroa.196.156.vec.insert578, %.loopexit.i.loopexit ], [ %.sroa.196.0, %.preheader3.i.preheader..loopexit.i_crit_edge ]
  %.sroa.148.2 = phi <8 x float> [ %.sroa.148.124.vec.insert516, %.loopexit.i.loopexit ], [ %.sroa.148.0, %.preheader3.i.preheader..loopexit.i_crit_edge ]
  %.sroa.100.2 = phi <8 x float> [ %.sroa.100.92.vec.insert454, %.loopexit.i.loopexit ], [ %.sroa.100.0, %.preheader3.i.preheader..loopexit.i_crit_edge ]
  %.sroa.52.2 = phi <8 x float> [ %.sroa.52.60.vec.insert392, %.loopexit.i.loopexit ], [ %.sroa.52.0, %.preheader3.i.preheader..loopexit.i_crit_edge ]
  %.sroa.0.2 = phi <8 x float> [ %.sroa.0.28.vec.insert330, %.loopexit.i.loopexit ], [ %.sroa.0.0, %.preheader3.i.preheader..loopexit.i_crit_edge ]
  %.sroa.0205.2 = phi float [ %871, %.loopexit.i.loopexit ], [ %.sroa.0205.1241, %.preheader3.i.preheader..loopexit.i_crit_edge ]
  %872 = fadd reassoc nsz arcp contract float %580, %596, !spirv.Decorations !1233		; visa id: 1443
  %873 = fadd reassoc nsz arcp contract float %581, %597, !spirv.Decorations !1233		; visa id: 1444
  %874 = fadd reassoc nsz arcp contract float %582, %598, !spirv.Decorations !1233		; visa id: 1445
  %875 = fadd reassoc nsz arcp contract float %583, %599, !spirv.Decorations !1233		; visa id: 1446
  %876 = fadd reassoc nsz arcp contract float %584, %600, !spirv.Decorations !1233		; visa id: 1447
  %877 = fadd reassoc nsz arcp contract float %585, %601, !spirv.Decorations !1233		; visa id: 1448
  %878 = fadd reassoc nsz arcp contract float %586, %602, !spirv.Decorations !1233		; visa id: 1449
  %879 = fadd reassoc nsz arcp contract float %587, %603, !spirv.Decorations !1233		; visa id: 1450
  %880 = fadd reassoc nsz arcp contract float %588, %604, !spirv.Decorations !1233		; visa id: 1451
  %881 = fadd reassoc nsz arcp contract float %589, %605, !spirv.Decorations !1233		; visa id: 1452
  %882 = fadd reassoc nsz arcp contract float %590, %606, !spirv.Decorations !1233		; visa id: 1453
  %883 = fadd reassoc nsz arcp contract float %591, %607, !spirv.Decorations !1233		; visa id: 1454
  %884 = fadd reassoc nsz arcp contract float %592, %608, !spirv.Decorations !1233		; visa id: 1455
  %885 = fadd reassoc nsz arcp contract float %593, %609, !spirv.Decorations !1233		; visa id: 1456
  %886 = fadd reassoc nsz arcp contract float %594, %610, !spirv.Decorations !1233		; visa id: 1457
  %887 = fadd reassoc nsz arcp contract float %595, %611, !spirv.Decorations !1233		; visa id: 1458
  %888 = call float asm "{\0A.decl INTERLEAVE_2 v_type=P num_elts=16\0A.decl INTERLEAVE_4 v_type=P num_elts=16\0A.decl INTERLEAVE_8 v_type=P num_elts=16\0A.decl IN0 v_type=G type=UD num_elts=16 alias=<$1,0>\0A.decl IN1 v_type=G type=UD num_elts=16 alias=<$2,0>\0A.decl IN2 v_type=G type=UD num_elts=16 alias=<$3,0>\0A.decl IN3 v_type=G type=UD num_elts=16 alias=<$4,0>\0A.decl IN4 v_type=G type=UD num_elts=16 alias=<$5,0>\0A.decl IN5 v_type=G type=UD num_elts=16 alias=<$6,0>\0A.decl IN6 v_type=G type=UD num_elts=16 alias=<$7,0>\0A.decl IN7 v_type=G type=UD num_elts=16 alias=<$8,0>\0A.decl IN8 v_type=G type=UD num_elts=16 alias=<$9,0>\0A.decl IN9 v_type=G type=UD num_elts=16 alias=<$10,0>\0A.decl IN10 v_type=G type=UD num_elts=16 alias=<$11,0>\0A.decl IN11 v_type=G type=UD num_elts=16 alias=<$12,0>\0A.decl IN12 v_type=G type=UD num_elts=16 alias=<$13,0>\0A.decl IN13 v_type=G type=UD num_elts=16 alias=<$14,0>\0A.decl IN14 v_type=G type=UD num_elts=16 alias=<$15,0>\0A.decl IN15 v_type=G type=UD num_elts=16 alias=<$16,0>\0A.decl RA0 v_type=G type=UD num_elts=32 align=64\0A.decl RA2 v_type=G type=UD num_elts=32 align=64\0A.decl RA4 v_type=G type=UD num_elts=32 align=64\0A.decl RA6 v_type=G type=UD num_elts=32 align=64\0A.decl RA8 v_type=G type=UD num_elts=32 align=64\0A.decl RA10 v_type=G type=UD num_elts=32 align=64\0A.decl RA12 v_type=G type=UD num_elts=32 align=64\0A.decl RA14 v_type=G type=UD num_elts=32 align=64\0A.decl RF0 v_type=G type=F num_elts=16 alias=<RA0,0>\0A.decl RF1 v_type=G type=F num_elts=16 alias=<RA0,64>\0A.decl RF2 v_type=G type=F num_elts=16 alias=<RA2,0>\0A.decl RF3 v_type=G type=F num_elts=16 alias=<RA2,64>\0A.decl RF4 v_type=G type=F num_elts=16 alias=<RA4,0>\0A.decl RF5 v_type=G type=F num_elts=16 alias=<RA4,64>\0A.decl RF6 v_type=G type=F num_elts=16 alias=<RA6,0>\0A.decl RF7 v_type=G type=F num_elts=16 alias=<RA6,64>\0A.decl RF8 v_type=G type=F num_elts=16 alias=<RA8,0>\0A.decl RF9 v_type=G type=F num_elts=16 alias=<RA8,64>\0A.decl RF10 v_type=G type=F num_elts=16 alias=<RA10,0>\0A.decl RF11 v_type=G type=F num_elts=16 alias=<RA10,64>\0A.decl RF12 v_type=G type=F num_elts=16 alias=<RA12,0>\0A.decl RF13 v_type=G type=F num_elts=16 alias=<RA12,64>\0A.decl RF14 v_type=G type=F num_elts=16 alias=<RA14,0>\0A.decl RF15 v_type=G type=F num_elts=16 alias=<RA14,64>\0Asetp (M1_NM,16) INTERLEAVE_2 0x5555:uw\0Asetp (M1_NM,16) INTERLEAVE_4 0x3333:uw\0Asetp (M1_NM,16) INTERLEAVE_8 0x0F0F:uw\0A(!INTERLEAVE_2) sel (M1_NM,16) RA0(0,0)<1>  IN1(0,0)<2;2,0>  IN0(0,0)<1;1,0>\0A (INTERLEAVE_2) sel (M1_NM,16) RA0(1,0)<1>  IN0(0,1)<2;2,0>  IN1(0,0)<1;1,0>\0A(!INTERLEAVE_2) sel (M1_NM,16) RA2(0,0)<1>  IN3(0,0)<2;2,0>  IN2(0,0)<1;1,0>\0A (INTERLEAVE_2) sel (M1_NM,16) RA2(1,0)<1>  IN2(0,1)<2;2,0>  IN3(0,0)<1;1,0>\0A(!INTERLEAVE_2) sel (M1_NM,16) RA4(0,0)<1>  IN5(0,0)<2;2,0>  IN4(0,0)<1;1,0>\0A (INTERLEAVE_2) sel (M1_NM,16) RA4(1,0)<1>  IN4(0,1)<2;2,0>  IN5(0,0)<1;1,0>\0A(!INTERLEAVE_2) sel (M1_NM,16) RA6(0,0)<1>  IN7(0,0)<2;2,0>  IN6(0,0)<1;1,0>\0A (INTERLEAVE_2) sel (M1_NM,16) RA6(1,0)<1>  IN6(0,1)<2;2,0>  IN7(0,0)<1;1,0>\0A(!INTERLEAVE_2) sel (M1_NM,16) RA8(0,0)<1>  IN9(0,0)<2;2,0>  IN8(0,0)<1;1,0>\0A (INTERLEAVE_2) sel (M1_NM,16) RA8(1,0)<1>  IN8(0,1)<2;2,0>  IN9(0,0)<1;1,0>\0A(!INTERLEAVE_2) sel (M1_NM,16) RA10(0,0)<1> IN11(0,0)<2;2,0> IN10(0,0)<1;1,0>\0A (INTERLEAVE_2) sel (M1_NM,16) RA10(1,0)<1> IN10(0,1)<2;2,0> IN11(0,0)<1;1,0>\0A(!INTERLEAVE_2) sel (M1_NM,16) RA12(0,0)<1> IN13(0,0)<2;2,0> IN12(0,0)<1;1,0>\0A (INTERLEAVE_2) sel (M1_NM,16) RA12(1,0)<1> IN12(0,1)<2;2,0> IN13(0,0)<1;1,0>\0A(!INTERLEAVE_2) sel (M1_NM,16) RA14(0,0)<1> IN15(0,0)<2;2,0> IN14(0,0)<1;1,0>\0A (INTERLEAVE_2) sel (M1_NM,16) RA14(1,0)<1> IN14(0,1)<2;2,0> IN15(0,0)<1;1,0>\0Aadd (M1_NM,16) RF0(0,0)<1> RF0(0,0)<1;1,0> RF1(0,0)<1;1,0>\0Aadd (M1_NM,16) RF3(0,0)<1> RF2(0,0)<1;1,0> RF3(0,0)<1;1,0>\0Aadd (M1_NM,16) RF4(0,0)<1> RF4(0,0)<1;1,0> RF5(0,0)<1;1,0>\0Aadd (M1_NM,16) RF7(0,0)<1> RF6(0,0)<1;1,0> RF7(0,0)<1;1,0>\0Aadd (M1_NM,16) RF8(0,0)<1> RF8(0,0)<1;1,0> RF9(0,0)<1;1,0>\0Aadd (M1_NM,16) RF11(0,0)<1> RF10(0,0)<1;1,0> RF11(0,0)<1;1,0>\0Aadd (M1_NM,16) RF12(0,0)<1> RF12(0,0)<1;1,0> RF13(0,0)<1;1,0>\0Aadd (M1_NM,16) RF15(0,0)<1> RF14(0,0)<1;1,0> RF15(0,0)<1;1,0>\0A(!INTERLEAVE_4) sel (M1_NM,16) RA0(1,0)<1>  RA2(0,14)<1;1,0>  RA0(0,0)<1;1,0>\0A (INTERLEAVE_4) sel (M1_NM,16) RA0(0,0)<1>  RA0(0,2)<1;1,0>   RA2(1,0)<1;1,0>\0A(!INTERLEAVE_4) sel (M1_NM,16) RA4(1,0)<1>  RA6(0,14)<1;1,0>  RA4(0,0)<1;1,0>\0A (INTERLEAVE_4) sel (M1_NM,16) RA4(0,0)<1>  RA4(0,2)<1;1,0>   RA6(1,0)<1;1,0>\0A(!INTERLEAVE_4) sel (M1_NM,16) RA8(1,0)<1>  RA10(0,14)<1;1,0> RA8(0,0)<1;1,0>\0A (INTERLEAVE_4) sel (M1_NM,16) RA8(0,0)<1>  RA8(0,2)<1;1,0>   RA10(1,0)<1;1,0>\0A(!INTERLEAVE_4) sel (M1_NM,16) RA12(1,0)<1> RA14(0,14)<1;1,0> RA12(0,0)<1;1,0>\0A (INTERLEAVE_4) sel (M1_NM,16) RA12(0,0)<1> RA12(0,2)<1;1,0>  RA14(1,0)<1;1,0>\0Aadd (M1_NM,16) RF0(0,0)<1>  RF0(0,0)<1;1,0>  RF1(0,0)<1;1,0>\0Aadd (M1_NM,16) RF5(0,0)<1>  RF4(0,0)<1;1,0>  RF5(0,0)<1;1,0>\0Aadd (M1_NM,16) RF8(0,0)<1>  RF8(0,0)<1;1,0>  RF9(0,0)<1;1,0>\0Aadd (M1_NM,16) RF13(0,0)<1> RF12(0,0)<1;1,0> RF13(0,0)<1;1,0>\0A(!INTERLEAVE_8) sel (M1_NM,16) RA0(1,0)<1> RA4(0,12)<1;1,0>  RA0(0,0)<1;1,0>\0A (INTERLEAVE_8) sel (M1_NM,16) RA0(0,0)<1> RA0(0,4)<1;1,0>   RA4(1,0)<1;1,0>\0A(!INTERLEAVE_8) sel (M1_NM,16) RA8(1,0)<1> RA12(0,12)<1;1,0> RA8(0,0)<1;1,0>\0A (INTERLEAVE_8) sel (M1_NM,16) RA8(0,0)<1> RA8(0,4)<1;1,0>   RA12(1,0)<1;1,0>\0Aadd (M1_NM,16) RF0(0,0)<1> RF0(0,0)<1;1,0> RF1(0,0)<1;1,0>\0Aadd (M1_NM,16) RF8(0,0)<1> RF8(0,0)<1;1,0> RF9(0,0)<1;1,0>\0Amov (M1_NM, 8) RA0(1,0)<1> RA0(0,8)<1;1,0>\0Amov (M1_NM, 8) RA8(1,8)<1> RA8(0,0)<1;1,0>\0Aadd (M1_NM,8) $0(0,0)<1> RF0(0,0)<1;1,0> RF1(0,0)<1;1,0>\0Aadd (M1_NM,8) $0(0,8)<1> RF8(0,8)<1;1,0> RF9(0,8)<1;1,0>\0A}\0A", "=rw,rw,rw,rw,rw,rw,rw,rw,rw,rw,rw,rw,rw,rw,rw,rw,rw"(float %872, float %873, float %874, float %875, float %876, float %877, float %878, float %879, float %880, float %881, float %882, float %883, float %884, float %885, float %886, float %887) #0		; visa id: 1459
  %bf_cvt = call i16 @llvm.genx.GenISA.ftobf.i16.f32(float %580, i32 0)		; visa id: 1459
  %.sroa.03095.0.vec.insert3113 = insertelement <8 x i16> poison, i16 %bf_cvt, i64 0		; visa id: 1460
  %bf_cvt.1 = call i16 @llvm.genx.GenISA.ftobf.i16.f32(float %581, i32 0)		; visa id: 1461
  %.sroa.03095.2.vec.insert3116 = insertelement <8 x i16> %.sroa.03095.0.vec.insert3113, i16 %bf_cvt.1, i64 1		; visa id: 1462
  %bf_cvt.2 = call i16 @llvm.genx.GenISA.ftobf.i16.f32(float %582, i32 0)		; visa id: 1463
  %.sroa.03095.4.vec.insert3118 = insertelement <8 x i16> %.sroa.03095.2.vec.insert3116, i16 %bf_cvt.2, i64 2		; visa id: 1464
  %bf_cvt.3 = call i16 @llvm.genx.GenISA.ftobf.i16.f32(float %583, i32 0)		; visa id: 1465
  %.sroa.03095.6.vec.insert3120 = insertelement <8 x i16> %.sroa.03095.4.vec.insert3118, i16 %bf_cvt.3, i64 3		; visa id: 1466
  %bf_cvt.4 = call i16 @llvm.genx.GenISA.ftobf.i16.f32(float %584, i32 0)		; visa id: 1467
  %.sroa.03095.8.vec.insert3122 = insertelement <8 x i16> %.sroa.03095.6.vec.insert3120, i16 %bf_cvt.4, i64 4		; visa id: 1468
  %bf_cvt.5 = call i16 @llvm.genx.GenISA.ftobf.i16.f32(float %585, i32 0)		; visa id: 1469
  %.sroa.03095.10.vec.insert3124 = insertelement <8 x i16> %.sroa.03095.8.vec.insert3122, i16 %bf_cvt.5, i64 5		; visa id: 1470
  %bf_cvt.6 = call i16 @llvm.genx.GenISA.ftobf.i16.f32(float %586, i32 0)		; visa id: 1471
  %.sroa.03095.12.vec.insert3126 = insertelement <8 x i16> %.sroa.03095.10.vec.insert3124, i16 %bf_cvt.6, i64 6		; visa id: 1472
  %bf_cvt.7 = call i16 @llvm.genx.GenISA.ftobf.i16.f32(float %587, i32 0)		; visa id: 1473
  %.sroa.03095.14.vec.insert3128 = insertelement <8 x i16> %.sroa.03095.12.vec.insert3126, i16 %bf_cvt.7, i64 7		; visa id: 1474
  %bf_cvt.8 = call i16 @llvm.genx.GenISA.ftobf.i16.f32(float %588, i32 0)		; visa id: 1475
  %.sroa.35.16.vec.insert3147 = insertelement <8 x i16> poison, i16 %bf_cvt.8, i64 0		; visa id: 1476
  %bf_cvt.9 = call i16 @llvm.genx.GenISA.ftobf.i16.f32(float %589, i32 0)		; visa id: 1477
  %.sroa.35.18.vec.insert3149 = insertelement <8 x i16> %.sroa.35.16.vec.insert3147, i16 %bf_cvt.9, i64 1		; visa id: 1478
  %bf_cvt.10 = call i16 @llvm.genx.GenISA.ftobf.i16.f32(float %590, i32 0)		; visa id: 1479
  %.sroa.35.20.vec.insert3151 = insertelement <8 x i16> %.sroa.35.18.vec.insert3149, i16 %bf_cvt.10, i64 2		; visa id: 1480
  %bf_cvt.11 = call i16 @llvm.genx.GenISA.ftobf.i16.f32(float %591, i32 0)		; visa id: 1481
  %.sroa.35.22.vec.insert3153 = insertelement <8 x i16> %.sroa.35.20.vec.insert3151, i16 %bf_cvt.11, i64 3		; visa id: 1482
  %bf_cvt.12 = call i16 @llvm.genx.GenISA.ftobf.i16.f32(float %592, i32 0)		; visa id: 1483
  %.sroa.35.24.vec.insert3155 = insertelement <8 x i16> %.sroa.35.22.vec.insert3153, i16 %bf_cvt.12, i64 4		; visa id: 1484
  %bf_cvt.13 = call i16 @llvm.genx.GenISA.ftobf.i16.f32(float %593, i32 0)		; visa id: 1485
  %.sroa.35.26.vec.insert3157 = insertelement <8 x i16> %.sroa.35.24.vec.insert3155, i16 %bf_cvt.13, i64 5		; visa id: 1486
  %bf_cvt.14 = call i16 @llvm.genx.GenISA.ftobf.i16.f32(float %594, i32 0)		; visa id: 1487
  %.sroa.35.28.vec.insert3159 = insertelement <8 x i16> %.sroa.35.26.vec.insert3157, i16 %bf_cvt.14, i64 6		; visa id: 1488
  %bf_cvt.15 = call i16 @llvm.genx.GenISA.ftobf.i16.f32(float %595, i32 0)		; visa id: 1489
  %.sroa.35.30.vec.insert3161 = insertelement <8 x i16> %.sroa.35.28.vec.insert3159, i16 %bf_cvt.15, i64 7		; visa id: 1490
  %bf_cvt.16 = call i16 @llvm.genx.GenISA.ftobf.i16.f32(float %596, i32 0)		; visa id: 1491
  %.sroa.67.32.vec.insert3180 = insertelement <8 x i16> poison, i16 %bf_cvt.16, i64 0		; visa id: 1492
  %bf_cvt.17 = call i16 @llvm.genx.GenISA.ftobf.i16.f32(float %597, i32 0)		; visa id: 1493
  %.sroa.67.34.vec.insert3182 = insertelement <8 x i16> %.sroa.67.32.vec.insert3180, i16 %bf_cvt.17, i64 1		; visa id: 1494
  %bf_cvt.18 = call i16 @llvm.genx.GenISA.ftobf.i16.f32(float %598, i32 0)		; visa id: 1495
  %.sroa.67.36.vec.insert3184 = insertelement <8 x i16> %.sroa.67.34.vec.insert3182, i16 %bf_cvt.18, i64 2		; visa id: 1496
  %bf_cvt.19 = call i16 @llvm.genx.GenISA.ftobf.i16.f32(float %599, i32 0)		; visa id: 1497
  %.sroa.67.38.vec.insert3186 = insertelement <8 x i16> %.sroa.67.36.vec.insert3184, i16 %bf_cvt.19, i64 3		; visa id: 1498
  %bf_cvt.20 = call i16 @llvm.genx.GenISA.ftobf.i16.f32(float %600, i32 0)		; visa id: 1499
  %.sroa.67.40.vec.insert3188 = insertelement <8 x i16> %.sroa.67.38.vec.insert3186, i16 %bf_cvt.20, i64 4		; visa id: 1500
  %bf_cvt.21 = call i16 @llvm.genx.GenISA.ftobf.i16.f32(float %601, i32 0)		; visa id: 1501
  %.sroa.67.42.vec.insert3190 = insertelement <8 x i16> %.sroa.67.40.vec.insert3188, i16 %bf_cvt.21, i64 5		; visa id: 1502
  %bf_cvt.22 = call i16 @llvm.genx.GenISA.ftobf.i16.f32(float %602, i32 0)		; visa id: 1503
  %.sroa.67.44.vec.insert3192 = insertelement <8 x i16> %.sroa.67.42.vec.insert3190, i16 %bf_cvt.22, i64 6		; visa id: 1504
  %bf_cvt.23 = call i16 @llvm.genx.GenISA.ftobf.i16.f32(float %603, i32 0)		; visa id: 1505
  %.sroa.67.46.vec.insert3194 = insertelement <8 x i16> %.sroa.67.44.vec.insert3192, i16 %bf_cvt.23, i64 7		; visa id: 1506
  %bf_cvt.24 = call i16 @llvm.genx.GenISA.ftobf.i16.f32(float %604, i32 0)		; visa id: 1507
  %.sroa.99.48.vec.insert3213 = insertelement <8 x i16> poison, i16 %bf_cvt.24, i64 0		; visa id: 1508
  %bf_cvt.25 = call i16 @llvm.genx.GenISA.ftobf.i16.f32(float %605, i32 0)		; visa id: 1509
  %.sroa.99.50.vec.insert3215 = insertelement <8 x i16> %.sroa.99.48.vec.insert3213, i16 %bf_cvt.25, i64 1		; visa id: 1510
  %bf_cvt.26 = call i16 @llvm.genx.GenISA.ftobf.i16.f32(float %606, i32 0)		; visa id: 1511
  %.sroa.99.52.vec.insert3217 = insertelement <8 x i16> %.sroa.99.50.vec.insert3215, i16 %bf_cvt.26, i64 2		; visa id: 1512
  %bf_cvt.27 = call i16 @llvm.genx.GenISA.ftobf.i16.f32(float %607, i32 0)		; visa id: 1513
  %.sroa.99.54.vec.insert3219 = insertelement <8 x i16> %.sroa.99.52.vec.insert3217, i16 %bf_cvt.27, i64 3		; visa id: 1514
  %bf_cvt.28 = call i16 @llvm.genx.GenISA.ftobf.i16.f32(float %608, i32 0)		; visa id: 1515
  %.sroa.99.56.vec.insert3221 = insertelement <8 x i16> %.sroa.99.54.vec.insert3219, i16 %bf_cvt.28, i64 4		; visa id: 1516
  %bf_cvt.29 = call i16 @llvm.genx.GenISA.ftobf.i16.f32(float %609, i32 0)		; visa id: 1517
  %.sroa.99.58.vec.insert3223 = insertelement <8 x i16> %.sroa.99.56.vec.insert3221, i16 %bf_cvt.29, i64 5		; visa id: 1518
  %bf_cvt.30 = call i16 @llvm.genx.GenISA.ftobf.i16.f32(float %610, i32 0)		; visa id: 1519
  %.sroa.99.60.vec.insert3225 = insertelement <8 x i16> %.sroa.99.58.vec.insert3223, i16 %bf_cvt.30, i64 6		; visa id: 1520
  %bf_cvt.31 = call i16 @llvm.genx.GenISA.ftobf.i16.f32(float %611, i32 0)		; visa id: 1521
  %.sroa.99.62.vec.insert3227 = insertelement <8 x i16> %.sroa.99.60.vec.insert3225, i16 %bf_cvt.31, i64 7		; visa id: 1522
  call void @llvm.genx.GenISA.LSC2DBlockSetAddrPayloadField.p4i8.i32(i8 addrspace(4)* %Block2D_AddrPayload118, i32 5, i32 %198, i1 false)		; visa id: 1523
  call void @llvm.genx.GenISA.LSC2DBlockSetAddrPayloadField.p4i8.i32(i8 addrspace(4)* %Block2D_AddrPayload118, i32 6, i32 %203, i1 false)		; visa id: 1524
  %889 = call <32 x i16> asm "lsc_load_block2d.ugm (M1, 1)  $0:d$2.$3x$4x$5nt flat[$1+(0,0)]", "=rw,rw.u,P,P,P,P"(i8 addrspace(4)* %Block2D_AddrPayload118, i32 16, i32 2, i32 16, i32 16) #0		; visa id: 1525
  %890 = add i32 %203, 16		; visa id: 1525
  call void @llvm.genx.GenISA.LSC2DBlockSetAddrPayloadField.p4i8.i32(i8 addrspace(4)* %Block2D_AddrPayload118, i32 5, i32 %198, i1 false)		; visa id: 1526
  call void @llvm.genx.GenISA.LSC2DBlockSetAddrPayloadField.p4i8.i32(i8 addrspace(4)* %Block2D_AddrPayload118, i32 6, i32 %890, i1 false)		; visa id: 1527
  %891 = call <32 x i16> asm "lsc_load_block2d.ugm (M1, 1)  $0:d$2.$3x$4x$5nt flat[$1+(0,0)]", "=rw,rw.u,P,P,P,P"(i8 addrspace(4)* %Block2D_AddrPayload118, i32 16, i32 2, i32 16, i32 16) #0		; visa id: 1528
  %892 = extractelement <32 x i16> %889, i32 0		; visa id: 1528
  %893 = insertelement <16 x i16> undef, i16 %892, i32 0		; visa id: 1528
  %894 = extractelement <32 x i16> %889, i32 1		; visa id: 1528
  %895 = insertelement <16 x i16> %893, i16 %894, i32 1		; visa id: 1528
  %896 = extractelement <32 x i16> %889, i32 2		; visa id: 1528
  %897 = insertelement <16 x i16> %895, i16 %896, i32 2		; visa id: 1528
  %898 = extractelement <32 x i16> %889, i32 3		; visa id: 1528
  %899 = insertelement <16 x i16> %897, i16 %898, i32 3		; visa id: 1528
  %900 = extractelement <32 x i16> %889, i32 4		; visa id: 1528
  %901 = insertelement <16 x i16> %899, i16 %900, i32 4		; visa id: 1528
  %902 = extractelement <32 x i16> %889, i32 5		; visa id: 1528
  %903 = insertelement <16 x i16> %901, i16 %902, i32 5		; visa id: 1528
  %904 = extractelement <32 x i16> %889, i32 6		; visa id: 1528
  %905 = insertelement <16 x i16> %903, i16 %904, i32 6		; visa id: 1528
  %906 = extractelement <32 x i16> %889, i32 7		; visa id: 1528
  %907 = insertelement <16 x i16> %905, i16 %906, i32 7		; visa id: 1528
  %908 = extractelement <32 x i16> %889, i32 8		; visa id: 1528
  %909 = insertelement <16 x i16> %907, i16 %908, i32 8		; visa id: 1528
  %910 = extractelement <32 x i16> %889, i32 9		; visa id: 1528
  %911 = insertelement <16 x i16> %909, i16 %910, i32 9		; visa id: 1528
  %912 = extractelement <32 x i16> %889, i32 10		; visa id: 1528
  %913 = insertelement <16 x i16> %911, i16 %912, i32 10		; visa id: 1528
  %914 = extractelement <32 x i16> %889, i32 11		; visa id: 1528
  %915 = insertelement <16 x i16> %913, i16 %914, i32 11		; visa id: 1528
  %916 = extractelement <32 x i16> %889, i32 12		; visa id: 1528
  %917 = insertelement <16 x i16> %915, i16 %916, i32 12		; visa id: 1528
  %918 = extractelement <32 x i16> %889, i32 13		; visa id: 1528
  %919 = insertelement <16 x i16> %917, i16 %918, i32 13		; visa id: 1528
  %920 = extractelement <32 x i16> %889, i32 14		; visa id: 1528
  %921 = insertelement <16 x i16> %919, i16 %920, i32 14		; visa id: 1528
  %922 = extractelement <32 x i16> %889, i32 15		; visa id: 1528
  %923 = insertelement <16 x i16> %921, i16 %922, i32 15		; visa id: 1528
  %924 = extractelement <32 x i16> %889, i32 16		; visa id: 1528
  %925 = insertelement <16 x i16> undef, i16 %924, i32 0		; visa id: 1528
  %926 = extractelement <32 x i16> %889, i32 17		; visa id: 1528
  %927 = insertelement <16 x i16> %925, i16 %926, i32 1		; visa id: 1528
  %928 = extractelement <32 x i16> %889, i32 18		; visa id: 1528
  %929 = insertelement <16 x i16> %927, i16 %928, i32 2		; visa id: 1528
  %930 = extractelement <32 x i16> %889, i32 19		; visa id: 1528
  %931 = insertelement <16 x i16> %929, i16 %930, i32 3		; visa id: 1528
  %932 = extractelement <32 x i16> %889, i32 20		; visa id: 1528
  %933 = insertelement <16 x i16> %931, i16 %932, i32 4		; visa id: 1528
  %934 = extractelement <32 x i16> %889, i32 21		; visa id: 1528
  %935 = insertelement <16 x i16> %933, i16 %934, i32 5		; visa id: 1528
  %936 = extractelement <32 x i16> %889, i32 22		; visa id: 1528
  %937 = insertelement <16 x i16> %935, i16 %936, i32 6		; visa id: 1528
  %938 = extractelement <32 x i16> %889, i32 23		; visa id: 1528
  %939 = insertelement <16 x i16> %937, i16 %938, i32 7		; visa id: 1528
  %940 = extractelement <32 x i16> %889, i32 24		; visa id: 1528
  %941 = insertelement <16 x i16> %939, i16 %940, i32 8		; visa id: 1528
  %942 = extractelement <32 x i16> %889, i32 25		; visa id: 1528
  %943 = insertelement <16 x i16> %941, i16 %942, i32 9		; visa id: 1528
  %944 = extractelement <32 x i16> %889, i32 26		; visa id: 1528
  %945 = insertelement <16 x i16> %943, i16 %944, i32 10		; visa id: 1528
  %946 = extractelement <32 x i16> %889, i32 27		; visa id: 1528
  %947 = insertelement <16 x i16> %945, i16 %946, i32 11		; visa id: 1528
  %948 = extractelement <32 x i16> %889, i32 28		; visa id: 1528
  %949 = insertelement <16 x i16> %947, i16 %948, i32 12		; visa id: 1528
  %950 = extractelement <32 x i16> %889, i32 29		; visa id: 1528
  %951 = insertelement <16 x i16> %949, i16 %950, i32 13		; visa id: 1528
  %952 = extractelement <32 x i16> %889, i32 30		; visa id: 1528
  %953 = insertelement <16 x i16> %951, i16 %952, i32 14		; visa id: 1528
  %954 = extractelement <32 x i16> %889, i32 31		; visa id: 1528
  %955 = insertelement <16 x i16> %953, i16 %954, i32 15		; visa id: 1528
  %956 = extractelement <32 x i16> %891, i32 0		; visa id: 1528
  %957 = insertelement <16 x i16> undef, i16 %956, i32 0		; visa id: 1528
  %958 = extractelement <32 x i16> %891, i32 1		; visa id: 1528
  %959 = insertelement <16 x i16> %957, i16 %958, i32 1		; visa id: 1528
  %960 = extractelement <32 x i16> %891, i32 2		; visa id: 1528
  %961 = insertelement <16 x i16> %959, i16 %960, i32 2		; visa id: 1528
  %962 = extractelement <32 x i16> %891, i32 3		; visa id: 1528
  %963 = insertelement <16 x i16> %961, i16 %962, i32 3		; visa id: 1528
  %964 = extractelement <32 x i16> %891, i32 4		; visa id: 1528
  %965 = insertelement <16 x i16> %963, i16 %964, i32 4		; visa id: 1528
  %966 = extractelement <32 x i16> %891, i32 5		; visa id: 1528
  %967 = insertelement <16 x i16> %965, i16 %966, i32 5		; visa id: 1528
  %968 = extractelement <32 x i16> %891, i32 6		; visa id: 1528
  %969 = insertelement <16 x i16> %967, i16 %968, i32 6		; visa id: 1528
  %970 = extractelement <32 x i16> %891, i32 7		; visa id: 1528
  %971 = insertelement <16 x i16> %969, i16 %970, i32 7		; visa id: 1528
  %972 = extractelement <32 x i16> %891, i32 8		; visa id: 1528
  %973 = insertelement <16 x i16> %971, i16 %972, i32 8		; visa id: 1528
  %974 = extractelement <32 x i16> %891, i32 9		; visa id: 1528
  %975 = insertelement <16 x i16> %973, i16 %974, i32 9		; visa id: 1528
  %976 = extractelement <32 x i16> %891, i32 10		; visa id: 1528
  %977 = insertelement <16 x i16> %975, i16 %976, i32 10		; visa id: 1528
  %978 = extractelement <32 x i16> %891, i32 11		; visa id: 1528
  %979 = insertelement <16 x i16> %977, i16 %978, i32 11		; visa id: 1528
  %980 = extractelement <32 x i16> %891, i32 12		; visa id: 1528
  %981 = insertelement <16 x i16> %979, i16 %980, i32 12		; visa id: 1528
  %982 = extractelement <32 x i16> %891, i32 13		; visa id: 1528
  %983 = insertelement <16 x i16> %981, i16 %982, i32 13		; visa id: 1528
  %984 = extractelement <32 x i16> %891, i32 14		; visa id: 1528
  %985 = insertelement <16 x i16> %983, i16 %984, i32 14		; visa id: 1528
  %986 = extractelement <32 x i16> %891, i32 15		; visa id: 1528
  %987 = insertelement <16 x i16> %985, i16 %986, i32 15		; visa id: 1528
  %988 = extractelement <32 x i16> %891, i32 16		; visa id: 1528
  %989 = insertelement <16 x i16> undef, i16 %988, i32 0		; visa id: 1528
  %990 = extractelement <32 x i16> %891, i32 17		; visa id: 1528
  %991 = insertelement <16 x i16> %989, i16 %990, i32 1		; visa id: 1528
  %992 = extractelement <32 x i16> %891, i32 18		; visa id: 1528
  %993 = insertelement <16 x i16> %991, i16 %992, i32 2		; visa id: 1528
  %994 = extractelement <32 x i16> %891, i32 19		; visa id: 1528
  %995 = insertelement <16 x i16> %993, i16 %994, i32 3		; visa id: 1528
  %996 = extractelement <32 x i16> %891, i32 20		; visa id: 1528
  %997 = insertelement <16 x i16> %995, i16 %996, i32 4		; visa id: 1528
  %998 = extractelement <32 x i16> %891, i32 21		; visa id: 1528
  %999 = insertelement <16 x i16> %997, i16 %998, i32 5		; visa id: 1528
  %1000 = extractelement <32 x i16> %891, i32 22		; visa id: 1528
  %1001 = insertelement <16 x i16> %999, i16 %1000, i32 6		; visa id: 1528
  %1002 = extractelement <32 x i16> %891, i32 23		; visa id: 1528
  %1003 = insertelement <16 x i16> %1001, i16 %1002, i32 7		; visa id: 1528
  %1004 = extractelement <32 x i16> %891, i32 24		; visa id: 1528
  %1005 = insertelement <16 x i16> %1003, i16 %1004, i32 8		; visa id: 1528
  %1006 = extractelement <32 x i16> %891, i32 25		; visa id: 1528
  %1007 = insertelement <16 x i16> %1005, i16 %1006, i32 9		; visa id: 1528
  %1008 = extractelement <32 x i16> %891, i32 26		; visa id: 1528
  %1009 = insertelement <16 x i16> %1007, i16 %1008, i32 10		; visa id: 1528
  %1010 = extractelement <32 x i16> %891, i32 27		; visa id: 1528
  %1011 = insertelement <16 x i16> %1009, i16 %1010, i32 11		; visa id: 1528
  %1012 = extractelement <32 x i16> %891, i32 28		; visa id: 1528
  %1013 = insertelement <16 x i16> %1011, i16 %1012, i32 12		; visa id: 1528
  %1014 = extractelement <32 x i16> %891, i32 29		; visa id: 1528
  %1015 = insertelement <16 x i16> %1013, i16 %1014, i32 13		; visa id: 1528
  %1016 = extractelement <32 x i16> %891, i32 30		; visa id: 1528
  %1017 = insertelement <16 x i16> %1015, i16 %1016, i32 14		; visa id: 1528
  %1018 = extractelement <32 x i16> %891, i32 31		; visa id: 1528
  %1019 = insertelement <16 x i16> %1017, i16 %1018, i32 15		; visa id: 1528
  %1020 = call <8 x float> asm "{\0A.decl DST     v_type=G type=f num_elts=$5 alias=<$0,0>\0A.decl SRC1_UD v_type=G type=UD num_elts=128 alias=<$2,0>\0A.decl SRC2_UD v_type=G type=UD num_elts=$4 alias=<$1,0>\0Adpas.bf.bf.8.$3 (M1, 16) DST.0 DST.0 SRC1_UD.0 SRC2_UD(0,0)\0A}\0A", "=rw,rw,rw,P,P,P,0"(<8 x i16> %.sroa.03095.14.vec.insert3128, <16 x i16> %923, i32 8, i32 64, i32 128, <8 x float> %.sroa.0.2) #0		; visa id: 1528
  %1021 = call <8 x float> asm "{\0A.decl DST     v_type=G type=f num_elts=$5 alias=<$0,0>\0A.decl SRC1_UD v_type=G type=UD num_elts=128 alias=<$2,0>\0A.decl SRC2_UD v_type=G type=UD num_elts=$4 alias=<$1,0>\0Adpas.bf.bf.8.$3 (M1, 16) DST.0 DST.0 SRC1_UD.0 SRC2_UD(0,0)\0A}\0A", "=rw,rw,rw,P,P,P,0"(<8 x i16> %.sroa.35.30.vec.insert3161, <16 x i16> %923, i32 8, i32 64, i32 128, <8 x float> %.sroa.52.2) #0		; visa id: 1528
  %1022 = call <8 x float> asm "{\0A.decl DST     v_type=G type=f num_elts=$5 alias=<$0,0>\0A.decl SRC1_UD v_type=G type=UD num_elts=128 alias=<$2,0>\0A.decl SRC2_UD v_type=G type=UD num_elts=$4 alias=<$1,0>\0Adpas.bf.bf.8.$3 (M1, 16) DST.0 DST.0 SRC1_UD.0 SRC2_UD(0,0)\0A}\0A", "=rw,rw,rw,P,P,P,0"(<8 x i16> %.sroa.35.30.vec.insert3161, <16 x i16> %955, i32 8, i32 64, i32 128, <8 x float> %.sroa.148.2) #0		; visa id: 1528
  %1023 = call <8 x float> asm "{\0A.decl DST     v_type=G type=f num_elts=$5 alias=<$0,0>\0A.decl SRC1_UD v_type=G type=UD num_elts=128 alias=<$2,0>\0A.decl SRC2_UD v_type=G type=UD num_elts=$4 alias=<$1,0>\0Adpas.bf.bf.8.$3 (M1, 16) DST.0 DST.0 SRC1_UD.0 SRC2_UD(0,0)\0A}\0A", "=rw,rw,rw,P,P,P,0"(<8 x i16> %.sroa.03095.14.vec.insert3128, <16 x i16> %955, i32 8, i32 64, i32 128, <8 x float> %.sroa.100.2) #0		; visa id: 1528
  %1024 = call <8 x float> asm "{\0A.decl DST     v_type=G type=f num_elts=$5 alias=<$0,0>\0A.decl SRC1_UD v_type=G type=UD num_elts=128 alias=<$2,0>\0A.decl SRC2_UD v_type=G type=UD num_elts=$4 alias=<$1,0>\0Adpas.bf.bf.8.$3 (M1, 16) DST.0 DST.0 SRC1_UD.0 SRC2_UD(0,0)\0A}\0A", "=rw,rw,rw,P,P,P,0"(<8 x i16> %.sroa.67.46.vec.insert3194, <16 x i16> %987, i32 8, i32 64, i32 128, <8 x float> %1020) #0		; visa id: 1528
  %1025 = call <8 x float> asm "{\0A.decl DST     v_type=G type=f num_elts=$5 alias=<$0,0>\0A.decl SRC1_UD v_type=G type=UD num_elts=128 alias=<$2,0>\0A.decl SRC2_UD v_type=G type=UD num_elts=$4 alias=<$1,0>\0Adpas.bf.bf.8.$3 (M1, 16) DST.0 DST.0 SRC1_UD.0 SRC2_UD(0,0)\0A}\0A", "=rw,rw,rw,P,P,P,0"(<8 x i16> %.sroa.99.62.vec.insert3227, <16 x i16> %987, i32 8, i32 64, i32 128, <8 x float> %1021) #0		; visa id: 1528
  %1026 = call <8 x float> asm "{\0A.decl DST     v_type=G type=f num_elts=$5 alias=<$0,0>\0A.decl SRC1_UD v_type=G type=UD num_elts=128 alias=<$2,0>\0A.decl SRC2_UD v_type=G type=UD num_elts=$4 alias=<$1,0>\0Adpas.bf.bf.8.$3 (M1, 16) DST.0 DST.0 SRC1_UD.0 SRC2_UD(0,0)\0A}\0A", "=rw,rw,rw,P,P,P,0"(<8 x i16> %.sroa.99.62.vec.insert3227, <16 x i16> %1019, i32 8, i32 64, i32 128, <8 x float> %1022) #0		; visa id: 1528
  %1027 = call <8 x float> asm "{\0A.decl DST     v_type=G type=f num_elts=$5 alias=<$0,0>\0A.decl SRC1_UD v_type=G type=UD num_elts=128 alias=<$2,0>\0A.decl SRC2_UD v_type=G type=UD num_elts=$4 alias=<$1,0>\0Adpas.bf.bf.8.$3 (M1, 16) DST.0 DST.0 SRC1_UD.0 SRC2_UD(0,0)\0A}\0A", "=rw,rw,rw,P,P,P,0"(<8 x i16> %.sroa.67.46.vec.insert3194, <16 x i16> %1019, i32 8, i32 64, i32 128, <8 x float> %1023) #0		; visa id: 1528
  call void @llvm.genx.GenISA.LSC2DBlockSetAddrPayloadField.p4i8.i32(i8 addrspace(4)* %Block2D_AddrPayload118, i32 5, i32 %199, i1 false)		; visa id: 1528
  call void @llvm.genx.GenISA.LSC2DBlockSetAddrPayloadField.p4i8.i32(i8 addrspace(4)* %Block2D_AddrPayload118, i32 6, i32 %203, i1 false)		; visa id: 1529
  %1028 = call <32 x i16> asm "lsc_load_block2d.ugm (M1, 1)  $0:d$2.$3x$4x$5nt flat[$1+(0,0)]", "=rw,rw.u,P,P,P,P"(i8 addrspace(4)* %Block2D_AddrPayload118, i32 16, i32 2, i32 16, i32 16) #0		; visa id: 1530
  call void @llvm.genx.GenISA.LSC2DBlockSetAddrPayloadField.p4i8.i32(i8 addrspace(4)* %Block2D_AddrPayload118, i32 5, i32 %199, i1 false)		; visa id: 1530
  call void @llvm.genx.GenISA.LSC2DBlockSetAddrPayloadField.p4i8.i32(i8 addrspace(4)* %Block2D_AddrPayload118, i32 6, i32 %890, i1 false)		; visa id: 1531
  %1029 = call <32 x i16> asm "lsc_load_block2d.ugm (M1, 1)  $0:d$2.$3x$4x$5nt flat[$1+(0,0)]", "=rw,rw.u,P,P,P,P"(i8 addrspace(4)* %Block2D_AddrPayload118, i32 16, i32 2, i32 16, i32 16) #0		; visa id: 1532
  %1030 = extractelement <32 x i16> %1028, i32 0		; visa id: 1532
  %1031 = insertelement <16 x i16> undef, i16 %1030, i32 0		; visa id: 1532
  %1032 = extractelement <32 x i16> %1028, i32 1		; visa id: 1532
  %1033 = insertelement <16 x i16> %1031, i16 %1032, i32 1		; visa id: 1532
  %1034 = extractelement <32 x i16> %1028, i32 2		; visa id: 1532
  %1035 = insertelement <16 x i16> %1033, i16 %1034, i32 2		; visa id: 1532
  %1036 = extractelement <32 x i16> %1028, i32 3		; visa id: 1532
  %1037 = insertelement <16 x i16> %1035, i16 %1036, i32 3		; visa id: 1532
  %1038 = extractelement <32 x i16> %1028, i32 4		; visa id: 1532
  %1039 = insertelement <16 x i16> %1037, i16 %1038, i32 4		; visa id: 1532
  %1040 = extractelement <32 x i16> %1028, i32 5		; visa id: 1532
  %1041 = insertelement <16 x i16> %1039, i16 %1040, i32 5		; visa id: 1532
  %1042 = extractelement <32 x i16> %1028, i32 6		; visa id: 1532
  %1043 = insertelement <16 x i16> %1041, i16 %1042, i32 6		; visa id: 1532
  %1044 = extractelement <32 x i16> %1028, i32 7		; visa id: 1532
  %1045 = insertelement <16 x i16> %1043, i16 %1044, i32 7		; visa id: 1532
  %1046 = extractelement <32 x i16> %1028, i32 8		; visa id: 1532
  %1047 = insertelement <16 x i16> %1045, i16 %1046, i32 8		; visa id: 1532
  %1048 = extractelement <32 x i16> %1028, i32 9		; visa id: 1532
  %1049 = insertelement <16 x i16> %1047, i16 %1048, i32 9		; visa id: 1532
  %1050 = extractelement <32 x i16> %1028, i32 10		; visa id: 1532
  %1051 = insertelement <16 x i16> %1049, i16 %1050, i32 10		; visa id: 1532
  %1052 = extractelement <32 x i16> %1028, i32 11		; visa id: 1532
  %1053 = insertelement <16 x i16> %1051, i16 %1052, i32 11		; visa id: 1532
  %1054 = extractelement <32 x i16> %1028, i32 12		; visa id: 1532
  %1055 = insertelement <16 x i16> %1053, i16 %1054, i32 12		; visa id: 1532
  %1056 = extractelement <32 x i16> %1028, i32 13		; visa id: 1532
  %1057 = insertelement <16 x i16> %1055, i16 %1056, i32 13		; visa id: 1532
  %1058 = extractelement <32 x i16> %1028, i32 14		; visa id: 1532
  %1059 = insertelement <16 x i16> %1057, i16 %1058, i32 14		; visa id: 1532
  %1060 = extractelement <32 x i16> %1028, i32 15		; visa id: 1532
  %1061 = insertelement <16 x i16> %1059, i16 %1060, i32 15		; visa id: 1532
  %1062 = extractelement <32 x i16> %1028, i32 16		; visa id: 1532
  %1063 = insertelement <16 x i16> undef, i16 %1062, i32 0		; visa id: 1532
  %1064 = extractelement <32 x i16> %1028, i32 17		; visa id: 1532
  %1065 = insertelement <16 x i16> %1063, i16 %1064, i32 1		; visa id: 1532
  %1066 = extractelement <32 x i16> %1028, i32 18		; visa id: 1532
  %1067 = insertelement <16 x i16> %1065, i16 %1066, i32 2		; visa id: 1532
  %1068 = extractelement <32 x i16> %1028, i32 19		; visa id: 1532
  %1069 = insertelement <16 x i16> %1067, i16 %1068, i32 3		; visa id: 1532
  %1070 = extractelement <32 x i16> %1028, i32 20		; visa id: 1532
  %1071 = insertelement <16 x i16> %1069, i16 %1070, i32 4		; visa id: 1532
  %1072 = extractelement <32 x i16> %1028, i32 21		; visa id: 1532
  %1073 = insertelement <16 x i16> %1071, i16 %1072, i32 5		; visa id: 1532
  %1074 = extractelement <32 x i16> %1028, i32 22		; visa id: 1532
  %1075 = insertelement <16 x i16> %1073, i16 %1074, i32 6		; visa id: 1532
  %1076 = extractelement <32 x i16> %1028, i32 23		; visa id: 1532
  %1077 = insertelement <16 x i16> %1075, i16 %1076, i32 7		; visa id: 1532
  %1078 = extractelement <32 x i16> %1028, i32 24		; visa id: 1532
  %1079 = insertelement <16 x i16> %1077, i16 %1078, i32 8		; visa id: 1532
  %1080 = extractelement <32 x i16> %1028, i32 25		; visa id: 1532
  %1081 = insertelement <16 x i16> %1079, i16 %1080, i32 9		; visa id: 1532
  %1082 = extractelement <32 x i16> %1028, i32 26		; visa id: 1532
  %1083 = insertelement <16 x i16> %1081, i16 %1082, i32 10		; visa id: 1532
  %1084 = extractelement <32 x i16> %1028, i32 27		; visa id: 1532
  %1085 = insertelement <16 x i16> %1083, i16 %1084, i32 11		; visa id: 1532
  %1086 = extractelement <32 x i16> %1028, i32 28		; visa id: 1532
  %1087 = insertelement <16 x i16> %1085, i16 %1086, i32 12		; visa id: 1532
  %1088 = extractelement <32 x i16> %1028, i32 29		; visa id: 1532
  %1089 = insertelement <16 x i16> %1087, i16 %1088, i32 13		; visa id: 1532
  %1090 = extractelement <32 x i16> %1028, i32 30		; visa id: 1532
  %1091 = insertelement <16 x i16> %1089, i16 %1090, i32 14		; visa id: 1532
  %1092 = extractelement <32 x i16> %1028, i32 31		; visa id: 1532
  %1093 = insertelement <16 x i16> %1091, i16 %1092, i32 15		; visa id: 1532
  %1094 = extractelement <32 x i16> %1029, i32 0		; visa id: 1532
  %1095 = insertelement <16 x i16> undef, i16 %1094, i32 0		; visa id: 1532
  %1096 = extractelement <32 x i16> %1029, i32 1		; visa id: 1532
  %1097 = insertelement <16 x i16> %1095, i16 %1096, i32 1		; visa id: 1532
  %1098 = extractelement <32 x i16> %1029, i32 2		; visa id: 1532
  %1099 = insertelement <16 x i16> %1097, i16 %1098, i32 2		; visa id: 1532
  %1100 = extractelement <32 x i16> %1029, i32 3		; visa id: 1532
  %1101 = insertelement <16 x i16> %1099, i16 %1100, i32 3		; visa id: 1532
  %1102 = extractelement <32 x i16> %1029, i32 4		; visa id: 1532
  %1103 = insertelement <16 x i16> %1101, i16 %1102, i32 4		; visa id: 1532
  %1104 = extractelement <32 x i16> %1029, i32 5		; visa id: 1532
  %1105 = insertelement <16 x i16> %1103, i16 %1104, i32 5		; visa id: 1532
  %1106 = extractelement <32 x i16> %1029, i32 6		; visa id: 1532
  %1107 = insertelement <16 x i16> %1105, i16 %1106, i32 6		; visa id: 1532
  %1108 = extractelement <32 x i16> %1029, i32 7		; visa id: 1532
  %1109 = insertelement <16 x i16> %1107, i16 %1108, i32 7		; visa id: 1532
  %1110 = extractelement <32 x i16> %1029, i32 8		; visa id: 1532
  %1111 = insertelement <16 x i16> %1109, i16 %1110, i32 8		; visa id: 1532
  %1112 = extractelement <32 x i16> %1029, i32 9		; visa id: 1532
  %1113 = insertelement <16 x i16> %1111, i16 %1112, i32 9		; visa id: 1532
  %1114 = extractelement <32 x i16> %1029, i32 10		; visa id: 1532
  %1115 = insertelement <16 x i16> %1113, i16 %1114, i32 10		; visa id: 1532
  %1116 = extractelement <32 x i16> %1029, i32 11		; visa id: 1532
  %1117 = insertelement <16 x i16> %1115, i16 %1116, i32 11		; visa id: 1532
  %1118 = extractelement <32 x i16> %1029, i32 12		; visa id: 1532
  %1119 = insertelement <16 x i16> %1117, i16 %1118, i32 12		; visa id: 1532
  %1120 = extractelement <32 x i16> %1029, i32 13		; visa id: 1532
  %1121 = insertelement <16 x i16> %1119, i16 %1120, i32 13		; visa id: 1532
  %1122 = extractelement <32 x i16> %1029, i32 14		; visa id: 1532
  %1123 = insertelement <16 x i16> %1121, i16 %1122, i32 14		; visa id: 1532
  %1124 = extractelement <32 x i16> %1029, i32 15		; visa id: 1532
  %1125 = insertelement <16 x i16> %1123, i16 %1124, i32 15		; visa id: 1532
  %1126 = extractelement <32 x i16> %1029, i32 16		; visa id: 1532
  %1127 = insertelement <16 x i16> undef, i16 %1126, i32 0		; visa id: 1532
  %1128 = extractelement <32 x i16> %1029, i32 17		; visa id: 1532
  %1129 = insertelement <16 x i16> %1127, i16 %1128, i32 1		; visa id: 1532
  %1130 = extractelement <32 x i16> %1029, i32 18		; visa id: 1532
  %1131 = insertelement <16 x i16> %1129, i16 %1130, i32 2		; visa id: 1532
  %1132 = extractelement <32 x i16> %1029, i32 19		; visa id: 1532
  %1133 = insertelement <16 x i16> %1131, i16 %1132, i32 3		; visa id: 1532
  %1134 = extractelement <32 x i16> %1029, i32 20		; visa id: 1532
  %1135 = insertelement <16 x i16> %1133, i16 %1134, i32 4		; visa id: 1532
  %1136 = extractelement <32 x i16> %1029, i32 21		; visa id: 1532
  %1137 = insertelement <16 x i16> %1135, i16 %1136, i32 5		; visa id: 1532
  %1138 = extractelement <32 x i16> %1029, i32 22		; visa id: 1532
  %1139 = insertelement <16 x i16> %1137, i16 %1138, i32 6		; visa id: 1532
  %1140 = extractelement <32 x i16> %1029, i32 23		; visa id: 1532
  %1141 = insertelement <16 x i16> %1139, i16 %1140, i32 7		; visa id: 1532
  %1142 = extractelement <32 x i16> %1029, i32 24		; visa id: 1532
  %1143 = insertelement <16 x i16> %1141, i16 %1142, i32 8		; visa id: 1532
  %1144 = extractelement <32 x i16> %1029, i32 25		; visa id: 1532
  %1145 = insertelement <16 x i16> %1143, i16 %1144, i32 9		; visa id: 1532
  %1146 = extractelement <32 x i16> %1029, i32 26		; visa id: 1532
  %1147 = insertelement <16 x i16> %1145, i16 %1146, i32 10		; visa id: 1532
  %1148 = extractelement <32 x i16> %1029, i32 27		; visa id: 1532
  %1149 = insertelement <16 x i16> %1147, i16 %1148, i32 11		; visa id: 1532
  %1150 = extractelement <32 x i16> %1029, i32 28		; visa id: 1532
  %1151 = insertelement <16 x i16> %1149, i16 %1150, i32 12		; visa id: 1532
  %1152 = extractelement <32 x i16> %1029, i32 29		; visa id: 1532
  %1153 = insertelement <16 x i16> %1151, i16 %1152, i32 13		; visa id: 1532
  %1154 = extractelement <32 x i16> %1029, i32 30		; visa id: 1532
  %1155 = insertelement <16 x i16> %1153, i16 %1154, i32 14		; visa id: 1532
  %1156 = extractelement <32 x i16> %1029, i32 31		; visa id: 1532
  %1157 = insertelement <16 x i16> %1155, i16 %1156, i32 15		; visa id: 1532
  %1158 = call <8 x float> asm "{\0A.decl DST     v_type=G type=f num_elts=$5 alias=<$0,0>\0A.decl SRC1_UD v_type=G type=UD num_elts=128 alias=<$2,0>\0A.decl SRC2_UD v_type=G type=UD num_elts=$4 alias=<$1,0>\0Adpas.bf.bf.8.$3 (M1, 16) DST.0 DST.0 SRC1_UD.0 SRC2_UD(0,0)\0A}\0A", "=rw,rw,rw,P,P,P,0"(<8 x i16> %.sroa.03095.14.vec.insert3128, <16 x i16> %1061, i32 8, i32 64, i32 128, <8 x float> %.sroa.196.2) #0		; visa id: 1532
  %1159 = call <8 x float> asm "{\0A.decl DST     v_type=G type=f num_elts=$5 alias=<$0,0>\0A.decl SRC1_UD v_type=G type=UD num_elts=128 alias=<$2,0>\0A.decl SRC2_UD v_type=G type=UD num_elts=$4 alias=<$1,0>\0Adpas.bf.bf.8.$3 (M1, 16) DST.0 DST.0 SRC1_UD.0 SRC2_UD(0,0)\0A}\0A", "=rw,rw,rw,P,P,P,0"(<8 x i16> %.sroa.35.30.vec.insert3161, <16 x i16> %1061, i32 8, i32 64, i32 128, <8 x float> %.sroa.244.2) #0		; visa id: 1532
  %1160 = call <8 x float> asm "{\0A.decl DST     v_type=G type=f num_elts=$5 alias=<$0,0>\0A.decl SRC1_UD v_type=G type=UD num_elts=128 alias=<$2,0>\0A.decl SRC2_UD v_type=G type=UD num_elts=$4 alias=<$1,0>\0Adpas.bf.bf.8.$3 (M1, 16) DST.0 DST.0 SRC1_UD.0 SRC2_UD(0,0)\0A}\0A", "=rw,rw,rw,P,P,P,0"(<8 x i16> %.sroa.35.30.vec.insert3161, <16 x i16> %1093, i32 8, i32 64, i32 128, <8 x float> %.sroa.340.2) #0		; visa id: 1532
  %1161 = call <8 x float> asm "{\0A.decl DST     v_type=G type=f num_elts=$5 alias=<$0,0>\0A.decl SRC1_UD v_type=G type=UD num_elts=128 alias=<$2,0>\0A.decl SRC2_UD v_type=G type=UD num_elts=$4 alias=<$1,0>\0Adpas.bf.bf.8.$3 (M1, 16) DST.0 DST.0 SRC1_UD.0 SRC2_UD(0,0)\0A}\0A", "=rw,rw,rw,P,P,P,0"(<8 x i16> %.sroa.03095.14.vec.insert3128, <16 x i16> %1093, i32 8, i32 64, i32 128, <8 x float> %.sroa.292.2) #0		; visa id: 1532
  %1162 = call <8 x float> asm "{\0A.decl DST     v_type=G type=f num_elts=$5 alias=<$0,0>\0A.decl SRC1_UD v_type=G type=UD num_elts=128 alias=<$2,0>\0A.decl SRC2_UD v_type=G type=UD num_elts=$4 alias=<$1,0>\0Adpas.bf.bf.8.$3 (M1, 16) DST.0 DST.0 SRC1_UD.0 SRC2_UD(0,0)\0A}\0A", "=rw,rw,rw,P,P,P,0"(<8 x i16> %.sroa.67.46.vec.insert3194, <16 x i16> %1125, i32 8, i32 64, i32 128, <8 x float> %1158) #0		; visa id: 1532
  %1163 = call <8 x float> asm "{\0A.decl DST     v_type=G type=f num_elts=$5 alias=<$0,0>\0A.decl SRC1_UD v_type=G type=UD num_elts=128 alias=<$2,0>\0A.decl SRC2_UD v_type=G type=UD num_elts=$4 alias=<$1,0>\0Adpas.bf.bf.8.$3 (M1, 16) DST.0 DST.0 SRC1_UD.0 SRC2_UD(0,0)\0A}\0A", "=rw,rw,rw,P,P,P,0"(<8 x i16> %.sroa.99.62.vec.insert3227, <16 x i16> %1125, i32 8, i32 64, i32 128, <8 x float> %1159) #0		; visa id: 1532
  %1164 = call <8 x float> asm "{\0A.decl DST     v_type=G type=f num_elts=$5 alias=<$0,0>\0A.decl SRC1_UD v_type=G type=UD num_elts=128 alias=<$2,0>\0A.decl SRC2_UD v_type=G type=UD num_elts=$4 alias=<$1,0>\0Adpas.bf.bf.8.$3 (M1, 16) DST.0 DST.0 SRC1_UD.0 SRC2_UD(0,0)\0A}\0A", "=rw,rw,rw,P,P,P,0"(<8 x i16> %.sroa.99.62.vec.insert3227, <16 x i16> %1157, i32 8, i32 64, i32 128, <8 x float> %1160) #0		; visa id: 1532
  %1165 = call <8 x float> asm "{\0A.decl DST     v_type=G type=f num_elts=$5 alias=<$0,0>\0A.decl SRC1_UD v_type=G type=UD num_elts=128 alias=<$2,0>\0A.decl SRC2_UD v_type=G type=UD num_elts=$4 alias=<$1,0>\0Adpas.bf.bf.8.$3 (M1, 16) DST.0 DST.0 SRC1_UD.0 SRC2_UD(0,0)\0A}\0A", "=rw,rw,rw,P,P,P,0"(<8 x i16> %.sroa.67.46.vec.insert3194, <16 x i16> %1157, i32 8, i32 64, i32 128, <8 x float> %1161) #0		; visa id: 1532
  call void @llvm.genx.GenISA.LSC2DBlockSetAddrPayloadField.p4i8.i32(i8 addrspace(4)* %Block2D_AddrPayload118, i32 5, i32 %200, i1 false)		; visa id: 1532
  call void @llvm.genx.GenISA.LSC2DBlockSetAddrPayloadField.p4i8.i32(i8 addrspace(4)* %Block2D_AddrPayload118, i32 6, i32 %203, i1 false)		; visa id: 1533
  %1166 = call <32 x i16> asm "lsc_load_block2d.ugm (M1, 1)  $0:d$2.$3x$4x$5nt flat[$1+(0,0)]", "=rw,rw.u,P,P,P,P"(i8 addrspace(4)* %Block2D_AddrPayload118, i32 16, i32 2, i32 16, i32 16) #0		; visa id: 1534
  call void @llvm.genx.GenISA.LSC2DBlockSetAddrPayloadField.p4i8.i32(i8 addrspace(4)* %Block2D_AddrPayload118, i32 5, i32 %200, i1 false)		; visa id: 1534
  call void @llvm.genx.GenISA.LSC2DBlockSetAddrPayloadField.p4i8.i32(i8 addrspace(4)* %Block2D_AddrPayload118, i32 6, i32 %890, i1 false)		; visa id: 1535
  %1167 = call <32 x i16> asm "lsc_load_block2d.ugm (M1, 1)  $0:d$2.$3x$4x$5nt flat[$1+(0,0)]", "=rw,rw.u,P,P,P,P"(i8 addrspace(4)* %Block2D_AddrPayload118, i32 16, i32 2, i32 16, i32 16) #0		; visa id: 1536
  %1168 = extractelement <32 x i16> %1166, i32 0		; visa id: 1536
  %1169 = insertelement <16 x i16> undef, i16 %1168, i32 0		; visa id: 1536
  %1170 = extractelement <32 x i16> %1166, i32 1		; visa id: 1536
  %1171 = insertelement <16 x i16> %1169, i16 %1170, i32 1		; visa id: 1536
  %1172 = extractelement <32 x i16> %1166, i32 2		; visa id: 1536
  %1173 = insertelement <16 x i16> %1171, i16 %1172, i32 2		; visa id: 1536
  %1174 = extractelement <32 x i16> %1166, i32 3		; visa id: 1536
  %1175 = insertelement <16 x i16> %1173, i16 %1174, i32 3		; visa id: 1536
  %1176 = extractelement <32 x i16> %1166, i32 4		; visa id: 1536
  %1177 = insertelement <16 x i16> %1175, i16 %1176, i32 4		; visa id: 1536
  %1178 = extractelement <32 x i16> %1166, i32 5		; visa id: 1536
  %1179 = insertelement <16 x i16> %1177, i16 %1178, i32 5		; visa id: 1536
  %1180 = extractelement <32 x i16> %1166, i32 6		; visa id: 1536
  %1181 = insertelement <16 x i16> %1179, i16 %1180, i32 6		; visa id: 1536
  %1182 = extractelement <32 x i16> %1166, i32 7		; visa id: 1536
  %1183 = insertelement <16 x i16> %1181, i16 %1182, i32 7		; visa id: 1536
  %1184 = extractelement <32 x i16> %1166, i32 8		; visa id: 1536
  %1185 = insertelement <16 x i16> %1183, i16 %1184, i32 8		; visa id: 1536
  %1186 = extractelement <32 x i16> %1166, i32 9		; visa id: 1536
  %1187 = insertelement <16 x i16> %1185, i16 %1186, i32 9		; visa id: 1536
  %1188 = extractelement <32 x i16> %1166, i32 10		; visa id: 1536
  %1189 = insertelement <16 x i16> %1187, i16 %1188, i32 10		; visa id: 1536
  %1190 = extractelement <32 x i16> %1166, i32 11		; visa id: 1536
  %1191 = insertelement <16 x i16> %1189, i16 %1190, i32 11		; visa id: 1536
  %1192 = extractelement <32 x i16> %1166, i32 12		; visa id: 1536
  %1193 = insertelement <16 x i16> %1191, i16 %1192, i32 12		; visa id: 1536
  %1194 = extractelement <32 x i16> %1166, i32 13		; visa id: 1536
  %1195 = insertelement <16 x i16> %1193, i16 %1194, i32 13		; visa id: 1536
  %1196 = extractelement <32 x i16> %1166, i32 14		; visa id: 1536
  %1197 = insertelement <16 x i16> %1195, i16 %1196, i32 14		; visa id: 1536
  %1198 = extractelement <32 x i16> %1166, i32 15		; visa id: 1536
  %1199 = insertelement <16 x i16> %1197, i16 %1198, i32 15		; visa id: 1536
  %1200 = extractelement <32 x i16> %1166, i32 16		; visa id: 1536
  %1201 = insertelement <16 x i16> undef, i16 %1200, i32 0		; visa id: 1536
  %1202 = extractelement <32 x i16> %1166, i32 17		; visa id: 1536
  %1203 = insertelement <16 x i16> %1201, i16 %1202, i32 1		; visa id: 1536
  %1204 = extractelement <32 x i16> %1166, i32 18		; visa id: 1536
  %1205 = insertelement <16 x i16> %1203, i16 %1204, i32 2		; visa id: 1536
  %1206 = extractelement <32 x i16> %1166, i32 19		; visa id: 1536
  %1207 = insertelement <16 x i16> %1205, i16 %1206, i32 3		; visa id: 1536
  %1208 = extractelement <32 x i16> %1166, i32 20		; visa id: 1536
  %1209 = insertelement <16 x i16> %1207, i16 %1208, i32 4		; visa id: 1536
  %1210 = extractelement <32 x i16> %1166, i32 21		; visa id: 1536
  %1211 = insertelement <16 x i16> %1209, i16 %1210, i32 5		; visa id: 1536
  %1212 = extractelement <32 x i16> %1166, i32 22		; visa id: 1536
  %1213 = insertelement <16 x i16> %1211, i16 %1212, i32 6		; visa id: 1536
  %1214 = extractelement <32 x i16> %1166, i32 23		; visa id: 1536
  %1215 = insertelement <16 x i16> %1213, i16 %1214, i32 7		; visa id: 1536
  %1216 = extractelement <32 x i16> %1166, i32 24		; visa id: 1536
  %1217 = insertelement <16 x i16> %1215, i16 %1216, i32 8		; visa id: 1536
  %1218 = extractelement <32 x i16> %1166, i32 25		; visa id: 1536
  %1219 = insertelement <16 x i16> %1217, i16 %1218, i32 9		; visa id: 1536
  %1220 = extractelement <32 x i16> %1166, i32 26		; visa id: 1536
  %1221 = insertelement <16 x i16> %1219, i16 %1220, i32 10		; visa id: 1536
  %1222 = extractelement <32 x i16> %1166, i32 27		; visa id: 1536
  %1223 = insertelement <16 x i16> %1221, i16 %1222, i32 11		; visa id: 1536
  %1224 = extractelement <32 x i16> %1166, i32 28		; visa id: 1536
  %1225 = insertelement <16 x i16> %1223, i16 %1224, i32 12		; visa id: 1536
  %1226 = extractelement <32 x i16> %1166, i32 29		; visa id: 1536
  %1227 = insertelement <16 x i16> %1225, i16 %1226, i32 13		; visa id: 1536
  %1228 = extractelement <32 x i16> %1166, i32 30		; visa id: 1536
  %1229 = insertelement <16 x i16> %1227, i16 %1228, i32 14		; visa id: 1536
  %1230 = extractelement <32 x i16> %1166, i32 31		; visa id: 1536
  %1231 = insertelement <16 x i16> %1229, i16 %1230, i32 15		; visa id: 1536
  %1232 = extractelement <32 x i16> %1167, i32 0		; visa id: 1536
  %1233 = insertelement <16 x i16> undef, i16 %1232, i32 0		; visa id: 1536
  %1234 = extractelement <32 x i16> %1167, i32 1		; visa id: 1536
  %1235 = insertelement <16 x i16> %1233, i16 %1234, i32 1		; visa id: 1536
  %1236 = extractelement <32 x i16> %1167, i32 2		; visa id: 1536
  %1237 = insertelement <16 x i16> %1235, i16 %1236, i32 2		; visa id: 1536
  %1238 = extractelement <32 x i16> %1167, i32 3		; visa id: 1536
  %1239 = insertelement <16 x i16> %1237, i16 %1238, i32 3		; visa id: 1536
  %1240 = extractelement <32 x i16> %1167, i32 4		; visa id: 1536
  %1241 = insertelement <16 x i16> %1239, i16 %1240, i32 4		; visa id: 1536
  %1242 = extractelement <32 x i16> %1167, i32 5		; visa id: 1536
  %1243 = insertelement <16 x i16> %1241, i16 %1242, i32 5		; visa id: 1536
  %1244 = extractelement <32 x i16> %1167, i32 6		; visa id: 1536
  %1245 = insertelement <16 x i16> %1243, i16 %1244, i32 6		; visa id: 1536
  %1246 = extractelement <32 x i16> %1167, i32 7		; visa id: 1536
  %1247 = insertelement <16 x i16> %1245, i16 %1246, i32 7		; visa id: 1536
  %1248 = extractelement <32 x i16> %1167, i32 8		; visa id: 1536
  %1249 = insertelement <16 x i16> %1247, i16 %1248, i32 8		; visa id: 1536
  %1250 = extractelement <32 x i16> %1167, i32 9		; visa id: 1536
  %1251 = insertelement <16 x i16> %1249, i16 %1250, i32 9		; visa id: 1536
  %1252 = extractelement <32 x i16> %1167, i32 10		; visa id: 1536
  %1253 = insertelement <16 x i16> %1251, i16 %1252, i32 10		; visa id: 1536
  %1254 = extractelement <32 x i16> %1167, i32 11		; visa id: 1536
  %1255 = insertelement <16 x i16> %1253, i16 %1254, i32 11		; visa id: 1536
  %1256 = extractelement <32 x i16> %1167, i32 12		; visa id: 1536
  %1257 = insertelement <16 x i16> %1255, i16 %1256, i32 12		; visa id: 1536
  %1258 = extractelement <32 x i16> %1167, i32 13		; visa id: 1536
  %1259 = insertelement <16 x i16> %1257, i16 %1258, i32 13		; visa id: 1536
  %1260 = extractelement <32 x i16> %1167, i32 14		; visa id: 1536
  %1261 = insertelement <16 x i16> %1259, i16 %1260, i32 14		; visa id: 1536
  %1262 = extractelement <32 x i16> %1167, i32 15		; visa id: 1536
  %1263 = insertelement <16 x i16> %1261, i16 %1262, i32 15		; visa id: 1536
  %1264 = extractelement <32 x i16> %1167, i32 16		; visa id: 1536
  %1265 = insertelement <16 x i16> undef, i16 %1264, i32 0		; visa id: 1536
  %1266 = extractelement <32 x i16> %1167, i32 17		; visa id: 1536
  %1267 = insertelement <16 x i16> %1265, i16 %1266, i32 1		; visa id: 1536
  %1268 = extractelement <32 x i16> %1167, i32 18		; visa id: 1536
  %1269 = insertelement <16 x i16> %1267, i16 %1268, i32 2		; visa id: 1536
  %1270 = extractelement <32 x i16> %1167, i32 19		; visa id: 1536
  %1271 = insertelement <16 x i16> %1269, i16 %1270, i32 3		; visa id: 1536
  %1272 = extractelement <32 x i16> %1167, i32 20		; visa id: 1536
  %1273 = insertelement <16 x i16> %1271, i16 %1272, i32 4		; visa id: 1536
  %1274 = extractelement <32 x i16> %1167, i32 21		; visa id: 1536
  %1275 = insertelement <16 x i16> %1273, i16 %1274, i32 5		; visa id: 1536
  %1276 = extractelement <32 x i16> %1167, i32 22		; visa id: 1536
  %1277 = insertelement <16 x i16> %1275, i16 %1276, i32 6		; visa id: 1536
  %1278 = extractelement <32 x i16> %1167, i32 23		; visa id: 1536
  %1279 = insertelement <16 x i16> %1277, i16 %1278, i32 7		; visa id: 1536
  %1280 = extractelement <32 x i16> %1167, i32 24		; visa id: 1536
  %1281 = insertelement <16 x i16> %1279, i16 %1280, i32 8		; visa id: 1536
  %1282 = extractelement <32 x i16> %1167, i32 25		; visa id: 1536
  %1283 = insertelement <16 x i16> %1281, i16 %1282, i32 9		; visa id: 1536
  %1284 = extractelement <32 x i16> %1167, i32 26		; visa id: 1536
  %1285 = insertelement <16 x i16> %1283, i16 %1284, i32 10		; visa id: 1536
  %1286 = extractelement <32 x i16> %1167, i32 27		; visa id: 1536
  %1287 = insertelement <16 x i16> %1285, i16 %1286, i32 11		; visa id: 1536
  %1288 = extractelement <32 x i16> %1167, i32 28		; visa id: 1536
  %1289 = insertelement <16 x i16> %1287, i16 %1288, i32 12		; visa id: 1536
  %1290 = extractelement <32 x i16> %1167, i32 29		; visa id: 1536
  %1291 = insertelement <16 x i16> %1289, i16 %1290, i32 13		; visa id: 1536
  %1292 = extractelement <32 x i16> %1167, i32 30		; visa id: 1536
  %1293 = insertelement <16 x i16> %1291, i16 %1292, i32 14		; visa id: 1536
  %1294 = extractelement <32 x i16> %1167, i32 31		; visa id: 1536
  %1295 = insertelement <16 x i16> %1293, i16 %1294, i32 15		; visa id: 1536
  %1296 = call <8 x float> asm "{\0A.decl DST     v_type=G type=f num_elts=$5 alias=<$0,0>\0A.decl SRC1_UD v_type=G type=UD num_elts=128 alias=<$2,0>\0A.decl SRC2_UD v_type=G type=UD num_elts=$4 alias=<$1,0>\0Adpas.bf.bf.8.$3 (M1, 16) DST.0 DST.0 SRC1_UD.0 SRC2_UD(0,0)\0A}\0A", "=rw,rw,rw,P,P,P,0"(<8 x i16> %.sroa.03095.14.vec.insert3128, <16 x i16> %1199, i32 8, i32 64, i32 128, <8 x float> %.sroa.388.2) #0		; visa id: 1536
  %1297 = call <8 x float> asm "{\0A.decl DST     v_type=G type=f num_elts=$5 alias=<$0,0>\0A.decl SRC1_UD v_type=G type=UD num_elts=128 alias=<$2,0>\0A.decl SRC2_UD v_type=G type=UD num_elts=$4 alias=<$1,0>\0Adpas.bf.bf.8.$3 (M1, 16) DST.0 DST.0 SRC1_UD.0 SRC2_UD(0,0)\0A}\0A", "=rw,rw,rw,P,P,P,0"(<8 x i16> %.sroa.35.30.vec.insert3161, <16 x i16> %1199, i32 8, i32 64, i32 128, <8 x float> %.sroa.436.2) #0		; visa id: 1536
  %1298 = call <8 x float> asm "{\0A.decl DST     v_type=G type=f num_elts=$5 alias=<$0,0>\0A.decl SRC1_UD v_type=G type=UD num_elts=128 alias=<$2,0>\0A.decl SRC2_UD v_type=G type=UD num_elts=$4 alias=<$1,0>\0Adpas.bf.bf.8.$3 (M1, 16) DST.0 DST.0 SRC1_UD.0 SRC2_UD(0,0)\0A}\0A", "=rw,rw,rw,P,P,P,0"(<8 x i16> %.sroa.35.30.vec.insert3161, <16 x i16> %1231, i32 8, i32 64, i32 128, <8 x float> %.sroa.532.2) #0		; visa id: 1536
  %1299 = call <8 x float> asm "{\0A.decl DST     v_type=G type=f num_elts=$5 alias=<$0,0>\0A.decl SRC1_UD v_type=G type=UD num_elts=128 alias=<$2,0>\0A.decl SRC2_UD v_type=G type=UD num_elts=$4 alias=<$1,0>\0Adpas.bf.bf.8.$3 (M1, 16) DST.0 DST.0 SRC1_UD.0 SRC2_UD(0,0)\0A}\0A", "=rw,rw,rw,P,P,P,0"(<8 x i16> %.sroa.03095.14.vec.insert3128, <16 x i16> %1231, i32 8, i32 64, i32 128, <8 x float> %.sroa.484.2) #0		; visa id: 1536
  %1300 = call <8 x float> asm "{\0A.decl DST     v_type=G type=f num_elts=$5 alias=<$0,0>\0A.decl SRC1_UD v_type=G type=UD num_elts=128 alias=<$2,0>\0A.decl SRC2_UD v_type=G type=UD num_elts=$4 alias=<$1,0>\0Adpas.bf.bf.8.$3 (M1, 16) DST.0 DST.0 SRC1_UD.0 SRC2_UD(0,0)\0A}\0A", "=rw,rw,rw,P,P,P,0"(<8 x i16> %.sroa.67.46.vec.insert3194, <16 x i16> %1263, i32 8, i32 64, i32 128, <8 x float> %1296) #0		; visa id: 1536
  %1301 = call <8 x float> asm "{\0A.decl DST     v_type=G type=f num_elts=$5 alias=<$0,0>\0A.decl SRC1_UD v_type=G type=UD num_elts=128 alias=<$2,0>\0A.decl SRC2_UD v_type=G type=UD num_elts=$4 alias=<$1,0>\0Adpas.bf.bf.8.$3 (M1, 16) DST.0 DST.0 SRC1_UD.0 SRC2_UD(0,0)\0A}\0A", "=rw,rw,rw,P,P,P,0"(<8 x i16> %.sroa.99.62.vec.insert3227, <16 x i16> %1263, i32 8, i32 64, i32 128, <8 x float> %1297) #0		; visa id: 1536
  %1302 = call <8 x float> asm "{\0A.decl DST     v_type=G type=f num_elts=$5 alias=<$0,0>\0A.decl SRC1_UD v_type=G type=UD num_elts=128 alias=<$2,0>\0A.decl SRC2_UD v_type=G type=UD num_elts=$4 alias=<$1,0>\0Adpas.bf.bf.8.$3 (M1, 16) DST.0 DST.0 SRC1_UD.0 SRC2_UD(0,0)\0A}\0A", "=rw,rw,rw,P,P,P,0"(<8 x i16> %.sroa.99.62.vec.insert3227, <16 x i16> %1295, i32 8, i32 64, i32 128, <8 x float> %1298) #0		; visa id: 1536
  %1303 = call <8 x float> asm "{\0A.decl DST     v_type=G type=f num_elts=$5 alias=<$0,0>\0A.decl SRC1_UD v_type=G type=UD num_elts=128 alias=<$2,0>\0A.decl SRC2_UD v_type=G type=UD num_elts=$4 alias=<$1,0>\0Adpas.bf.bf.8.$3 (M1, 16) DST.0 DST.0 SRC1_UD.0 SRC2_UD(0,0)\0A}\0A", "=rw,rw,rw,P,P,P,0"(<8 x i16> %.sroa.67.46.vec.insert3194, <16 x i16> %1295, i32 8, i32 64, i32 128, <8 x float> %1299) #0		; visa id: 1536
  call void @llvm.genx.GenISA.LSC2DBlockSetAddrPayloadField.p4i8.i32(i8 addrspace(4)* %Block2D_AddrPayload118, i32 5, i32 %201, i1 false)		; visa id: 1536
  call void @llvm.genx.GenISA.LSC2DBlockSetAddrPayloadField.p4i8.i32(i8 addrspace(4)* %Block2D_AddrPayload118, i32 6, i32 %203, i1 false)		; visa id: 1537
  %1304 = call <32 x i16> asm "lsc_load_block2d.ugm (M1, 1)  $0:d$2.$3x$4x$5nt flat[$1+(0,0)]", "=rw,rw.u,P,P,P,P"(i8 addrspace(4)* %Block2D_AddrPayload118, i32 16, i32 2, i32 16, i32 16) #0		; visa id: 1538
  call void @llvm.genx.GenISA.LSC2DBlockSetAddrPayloadField.p4i8.i32(i8 addrspace(4)* %Block2D_AddrPayload118, i32 5, i32 %201, i1 false)		; visa id: 1538
  call void @llvm.genx.GenISA.LSC2DBlockSetAddrPayloadField.p4i8.i32(i8 addrspace(4)* %Block2D_AddrPayload118, i32 6, i32 %890, i1 false)		; visa id: 1539
  %1305 = call <32 x i16> asm "lsc_load_block2d.ugm (M1, 1)  $0:d$2.$3x$4x$5nt flat[$1+(0,0)]", "=rw,rw.u,P,P,P,P"(i8 addrspace(4)* %Block2D_AddrPayload118, i32 16, i32 2, i32 16, i32 16) #0		; visa id: 1540
  %1306 = extractelement <32 x i16> %1304, i32 0		; visa id: 1540
  %1307 = insertelement <16 x i16> undef, i16 %1306, i32 0		; visa id: 1540
  %1308 = extractelement <32 x i16> %1304, i32 1		; visa id: 1540
  %1309 = insertelement <16 x i16> %1307, i16 %1308, i32 1		; visa id: 1540
  %1310 = extractelement <32 x i16> %1304, i32 2		; visa id: 1540
  %1311 = insertelement <16 x i16> %1309, i16 %1310, i32 2		; visa id: 1540
  %1312 = extractelement <32 x i16> %1304, i32 3		; visa id: 1540
  %1313 = insertelement <16 x i16> %1311, i16 %1312, i32 3		; visa id: 1540
  %1314 = extractelement <32 x i16> %1304, i32 4		; visa id: 1540
  %1315 = insertelement <16 x i16> %1313, i16 %1314, i32 4		; visa id: 1540
  %1316 = extractelement <32 x i16> %1304, i32 5		; visa id: 1540
  %1317 = insertelement <16 x i16> %1315, i16 %1316, i32 5		; visa id: 1540
  %1318 = extractelement <32 x i16> %1304, i32 6		; visa id: 1540
  %1319 = insertelement <16 x i16> %1317, i16 %1318, i32 6		; visa id: 1540
  %1320 = extractelement <32 x i16> %1304, i32 7		; visa id: 1540
  %1321 = insertelement <16 x i16> %1319, i16 %1320, i32 7		; visa id: 1540
  %1322 = extractelement <32 x i16> %1304, i32 8		; visa id: 1540
  %1323 = insertelement <16 x i16> %1321, i16 %1322, i32 8		; visa id: 1540
  %1324 = extractelement <32 x i16> %1304, i32 9		; visa id: 1540
  %1325 = insertelement <16 x i16> %1323, i16 %1324, i32 9		; visa id: 1540
  %1326 = extractelement <32 x i16> %1304, i32 10		; visa id: 1540
  %1327 = insertelement <16 x i16> %1325, i16 %1326, i32 10		; visa id: 1540
  %1328 = extractelement <32 x i16> %1304, i32 11		; visa id: 1540
  %1329 = insertelement <16 x i16> %1327, i16 %1328, i32 11		; visa id: 1540
  %1330 = extractelement <32 x i16> %1304, i32 12		; visa id: 1540
  %1331 = insertelement <16 x i16> %1329, i16 %1330, i32 12		; visa id: 1540
  %1332 = extractelement <32 x i16> %1304, i32 13		; visa id: 1540
  %1333 = insertelement <16 x i16> %1331, i16 %1332, i32 13		; visa id: 1540
  %1334 = extractelement <32 x i16> %1304, i32 14		; visa id: 1540
  %1335 = insertelement <16 x i16> %1333, i16 %1334, i32 14		; visa id: 1540
  %1336 = extractelement <32 x i16> %1304, i32 15		; visa id: 1540
  %1337 = insertelement <16 x i16> %1335, i16 %1336, i32 15		; visa id: 1540
  %1338 = extractelement <32 x i16> %1304, i32 16		; visa id: 1540
  %1339 = insertelement <16 x i16> undef, i16 %1338, i32 0		; visa id: 1540
  %1340 = extractelement <32 x i16> %1304, i32 17		; visa id: 1540
  %1341 = insertelement <16 x i16> %1339, i16 %1340, i32 1		; visa id: 1540
  %1342 = extractelement <32 x i16> %1304, i32 18		; visa id: 1540
  %1343 = insertelement <16 x i16> %1341, i16 %1342, i32 2		; visa id: 1540
  %1344 = extractelement <32 x i16> %1304, i32 19		; visa id: 1540
  %1345 = insertelement <16 x i16> %1343, i16 %1344, i32 3		; visa id: 1540
  %1346 = extractelement <32 x i16> %1304, i32 20		; visa id: 1540
  %1347 = insertelement <16 x i16> %1345, i16 %1346, i32 4		; visa id: 1540
  %1348 = extractelement <32 x i16> %1304, i32 21		; visa id: 1540
  %1349 = insertelement <16 x i16> %1347, i16 %1348, i32 5		; visa id: 1540
  %1350 = extractelement <32 x i16> %1304, i32 22		; visa id: 1540
  %1351 = insertelement <16 x i16> %1349, i16 %1350, i32 6		; visa id: 1540
  %1352 = extractelement <32 x i16> %1304, i32 23		; visa id: 1540
  %1353 = insertelement <16 x i16> %1351, i16 %1352, i32 7		; visa id: 1540
  %1354 = extractelement <32 x i16> %1304, i32 24		; visa id: 1540
  %1355 = insertelement <16 x i16> %1353, i16 %1354, i32 8		; visa id: 1540
  %1356 = extractelement <32 x i16> %1304, i32 25		; visa id: 1540
  %1357 = insertelement <16 x i16> %1355, i16 %1356, i32 9		; visa id: 1540
  %1358 = extractelement <32 x i16> %1304, i32 26		; visa id: 1540
  %1359 = insertelement <16 x i16> %1357, i16 %1358, i32 10		; visa id: 1540
  %1360 = extractelement <32 x i16> %1304, i32 27		; visa id: 1540
  %1361 = insertelement <16 x i16> %1359, i16 %1360, i32 11		; visa id: 1540
  %1362 = extractelement <32 x i16> %1304, i32 28		; visa id: 1540
  %1363 = insertelement <16 x i16> %1361, i16 %1362, i32 12		; visa id: 1540
  %1364 = extractelement <32 x i16> %1304, i32 29		; visa id: 1540
  %1365 = insertelement <16 x i16> %1363, i16 %1364, i32 13		; visa id: 1540
  %1366 = extractelement <32 x i16> %1304, i32 30		; visa id: 1540
  %1367 = insertelement <16 x i16> %1365, i16 %1366, i32 14		; visa id: 1540
  %1368 = extractelement <32 x i16> %1304, i32 31		; visa id: 1540
  %1369 = insertelement <16 x i16> %1367, i16 %1368, i32 15		; visa id: 1540
  %1370 = extractelement <32 x i16> %1305, i32 0		; visa id: 1540
  %1371 = insertelement <16 x i16> undef, i16 %1370, i32 0		; visa id: 1540
  %1372 = extractelement <32 x i16> %1305, i32 1		; visa id: 1540
  %1373 = insertelement <16 x i16> %1371, i16 %1372, i32 1		; visa id: 1540
  %1374 = extractelement <32 x i16> %1305, i32 2		; visa id: 1540
  %1375 = insertelement <16 x i16> %1373, i16 %1374, i32 2		; visa id: 1540
  %1376 = extractelement <32 x i16> %1305, i32 3		; visa id: 1540
  %1377 = insertelement <16 x i16> %1375, i16 %1376, i32 3		; visa id: 1540
  %1378 = extractelement <32 x i16> %1305, i32 4		; visa id: 1540
  %1379 = insertelement <16 x i16> %1377, i16 %1378, i32 4		; visa id: 1540
  %1380 = extractelement <32 x i16> %1305, i32 5		; visa id: 1540
  %1381 = insertelement <16 x i16> %1379, i16 %1380, i32 5		; visa id: 1540
  %1382 = extractelement <32 x i16> %1305, i32 6		; visa id: 1540
  %1383 = insertelement <16 x i16> %1381, i16 %1382, i32 6		; visa id: 1540
  %1384 = extractelement <32 x i16> %1305, i32 7		; visa id: 1540
  %1385 = insertelement <16 x i16> %1383, i16 %1384, i32 7		; visa id: 1540
  %1386 = extractelement <32 x i16> %1305, i32 8		; visa id: 1540
  %1387 = insertelement <16 x i16> %1385, i16 %1386, i32 8		; visa id: 1540
  %1388 = extractelement <32 x i16> %1305, i32 9		; visa id: 1540
  %1389 = insertelement <16 x i16> %1387, i16 %1388, i32 9		; visa id: 1540
  %1390 = extractelement <32 x i16> %1305, i32 10		; visa id: 1540
  %1391 = insertelement <16 x i16> %1389, i16 %1390, i32 10		; visa id: 1540
  %1392 = extractelement <32 x i16> %1305, i32 11		; visa id: 1540
  %1393 = insertelement <16 x i16> %1391, i16 %1392, i32 11		; visa id: 1540
  %1394 = extractelement <32 x i16> %1305, i32 12		; visa id: 1540
  %1395 = insertelement <16 x i16> %1393, i16 %1394, i32 12		; visa id: 1540
  %1396 = extractelement <32 x i16> %1305, i32 13		; visa id: 1540
  %1397 = insertelement <16 x i16> %1395, i16 %1396, i32 13		; visa id: 1540
  %1398 = extractelement <32 x i16> %1305, i32 14		; visa id: 1540
  %1399 = insertelement <16 x i16> %1397, i16 %1398, i32 14		; visa id: 1540
  %1400 = extractelement <32 x i16> %1305, i32 15		; visa id: 1540
  %1401 = insertelement <16 x i16> %1399, i16 %1400, i32 15		; visa id: 1540
  %1402 = extractelement <32 x i16> %1305, i32 16		; visa id: 1540
  %1403 = insertelement <16 x i16> undef, i16 %1402, i32 0		; visa id: 1540
  %1404 = extractelement <32 x i16> %1305, i32 17		; visa id: 1540
  %1405 = insertelement <16 x i16> %1403, i16 %1404, i32 1		; visa id: 1540
  %1406 = extractelement <32 x i16> %1305, i32 18		; visa id: 1540
  %1407 = insertelement <16 x i16> %1405, i16 %1406, i32 2		; visa id: 1540
  %1408 = extractelement <32 x i16> %1305, i32 19		; visa id: 1540
  %1409 = insertelement <16 x i16> %1407, i16 %1408, i32 3		; visa id: 1540
  %1410 = extractelement <32 x i16> %1305, i32 20		; visa id: 1540
  %1411 = insertelement <16 x i16> %1409, i16 %1410, i32 4		; visa id: 1540
  %1412 = extractelement <32 x i16> %1305, i32 21		; visa id: 1540
  %1413 = insertelement <16 x i16> %1411, i16 %1412, i32 5		; visa id: 1540
  %1414 = extractelement <32 x i16> %1305, i32 22		; visa id: 1540
  %1415 = insertelement <16 x i16> %1413, i16 %1414, i32 6		; visa id: 1540
  %1416 = extractelement <32 x i16> %1305, i32 23		; visa id: 1540
  %1417 = insertelement <16 x i16> %1415, i16 %1416, i32 7		; visa id: 1540
  %1418 = extractelement <32 x i16> %1305, i32 24		; visa id: 1540
  %1419 = insertelement <16 x i16> %1417, i16 %1418, i32 8		; visa id: 1540
  %1420 = extractelement <32 x i16> %1305, i32 25		; visa id: 1540
  %1421 = insertelement <16 x i16> %1419, i16 %1420, i32 9		; visa id: 1540
  %1422 = extractelement <32 x i16> %1305, i32 26		; visa id: 1540
  %1423 = insertelement <16 x i16> %1421, i16 %1422, i32 10		; visa id: 1540
  %1424 = extractelement <32 x i16> %1305, i32 27		; visa id: 1540
  %1425 = insertelement <16 x i16> %1423, i16 %1424, i32 11		; visa id: 1540
  %1426 = extractelement <32 x i16> %1305, i32 28		; visa id: 1540
  %1427 = insertelement <16 x i16> %1425, i16 %1426, i32 12		; visa id: 1540
  %1428 = extractelement <32 x i16> %1305, i32 29		; visa id: 1540
  %1429 = insertelement <16 x i16> %1427, i16 %1428, i32 13		; visa id: 1540
  %1430 = extractelement <32 x i16> %1305, i32 30		; visa id: 1540
  %1431 = insertelement <16 x i16> %1429, i16 %1430, i32 14		; visa id: 1540
  %1432 = extractelement <32 x i16> %1305, i32 31		; visa id: 1540
  %1433 = insertelement <16 x i16> %1431, i16 %1432, i32 15		; visa id: 1540
  %1434 = call <8 x float> asm "{\0A.decl DST     v_type=G type=f num_elts=$5 alias=<$0,0>\0A.decl SRC1_UD v_type=G type=UD num_elts=128 alias=<$2,0>\0A.decl SRC2_UD v_type=G type=UD num_elts=$4 alias=<$1,0>\0Adpas.bf.bf.8.$3 (M1, 16) DST.0 DST.0 SRC1_UD.0 SRC2_UD(0,0)\0A}\0A", "=rw,rw,rw,P,P,P,0"(<8 x i16> %.sroa.03095.14.vec.insert3128, <16 x i16> %1337, i32 8, i32 64, i32 128, <8 x float> %.sroa.580.2) #0		; visa id: 1540
  %1435 = call <8 x float> asm "{\0A.decl DST     v_type=G type=f num_elts=$5 alias=<$0,0>\0A.decl SRC1_UD v_type=G type=UD num_elts=128 alias=<$2,0>\0A.decl SRC2_UD v_type=G type=UD num_elts=$4 alias=<$1,0>\0Adpas.bf.bf.8.$3 (M1, 16) DST.0 DST.0 SRC1_UD.0 SRC2_UD(0,0)\0A}\0A", "=rw,rw,rw,P,P,P,0"(<8 x i16> %.sroa.35.30.vec.insert3161, <16 x i16> %1337, i32 8, i32 64, i32 128, <8 x float> %.sroa.628.2) #0		; visa id: 1540
  %1436 = call <8 x float> asm "{\0A.decl DST     v_type=G type=f num_elts=$5 alias=<$0,0>\0A.decl SRC1_UD v_type=G type=UD num_elts=128 alias=<$2,0>\0A.decl SRC2_UD v_type=G type=UD num_elts=$4 alias=<$1,0>\0Adpas.bf.bf.8.$3 (M1, 16) DST.0 DST.0 SRC1_UD.0 SRC2_UD(0,0)\0A}\0A", "=rw,rw,rw,P,P,P,0"(<8 x i16> %.sroa.35.30.vec.insert3161, <16 x i16> %1369, i32 8, i32 64, i32 128, <8 x float> %.sroa.724.2) #0		; visa id: 1540
  %1437 = call <8 x float> asm "{\0A.decl DST     v_type=G type=f num_elts=$5 alias=<$0,0>\0A.decl SRC1_UD v_type=G type=UD num_elts=128 alias=<$2,0>\0A.decl SRC2_UD v_type=G type=UD num_elts=$4 alias=<$1,0>\0Adpas.bf.bf.8.$3 (M1, 16) DST.0 DST.0 SRC1_UD.0 SRC2_UD(0,0)\0A}\0A", "=rw,rw,rw,P,P,P,0"(<8 x i16> %.sroa.03095.14.vec.insert3128, <16 x i16> %1369, i32 8, i32 64, i32 128, <8 x float> %.sroa.676.2) #0		; visa id: 1540
  %1438 = call <8 x float> asm "{\0A.decl DST     v_type=G type=f num_elts=$5 alias=<$0,0>\0A.decl SRC1_UD v_type=G type=UD num_elts=128 alias=<$2,0>\0A.decl SRC2_UD v_type=G type=UD num_elts=$4 alias=<$1,0>\0Adpas.bf.bf.8.$3 (M1, 16) DST.0 DST.0 SRC1_UD.0 SRC2_UD(0,0)\0A}\0A", "=rw,rw,rw,P,P,P,0"(<8 x i16> %.sroa.67.46.vec.insert3194, <16 x i16> %1401, i32 8, i32 64, i32 128, <8 x float> %1434) #0		; visa id: 1540
  %1439 = call <8 x float> asm "{\0A.decl DST     v_type=G type=f num_elts=$5 alias=<$0,0>\0A.decl SRC1_UD v_type=G type=UD num_elts=128 alias=<$2,0>\0A.decl SRC2_UD v_type=G type=UD num_elts=$4 alias=<$1,0>\0Adpas.bf.bf.8.$3 (M1, 16) DST.0 DST.0 SRC1_UD.0 SRC2_UD(0,0)\0A}\0A", "=rw,rw,rw,P,P,P,0"(<8 x i16> %.sroa.99.62.vec.insert3227, <16 x i16> %1401, i32 8, i32 64, i32 128, <8 x float> %1435) #0		; visa id: 1540
  %1440 = call <8 x float> asm "{\0A.decl DST     v_type=G type=f num_elts=$5 alias=<$0,0>\0A.decl SRC1_UD v_type=G type=UD num_elts=128 alias=<$2,0>\0A.decl SRC2_UD v_type=G type=UD num_elts=$4 alias=<$1,0>\0Adpas.bf.bf.8.$3 (M1, 16) DST.0 DST.0 SRC1_UD.0 SRC2_UD(0,0)\0A}\0A", "=rw,rw,rw,P,P,P,0"(<8 x i16> %.sroa.99.62.vec.insert3227, <16 x i16> %1433, i32 8, i32 64, i32 128, <8 x float> %1436) #0		; visa id: 1540
  %1441 = call <8 x float> asm "{\0A.decl DST     v_type=G type=f num_elts=$5 alias=<$0,0>\0A.decl SRC1_UD v_type=G type=UD num_elts=128 alias=<$2,0>\0A.decl SRC2_UD v_type=G type=UD num_elts=$4 alias=<$1,0>\0Adpas.bf.bf.8.$3 (M1, 16) DST.0 DST.0 SRC1_UD.0 SRC2_UD(0,0)\0A}\0A", "=rw,rw,rw,P,P,P,0"(<8 x i16> %.sroa.67.46.vec.insert3194, <16 x i16> %1433, i32 8, i32 64, i32 128, <8 x float> %1437) #0		; visa id: 1540
  %1442 = fadd reassoc nsz arcp contract float %.sroa.0205.2, %888, !spirv.Decorations !1233		; visa id: 1540
  br i1 %167, label %.lr.ph240, label %.loopexit.i._ZZN7cutlass4fmha10collective15FMHAFwdMainloopINS0_9XeDefaultILi2EEELb0ELb1ELb0EN4cute8TiledMMAINS5_8MMA_AtomIJNS5_10XE_DPAS_TTILi8EfNS_10bfloat16_tES9_fEEEEENS5_6LayoutINS5_5tupleIJNS5_1CILi16EEENSE_ILi1EEESG_EEENSD_IJSG_NSE_ILi0EEESI_EEEEEKNSD_IJNSC_INSD_IJNSE_ILi8EEESF_NSE_ILi2EEEEEENSD_IJSG_SF_SL_EEEEENSC_INSE_ILi32EEESG_EESR_EEEEESU_Li4ENS5_6TensorINS5_10ViewEngineINS5_8gmem_ptrIPS9_EEEENSC_INSD_IJiiiiEEENSD_IJiSG_iiEEEEEEES14_NSV_IS10_NSC_IS11_NSD_IJSG_iiiEEEEEEES14_S17_vvvvvEclINSD_IJjjEEEEEvRKNSV_IS10_NSC_INSD_IJiiEEENSD_IJiSG_EEEEEEES1G_RKNSV_IS10_NSC_IS1B_NSD_IJSG_iEEEEEEERNS5_14SubgroupTensorINS5_11ArrayEngineIfLm128EEENSC_INSD_IJSL_SM_SM_NSE_ILi4EEEEEENSD_IJSG_SL_SF_SQ_EEEEENSC_INSD_IJSF_NSD_IJSL_NSD_IJSM_SM_EEES1P_EEEEEENSD_IJNS5_11ScaledBasisISG_JLi1EEEENSD_IJNS1W_ISG_JLi0EEEENSD_IJNS1W_ISL_JLi0EEEENS1W_ISF_JLi1EEEEEEENS1W_ISQ_JLi1EEEEEEEEEEEEEERNSV_INS1N_IfLm1EEENSC_ISG_SI_EEEES2B_T_iiiiiiiiiS1G_S1L_ENKUlS2C_iRT0_RT1_RT2_RT3_RT4_RT5_E_clISt17integral_constantIbLb1EENS5_9TiledCopyINS5_9Copy_Atom_crit_edge, !stats.blockFrequency.digits !1217, !stats.blockFrequency.scale !1218		; visa id: 1541

.loopexit.i._ZZN7cutlass4fmha10collective15FMHAFwdMainloopINS0_9XeDefaultILi2EEELb0ELb1ELb0EN4cute8TiledMMAINS5_8MMA_AtomIJNS5_10XE_DPAS_TTILi8EfNS_10bfloat16_tES9_fEEEEENS5_6LayoutINS5_5tupleIJNS5_1CILi16EEENSE_ILi1EEESG_EEENSD_IJSG_NSE_ILi0EEESI_EEEEEKNSD_IJNSC_INSD_IJNSE_ILi8EEESF_NSE_ILi2EEEEEENSD_IJSG_SF_SL_EEEEENSC_INSE_ILi32EEESG_EESR_EEEEESU_Li4ENS5_6TensorINS5_10ViewEngineINS5_8gmem_ptrIPS9_EEEENSC_INSD_IJiiiiEEENSD_IJiSG_iiEEEEEEES14_NSV_IS10_NSC_IS11_NSD_IJSG_iiiEEEEEEES14_S17_vvvvvEclINSD_IJjjEEEEEvRKNSV_IS10_NSC_INSD_IJiiEEENSD_IJiSG_EEEEEEES1G_RKNSV_IS10_NSC_IS1B_NSD_IJSG_iEEEEEEERNS5_14SubgroupTensorINS5_11ArrayEngineIfLm128EEENSC_INSD_IJSL_SM_SM_NSE_ILi4EEEEEENSD_IJSG_SL_SF_SQ_EEEEENSC_INSD_IJSF_NSD_IJSL_NSD_IJSM_SM_EEES1P_EEEEEENSD_IJNS5_11ScaledBasisISG_JLi1EEEENSD_IJNS1W_ISG_JLi0EEEENSD_IJNS1W_ISL_JLi0EEEENS1W_ISF_JLi1EEEEEEENS1W_ISQ_JLi1EEEEEEEEEEEEEERNSV_INS1N_IfLm1EEENSC_ISG_SI_EEEES2B_T_iiiiiiiiiS1G_S1L_ENKUlS2C_iRT0_RT1_RT2_RT3_RT4_RT5_E_clISt17integral_constantIbLb1EENS5_9TiledCopyINS5_9Copy_Atom_crit_edge: ; preds = %.loopexit.i
; BB:
  br label %_ZZN7cutlass4fmha10collective15FMHAFwdMainloopINS0_9XeDefaultILi2EEELb0ELb1ELb0EN4cute8TiledMMAINS5_8MMA_AtomIJNS5_10XE_DPAS_TTILi8EfNS_10bfloat16_tES9_fEEEEENS5_6LayoutINS5_5tupleIJNS5_1CILi16EEENSE_ILi1EEESG_EEENSD_IJSG_NSE_ILi0EEESI_EEEEEKNSD_IJNSC_INSD_IJNSE_ILi8EEESF_NSE_ILi2EEEEEENSD_IJSG_SF_SL_EEEEENSC_INSE_ILi32EEESG_EESR_EEEEESU_Li4ENS5_6TensorINS5_10ViewEngineINS5_8gmem_ptrIPS9_EEEENSC_INSD_IJiiiiEEENSD_IJiSG_iiEEEEEEES14_NSV_IS10_NSC_IS11_NSD_IJSG_iiiEEEEEEES14_S17_vvvvvEclINSD_IJjjEEEEEvRKNSV_IS10_NSC_INSD_IJiiEEENSD_IJiSG_EEEEEEES1G_RKNSV_IS10_NSC_IS1B_NSD_IJSG_iEEEEEEERNS5_14SubgroupTensorINS5_11ArrayEngineIfLm128EEENSC_INSD_IJSL_SM_SM_NSE_ILi4EEEEEENSD_IJSG_SL_SF_SQ_EEEEENSC_INSD_IJSF_NSD_IJSL_NSD_IJSM_SM_EEES1P_EEEEEENSD_IJNS5_11ScaledBasisISG_JLi1EEEENSD_IJNS1W_ISG_JLi0EEEENSD_IJNS1W_ISL_JLi0EEEENS1W_ISF_JLi1EEEEEEENS1W_ISQ_JLi1EEEEEEEEEEEEEERNSV_INS1N_IfLm1EEENSC_ISG_SI_EEEES2B_T_iiiiiiiiiS1G_S1L_ENKUlS2C_iRT0_RT1_RT2_RT3_RT4_RT5_E_clISt17integral_constantIbLb1EENS5_9TiledCopyINS5_9Copy_Atom, !stats.blockFrequency.digits !1224, !stats.blockFrequency.scale !1206

.lr.ph240:                                        ; preds = %.loopexit.i
; BB53 :
  %1443 = add nuw nsw i32 %202, 2, !spirv.Decorations !1203		; visa id: 1543
  %1444 = shl nsw i32 %1443, 5, !spirv.Decorations !1203		; visa id: 1544
  %1445 = icmp slt i32 %1443, %qot7164		; visa id: 1545
  %1446 = sub nsw i32 %1443, %qot7164		; visa id: 1546
  %1447 = shl nsw i32 %1446, 5		; visa id: 1547
  %1448 = add nsw i32 %163, %1447		; visa id: 1548
  %1449 = add nuw nsw i32 %163, %1444		; visa id: 1549
  br label %1450, !stats.blockFrequency.digits !1225, !stats.blockFrequency.scale !1206		; visa id: 1551

1450:                                             ; preds = %._crit_edge7258, %.lr.ph240
; BB54 :
  %1451 = phi i32 [ 0, %.lr.ph240 ], [ %1457, %._crit_edge7258 ]
  br i1 %1445, label %1454, label %1452, !stats.blockFrequency.digits !1235, !stats.blockFrequency.scale !1236		; visa id: 1552

1452:                                             ; preds = %1450
; BB55 :
  %1453 = shl nsw i32 %1451, 5, !spirv.Decorations !1203		; visa id: 1554
  call void @llvm.genx.GenISA.LSC2DBlockSetAddrPayloadField.p4i8.i32(i8 addrspace(4)* %Block2D_AddrPayload120, i32 5, i32 %1453, i1 false)		; visa id: 1555
  call void @llvm.genx.GenISA.LSC2DBlockSetAddrPayloadField.p4i8.i32(i8 addrspace(4)* %Block2D_AddrPayload120, i32 6, i32 %1448, i1 false)		; visa id: 1556
  call void asm sideeffect "lsc_load_block2d.ugm.ca.ca (M1, 1)  %null:d$1.$2x$3nn flat[$0+(0,0)]", "rw.u,P,P,P"(i8 addrspace(4)* %Block2D_AddrPayload120, i32 16, i32 32, i32 2) #0		; visa id: 1557
  br label %1456, !stats.blockFrequency.digits !1228, !stats.blockFrequency.scale !1229		; visa id: 1557

1454:                                             ; preds = %1450
; BB56 :
  %1455 = shl nsw i32 %1451, 5, !spirv.Decorations !1203		; visa id: 1559
  call void @llvm.genx.GenISA.LSC2DBlockSetAddrPayloadField.p4i8.i32(i8 addrspace(4)* %Block2D_AddrPayload122, i32 5, i32 %1455, i1 false)		; visa id: 1560
  call void @llvm.genx.GenISA.LSC2DBlockSetAddrPayloadField.p4i8.i32(i8 addrspace(4)* %Block2D_AddrPayload122, i32 6, i32 %1449, i1 false)		; visa id: 1561
  call void asm sideeffect "lsc_load_block2d.ugm.ca.ca (M1, 1)  %null:d$1.$2x$3nn flat[$0+(0,0)]", "rw.u,P,P,P"(i8 addrspace(4)* %Block2D_AddrPayload122, i32 16, i32 32, i32 2) #0		; visa id: 1562
  br label %1456, !stats.blockFrequency.digits !1222, !stats.blockFrequency.scale !1229		; visa id: 1562

1456:                                             ; preds = %1452, %1454
; BB57 :
  %1457 = add nuw nsw i32 %1451, 1, !spirv.Decorations !1215		; visa id: 1563
  %1458 = icmp slt i32 %1457, %qot7160		; visa id: 1564
  br i1 %1458, label %._crit_edge7258, label %_ZZN7cutlass4fmha10collective15FMHAFwdMainloopINS0_9XeDefaultILi2EEELb0ELb1ELb0EN4cute8TiledMMAINS5_8MMA_AtomIJNS5_10XE_DPAS_TTILi8EfNS_10bfloat16_tES9_fEEEEENS5_6LayoutINS5_5tupleIJNS5_1CILi16EEENSE_ILi1EEESG_EEENSD_IJSG_NSE_ILi0EEESI_EEEEEKNSD_IJNSC_INSD_IJNSE_ILi8EEESF_NSE_ILi2EEEEEENSD_IJSG_SF_SL_EEEEENSC_INSE_ILi32EEESG_EESR_EEEEESU_Li4ENS5_6TensorINS5_10ViewEngineINS5_8gmem_ptrIPS9_EEEENSC_INSD_IJiiiiEEENSD_IJiSG_iiEEEEEEES14_NSV_IS10_NSC_IS11_NSD_IJSG_iiiEEEEEEES14_S17_vvvvvEclINSD_IJjjEEEEEvRKNSV_IS10_NSC_INSD_IJiiEEENSD_IJiSG_EEEEEEES1G_RKNSV_IS10_NSC_IS1B_NSD_IJSG_iEEEEEEERNS5_14SubgroupTensorINS5_11ArrayEngineIfLm128EEENSC_INSD_IJSL_SM_SM_NSE_ILi4EEEEEENSD_IJSG_SL_SF_SQ_EEEEENSC_INSD_IJSF_NSD_IJSL_NSD_IJSM_SM_EEES1P_EEEEEENSD_IJNS5_11ScaledBasisISG_JLi1EEEENSD_IJNS1W_ISG_JLi0EEEENSD_IJNS1W_ISL_JLi0EEEENS1W_ISF_JLi1EEEEEEENS1W_ISQ_JLi1EEEEEEEEEEEEEERNSV_INS1N_IfLm1EEENSC_ISG_SI_EEEES2B_T_iiiiiiiiiS1G_S1L_ENKUlS2C_iRT0_RT1_RT2_RT3_RT4_RT5_E_clISt17integral_constantIbLb1EENS5_9TiledCopyINS5_9Copy_Atom7210, !stats.blockFrequency.digits !1235, !stats.blockFrequency.scale !1236		; visa id: 1565

_ZZN7cutlass4fmha10collective15FMHAFwdMainloopINS0_9XeDefaultILi2EEELb0ELb1ELb0EN4cute8TiledMMAINS5_8MMA_AtomIJNS5_10XE_DPAS_TTILi8EfNS_10bfloat16_tES9_fEEEEENS5_6LayoutINS5_5tupleIJNS5_1CILi16EEENSE_ILi1EEESG_EEENSD_IJSG_NSE_ILi0EEESI_EEEEEKNSD_IJNSC_INSD_IJNSE_ILi8EEESF_NSE_ILi2EEEEEENSD_IJSG_SF_SL_EEEEENSC_INSE_ILi32EEESG_EESR_EEEEESU_Li4ENS5_6TensorINS5_10ViewEngineINS5_8gmem_ptrIPS9_EEEENSC_INSD_IJiiiiEEENSD_IJiSG_iiEEEEEEES14_NSV_IS10_NSC_IS11_NSD_IJSG_iiiEEEEEEES14_S17_vvvvvEclINSD_IJjjEEEEEvRKNSV_IS10_NSC_INSD_IJiiEEENSD_IJiSG_EEEEEEES1G_RKNSV_IS10_NSC_IS1B_NSD_IJSG_iEEEEEEERNS5_14SubgroupTensorINS5_11ArrayEngineIfLm128EEENSC_INSD_IJSL_SM_SM_NSE_ILi4EEEEEENSD_IJSG_SL_SF_SQ_EEEEENSC_INSD_IJSF_NSD_IJSL_NSD_IJSM_SM_EEES1P_EEEEEENSD_IJNS5_11ScaledBasisISG_JLi1EEEENSD_IJNS1W_ISG_JLi0EEEENSD_IJNS1W_ISL_JLi0EEEENS1W_ISF_JLi1EEEEEEENS1W_ISQ_JLi1EEEEEEEEEEEEEERNSV_INS1N_IfLm1EEENSC_ISG_SI_EEEES2B_T_iiiiiiiiiS1G_S1L_ENKUlS2C_iRT0_RT1_RT2_RT3_RT4_RT5_E_clISt17integral_constantIbLb1EENS5_9TiledCopyINS5_9Copy_Atom7210: ; preds = %1456
; BB:
  br label %_ZZN7cutlass4fmha10collective15FMHAFwdMainloopINS0_9XeDefaultILi2EEELb0ELb1ELb0EN4cute8TiledMMAINS5_8MMA_AtomIJNS5_10XE_DPAS_TTILi8EfNS_10bfloat16_tES9_fEEEEENS5_6LayoutINS5_5tupleIJNS5_1CILi16EEENSE_ILi1EEESG_EEENSD_IJSG_NSE_ILi0EEESI_EEEEEKNSD_IJNSC_INSD_IJNSE_ILi8EEESF_NSE_ILi2EEEEEENSD_IJSG_SF_SL_EEEEENSC_INSE_ILi32EEESG_EESR_EEEEESU_Li4ENS5_6TensorINS5_10ViewEngineINS5_8gmem_ptrIPS9_EEEENSC_INSD_IJiiiiEEENSD_IJiSG_iiEEEEEEES14_NSV_IS10_NSC_IS11_NSD_IJSG_iiiEEEEEEES14_S17_vvvvvEclINSD_IJjjEEEEEvRKNSV_IS10_NSC_INSD_IJiiEEENSD_IJiSG_EEEEEEES1G_RKNSV_IS10_NSC_IS1B_NSD_IJSG_iEEEEEEERNS5_14SubgroupTensorINS5_11ArrayEngineIfLm128EEENSC_INSD_IJSL_SM_SM_NSE_ILi4EEEEEENSD_IJSG_SL_SF_SQ_EEEEENSC_INSD_IJSF_NSD_IJSL_NSD_IJSM_SM_EEES1P_EEEEEENSD_IJNS5_11ScaledBasisISG_JLi1EEEENSD_IJNS1W_ISG_JLi0EEEENSD_IJNS1W_ISL_JLi0EEEENS1W_ISF_JLi1EEEEEEENS1W_ISQ_JLi1EEEEEEEEEEEEEERNSV_INS1N_IfLm1EEENSC_ISG_SI_EEEES2B_T_iiiiiiiiiS1G_S1L_ENKUlS2C_iRT0_RT1_RT2_RT3_RT4_RT5_E_clISt17integral_constantIbLb1EENS5_9TiledCopyINS5_9Copy_Atom, !stats.blockFrequency.digits !1225, !stats.blockFrequency.scale !1206

._crit_edge7258:                                  ; preds = %1456
; BB:
  br label %1450, !stats.blockFrequency.digits !1237, !stats.blockFrequency.scale !1236

_ZZN7cutlass4fmha10collective15FMHAFwdMainloopINS0_9XeDefaultILi2EEELb0ELb1ELb0EN4cute8TiledMMAINS5_8MMA_AtomIJNS5_10XE_DPAS_TTILi8EfNS_10bfloat16_tES9_fEEEEENS5_6LayoutINS5_5tupleIJNS5_1CILi16EEENSE_ILi1EEESG_EEENSD_IJSG_NSE_ILi0EEESI_EEEEEKNSD_IJNSC_INSD_IJNSE_ILi8EEESF_NSE_ILi2EEEEEENSD_IJSG_SF_SL_EEEEENSC_INSE_ILi32EEESG_EESR_EEEEESU_Li4ENS5_6TensorINS5_10ViewEngineINS5_8gmem_ptrIPS9_EEEENSC_INSD_IJiiiiEEENSD_IJiSG_iiEEEEEEES14_NSV_IS10_NSC_IS11_NSD_IJSG_iiiEEEEEEES14_S17_vvvvvEclINSD_IJjjEEEEEvRKNSV_IS10_NSC_INSD_IJiiEEENSD_IJiSG_EEEEEEES1G_RKNSV_IS10_NSC_IS1B_NSD_IJSG_iEEEEEEERNS5_14SubgroupTensorINS5_11ArrayEngineIfLm128EEENSC_INSD_IJSL_SM_SM_NSE_ILi4EEEEEENSD_IJSG_SL_SF_SQ_EEEEENSC_INSD_IJSF_NSD_IJSL_NSD_IJSM_SM_EEES1P_EEEEEENSD_IJNS5_11ScaledBasisISG_JLi1EEEENSD_IJNS1W_ISG_JLi0EEEENSD_IJNS1W_ISL_JLi0EEEENS1W_ISF_JLi1EEEEEEENS1W_ISQ_JLi1EEEEEEEEEEEEEERNSV_INS1N_IfLm1EEENSC_ISG_SI_EEEES2B_T_iiiiiiiiiS1G_S1L_ENKUlS2C_iRT0_RT1_RT2_RT3_RT4_RT5_E_clISt17integral_constantIbLb1EENS5_9TiledCopyINS5_9Copy_Atom: ; preds = %.loopexit.i._ZZN7cutlass4fmha10collective15FMHAFwdMainloopINS0_9XeDefaultILi2EEELb0ELb1ELb0EN4cute8TiledMMAINS5_8MMA_AtomIJNS5_10XE_DPAS_TTILi8EfNS_10bfloat16_tES9_fEEEEENS5_6LayoutINS5_5tupleIJNS5_1CILi16EEENSE_ILi1EEESG_EEENSD_IJSG_NSE_ILi0EEESI_EEEEEKNSD_IJNSC_INSD_IJNSE_ILi8EEESF_NSE_ILi2EEEEEENSD_IJSG_SF_SL_EEEEENSC_INSE_ILi32EEESG_EESR_EEEEESU_Li4ENS5_6TensorINS5_10ViewEngineINS5_8gmem_ptrIPS9_EEEENSC_INSD_IJiiiiEEENSD_IJiSG_iiEEEEEEES14_NSV_IS10_NSC_IS11_NSD_IJSG_iiiEEEEEEES14_S17_vvvvvEclINSD_IJjjEEEEEvRKNSV_IS10_NSC_INSD_IJiiEEENSD_IJiSG_EEEEEEES1G_RKNSV_IS10_NSC_IS1B_NSD_IJSG_iEEEEEEERNS5_14SubgroupTensorINS5_11ArrayEngineIfLm128EEENSC_INSD_IJSL_SM_SM_NSE_ILi4EEEEEENSD_IJSG_SL_SF_SQ_EEEEENSC_INSD_IJSF_NSD_IJSL_NSD_IJSM_SM_EEES1P_EEEEEENSD_IJNS5_11ScaledBasisISG_JLi1EEEENSD_IJNS1W_ISG_JLi0EEEENSD_IJNS1W_ISL_JLi0EEEENS1W_ISF_JLi1EEEEEEENS1W_ISQ_JLi1EEEEEEEEEEEEEERNSV_INS1N_IfLm1EEENSC_ISG_SI_EEEES2B_T_iiiiiiiiiS1G_S1L_ENKUlS2C_iRT0_RT1_RT2_RT3_RT4_RT5_E_clISt17integral_constantIbLb1EENS5_9TiledCopyINS5_9Copy_Atom_crit_edge, %_ZZN7cutlass4fmha10collective15FMHAFwdMainloopINS0_9XeDefaultILi2EEELb0ELb1ELb0EN4cute8TiledMMAINS5_8MMA_AtomIJNS5_10XE_DPAS_TTILi8EfNS_10bfloat16_tES9_fEEEEENS5_6LayoutINS5_5tupleIJNS5_1CILi16EEENSE_ILi1EEESG_EEENSD_IJSG_NSE_ILi0EEESI_EEEEEKNSD_IJNSC_INSD_IJNSE_ILi8EEESF_NSE_ILi2EEEEEENSD_IJSG_SF_SL_EEEEENSC_INSE_ILi32EEESG_EESR_EEEEESU_Li4ENS5_6TensorINS5_10ViewEngineINS5_8gmem_ptrIPS9_EEEENSC_INSD_IJiiiiEEENSD_IJiSG_iiEEEEEEES14_NSV_IS10_NSC_IS11_NSD_IJSG_iiiEEEEEEES14_S17_vvvvvEclINSD_IJjjEEEEEvRKNSV_IS10_NSC_INSD_IJiiEEENSD_IJiSG_EEEEEEES1G_RKNSV_IS10_NSC_IS1B_NSD_IJSG_iEEEEEEERNS5_14SubgroupTensorINS5_11ArrayEngineIfLm128EEENSC_INSD_IJSL_SM_SM_NSE_ILi4EEEEEENSD_IJSG_SL_SF_SQ_EEEEENSC_INSD_IJSF_NSD_IJSL_NSD_IJSM_SM_EEES1P_EEEEEENSD_IJNS5_11ScaledBasisISG_JLi1EEEENSD_IJNS1W_ISG_JLi0EEEENSD_IJNS1W_ISL_JLi0EEEENS1W_ISF_JLi1EEEEEEENS1W_ISQ_JLi1EEEEEEEEEEEEEERNSV_INS1N_IfLm1EEENSC_ISG_SI_EEEES2B_T_iiiiiiiiiS1G_S1L_ENKUlS2C_iRT0_RT1_RT2_RT3_RT4_RT5_E_clISt17integral_constantIbLb1EENS5_9TiledCopyINS5_9Copy_Atom7210
; BB60 :
  %1459 = add nuw nsw i32 %202, 1, !spirv.Decorations !1203		; visa id: 1567
  %1460 = icmp slt i32 %1459, %qot7164		; visa id: 1568
  br i1 %1460, label %_ZZN7cutlass4fmha10collective15FMHAFwdMainloopINS0_9XeDefaultILi2EEELb0ELb1ELb0EN4cute8TiledMMAINS5_8MMA_AtomIJNS5_10XE_DPAS_TTILi8EfNS_10bfloat16_tES9_fEEEEENS5_6LayoutINS5_5tupleIJNS5_1CILi16EEENSE_ILi1EEESG_EEENSD_IJSG_NSE_ILi0EEESI_EEEEEKNSD_IJNSC_INSD_IJNSE_ILi8EEESF_NSE_ILi2EEEEEENSD_IJSG_SF_SL_EEEEENSC_INSE_ILi32EEESG_EESR_EEEEESU_Li4ENS5_6TensorINS5_10ViewEngineINS5_8gmem_ptrIPS9_EEEENSC_INSD_IJiiiiEEENSD_IJiSG_iiEEEEEEES14_NSV_IS10_NSC_IS11_NSD_IJSG_iiiEEEEEEES14_S17_vvvvvEclINSD_IJjjEEEEEvRKNSV_IS10_NSC_INSD_IJiiEEENSD_IJiSG_EEEEEEES1G_RKNSV_IS10_NSC_IS1B_NSD_IJSG_iEEEEEEERNS5_14SubgroupTensorINS5_11ArrayEngineIfLm128EEENSC_INSD_IJSL_SM_SM_NSE_ILi4EEEEEENSD_IJSG_SL_SF_SQ_EEEEENSC_INSD_IJSF_NSD_IJSL_NSD_IJSM_SM_EEES1P_EEEEEENSD_IJNS5_11ScaledBasisISG_JLi1EEEENSD_IJNS1W_ISG_JLi0EEEENSD_IJNS1W_ISL_JLi0EEEENS1W_ISF_JLi1EEEEEEENS1W_ISQ_JLi1EEEEEEEEEEEEEERNSV_INS1N_IfLm1EEENSC_ISG_SI_EEEES2B_T_iiiiiiiiiS1G_S1L_ENKUlS2C_iRT0_RT1_RT2_RT3_RT4_RT5_E_clISt17integral_constantIbLb1EENS5_9TiledCopyINS5_9Copy_Atom..preheader227_crit_edge, label %._crit_edge243.loopexit, !stats.blockFrequency.digits !1217, !stats.blockFrequency.scale !1218		; visa id: 1570

_ZZN7cutlass4fmha10collective15FMHAFwdMainloopINS0_9XeDefaultILi2EEELb0ELb1ELb0EN4cute8TiledMMAINS5_8MMA_AtomIJNS5_10XE_DPAS_TTILi8EfNS_10bfloat16_tES9_fEEEEENS5_6LayoutINS5_5tupleIJNS5_1CILi16EEENSE_ILi1EEESG_EEENSD_IJSG_NSE_ILi0EEESI_EEEEEKNSD_IJNSC_INSD_IJNSE_ILi8EEESF_NSE_ILi2EEEEEENSD_IJSG_SF_SL_EEEEENSC_INSE_ILi32EEESG_EESR_EEEEESU_Li4ENS5_6TensorINS5_10ViewEngineINS5_8gmem_ptrIPS9_EEEENSC_INSD_IJiiiiEEENSD_IJiSG_iiEEEEEEES14_NSV_IS10_NSC_IS11_NSD_IJSG_iiiEEEEEEES14_S17_vvvvvEclINSD_IJjjEEEEEvRKNSV_IS10_NSC_INSD_IJiiEEENSD_IJiSG_EEEEEEES1G_RKNSV_IS10_NSC_IS1B_NSD_IJSG_iEEEEEEERNS5_14SubgroupTensorINS5_11ArrayEngineIfLm128EEENSC_INSD_IJSL_SM_SM_NSE_ILi4EEEEEENSD_IJSG_SL_SF_SQ_EEEEENSC_INSD_IJSF_NSD_IJSL_NSD_IJSM_SM_EEES1P_EEEEEENSD_IJNS5_11ScaledBasisISG_JLi1EEEENSD_IJNS1W_ISG_JLi0EEEENSD_IJNS1W_ISL_JLi0EEEENS1W_ISF_JLi1EEEEEEENS1W_ISQ_JLi1EEEEEEEEEEEEEERNSV_INS1N_IfLm1EEENSC_ISG_SI_EEEES2B_T_iiiiiiiiiS1G_S1L_ENKUlS2C_iRT0_RT1_RT2_RT3_RT4_RT5_E_clISt17integral_constantIbLb1EENS5_9TiledCopyINS5_9Copy_Atom..preheader227_crit_edge: ; preds = %_ZZN7cutlass4fmha10collective15FMHAFwdMainloopINS0_9XeDefaultILi2EEELb0ELb1ELb0EN4cute8TiledMMAINS5_8MMA_AtomIJNS5_10XE_DPAS_TTILi8EfNS_10bfloat16_tES9_fEEEEENS5_6LayoutINS5_5tupleIJNS5_1CILi16EEENSE_ILi1EEESG_EEENSD_IJSG_NSE_ILi0EEESI_EEEEEKNSD_IJNSC_INSD_IJNSE_ILi8EEESF_NSE_ILi2EEEEEENSD_IJSG_SF_SL_EEEEENSC_INSE_ILi32EEESG_EESR_EEEEESU_Li4ENS5_6TensorINS5_10ViewEngineINS5_8gmem_ptrIPS9_EEEENSC_INSD_IJiiiiEEENSD_IJiSG_iiEEEEEEES14_NSV_IS10_NSC_IS11_NSD_IJSG_iiiEEEEEEES14_S17_vvvvvEclINSD_IJjjEEEEEvRKNSV_IS10_NSC_INSD_IJiiEEENSD_IJiSG_EEEEEEES1G_RKNSV_IS10_NSC_IS1B_NSD_IJSG_iEEEEEEERNS5_14SubgroupTensorINS5_11ArrayEngineIfLm128EEENSC_INSD_IJSL_SM_SM_NSE_ILi4EEEEEENSD_IJSG_SL_SF_SQ_EEEEENSC_INSD_IJSF_NSD_IJSL_NSD_IJSM_SM_EEES1P_EEEEEENSD_IJNS5_11ScaledBasisISG_JLi1EEEENSD_IJNS1W_ISG_JLi0EEEENSD_IJNS1W_ISL_JLi0EEEENS1W_ISF_JLi1EEEEEEENS1W_ISQ_JLi1EEEEEEEEEEEEEERNSV_INS1N_IfLm1EEENSC_ISG_SI_EEEES2B_T_iiiiiiiiiS1G_S1L_ENKUlS2C_iRT0_RT1_RT2_RT3_RT4_RT5_E_clISt17integral_constantIbLb1EENS5_9TiledCopyINS5_9Copy_Atom
; BB61 :
  br label %.preheader227, !stats.blockFrequency.digits !1219, !stats.blockFrequency.scale !1218		; visa id: 1573

._crit_edge243.loopexit:                          ; preds = %_ZZN7cutlass4fmha10collective15FMHAFwdMainloopINS0_9XeDefaultILi2EEELb0ELb1ELb0EN4cute8TiledMMAINS5_8MMA_AtomIJNS5_10XE_DPAS_TTILi8EfNS_10bfloat16_tES9_fEEEEENS5_6LayoutINS5_5tupleIJNS5_1CILi16EEENSE_ILi1EEESG_EEENSD_IJSG_NSE_ILi0EEESI_EEEEEKNSD_IJNSC_INSD_IJNSE_ILi8EEESF_NSE_ILi2EEEEEENSD_IJSG_SF_SL_EEEEENSC_INSE_ILi32EEESG_EESR_EEEEESU_Li4ENS5_6TensorINS5_10ViewEngineINS5_8gmem_ptrIPS9_EEEENSC_INSD_IJiiiiEEENSD_IJiSG_iiEEEEEEES14_NSV_IS10_NSC_IS11_NSD_IJSG_iiiEEEEEEES14_S17_vvvvvEclINSD_IJjjEEEEEvRKNSV_IS10_NSC_INSD_IJiiEEENSD_IJiSG_EEEEEEES1G_RKNSV_IS10_NSC_IS1B_NSD_IJSG_iEEEEEEERNS5_14SubgroupTensorINS5_11ArrayEngineIfLm128EEENSC_INSD_IJSL_SM_SM_NSE_ILi4EEEEEENSD_IJSG_SL_SF_SQ_EEEEENSC_INSD_IJSF_NSD_IJSL_NSD_IJSM_SM_EEES1P_EEEEEENSD_IJNS5_11ScaledBasisISG_JLi1EEEENSD_IJNS1W_ISG_JLi0EEEENSD_IJNS1W_ISL_JLi0EEEENS1W_ISF_JLi1EEEEEEENS1W_ISQ_JLi1EEEEEEEEEEEEEERNSV_INS1N_IfLm1EEENSC_ISG_SI_EEEES2B_T_iiiiiiiiiS1G_S1L_ENKUlS2C_iRT0_RT1_RT2_RT3_RT4_RT5_E_clISt17integral_constantIbLb1EENS5_9TiledCopyINS5_9Copy_Atom
; BB:
  %.lcssa7303 = phi <8 x float> [ %1024, %_ZZN7cutlass4fmha10collective15FMHAFwdMainloopINS0_9XeDefaultILi2EEELb0ELb1ELb0EN4cute8TiledMMAINS5_8MMA_AtomIJNS5_10XE_DPAS_TTILi8EfNS_10bfloat16_tES9_fEEEEENS5_6LayoutINS5_5tupleIJNS5_1CILi16EEENSE_ILi1EEESG_EEENSD_IJSG_NSE_ILi0EEESI_EEEEEKNSD_IJNSC_INSD_IJNSE_ILi8EEESF_NSE_ILi2EEEEEENSD_IJSG_SF_SL_EEEEENSC_INSE_ILi32EEESG_EESR_EEEEESU_Li4ENS5_6TensorINS5_10ViewEngineINS5_8gmem_ptrIPS9_EEEENSC_INSD_IJiiiiEEENSD_IJiSG_iiEEEEEEES14_NSV_IS10_NSC_IS11_NSD_IJSG_iiiEEEEEEES14_S17_vvvvvEclINSD_IJjjEEEEEvRKNSV_IS10_NSC_INSD_IJiiEEENSD_IJiSG_EEEEEEES1G_RKNSV_IS10_NSC_IS1B_NSD_IJSG_iEEEEEEERNS5_14SubgroupTensorINS5_11ArrayEngineIfLm128EEENSC_INSD_IJSL_SM_SM_NSE_ILi4EEEEEENSD_IJSG_SL_SF_SQ_EEEEENSC_INSD_IJSF_NSD_IJSL_NSD_IJSM_SM_EEES1P_EEEEEENSD_IJNS5_11ScaledBasisISG_JLi1EEEENSD_IJNS1W_ISG_JLi0EEEENSD_IJNS1W_ISL_JLi0EEEENS1W_ISF_JLi1EEEEEEENS1W_ISQ_JLi1EEEEEEEEEEEEEERNSV_INS1N_IfLm1EEENSC_ISG_SI_EEEES2B_T_iiiiiiiiiS1G_S1L_ENKUlS2C_iRT0_RT1_RT2_RT3_RT4_RT5_E_clISt17integral_constantIbLb1EENS5_9TiledCopyINS5_9Copy_Atom ]
  %.lcssa7302 = phi <8 x float> [ %1025, %_ZZN7cutlass4fmha10collective15FMHAFwdMainloopINS0_9XeDefaultILi2EEELb0ELb1ELb0EN4cute8TiledMMAINS5_8MMA_AtomIJNS5_10XE_DPAS_TTILi8EfNS_10bfloat16_tES9_fEEEEENS5_6LayoutINS5_5tupleIJNS5_1CILi16EEENSE_ILi1EEESG_EEENSD_IJSG_NSE_ILi0EEESI_EEEEEKNSD_IJNSC_INSD_IJNSE_ILi8EEESF_NSE_ILi2EEEEEENSD_IJSG_SF_SL_EEEEENSC_INSE_ILi32EEESG_EESR_EEEEESU_Li4ENS5_6TensorINS5_10ViewEngineINS5_8gmem_ptrIPS9_EEEENSC_INSD_IJiiiiEEENSD_IJiSG_iiEEEEEEES14_NSV_IS10_NSC_IS11_NSD_IJSG_iiiEEEEEEES14_S17_vvvvvEclINSD_IJjjEEEEEvRKNSV_IS10_NSC_INSD_IJiiEEENSD_IJiSG_EEEEEEES1G_RKNSV_IS10_NSC_IS1B_NSD_IJSG_iEEEEEEERNS5_14SubgroupTensorINS5_11ArrayEngineIfLm128EEENSC_INSD_IJSL_SM_SM_NSE_ILi4EEEEEENSD_IJSG_SL_SF_SQ_EEEEENSC_INSD_IJSF_NSD_IJSL_NSD_IJSM_SM_EEES1P_EEEEEENSD_IJNS5_11ScaledBasisISG_JLi1EEEENSD_IJNS1W_ISG_JLi0EEEENSD_IJNS1W_ISL_JLi0EEEENS1W_ISF_JLi1EEEEEEENS1W_ISQ_JLi1EEEEEEEEEEEEEERNSV_INS1N_IfLm1EEENSC_ISG_SI_EEEES2B_T_iiiiiiiiiS1G_S1L_ENKUlS2C_iRT0_RT1_RT2_RT3_RT4_RT5_E_clISt17integral_constantIbLb1EENS5_9TiledCopyINS5_9Copy_Atom ]
  %.lcssa7301 = phi <8 x float> [ %1026, %_ZZN7cutlass4fmha10collective15FMHAFwdMainloopINS0_9XeDefaultILi2EEELb0ELb1ELb0EN4cute8TiledMMAINS5_8MMA_AtomIJNS5_10XE_DPAS_TTILi8EfNS_10bfloat16_tES9_fEEEEENS5_6LayoutINS5_5tupleIJNS5_1CILi16EEENSE_ILi1EEESG_EEENSD_IJSG_NSE_ILi0EEESI_EEEEEKNSD_IJNSC_INSD_IJNSE_ILi8EEESF_NSE_ILi2EEEEEENSD_IJSG_SF_SL_EEEEENSC_INSE_ILi32EEESG_EESR_EEEEESU_Li4ENS5_6TensorINS5_10ViewEngineINS5_8gmem_ptrIPS9_EEEENSC_INSD_IJiiiiEEENSD_IJiSG_iiEEEEEEES14_NSV_IS10_NSC_IS11_NSD_IJSG_iiiEEEEEEES14_S17_vvvvvEclINSD_IJjjEEEEEvRKNSV_IS10_NSC_INSD_IJiiEEENSD_IJiSG_EEEEEEES1G_RKNSV_IS10_NSC_IS1B_NSD_IJSG_iEEEEEEERNS5_14SubgroupTensorINS5_11ArrayEngineIfLm128EEENSC_INSD_IJSL_SM_SM_NSE_ILi4EEEEEENSD_IJSG_SL_SF_SQ_EEEEENSC_INSD_IJSF_NSD_IJSL_NSD_IJSM_SM_EEES1P_EEEEEENSD_IJNS5_11ScaledBasisISG_JLi1EEEENSD_IJNS1W_ISG_JLi0EEEENSD_IJNS1W_ISL_JLi0EEEENS1W_ISF_JLi1EEEEEEENS1W_ISQ_JLi1EEEEEEEEEEEEEERNSV_INS1N_IfLm1EEENSC_ISG_SI_EEEES2B_T_iiiiiiiiiS1G_S1L_ENKUlS2C_iRT0_RT1_RT2_RT3_RT4_RT5_E_clISt17integral_constantIbLb1EENS5_9TiledCopyINS5_9Copy_Atom ]
  %.lcssa7300 = phi <8 x float> [ %1027, %_ZZN7cutlass4fmha10collective15FMHAFwdMainloopINS0_9XeDefaultILi2EEELb0ELb1ELb0EN4cute8TiledMMAINS5_8MMA_AtomIJNS5_10XE_DPAS_TTILi8EfNS_10bfloat16_tES9_fEEEEENS5_6LayoutINS5_5tupleIJNS5_1CILi16EEENSE_ILi1EEESG_EEENSD_IJSG_NSE_ILi0EEESI_EEEEEKNSD_IJNSC_INSD_IJNSE_ILi8EEESF_NSE_ILi2EEEEEENSD_IJSG_SF_SL_EEEEENSC_INSE_ILi32EEESG_EESR_EEEEESU_Li4ENS5_6TensorINS5_10ViewEngineINS5_8gmem_ptrIPS9_EEEENSC_INSD_IJiiiiEEENSD_IJiSG_iiEEEEEEES14_NSV_IS10_NSC_IS11_NSD_IJSG_iiiEEEEEEES14_S17_vvvvvEclINSD_IJjjEEEEEvRKNSV_IS10_NSC_INSD_IJiiEEENSD_IJiSG_EEEEEEES1G_RKNSV_IS10_NSC_IS1B_NSD_IJSG_iEEEEEEERNS5_14SubgroupTensorINS5_11ArrayEngineIfLm128EEENSC_INSD_IJSL_SM_SM_NSE_ILi4EEEEEENSD_IJSG_SL_SF_SQ_EEEEENSC_INSD_IJSF_NSD_IJSL_NSD_IJSM_SM_EEES1P_EEEEEENSD_IJNS5_11ScaledBasisISG_JLi1EEEENSD_IJNS1W_ISG_JLi0EEEENSD_IJNS1W_ISL_JLi0EEEENS1W_ISF_JLi1EEEEEEENS1W_ISQ_JLi1EEEEEEEEEEEEEERNSV_INS1N_IfLm1EEENSC_ISG_SI_EEEES2B_T_iiiiiiiiiS1G_S1L_ENKUlS2C_iRT0_RT1_RT2_RT3_RT4_RT5_E_clISt17integral_constantIbLb1EENS5_9TiledCopyINS5_9Copy_Atom ]
  %.lcssa7299 = phi <8 x float> [ %1162, %_ZZN7cutlass4fmha10collective15FMHAFwdMainloopINS0_9XeDefaultILi2EEELb0ELb1ELb0EN4cute8TiledMMAINS5_8MMA_AtomIJNS5_10XE_DPAS_TTILi8EfNS_10bfloat16_tES9_fEEEEENS5_6LayoutINS5_5tupleIJNS5_1CILi16EEENSE_ILi1EEESG_EEENSD_IJSG_NSE_ILi0EEESI_EEEEEKNSD_IJNSC_INSD_IJNSE_ILi8EEESF_NSE_ILi2EEEEEENSD_IJSG_SF_SL_EEEEENSC_INSE_ILi32EEESG_EESR_EEEEESU_Li4ENS5_6TensorINS5_10ViewEngineINS5_8gmem_ptrIPS9_EEEENSC_INSD_IJiiiiEEENSD_IJiSG_iiEEEEEEES14_NSV_IS10_NSC_IS11_NSD_IJSG_iiiEEEEEEES14_S17_vvvvvEclINSD_IJjjEEEEEvRKNSV_IS10_NSC_INSD_IJiiEEENSD_IJiSG_EEEEEEES1G_RKNSV_IS10_NSC_IS1B_NSD_IJSG_iEEEEEEERNS5_14SubgroupTensorINS5_11ArrayEngineIfLm128EEENSC_INSD_IJSL_SM_SM_NSE_ILi4EEEEEENSD_IJSG_SL_SF_SQ_EEEEENSC_INSD_IJSF_NSD_IJSL_NSD_IJSM_SM_EEES1P_EEEEEENSD_IJNS5_11ScaledBasisISG_JLi1EEEENSD_IJNS1W_ISG_JLi0EEEENSD_IJNS1W_ISL_JLi0EEEENS1W_ISF_JLi1EEEEEEENS1W_ISQ_JLi1EEEEEEEEEEEEEERNSV_INS1N_IfLm1EEENSC_ISG_SI_EEEES2B_T_iiiiiiiiiS1G_S1L_ENKUlS2C_iRT0_RT1_RT2_RT3_RT4_RT5_E_clISt17integral_constantIbLb1EENS5_9TiledCopyINS5_9Copy_Atom ]
