; ------------------------------------------------
; OCL_asmfad8e37da0145367_simd16_entry_0009.visa.ll
; LLVM major version: 16
; ------------------------------------------------
; Function Attrs: convergent nounwind
define spir_kernel void @_ZTSN7cutlass4fmha6kernel15XeFMHAFwdKernelINS1_16FMHAProblemShapeILb0EEENS0_10collective15FMHAFwdMainloopINS0_9XeDefaultILi2EEELb0ELb0ELb0EN4cute8TiledMMAINS9_8MMA_AtomIJNS9_10XE_DPAS_TTILi8EfNS_10bfloat16_tESD_fEEEEENS9_6LayoutINS9_5tupleIJNS9_1CILi16EEENSI_ILi1EEESK_EEENSH_IJSK_NSI_ILi0EEESM_EEEEEKNSH_IJNSG_INSH_IJNSI_ILi8EEESJ_NSI_ILi2EEEEEENSH_IJSK_SJ_SP_EEEEENSG_INSI_ILi32EEESK_EESV_EEEEESY_Li4ENS9_6TensorINS9_10ViewEngineINS9_8gmem_ptrIPSD_EEEENSG_INSH_IJiiiiEEENSH_IJiSK_iiEEEEEEES18_NSZ_IS14_NSG_IS15_NSH_IJSK_iiiEEEEEEES18_S1B_vvvvvEENS5_15FMHAFwdEpilogueIS1C_NSH_IJNSI_ILi256EEENSI_ILi128EEEEEENSZ_INS10_INS11_IPfEEEES17_EEvEENS1_29XeFHMAIndividualTileSchedulerEEE(%"class.std::__generated_tuple"* byval(%"class.std::__generated_tuple") align 8 %0, i8 addrspace(3)* noalias align 1 %1, <8 x i32> %r0, <3 x i32> %globalOffset, i16 %localIdX, i16 %localIdY, i16 %localIdZ, i8 addrspace(2)* %constBase, i8* %privateBase, i32 %const_reg_dword, i32 %const_reg_dword1, i32 %const_reg_dword2, i32 %const_reg_dword3, i32 %const_reg_dword4, i32 %const_reg_dword5, i32 %const_reg_dword6, i32 %const_reg_dword7, i64 %const_reg_qword, i32 %const_reg_dword8, i32 %const_reg_dword9, i32 %const_reg_dword10, i8 %const_reg_byte, i8 %const_reg_byte11, i8 %const_reg_byte12, i8 %const_reg_byte13, i64 %const_reg_qword14, i32 %const_reg_dword15, i32 %const_reg_dword16, i32 %const_reg_dword17, i8 %const_reg_byte18, i8 %const_reg_byte19, i8 %const_reg_byte20, i8 %const_reg_byte21, i64 %const_reg_qword22, i32 %const_reg_dword23, i32 %const_reg_dword24, i32 %const_reg_dword25, i8 %const_reg_byte26, i8 %const_reg_byte27, i8 %const_reg_byte28, i8 %const_reg_byte29, i64 %const_reg_qword30, i32 %const_reg_dword31, i32 %const_reg_dword32, i32 %const_reg_dword33, i8 %const_reg_byte34, i8 %const_reg_byte35, i8 %const_reg_byte36, i8 %const_reg_byte37, i64 %const_reg_qword38, i32 %const_reg_dword39, i32 %const_reg_dword40, i32 %const_reg_dword41, i8 %const_reg_byte42, i8 %const_reg_byte43, i8 %const_reg_byte44, i8 %const_reg_byte45, i64 %const_reg_qword46, i32 %const_reg_dword47, i32 %const_reg_dword48, i32 %const_reg_dword49, i8 %const_reg_byte50, i8 %const_reg_byte51, i8 %const_reg_byte52, i8 %const_reg_byte53, float %const_reg_fp32, i64 %const_reg_qword54, i32 %const_reg_dword55, i64 %const_reg_qword56, i8 %const_reg_byte57, i8 %const_reg_byte58, i8 %const_reg_byte59, i8 %const_reg_byte60, i32 %const_reg_dword61, i32 %const_reg_dword62, i32 %const_reg_dword63, i32 %const_reg_dword64, i32 %const_reg_dword65, i32 %const_reg_dword66, i8 %const_reg_byte67, i8 %const_reg_byte68, i8 %const_reg_byte69, i8 %const_reg_byte70, i32 %bindlessOffset) #1 {
; BB0 :
  %3 = extractelement <8 x i32> %r0, i32 6		; visa id: 2
  %4 = extractelement <8 x i32> %r0, i32 7		; visa id: 2
  %5 = call { i32, i32 } @llvm.genx.GenISA.mul.pair(i32 %4, i32 0, i32 %const_reg_dword65, i32 0)
  %6 = extractvalue { i32, i32 } %5, 1		; visa id: 2
  %7 = shl i32 %3, 8		; visa id: 7
  %8 = icmp ult i32 %7, %const_reg_dword3		; visa id: 8
  br i1 %8, label %9, label %.._crit_edge_crit_edge, !stats.blockFrequency.digits !1203, !stats.blockFrequency.scale !1204		; visa id: 9

.._crit_edge_crit_edge:                           ; preds = %2
; BB:
  br label %._crit_edge, !stats.blockFrequency.digits !1205, !stats.blockFrequency.scale !1206

9:                                                ; preds = %2
; BB2 :
  %10 = lshr i32 %6, %const_reg_dword66		; visa id: 11
  %11 = icmp eq i32 %const_reg_dword64, 1
  %12 = select i1 %11, i32 %4, i32 %10		; visa id: 12
  %tobool.i = icmp eq i32 %const_reg_dword2, 0		; visa id: 14
  br i1 %tobool.i, label %if.then.i, label %if.end.i, !stats.blockFrequency.digits !1205, !stats.blockFrequency.scale !1206		; visa id: 15

if.then.i:                                        ; preds = %9
; BB3 :
  br label %precompiled_s32divrem_sp.exit, !stats.blockFrequency.digits !1207, !stats.blockFrequency.scale !1208		; visa id: 18

if.end.i:                                         ; preds = %9
; BB4 :
  %shr.i = ashr i32 %const_reg_dword2, 31		; visa id: 20
  %shr1.i = ashr i32 %const_reg_dword1, 31		; visa id: 21
  %add.i = add nsw i32 %shr.i, %const_reg_dword2		; visa id: 22
  %xor.i = xor i32 %add.i, %shr.i		; visa id: 23
  %add2.i = add nsw i32 %shr1.i, %const_reg_dword1		; visa id: 24
  %xor3.i = xor i32 %add2.i, %shr1.i		; visa id: 25
  %13 = call float @llvm.genx.GenISA.uitof.rtz.f32.i32(i32 %xor.i)		; visa id: 26
  %conv.i = fptoui float %13 to i32		; visa id: 28
  %sub.i = sub i32 %xor.i, %conv.i		; visa id: 29
  %14 = call float @llvm.genx.GenISA.uitof.rtz.f32.i32(i32 %xor3.i)		; visa id: 30
  %div.i = fdiv float 1.000000e+00, %13, !fpmath !1209		; visa id: 31
  %15 = call float @llvm.genx.GenISA.fma.rtz.f32.f32.f32.f32(float %div.i, float 0xBE98000000000000, float %div.i)		; visa id: 32
  %16 = call float @llvm.genx.GenISA.mul.rtz.f32.f32.f32(float %14, float %15)		; visa id: 33
  %conv6.i = fptoui float %14 to i32		; visa id: 34
  %sub7.i = sub i32 %xor3.i, %conv6.i		; visa id: 35
  %conv11.i = fptoui float %16 to i32		; visa id: 36
  %17 = call float @llvm.genx.GenISA.uitof.rtz.f32.i32(i32 %sub.i)		; visa id: 37
  %18 = call float @llvm.genx.GenISA.uitof.rtz.f32.i32(i32 %sub7.i)		; visa id: 38
  %19 = call float @llvm.genx.GenISA.uitof.rtz.f32.i32(i32 %conv11.i)		; visa id: 39
  %20 = fsub float 0.000000e+00, %13		; visa id: 40
  %21 = call float @llvm.genx.GenISA.fma.rtz.f32.f32.f32.f32(float %20, float %19, float %14)		; visa id: 41
  %22 = fsub float 0.000000e+00, %17		; visa id: 42
  %23 = call float @llvm.genx.GenISA.fma.rtz.f32.f32.f32.f32(float %22, float %19, float %18)		; visa id: 43
  %24 = call float @llvm.genx.GenISA.add.rtz.f32.f32.f32(float %21, float %23)		; visa id: 44
  %25 = call float @llvm.genx.GenISA.mul.rtz.f32.f32.f32(float %15, float %24)		; visa id: 45
  %conv19.i = fptoui float %25 to i32		; visa id: 47
  %add20.i = add i32 %conv19.i, %conv11.i		; visa id: 48
  %xor21.i = xor i32 %shr.i, %shr1.i		; visa id: 49
  %mul.i = mul i32 %add20.i, %xor.i		; visa id: 50
  %sub22.i = sub i32 %xor3.i, %mul.i		; visa id: 51
  %cmp.i = icmp uge i32 %sub22.i, %xor.i
  %26 = sext i1 %cmp.i to i32		; visa id: 52
  %27 = sub i32 0, %26
  %add24.i = add i32 %add20.i, %xor21.i
  %add29.i = add i32 %add24.i, %27		; visa id: 53
  %xor30.i = xor i32 %add29.i, %xor21.i		; visa id: 54
  br label %precompiled_s32divrem_sp.exit, !stats.blockFrequency.digits !1210, !stats.blockFrequency.scale !1211		; visa id: 55

precompiled_s32divrem_sp.exit:                    ; preds = %if.then.i, %if.end.i
; BB5 :
  %retval.0.i = phi i32 [ %xor30.i, %if.end.i ], [ -1, %if.then.i ]
  %28 = mul nsw i32 %12, %const_reg_dword64, !spirv.Decorations !1212		; visa id: 56
  %29 = sub nsw i32 %4, %28, !spirv.Decorations !1212		; visa id: 57
  %tobool.i3464 = icmp eq i32 %retval.0.i, 0		; visa id: 58
  br i1 %tobool.i3464, label %if.then.i3465, label %if.end.i3495, !stats.blockFrequency.digits !1205, !stats.blockFrequency.scale !1206		; visa id: 59

if.then.i3465:                                    ; preds = %precompiled_s32divrem_sp.exit
; BB6 :
  br label %precompiled_s32divrem_sp.exit3497, !stats.blockFrequency.digits !1207, !stats.blockFrequency.scale !1208		; visa id: 62

if.end.i3495:                                     ; preds = %precompiled_s32divrem_sp.exit
; BB7 :
  %shr.i3466 = ashr i32 %retval.0.i, 31		; visa id: 64
  %shr1.i3467 = ashr i32 %29, 31		; visa id: 65
  %add.i3468 = add nsw i32 %shr.i3466, %retval.0.i		; visa id: 66
  %xor.i3469 = xor i32 %add.i3468, %shr.i3466		; visa id: 67
  %add2.i3470 = add nsw i32 %shr1.i3467, %29		; visa id: 68
  %xor3.i3471 = xor i32 %add2.i3470, %shr1.i3467		; visa id: 69
  %30 = call float @llvm.genx.GenISA.uitof.rtz.f32.i32(i32 %xor.i3469)		; visa id: 70
  %conv.i3472 = fptoui float %30 to i32		; visa id: 72
  %sub.i3473 = sub i32 %xor.i3469, %conv.i3472		; visa id: 73
  %31 = call float @llvm.genx.GenISA.uitof.rtz.f32.i32(i32 %xor3.i3471)		; visa id: 74
  %div.i3476 = fdiv float 1.000000e+00, %30, !fpmath !1209		; visa id: 75
  %32 = call float @llvm.genx.GenISA.fma.rtz.f32.f32.f32.f32(float %div.i3476, float 0xBE98000000000000, float %div.i3476)		; visa id: 76
  %33 = call float @llvm.genx.GenISA.mul.rtz.f32.f32.f32(float %31, float %32)		; visa id: 77
  %conv6.i3474 = fptoui float %31 to i32		; visa id: 78
  %sub7.i3475 = sub i32 %xor3.i3471, %conv6.i3474		; visa id: 79
  %conv11.i3477 = fptoui float %33 to i32		; visa id: 80
  %34 = call float @llvm.genx.GenISA.uitof.rtz.f32.i32(i32 %sub.i3473)		; visa id: 81
  %35 = call float @llvm.genx.GenISA.uitof.rtz.f32.i32(i32 %sub7.i3475)		; visa id: 82
  %36 = call float @llvm.genx.GenISA.uitof.rtz.f32.i32(i32 %conv11.i3477)		; visa id: 83
  %37 = fsub float 0.000000e+00, %30		; visa id: 84
  %38 = call float @llvm.genx.GenISA.fma.rtz.f32.f32.f32.f32(float %37, float %36, float %31)		; visa id: 85
  %39 = fsub float 0.000000e+00, %34		; visa id: 86
  %40 = call float @llvm.genx.GenISA.fma.rtz.f32.f32.f32.f32(float %39, float %36, float %35)		; visa id: 87
  %41 = call float @llvm.genx.GenISA.add.rtz.f32.f32.f32(float %38, float %40)		; visa id: 88
  %42 = call float @llvm.genx.GenISA.mul.rtz.f32.f32.f32(float %32, float %41)		; visa id: 89
  %conv19.i3480 = fptoui float %42 to i32		; visa id: 91
  %add20.i3481 = add i32 %conv19.i3480, %conv11.i3477		; visa id: 92
  %xor21.i3482 = xor i32 %shr.i3466, %shr1.i3467		; visa id: 93
  %mul.i3483 = mul i32 %add20.i3481, %xor.i3469		; visa id: 94
  %sub22.i3484 = sub i32 %xor3.i3471, %mul.i3483		; visa id: 95
  %cmp.i3485 = icmp uge i32 %sub22.i3484, %xor.i3469
  %43 = sext i1 %cmp.i3485 to i32		; visa id: 96
  %44 = sub i32 0, %43
  %add24.i3492 = add i32 %add20.i3481, %xor21.i3482
  %add29.i3493 = add i32 %add24.i3492, %44		; visa id: 97
  %xor30.i3494 = xor i32 %add29.i3493, %xor21.i3482		; visa id: 98
  br label %precompiled_s32divrem_sp.exit3497, !stats.blockFrequency.digits !1210, !stats.blockFrequency.scale !1211		; visa id: 99

precompiled_s32divrem_sp.exit3497:                ; preds = %if.then.i3465, %if.end.i3495
; BB8 :
  %retval.0.i3496 = phi i32 [ %xor30.i3494, %if.end.i3495 ], [ -1, %if.then.i3465 ]
  %45 = add nsw i32 %const_reg_dword4, %const_reg_dword5, !spirv.Decorations !1212		; visa id: 100
  %is-neg = icmp slt i32 %45, -31		; visa id: 101
  br i1 %is-neg, label %cond-add, label %precompiled_s32divrem_sp.exit3497.cond-add-join_crit_edge, !stats.blockFrequency.digits !1205, !stats.blockFrequency.scale !1206		; visa id: 102

precompiled_s32divrem_sp.exit3497.cond-add-join_crit_edge: ; preds = %precompiled_s32divrem_sp.exit3497
; BB9 :
  %46 = add nsw i32 %45, 31, !spirv.Decorations !1212		; visa id: 104
  br label %cond-add-join, !stats.blockFrequency.digits !1214, !stats.blockFrequency.scale !1211		; visa id: 105

cond-add:                                         ; preds = %precompiled_s32divrem_sp.exit3497
; BB10 :
  %47 = add i32 %45, 62		; visa id: 107
  br label %cond-add-join, !stats.blockFrequency.digits !1214, !stats.blockFrequency.scale !1211		; visa id: 108

cond-add-join:                                    ; preds = %precompiled_s32divrem_sp.exit3497.cond-add-join_crit_edge, %cond-add
; BB11 :
  %48 = phi i32 [ %46, %precompiled_s32divrem_sp.exit3497.cond-add-join_crit_edge ], [ %47, %cond-add ]
  %qot = ashr i32 %48, 5		; visa id: 109
  %49 = mul nsw i32 %29, %const_reg_dword9, !spirv.Decorations !1212		; visa id: 110
  %50 = mul nsw i32 %12, %const_reg_dword10, !spirv.Decorations !1212		; visa id: 111
  %51 = add nsw i32 %49, %50, !spirv.Decorations !1212		; visa id: 112
  %52 = sext i32 %51 to i64		; visa id: 113
  %53 = shl nsw i64 %52, 1		; visa id: 114
  %54 = add i64 %53, %const_reg_qword		; visa id: 115
  %55 = mul nsw i32 %retval.0.i3496, %const_reg_dword16, !spirv.Decorations !1212		; visa id: 116
  %56 = mul nsw i32 %12, %const_reg_dword17, !spirv.Decorations !1212		; visa id: 117
  %57 = add nsw i32 %55, %56, !spirv.Decorations !1212		; visa id: 118
  %58 = sext i32 %57 to i64		; visa id: 119
  %59 = shl nsw i64 %58, 1		; visa id: 120
  %60 = add i64 %59, %const_reg_qword14		; visa id: 121
  %61 = mul nsw i32 %retval.0.i3496, %const_reg_dword24, !spirv.Decorations !1212		; visa id: 122
  %62 = mul nsw i32 %12, %const_reg_dword25, !spirv.Decorations !1212		; visa id: 123
  %63 = add nsw i32 %61, %62, !spirv.Decorations !1212		; visa id: 124
  %64 = sext i32 %63 to i64		; visa id: 125
  %65 = shl nsw i64 %64, 1		; visa id: 126
  %66 = add i64 %65, %const_reg_qword22		; visa id: 127
  %67 = mul nsw i32 %retval.0.i3496, %const_reg_dword40, !spirv.Decorations !1212		; visa id: 128
  %68 = mul nsw i32 %12, %const_reg_dword41, !spirv.Decorations !1212		; visa id: 129
  %69 = add nsw i32 %67, %68, !spirv.Decorations !1212		; visa id: 130
  %70 = sext i32 %69 to i64		; visa id: 131
  %71 = shl nsw i64 %70, 1		; visa id: 132
  %72 = add i64 %71, %const_reg_qword38		; visa id: 133
  %73 = mul nsw i32 %retval.0.i3496, %const_reg_dword48, !spirv.Decorations !1212		; visa id: 134
  %74 = mul nsw i32 %12, %const_reg_dword49, !spirv.Decorations !1212		; visa id: 135
  %75 = add nsw i32 %73, %74, !spirv.Decorations !1212		; visa id: 136
  %76 = sext i32 %75 to i64		; visa id: 137
  %77 = shl nsw i64 %76, 1		; visa id: 138
  %78 = add i64 %77, %const_reg_qword46		; visa id: 139
  %is-neg3455 = icmp slt i32 %const_reg_dword6, -31		; visa id: 140
  br i1 %is-neg3455, label %cond-add3456, label %cond-add-join.cond-add-join3457_crit_edge, !stats.blockFrequency.digits !1205, !stats.blockFrequency.scale !1206		; visa id: 141

cond-add-join.cond-add-join3457_crit_edge:        ; preds = %cond-add-join
; BB12 :
  %79 = add nsw i32 %const_reg_dword6, 31, !spirv.Decorations !1212		; visa id: 143
  br label %cond-add-join3457, !stats.blockFrequency.digits !1214, !stats.blockFrequency.scale !1211		; visa id: 144

cond-add3456:                                     ; preds = %cond-add-join
; BB13 :
  %80 = add i32 %const_reg_dword6, 62		; visa id: 146
  br label %cond-add-join3457, !stats.blockFrequency.digits !1214, !stats.blockFrequency.scale !1211		; visa id: 147

cond-add-join3457:                                ; preds = %cond-add-join.cond-add-join3457_crit_edge, %cond-add3456
; BB14 :
  %81 = phi i32 [ %79, %cond-add-join.cond-add-join3457_crit_edge ], [ %80, %cond-add3456 ]
  %82 = extractelement <8 x i32> %r0, i32 1		; visa id: 148
  %qot3458 = ashr i32 %81, 5		; visa id: 148
  %83 = shl i32 %82, 7		; visa id: 149
  %84 = shl nsw i32 %const_reg_dword6, 1, !spirv.Decorations !1212		; visa id: 150
  %85 = shl nsw i32 %const_reg_dword8, 1, !spirv.Decorations !1212		; visa id: 151
  %86 = add i32 %84, -1		; visa id: 152
  %87 = add i32 %const_reg_dword3, -1		; visa id: 153
  %88 = add i32 %85, -1		; visa id: 154
  %Block2D_AddrPayload = call i8 addrspace(4)* @llvm.genx.GenISA.LSC2DBlockCreateAddrPayload.p4i8(i64 %54, i32 %86, i32 %87, i32 %88, i32 0, i32 0, i32 16, i32 16, i32 2)		; visa id: 155
  %89 = shl nsw i32 %const_reg_dword15, 1, !spirv.Decorations !1212		; visa id: 162
  %90 = add i32 %const_reg_dword4, -1		; visa id: 163
  %91 = add i32 %89, -1		; visa id: 164
  %Block2D_AddrPayload109 = call i8 addrspace(4)* @llvm.genx.GenISA.LSC2DBlockCreateAddrPayload.p4i8(i64 %60, i32 %86, i32 %90, i32 %91, i32 0, i32 0, i32 8, i32 16, i32 1)		; visa id: 165
  %92 = shl nsw i32 %const_reg_dword7, 1, !spirv.Decorations !1212		; visa id: 172
  %93 = shl nsw i32 %const_reg_dword23, 1, !spirv.Decorations !1212		; visa id: 173
  %94 = add i32 %92, -1		; visa id: 174
  %95 = add i32 %93, -1		; visa id: 175
  %Block2D_AddrPayload110 = call i8 addrspace(4)* @llvm.genx.GenISA.LSC2DBlockCreateAddrPayload.p4i8(i64 %66, i32 %94, i32 %90, i32 %95, i32 0, i32 0, i32 16, i32 16, i32 2)		; visa id: 176
  %96 = shl nsw i32 %const_reg_dword39, 1, !spirv.Decorations !1212		; visa id: 183
  %97 = add i32 %const_reg_dword5, -1		; visa id: 184
  %98 = add i32 %96, -1		; visa id: 185
  %Block2D_AddrPayload111 = call i8 addrspace(4)* @llvm.genx.GenISA.LSC2DBlockCreateAddrPayload.p4i8(i64 %72, i32 %86, i32 %97, i32 %98, i32 0, i32 0, i32 8, i32 16, i32 1)		; visa id: 186
  %99 = shl nsw i32 %const_reg_dword47, 1, !spirv.Decorations !1212		; visa id: 193
  %100 = add i32 %99, -1		; visa id: 194
  %Block2D_AddrPayload112 = call i8 addrspace(4)* @llvm.genx.GenISA.LSC2DBlockCreateAddrPayload.p4i8(i64 %78, i32 %94, i32 %97, i32 %100, i32 0, i32 0, i32 16, i32 16, i32 2)		; visa id: 195
  %101 = zext i16 %localIdX to i32		; visa id: 202
  %102 = and i32 %101, 65520		; visa id: 203
  %103 = add i32 %7, %102		; visa id: 204
  %Block2D_AddrPayload113 = call i8 addrspace(4)* @llvm.genx.GenISA.LSC2DBlockCreateAddrPayload.p4i8(i64 %54, i32 %86, i32 %87, i32 %88, i32 0, i32 0, i32 32, i32 16, i32 1)		; visa id: 205
  %Block2D_AddrPayload114 = call i8 addrspace(4)* @llvm.genx.GenISA.LSC2DBlockCreateAddrPayload.p4i8(i64 %60, i32 %86, i32 %90, i32 %91, i32 0, i32 0, i32 32, i32 2, i32 1)		; visa id: 212
  %Block2D_AddrPayload115 = call i8 addrspace(4)* @llvm.genx.GenISA.LSC2DBlockCreateAddrPayload.p4i8(i64 %66, i32 %94, i32 %90, i32 %95, i32 0, i32 0, i32 32, i32 2, i32 1)		; visa id: 219
  %Block2D_AddrPayload116 = call i8 addrspace(4)* @llvm.genx.GenISA.LSC2DBlockCreateAddrPayload.p4i8(i64 %72, i32 %86, i32 %97, i32 %98, i32 0, i32 0, i32 32, i32 2, i32 1)		; visa id: 226
  %Block2D_AddrPayload117 = call i8 addrspace(4)* @llvm.genx.GenISA.LSC2DBlockCreateAddrPayload.p4i8(i64 %78, i32 %94, i32 %97, i32 %100, i32 0, i32 0, i32 32, i32 2, i32 1)		; visa id: 233
  %104 = lshr i32 %101, 3		; visa id: 240
  %105 = and i32 %104, 8190		; visa id: 241
  %is-neg3459 = icmp slt i32 %const_reg_dword5, -31		; visa id: 242
  br i1 %is-neg3459, label %cond-add3460, label %cond-add-join3457.cond-add-join3461_crit_edge, !stats.blockFrequency.digits !1205, !stats.blockFrequency.scale !1206		; visa id: 243

cond-add-join3457.cond-add-join3461_crit_edge:    ; preds = %cond-add-join3457
; BB15 :
  %106 = add nsw i32 %const_reg_dword5, 31, !spirv.Decorations !1212		; visa id: 245
  br label %cond-add-join3461, !stats.blockFrequency.digits !1214, !stats.blockFrequency.scale !1211		; visa id: 246

cond-add3460:                                     ; preds = %cond-add-join3457
; BB16 :
  %107 = add i32 %const_reg_dword5, 62		; visa id: 248
  br label %cond-add-join3461, !stats.blockFrequency.digits !1214, !stats.blockFrequency.scale !1211		; visa id: 249

cond-add-join3461:                                ; preds = %cond-add-join3457.cond-add-join3461_crit_edge, %cond-add3460
; BB17 :
  %108 = phi i32 [ %106, %cond-add-join3457.cond-add-join3461_crit_edge ], [ %107, %cond-add3460 ]
  %qot3462 = ashr i32 %108, 5		; visa id: 250
  %109 = icmp sgt i32 %const_reg_dword6, 0		; visa id: 251
  br i1 %109, label %.lr.ph185.preheader, label %cond-add-join3461..preheader.preheader_crit_edge, !stats.blockFrequency.digits !1205, !stats.blockFrequency.scale !1206		; visa id: 252

cond-add-join3461..preheader.preheader_crit_edge: ; preds = %cond-add-join3461
; BB:
  br label %.preheader.preheader, !stats.blockFrequency.digits !1207, !stats.blockFrequency.scale !1208

.lr.ph185.preheader:                              ; preds = %cond-add-join3461
; BB19 :
  br label %.lr.ph185, !stats.blockFrequency.digits !1210, !stats.blockFrequency.scale !1211		; visa id: 255

.lr.ph185:                                        ; preds = %.lr.ph185..lr.ph185_crit_edge, %.lr.ph185.preheader
; BB20 :
  %110 = phi i32 [ %112, %.lr.ph185..lr.ph185_crit_edge ], [ 0, %.lr.ph185.preheader ]
  %111 = shl nsw i32 %110, 5, !spirv.Decorations !1212		; visa id: 256
  call void @llvm.genx.GenISA.LSC2DBlockSetAddrPayloadField.p4i8.i32(i8 addrspace(4)* %Block2D_AddrPayload113, i32 5, i32 %111, i1 false)		; visa id: 257
  call void @llvm.genx.GenISA.LSC2DBlockSetAddrPayloadField.p4i8.i32(i8 addrspace(4)* %Block2D_AddrPayload113, i32 6, i32 %103, i1 false)		; visa id: 258
  call void asm sideeffect "lsc_load_block2d.ugm.ca.ca (M1, 1)  %null:d$1.$2x$3nn flat[$0+(0,0)]", "rw.u,P,P,P"(i8 addrspace(4)* %Block2D_AddrPayload113, i32 16, i32 32, i32 16) #0		; visa id: 259
  %112 = add nuw nsw i32 %110, 1, !spirv.Decorations !1215		; visa id: 259
  %113 = icmp slt i32 %112, %qot3458		; visa id: 260
  br i1 %113, label %.lr.ph185..lr.ph185_crit_edge, label %.preheader1.preheader, !stats.blockFrequency.digits !1217, !stats.blockFrequency.scale !1218		; visa id: 261

.lr.ph185..lr.ph185_crit_edge:                    ; preds = %.lr.ph185
; BB:
  br label %.lr.ph185, !stats.blockFrequency.digits !1219, !stats.blockFrequency.scale !1218

.preheader1.preheader:                            ; preds = %.lr.ph185
; BB22 :
  br i1 true, label %.lr.ph182, label %.preheader1.preheader..preheader.preheader_crit_edge, !stats.blockFrequency.digits !1210, !stats.blockFrequency.scale !1211		; visa id: 263

.preheader1.preheader..preheader.preheader_crit_edge: ; preds = %.preheader1.preheader
; BB:
  br label %.preheader.preheader, !stats.blockFrequency.digits !1220, !stats.blockFrequency.scale !1208

.lr.ph182:                                        ; preds = %.preheader1.preheader
; BB24 :
  %114 = icmp sgt i32 %const_reg_dword5, 0		; visa id: 266
  %115 = and i32 %108, -32		; visa id: 267
  %116 = sub i32 %105, %115		; visa id: 268
  %117 = icmp sgt i32 %const_reg_dword5, 32		; visa id: 269
  %118 = sub i32 32, %115
  %119 = add nuw nsw i32 %105, %118		; visa id: 270
  %120 = add nuw nsw i32 %105, 32		; visa id: 271
  br label %121, !stats.blockFrequency.digits !1220, !stats.blockFrequency.scale !1208		; visa id: 273

121:                                              ; preds = %.preheader1._crit_edge, %.lr.ph182
; BB25 :
  %122 = phi i32 [ 0, %.lr.ph182 ], [ %129, %.preheader1._crit_edge ]
  %123 = shl nsw i32 %122, 5, !spirv.Decorations !1212		; visa id: 274
  br i1 %114, label %125, label %124, !stats.blockFrequency.digits !1220, !stats.blockFrequency.scale !1204		; visa id: 275

124:                                              ; preds = %121
; BB26 :
  call void @llvm.genx.GenISA.LSC2DBlockSetAddrPayloadField.p4i8.i32(i8 addrspace(4)* %Block2D_AddrPayload114, i32 5, i32 %123, i1 false)		; visa id: 277
  call void @llvm.genx.GenISA.LSC2DBlockSetAddrPayloadField.p4i8.i32(i8 addrspace(4)* %Block2D_AddrPayload114, i32 6, i32 %116, i1 false)		; visa id: 278
  call void asm sideeffect "lsc_load_block2d.ugm.ca.ca (M1, 1)  %null:d$1.$2x$3nn flat[$0+(0,0)]", "rw.u,P,P,P"(i8 addrspace(4)* %Block2D_AddrPayload114, i32 16, i32 32, i32 2) #0		; visa id: 279
  br label %126, !stats.blockFrequency.digits !1214, !stats.blockFrequency.scale !1221		; visa id: 279

125:                                              ; preds = %121
; BB27 :
  call void @llvm.genx.GenISA.LSC2DBlockSetAddrPayloadField.p4i8.i32(i8 addrspace(4)* %Block2D_AddrPayload116, i32 5, i32 %123, i1 false)		; visa id: 281
  call void @llvm.genx.GenISA.LSC2DBlockSetAddrPayloadField.p4i8.i32(i8 addrspace(4)* %Block2D_AddrPayload116, i32 6, i32 %105, i1 false)		; visa id: 282
  call void asm sideeffect "lsc_load_block2d.ugm.ca.ca (M1, 1)  %null:d$1.$2x$3nn flat[$0+(0,0)]", "rw.u,P,P,P"(i8 addrspace(4)* %Block2D_AddrPayload116, i32 16, i32 32, i32 2) #0		; visa id: 283
  br label %126, !stats.blockFrequency.digits !1222, !stats.blockFrequency.scale !1221		; visa id: 283

126:                                              ; preds = %124, %125
; BB28 :
  br i1 %117, label %128, label %127, !stats.blockFrequency.digits !1220, !stats.blockFrequency.scale !1204		; visa id: 284

127:                                              ; preds = %126
; BB29 :
  call void @llvm.genx.GenISA.LSC2DBlockSetAddrPayloadField.p4i8.i32(i8 addrspace(4)* %Block2D_AddrPayload114, i32 5, i32 %123, i1 false)		; visa id: 286
  call void @llvm.genx.GenISA.LSC2DBlockSetAddrPayloadField.p4i8.i32(i8 addrspace(4)* %Block2D_AddrPayload114, i32 6, i32 %119, i1 false)		; visa id: 287
  call void asm sideeffect "lsc_load_block2d.ugm.ca.ca (M1, 1)  %null:d$1.$2x$3nn flat[$0+(0,0)]", "rw.u,P,P,P"(i8 addrspace(4)* %Block2D_AddrPayload114, i32 16, i32 32, i32 2) #0		; visa id: 288
  br label %.preheader1, !stats.blockFrequency.digits !1220, !stats.blockFrequency.scale !1221		; visa id: 288

128:                                              ; preds = %126
; BB30 :
  call void @llvm.genx.GenISA.LSC2DBlockSetAddrPayloadField.p4i8.i32(i8 addrspace(4)* %Block2D_AddrPayload116, i32 5, i32 %123, i1 false)		; visa id: 290
  call void @llvm.genx.GenISA.LSC2DBlockSetAddrPayloadField.p4i8.i32(i8 addrspace(4)* %Block2D_AddrPayload116, i32 6, i32 %120, i1 false)		; visa id: 291
  call void asm sideeffect "lsc_load_block2d.ugm.ca.ca (M1, 1)  %null:d$1.$2x$3nn flat[$0+(0,0)]", "rw.u,P,P,P"(i8 addrspace(4)* %Block2D_AddrPayload116, i32 16, i32 32, i32 2) #0		; visa id: 292
  br label %.preheader1, !stats.blockFrequency.digits !1220, !stats.blockFrequency.scale !1221		; visa id: 292

.preheader1:                                      ; preds = %128, %127
; BB31 :
  %129 = add nuw nsw i32 %122, 1, !spirv.Decorations !1215		; visa id: 293
  %130 = icmp slt i32 %129, %qot3458		; visa id: 294
  br i1 %130, label %.preheader1._crit_edge, label %.preheader.preheader.loopexit, !stats.blockFrequency.digits !1220, !stats.blockFrequency.scale !1204		; visa id: 295

.preheader.preheader.loopexit:                    ; preds = %.preheader1
; BB:
  br label %.preheader.preheader, !stats.blockFrequency.digits !1220, !stats.blockFrequency.scale !1208

.preheader1._crit_edge:                           ; preds = %.preheader1
; BB:
  br label %121, !stats.blockFrequency.digits !1223, !stats.blockFrequency.scale !1204

.preheader.preheader:                             ; preds = %.preheader1.preheader..preheader.preheader_crit_edge, %cond-add-join3461..preheader.preheader_crit_edge, %.preheader.preheader.loopexit
; BB34 :
  %131 = call i32 @llvm.smax.i32(i32 %qot3462, i32 0)		; visa id: 297
  %132 = icmp slt i32 %131, %qot		; visa id: 298
  br i1 %132, label %.preheader172.lr.ph, label %.preheader.preheader.._crit_edge181_crit_edge, !stats.blockFrequency.digits !1205, !stats.blockFrequency.scale !1206		; visa id: 299

.preheader.preheader.._crit_edge181_crit_edge:    ; preds = %.preheader.preheader
; BB35 :
  br label %._crit_edge181, !stats.blockFrequency.digits !1214, !stats.blockFrequency.scale !1211		; visa id: 430

.preheader172.lr.ph:                              ; preds = %.preheader.preheader
; BB36 :
  %133 = and i32 %45, 31
  %134 = add nsw i32 %qot, -1		; visa id: 432
  %135 = shl nuw nsw i32 %131, 5		; visa id: 433
  %smax = call i32 @llvm.smax.i32(i32 %qot3458, i32 1)		; visa id: 434
  %xtraiter = and i32 %smax, 1
  %136 = icmp slt i32 %const_reg_dword6, 33		; visa id: 435
  %unroll_iter = and i32 %smax, 2147483646		; visa id: 436
  %lcmp.mod.not = icmp eq i32 %xtraiter, 0		; visa id: 437
  %137 = and i32 %83, 268435328		; visa id: 439
  %138 = or i32 %137, 32		; visa id: 440
  %139 = or i32 %137, 64		; visa id: 441
  %140 = or i32 %137, 96		; visa id: 442
  %.not.not = icmp ne i32 %133, 0
  br label %.preheader172, !stats.blockFrequency.digits !1214, !stats.blockFrequency.scale !1211		; visa id: 573

.preheader172:                                    ; preds = %_ZZN7cutlass4fmha10collective15FMHAFwdMainloopINS0_9XeDefaultILi2EEELb0ELb0ELb0EN4cute8TiledMMAINS5_8MMA_AtomIJNS5_10XE_DPAS_TTILi8EfNS_10bfloat16_tES9_fEEEEENS5_6LayoutINS5_5tupleIJNS5_1CILi16EEENSE_ILi1EEESG_EEENSD_IJSG_NSE_ILi0EEESI_EEEEEKNSD_IJNSC_INSD_IJNSE_ILi8EEESF_NSE_ILi2EEEEEENSD_IJSG_SF_SL_EEEEENSC_INSE_ILi32EEESG_EESR_EEEEESU_Li4ENS5_6TensorINS5_10ViewEngineINS5_8gmem_ptrIPS9_EEEENSC_INSD_IJiiiiEEENSD_IJiSG_iiEEEEEEES14_NSV_IS10_NSC_IS11_NSD_IJSG_iiiEEEEEEES14_S17_vvvvvEclINSD_IJjjEEEEEvRKNSV_IS10_NSC_INSD_IJiiEEENSD_IJiSG_EEEEEEES1G_RKNSV_IS10_NSC_IS1B_NSD_IJSG_iEEEEEEERNS5_14SubgroupTensorINS5_11ArrayEngineIfLm128EEENSC_INSD_IJSL_SM_SM_NSE_ILi4EEEEEENSD_IJSG_SL_SF_SQ_EEEEENSC_INSD_IJSF_NSD_IJSL_NSD_IJSM_SM_EEES1P_EEEEEENSD_IJNS5_11ScaledBasisISG_JLi1EEEENSD_IJNS1W_ISG_JLi0EEEENSD_IJNS1W_ISL_JLi0EEEENS1W_ISF_JLi1EEEEEEENS1W_ISQ_JLi1EEEEEEEEEEEEEERNSV_INS1N_IfLm1EEENSC_ISG_SI_EEEES2B_T_iiiiiiiiiS1G_S1L_ENKUlS2C_iRT0_RT1_RT2_RT3_RT4_RT5_E_clISt17integral_constantIbLb0EENS5_9TiledCopyINS5_9Copy_Atom..preheader172_crit_edge, %.preheader172.lr.ph
; BB37 :
  %.sroa.424.0 = phi <8 x float> [ zeroinitializer, %.preheader172.lr.ph ], [ %1448, %_ZZN7cutlass4fmha10collective15FMHAFwdMainloopINS0_9XeDefaultILi2EEELb0ELb0ELb0EN4cute8TiledMMAINS5_8MMA_AtomIJNS5_10XE_DPAS_TTILi8EfNS_10bfloat16_tES9_fEEEEENS5_6LayoutINS5_5tupleIJNS5_1CILi16EEENSE_ILi1EEESG_EEENSD_IJSG_NSE_ILi0EEESI_EEEEEKNSD_IJNSC_INSD_IJNSE_ILi8EEESF_NSE_ILi2EEEEEENSD_IJSG_SF_SL_EEEEENSC_INSE_ILi32EEESG_EESR_EEEEESU_Li4ENS5_6TensorINS5_10ViewEngineINS5_8gmem_ptrIPS9_EEEENSC_INSD_IJiiiiEEENSD_IJiSG_iiEEEEEEES14_NSV_IS10_NSC_IS11_NSD_IJSG_iiiEEEEEEES14_S17_vvvvvEclINSD_IJjjEEEEEvRKNSV_IS10_NSC_INSD_IJiiEEENSD_IJiSG_EEEEEEES1G_RKNSV_IS10_NSC_IS1B_NSD_IJSG_iEEEEEEERNS5_14SubgroupTensorINS5_11ArrayEngineIfLm128EEENSC_INSD_IJSL_SM_SM_NSE_ILi4EEEEEENSD_IJSG_SL_SF_SQ_EEEEENSC_INSD_IJSF_NSD_IJSL_NSD_IJSM_SM_EEES1P_EEEEEENSD_IJNS5_11ScaledBasisISG_JLi1EEEENSD_IJNS1W_ISG_JLi0EEEENSD_IJNS1W_ISL_JLi0EEEENS1W_ISF_JLi1EEEEEEENS1W_ISQ_JLi1EEEEEEEEEEEEEERNSV_INS1N_IfLm1EEENSC_ISG_SI_EEEES2B_T_iiiiiiiiiS1G_S1L_ENKUlS2C_iRT0_RT1_RT2_RT3_RT4_RT5_E_clISt17integral_constantIbLb0EENS5_9TiledCopyINS5_9Copy_Atom..preheader172_crit_edge ]
  %.sroa.396.0 = phi <8 x float> [ zeroinitializer, %.preheader172.lr.ph ], [ %1449, %_ZZN7cutlass4fmha10collective15FMHAFwdMainloopINS0_9XeDefaultILi2EEELb0ELb0ELb0EN4cute8TiledMMAINS5_8MMA_AtomIJNS5_10XE_DPAS_TTILi8EfNS_10bfloat16_tES9_fEEEEENS5_6LayoutINS5_5tupleIJNS5_1CILi16EEENSE_ILi1EEESG_EEENSD_IJSG_NSE_ILi0EEESI_EEEEEKNSD_IJNSC_INSD_IJNSE_ILi8EEESF_NSE_ILi2EEEEEENSD_IJSG_SF_SL_EEEEENSC_INSE_ILi32EEESG_EESR_EEEEESU_Li4ENS5_6TensorINS5_10ViewEngineINS5_8gmem_ptrIPS9_EEEENSC_INSD_IJiiiiEEENSD_IJiSG_iiEEEEEEES14_NSV_IS10_NSC_IS11_NSD_IJSG_iiiEEEEEEES14_S17_vvvvvEclINSD_IJjjEEEEEvRKNSV_IS10_NSC_INSD_IJiiEEENSD_IJiSG_EEEEEEES1G_RKNSV_IS10_NSC_IS1B_NSD_IJSG_iEEEEEEERNS5_14SubgroupTensorINS5_11ArrayEngineIfLm128EEENSC_INSD_IJSL_SM_SM_NSE_ILi4EEEEEENSD_IJSG_SL_SF_SQ_EEEEENSC_INSD_IJSF_NSD_IJSL_NSD_IJSM_SM_EEES1P_EEEEEENSD_IJNS5_11ScaledBasisISG_JLi1EEEENSD_IJNS1W_ISG_JLi0EEEENSD_IJNS1W_ISL_JLi0EEEENS1W_ISF_JLi1EEEEEEENS1W_ISQ_JLi1EEEEEEEEEEEEEERNSV_INS1N_IfLm1EEENSC_ISG_SI_EEEES2B_T_iiiiiiiiiS1G_S1L_ENKUlS2C_iRT0_RT1_RT2_RT3_RT4_RT5_E_clISt17integral_constantIbLb0EENS5_9TiledCopyINS5_9Copy_Atom..preheader172_crit_edge ]
  %.sroa.368.0 = phi <8 x float> [ zeroinitializer, %.preheader172.lr.ph ], [ %1447, %_ZZN7cutlass4fmha10collective15FMHAFwdMainloopINS0_9XeDefaultILi2EEELb0ELb0ELb0EN4cute8TiledMMAINS5_8MMA_AtomIJNS5_10XE_DPAS_TTILi8EfNS_10bfloat16_tES9_fEEEEENS5_6LayoutINS5_5tupleIJNS5_1CILi16EEENSE_ILi1EEESG_EEENSD_IJSG_NSE_ILi0EEESI_EEEEEKNSD_IJNSC_INSD_IJNSE_ILi8EEESF_NSE_ILi2EEEEEENSD_IJSG_SF_SL_EEEEENSC_INSE_ILi32EEESG_EESR_EEEEESU_Li4ENS5_6TensorINS5_10ViewEngineINS5_8gmem_ptrIPS9_EEEENSC_INSD_IJiiiiEEENSD_IJiSG_iiEEEEEEES14_NSV_IS10_NSC_IS11_NSD_IJSG_iiiEEEEEEES14_S17_vvvvvEclINSD_IJjjEEEEEvRKNSV_IS10_NSC_INSD_IJiiEEENSD_IJiSG_EEEEEEES1G_RKNSV_IS10_NSC_IS1B_NSD_IJSG_iEEEEEEERNS5_14SubgroupTensorINS5_11ArrayEngineIfLm128EEENSC_INSD_IJSL_SM_SM_NSE_ILi4EEEEEENSD_IJSG_SL_SF_SQ_EEEEENSC_INSD_IJSF_NSD_IJSL_NSD_IJSM_SM_EEES1P_EEEEEENSD_IJNS5_11ScaledBasisISG_JLi1EEEENSD_IJNS1W_ISG_JLi0EEEENSD_IJNS1W_ISL_JLi0EEEENS1W_ISF_JLi1EEEEEEENS1W_ISQ_JLi1EEEEEEEEEEEEEERNSV_INS1N_IfLm1EEENSC_ISG_SI_EEEES2B_T_iiiiiiiiiS1G_S1L_ENKUlS2C_iRT0_RT1_RT2_RT3_RT4_RT5_E_clISt17integral_constantIbLb0EENS5_9TiledCopyINS5_9Copy_Atom..preheader172_crit_edge ]
  %.sroa.340.0 = phi <8 x float> [ zeroinitializer, %.preheader172.lr.ph ], [ %1446, %_ZZN7cutlass4fmha10collective15FMHAFwdMainloopINS0_9XeDefaultILi2EEELb0ELb0ELb0EN4cute8TiledMMAINS5_8MMA_AtomIJNS5_10XE_DPAS_TTILi8EfNS_10bfloat16_tES9_fEEEEENS5_6LayoutINS5_5tupleIJNS5_1CILi16EEENSE_ILi1EEESG_EEENSD_IJSG_NSE_ILi0EEESI_EEEEEKNSD_IJNSC_INSD_IJNSE_ILi8EEESF_NSE_ILi2EEEEEENSD_IJSG_SF_SL_EEEEENSC_INSE_ILi32EEESG_EESR_EEEEESU_Li4ENS5_6TensorINS5_10ViewEngineINS5_8gmem_ptrIPS9_EEEENSC_INSD_IJiiiiEEENSD_IJiSG_iiEEEEEEES14_NSV_IS10_NSC_IS11_NSD_IJSG_iiiEEEEEEES14_S17_vvvvvEclINSD_IJjjEEEEEvRKNSV_IS10_NSC_INSD_IJiiEEENSD_IJiSG_EEEEEEES1G_RKNSV_IS10_NSC_IS1B_NSD_IJSG_iEEEEEEERNS5_14SubgroupTensorINS5_11ArrayEngineIfLm128EEENSC_INSD_IJSL_SM_SM_NSE_ILi4EEEEEENSD_IJSG_SL_SF_SQ_EEEEENSC_INSD_IJSF_NSD_IJSL_NSD_IJSM_SM_EEES1P_EEEEEENSD_IJNS5_11ScaledBasisISG_JLi1EEEENSD_IJNS1W_ISG_JLi0EEEENSD_IJNS1W_ISL_JLi0EEEENS1W_ISF_JLi1EEEEEEENS1W_ISQ_JLi1EEEEEEEEEEEEEERNSV_INS1N_IfLm1EEENSC_ISG_SI_EEEES2B_T_iiiiiiiiiS1G_S1L_ENKUlS2C_iRT0_RT1_RT2_RT3_RT4_RT5_E_clISt17integral_constantIbLb0EENS5_9TiledCopyINS5_9Copy_Atom..preheader172_crit_edge ]
  %.sroa.312.0 = phi <8 x float> [ zeroinitializer, %.preheader172.lr.ph ], [ %1310, %_ZZN7cutlass4fmha10collective15FMHAFwdMainloopINS0_9XeDefaultILi2EEELb0ELb0ELb0EN4cute8TiledMMAINS5_8MMA_AtomIJNS5_10XE_DPAS_TTILi8EfNS_10bfloat16_tES9_fEEEEENS5_6LayoutINS5_5tupleIJNS5_1CILi16EEENSE_ILi1EEESG_EEENSD_IJSG_NSE_ILi0EEESI_EEEEEKNSD_IJNSC_INSD_IJNSE_ILi8EEESF_NSE_ILi2EEEEEENSD_IJSG_SF_SL_EEEEENSC_INSE_ILi32EEESG_EESR_EEEEESU_Li4ENS5_6TensorINS5_10ViewEngineINS5_8gmem_ptrIPS9_EEEENSC_INSD_IJiiiiEEENSD_IJiSG_iiEEEEEEES14_NSV_IS10_NSC_IS11_NSD_IJSG_iiiEEEEEEES14_S17_vvvvvEclINSD_IJjjEEEEEvRKNSV_IS10_NSC_INSD_IJiiEEENSD_IJiSG_EEEEEEES1G_RKNSV_IS10_NSC_IS1B_NSD_IJSG_iEEEEEEERNS5_14SubgroupTensorINS5_11ArrayEngineIfLm128EEENSC_INSD_IJSL_SM_SM_NSE_ILi4EEEEEENSD_IJSG_SL_SF_SQ_EEEEENSC_INSD_IJSF_NSD_IJSL_NSD_IJSM_SM_EEES1P_EEEEEENSD_IJNS5_11ScaledBasisISG_JLi1EEEENSD_IJNS1W_ISG_JLi0EEEENSD_IJNS1W_ISL_JLi0EEEENS1W_ISF_JLi1EEEEEEENS1W_ISQ_JLi1EEEEEEEEEEEEEERNSV_INS1N_IfLm1EEENSC_ISG_SI_EEEES2B_T_iiiiiiiiiS1G_S1L_ENKUlS2C_iRT0_RT1_RT2_RT3_RT4_RT5_E_clISt17integral_constantIbLb0EENS5_9TiledCopyINS5_9Copy_Atom..preheader172_crit_edge ]
  %.sroa.284.0 = phi <8 x float> [ zeroinitializer, %.preheader172.lr.ph ], [ %1311, %_ZZN7cutlass4fmha10collective15FMHAFwdMainloopINS0_9XeDefaultILi2EEELb0ELb0ELb0EN4cute8TiledMMAINS5_8MMA_AtomIJNS5_10XE_DPAS_TTILi8EfNS_10bfloat16_tES9_fEEEEENS5_6LayoutINS5_5tupleIJNS5_1CILi16EEENSE_ILi1EEESG_EEENSD_IJSG_NSE_ILi0EEESI_EEEEEKNSD_IJNSC_INSD_IJNSE_ILi8EEESF_NSE_ILi2EEEEEENSD_IJSG_SF_SL_EEEEENSC_INSE_ILi32EEESG_EESR_EEEEESU_Li4ENS5_6TensorINS5_10ViewEngineINS5_8gmem_ptrIPS9_EEEENSC_INSD_IJiiiiEEENSD_IJiSG_iiEEEEEEES14_NSV_IS10_NSC_IS11_NSD_IJSG_iiiEEEEEEES14_S17_vvvvvEclINSD_IJjjEEEEEvRKNSV_IS10_NSC_INSD_IJiiEEENSD_IJiSG_EEEEEEES1G_RKNSV_IS10_NSC_IS1B_NSD_IJSG_iEEEEEEERNS5_14SubgroupTensorINS5_11ArrayEngineIfLm128EEENSC_INSD_IJSL_SM_SM_NSE_ILi4EEEEEENSD_IJSG_SL_SF_SQ_EEEEENSC_INSD_IJSF_NSD_IJSL_NSD_IJSM_SM_EEES1P_EEEEEENSD_IJNS5_11ScaledBasisISG_JLi1EEEENSD_IJNS1W_ISG_JLi0EEEENSD_IJNS1W_ISL_JLi0EEEENS1W_ISF_JLi1EEEEEEENS1W_ISQ_JLi1EEEEEEEEEEEEEERNSV_INS1N_IfLm1EEENSC_ISG_SI_EEEES2B_T_iiiiiiiiiS1G_S1L_ENKUlS2C_iRT0_RT1_RT2_RT3_RT4_RT5_E_clISt17integral_constantIbLb0EENS5_9TiledCopyINS5_9Copy_Atom..preheader172_crit_edge ]
  %.sroa.256.0 = phi <8 x float> [ zeroinitializer, %.preheader172.lr.ph ], [ %1309, %_ZZN7cutlass4fmha10collective15FMHAFwdMainloopINS0_9XeDefaultILi2EEELb0ELb0ELb0EN4cute8TiledMMAINS5_8MMA_AtomIJNS5_10XE_DPAS_TTILi8EfNS_10bfloat16_tES9_fEEEEENS5_6LayoutINS5_5tupleIJNS5_1CILi16EEENSE_ILi1EEESG_EEENSD_IJSG_NSE_ILi0EEESI_EEEEEKNSD_IJNSC_INSD_IJNSE_ILi8EEESF_NSE_ILi2EEEEEENSD_IJSG_SF_SL_EEEEENSC_INSE_ILi32EEESG_EESR_EEEEESU_Li4ENS5_6TensorINS5_10ViewEngineINS5_8gmem_ptrIPS9_EEEENSC_INSD_IJiiiiEEENSD_IJiSG_iiEEEEEEES14_NSV_IS10_NSC_IS11_NSD_IJSG_iiiEEEEEEES14_S17_vvvvvEclINSD_IJjjEEEEEvRKNSV_IS10_NSC_INSD_IJiiEEENSD_IJiSG_EEEEEEES1G_RKNSV_IS10_NSC_IS1B_NSD_IJSG_iEEEEEEERNS5_14SubgroupTensorINS5_11ArrayEngineIfLm128EEENSC_INSD_IJSL_SM_SM_NSE_ILi4EEEEEENSD_IJSG_SL_SF_SQ_EEEEENSC_INSD_IJSF_NSD_IJSL_NSD_IJSM_SM_EEES1P_EEEEEENSD_IJNS5_11ScaledBasisISG_JLi1EEEENSD_IJNS1W_ISG_JLi0EEEENSD_IJNS1W_ISL_JLi0EEEENS1W_ISF_JLi1EEEEEEENS1W_ISQ_JLi1EEEEEEEEEEEEEERNSV_INS1N_IfLm1EEENSC_ISG_SI_EEEES2B_T_iiiiiiiiiS1G_S1L_ENKUlS2C_iRT0_RT1_RT2_RT3_RT4_RT5_E_clISt17integral_constantIbLb0EENS5_9TiledCopyINS5_9Copy_Atom..preheader172_crit_edge ]
  %.sroa.228.0 = phi <8 x float> [ zeroinitializer, %.preheader172.lr.ph ], [ %1308, %_ZZN7cutlass4fmha10collective15FMHAFwdMainloopINS0_9XeDefaultILi2EEELb0ELb0ELb0EN4cute8TiledMMAINS5_8MMA_AtomIJNS5_10XE_DPAS_TTILi8EfNS_10bfloat16_tES9_fEEEEENS5_6LayoutINS5_5tupleIJNS5_1CILi16EEENSE_ILi1EEESG_EEENSD_IJSG_NSE_ILi0EEESI_EEEEEKNSD_IJNSC_INSD_IJNSE_ILi8EEESF_NSE_ILi2EEEEEENSD_IJSG_SF_SL_EEEEENSC_INSE_ILi32EEESG_EESR_EEEEESU_Li4ENS5_6TensorINS5_10ViewEngineINS5_8gmem_ptrIPS9_EEEENSC_INSD_IJiiiiEEENSD_IJiSG_iiEEEEEEES14_NSV_IS10_NSC_IS11_NSD_IJSG_iiiEEEEEEES14_S17_vvvvvEclINSD_IJjjEEEEEvRKNSV_IS10_NSC_INSD_IJiiEEENSD_IJiSG_EEEEEEES1G_RKNSV_IS10_NSC_IS1B_NSD_IJSG_iEEEEEEERNS5_14SubgroupTensorINS5_11ArrayEngineIfLm128EEENSC_INSD_IJSL_SM_SM_NSE_ILi4EEEEEENSD_IJSG_SL_SF_SQ_EEEEENSC_INSD_IJSF_NSD_IJSL_NSD_IJSM_SM_EEES1P_EEEEEENSD_IJNS5_11ScaledBasisISG_JLi1EEEENSD_IJNS1W_ISG_JLi0EEEENSD_IJNS1W_ISL_JLi0EEEENS1W_ISF_JLi1EEEEEEENS1W_ISQ_JLi1EEEEEEEEEEEEEERNSV_INS1N_IfLm1EEENSC_ISG_SI_EEEES2B_T_iiiiiiiiiS1G_S1L_ENKUlS2C_iRT0_RT1_RT2_RT3_RT4_RT5_E_clISt17integral_constantIbLb0EENS5_9TiledCopyINS5_9Copy_Atom..preheader172_crit_edge ]
  %.sroa.200.0 = phi <8 x float> [ zeroinitializer, %.preheader172.lr.ph ], [ %1172, %_ZZN7cutlass4fmha10collective15FMHAFwdMainloopINS0_9XeDefaultILi2EEELb0ELb0ELb0EN4cute8TiledMMAINS5_8MMA_AtomIJNS5_10XE_DPAS_TTILi8EfNS_10bfloat16_tES9_fEEEEENS5_6LayoutINS5_5tupleIJNS5_1CILi16EEENSE_ILi1EEESG_EEENSD_IJSG_NSE_ILi0EEESI_EEEEEKNSD_IJNSC_INSD_IJNSE_ILi8EEESF_NSE_ILi2EEEEEENSD_IJSG_SF_SL_EEEEENSC_INSE_ILi32EEESG_EESR_EEEEESU_Li4ENS5_6TensorINS5_10ViewEngineINS5_8gmem_ptrIPS9_EEEENSC_INSD_IJiiiiEEENSD_IJiSG_iiEEEEEEES14_NSV_IS10_NSC_IS11_NSD_IJSG_iiiEEEEEEES14_S17_vvvvvEclINSD_IJjjEEEEEvRKNSV_IS10_NSC_INSD_IJiiEEENSD_IJiSG_EEEEEEES1G_RKNSV_IS10_NSC_IS1B_NSD_IJSG_iEEEEEEERNS5_14SubgroupTensorINS5_11ArrayEngineIfLm128EEENSC_INSD_IJSL_SM_SM_NSE_ILi4EEEEEENSD_IJSG_SL_SF_SQ_EEEEENSC_INSD_IJSF_NSD_IJSL_NSD_IJSM_SM_EEES1P_EEEEEENSD_IJNS5_11ScaledBasisISG_JLi1EEEENSD_IJNS1W_ISG_JLi0EEEENSD_IJNS1W_ISL_JLi0EEEENS1W_ISF_JLi1EEEEEEENS1W_ISQ_JLi1EEEEEEEEEEEEEERNSV_INS1N_IfLm1EEENSC_ISG_SI_EEEES2B_T_iiiiiiiiiS1G_S1L_ENKUlS2C_iRT0_RT1_RT2_RT3_RT4_RT5_E_clISt17integral_constantIbLb0EENS5_9TiledCopyINS5_9Copy_Atom..preheader172_crit_edge ]
  %.sroa.172.0 = phi <8 x float> [ zeroinitializer, %.preheader172.lr.ph ], [ %1173, %_ZZN7cutlass4fmha10collective15FMHAFwdMainloopINS0_9XeDefaultILi2EEELb0ELb0ELb0EN4cute8TiledMMAINS5_8MMA_AtomIJNS5_10XE_DPAS_TTILi8EfNS_10bfloat16_tES9_fEEEEENS5_6LayoutINS5_5tupleIJNS5_1CILi16EEENSE_ILi1EEESG_EEENSD_IJSG_NSE_ILi0EEESI_EEEEEKNSD_IJNSC_INSD_IJNSE_ILi8EEESF_NSE_ILi2EEEEEENSD_IJSG_SF_SL_EEEEENSC_INSE_ILi32EEESG_EESR_EEEEESU_Li4ENS5_6TensorINS5_10ViewEngineINS5_8gmem_ptrIPS9_EEEENSC_INSD_IJiiiiEEENSD_IJiSG_iiEEEEEEES14_NSV_IS10_NSC_IS11_NSD_IJSG_iiiEEEEEEES14_S17_vvvvvEclINSD_IJjjEEEEEvRKNSV_IS10_NSC_INSD_IJiiEEENSD_IJiSG_EEEEEEES1G_RKNSV_IS10_NSC_IS1B_NSD_IJSG_iEEEEEEERNS5_14SubgroupTensorINS5_11ArrayEngineIfLm128EEENSC_INSD_IJSL_SM_SM_NSE_ILi4EEEEEENSD_IJSG_SL_SF_SQ_EEEEENSC_INSD_IJSF_NSD_IJSL_NSD_IJSM_SM_EEES1P_EEEEEENSD_IJNS5_11ScaledBasisISG_JLi1EEEENSD_IJNS1W_ISG_JLi0EEEENSD_IJNS1W_ISL_JLi0EEEENS1W_ISF_JLi1EEEEEEENS1W_ISQ_JLi1EEEEEEEEEEEEEERNSV_INS1N_IfLm1EEENSC_ISG_SI_EEEES2B_T_iiiiiiiiiS1G_S1L_ENKUlS2C_iRT0_RT1_RT2_RT3_RT4_RT5_E_clISt17integral_constantIbLb0EENS5_9TiledCopyINS5_9Copy_Atom..preheader172_crit_edge ]
  %.sroa.144.0 = phi <8 x float> [ zeroinitializer, %.preheader172.lr.ph ], [ %1171, %_ZZN7cutlass4fmha10collective15FMHAFwdMainloopINS0_9XeDefaultILi2EEELb0ELb0ELb0EN4cute8TiledMMAINS5_8MMA_AtomIJNS5_10XE_DPAS_TTILi8EfNS_10bfloat16_tES9_fEEEEENS5_6LayoutINS5_5tupleIJNS5_1CILi16EEENSE_ILi1EEESG_EEENSD_IJSG_NSE_ILi0EEESI_EEEEEKNSD_IJNSC_INSD_IJNSE_ILi8EEESF_NSE_ILi2EEEEEENSD_IJSG_SF_SL_EEEEENSC_INSE_ILi32EEESG_EESR_EEEEESU_Li4ENS5_6TensorINS5_10ViewEngineINS5_8gmem_ptrIPS9_EEEENSC_INSD_IJiiiiEEENSD_IJiSG_iiEEEEEEES14_NSV_IS10_NSC_IS11_NSD_IJSG_iiiEEEEEEES14_S17_vvvvvEclINSD_IJjjEEEEEvRKNSV_IS10_NSC_INSD_IJiiEEENSD_IJiSG_EEEEEEES1G_RKNSV_IS10_NSC_IS1B_NSD_IJSG_iEEEEEEERNS5_14SubgroupTensorINS5_11ArrayEngineIfLm128EEENSC_INSD_IJSL_SM_SM_NSE_ILi4EEEEEENSD_IJSG_SL_SF_SQ_EEEEENSC_INSD_IJSF_NSD_IJSL_NSD_IJSM_SM_EEES1P_EEEEEENSD_IJNS5_11ScaledBasisISG_JLi1EEEENSD_IJNS1W_ISG_JLi0EEEENSD_IJNS1W_ISL_JLi0EEEENS1W_ISF_JLi1EEEEEEENS1W_ISQ_JLi1EEEEEEEEEEEEEERNSV_INS1N_IfLm1EEENSC_ISG_SI_EEEES2B_T_iiiiiiiiiS1G_S1L_ENKUlS2C_iRT0_RT1_RT2_RT3_RT4_RT5_E_clISt17integral_constantIbLb0EENS5_9TiledCopyINS5_9Copy_Atom..preheader172_crit_edge ]
  %.sroa.116.0 = phi <8 x float> [ zeroinitializer, %.preheader172.lr.ph ], [ %1170, %_ZZN7cutlass4fmha10collective15FMHAFwdMainloopINS0_9XeDefaultILi2EEELb0ELb0ELb0EN4cute8TiledMMAINS5_8MMA_AtomIJNS5_10XE_DPAS_TTILi8EfNS_10bfloat16_tES9_fEEEEENS5_6LayoutINS5_5tupleIJNS5_1CILi16EEENSE_ILi1EEESG_EEENSD_IJSG_NSE_ILi0EEESI_EEEEEKNSD_IJNSC_INSD_IJNSE_ILi8EEESF_NSE_ILi2EEEEEENSD_IJSG_SF_SL_EEEEENSC_INSE_ILi32EEESG_EESR_EEEEESU_Li4ENS5_6TensorINS5_10ViewEngineINS5_8gmem_ptrIPS9_EEEENSC_INSD_IJiiiiEEENSD_IJiSG_iiEEEEEEES14_NSV_IS10_NSC_IS11_NSD_IJSG_iiiEEEEEEES14_S17_vvvvvEclINSD_IJjjEEEEEvRKNSV_IS10_NSC_INSD_IJiiEEENSD_IJiSG_EEEEEEES1G_RKNSV_IS10_NSC_IS1B_NSD_IJSG_iEEEEEEERNS5_14SubgroupTensorINS5_11ArrayEngineIfLm128EEENSC_INSD_IJSL_SM_SM_NSE_ILi4EEEEEENSD_IJSG_SL_SF_SQ_EEEEENSC_INSD_IJSF_NSD_IJSL_NSD_IJSM_SM_EEES1P_EEEEEENSD_IJNS5_11ScaledBasisISG_JLi1EEEENSD_IJNS1W_ISG_JLi0EEEENSD_IJNS1W_ISL_JLi0EEEENS1W_ISF_JLi1EEEEEEENS1W_ISQ_JLi1EEEEEEEEEEEEEERNSV_INS1N_IfLm1EEENSC_ISG_SI_EEEES2B_T_iiiiiiiiiS1G_S1L_ENKUlS2C_iRT0_RT1_RT2_RT3_RT4_RT5_E_clISt17integral_constantIbLb0EENS5_9TiledCopyINS5_9Copy_Atom..preheader172_crit_edge ]
  %.sroa.88.0 = phi <8 x float> [ zeroinitializer, %.preheader172.lr.ph ], [ %1034, %_ZZN7cutlass4fmha10collective15FMHAFwdMainloopINS0_9XeDefaultILi2EEELb0ELb0ELb0EN4cute8TiledMMAINS5_8MMA_AtomIJNS5_10XE_DPAS_TTILi8EfNS_10bfloat16_tES9_fEEEEENS5_6LayoutINS5_5tupleIJNS5_1CILi16EEENSE_ILi1EEESG_EEENSD_IJSG_NSE_ILi0EEESI_EEEEEKNSD_IJNSC_INSD_IJNSE_ILi8EEESF_NSE_ILi2EEEEEENSD_IJSG_SF_SL_EEEEENSC_INSE_ILi32EEESG_EESR_EEEEESU_Li4ENS5_6TensorINS5_10ViewEngineINS5_8gmem_ptrIPS9_EEEENSC_INSD_IJiiiiEEENSD_IJiSG_iiEEEEEEES14_NSV_IS10_NSC_IS11_NSD_IJSG_iiiEEEEEEES14_S17_vvvvvEclINSD_IJjjEEEEEvRKNSV_IS10_NSC_INSD_IJiiEEENSD_IJiSG_EEEEEEES1G_RKNSV_IS10_NSC_IS1B_NSD_IJSG_iEEEEEEERNS5_14SubgroupTensorINS5_11ArrayEngineIfLm128EEENSC_INSD_IJSL_SM_SM_NSE_ILi4EEEEEENSD_IJSG_SL_SF_SQ_EEEEENSC_INSD_IJSF_NSD_IJSL_NSD_IJSM_SM_EEES1P_EEEEEENSD_IJNS5_11ScaledBasisISG_JLi1EEEENSD_IJNS1W_ISG_JLi0EEEENSD_IJNS1W_ISL_JLi0EEEENS1W_ISF_JLi1EEEEEEENS1W_ISQ_JLi1EEEEEEEEEEEEEERNSV_INS1N_IfLm1EEENSC_ISG_SI_EEEES2B_T_iiiiiiiiiS1G_S1L_ENKUlS2C_iRT0_RT1_RT2_RT3_RT4_RT5_E_clISt17integral_constantIbLb0EENS5_9TiledCopyINS5_9Copy_Atom..preheader172_crit_edge ]
  %.sroa.60.0 = phi <8 x float> [ zeroinitializer, %.preheader172.lr.ph ], [ %1035, %_ZZN7cutlass4fmha10collective15FMHAFwdMainloopINS0_9XeDefaultILi2EEELb0ELb0ELb0EN4cute8TiledMMAINS5_8MMA_AtomIJNS5_10XE_DPAS_TTILi8EfNS_10bfloat16_tES9_fEEEEENS5_6LayoutINS5_5tupleIJNS5_1CILi16EEENSE_ILi1EEESG_EEENSD_IJSG_NSE_ILi0EEESI_EEEEEKNSD_IJNSC_INSD_IJNSE_ILi8EEESF_NSE_ILi2EEEEEENSD_IJSG_SF_SL_EEEEENSC_INSE_ILi32EEESG_EESR_EEEEESU_Li4ENS5_6TensorINS5_10ViewEngineINS5_8gmem_ptrIPS9_EEEENSC_INSD_IJiiiiEEENSD_IJiSG_iiEEEEEEES14_NSV_IS10_NSC_IS11_NSD_IJSG_iiiEEEEEEES14_S17_vvvvvEclINSD_IJjjEEEEEvRKNSV_IS10_NSC_INSD_IJiiEEENSD_IJiSG_EEEEEEES1G_RKNSV_IS10_NSC_IS1B_NSD_IJSG_iEEEEEEERNS5_14SubgroupTensorINS5_11ArrayEngineIfLm128EEENSC_INSD_IJSL_SM_SM_NSE_ILi4EEEEEENSD_IJSG_SL_SF_SQ_EEEEENSC_INSD_IJSF_NSD_IJSL_NSD_IJSM_SM_EEES1P_EEEEEENSD_IJNS5_11ScaledBasisISG_JLi1EEEENSD_IJNS1W_ISG_JLi0EEEENSD_IJNS1W_ISL_JLi0EEEENS1W_ISF_JLi1EEEEEEENS1W_ISQ_JLi1EEEEEEEEEEEEEERNSV_INS1N_IfLm1EEENSC_ISG_SI_EEEES2B_T_iiiiiiiiiS1G_S1L_ENKUlS2C_iRT0_RT1_RT2_RT3_RT4_RT5_E_clISt17integral_constantIbLb0EENS5_9TiledCopyINS5_9Copy_Atom..preheader172_crit_edge ]
  %.sroa.32.0 = phi <8 x float> [ zeroinitializer, %.preheader172.lr.ph ], [ %1033, %_ZZN7cutlass4fmha10collective15FMHAFwdMainloopINS0_9XeDefaultILi2EEELb0ELb0ELb0EN4cute8TiledMMAINS5_8MMA_AtomIJNS5_10XE_DPAS_TTILi8EfNS_10bfloat16_tES9_fEEEEENS5_6LayoutINS5_5tupleIJNS5_1CILi16EEENSE_ILi1EEESG_EEENSD_IJSG_NSE_ILi0EEESI_EEEEEKNSD_IJNSC_INSD_IJNSE_ILi8EEESF_NSE_ILi2EEEEEENSD_IJSG_SF_SL_EEEEENSC_INSE_ILi32EEESG_EESR_EEEEESU_Li4ENS5_6TensorINS5_10ViewEngineINS5_8gmem_ptrIPS9_EEEENSC_INSD_IJiiiiEEENSD_IJiSG_iiEEEEEEES14_NSV_IS10_NSC_IS11_NSD_IJSG_iiiEEEEEEES14_S17_vvvvvEclINSD_IJjjEEEEEvRKNSV_IS10_NSC_INSD_IJiiEEENSD_IJiSG_EEEEEEES1G_RKNSV_IS10_NSC_IS1B_NSD_IJSG_iEEEEEEERNS5_14SubgroupTensorINS5_11ArrayEngineIfLm128EEENSC_INSD_IJSL_SM_SM_NSE_ILi4EEEEEENSD_IJSG_SL_SF_SQ_EEEEENSC_INSD_IJSF_NSD_IJSL_NSD_IJSM_SM_EEES1P_EEEEEENSD_IJNS5_11ScaledBasisISG_JLi1EEEENSD_IJNS1W_ISG_JLi0EEEENSD_IJNS1W_ISL_JLi0EEEENS1W_ISF_JLi1EEEEEEENS1W_ISQ_JLi1EEEEEEEEEEEEEERNSV_INS1N_IfLm1EEENSC_ISG_SI_EEEES2B_T_iiiiiiiiiS1G_S1L_ENKUlS2C_iRT0_RT1_RT2_RT3_RT4_RT5_E_clISt17integral_constantIbLb0EENS5_9TiledCopyINS5_9Copy_Atom..preheader172_crit_edge ]
  %.sroa.0.0 = phi <8 x float> [ zeroinitializer, %.preheader172.lr.ph ], [ %1032, %_ZZN7cutlass4fmha10collective15FMHAFwdMainloopINS0_9XeDefaultILi2EEELb0ELb0ELb0EN4cute8TiledMMAINS5_8MMA_AtomIJNS5_10XE_DPAS_TTILi8EfNS_10bfloat16_tES9_fEEEEENS5_6LayoutINS5_5tupleIJNS5_1CILi16EEENSE_ILi1EEESG_EEENSD_IJSG_NSE_ILi0EEESI_EEEEEKNSD_IJNSC_INSD_IJNSE_ILi8EEESF_NSE_ILi2EEEEEENSD_IJSG_SF_SL_EEEEENSC_INSE_ILi32EEESG_EESR_EEEEESU_Li4ENS5_6TensorINS5_10ViewEngineINS5_8gmem_ptrIPS9_EEEENSC_INSD_IJiiiiEEENSD_IJiSG_iiEEEEEEES14_NSV_IS10_NSC_IS11_NSD_IJSG_iiiEEEEEEES14_S17_vvvvvEclINSD_IJjjEEEEEvRKNSV_IS10_NSC_INSD_IJiiEEENSD_IJiSG_EEEEEEES1G_RKNSV_IS10_NSC_IS1B_NSD_IJSG_iEEEEEEERNS5_14SubgroupTensorINS5_11ArrayEngineIfLm128EEENSC_INSD_IJSL_SM_SM_NSE_ILi4EEEEEENSD_IJSG_SL_SF_SQ_EEEEENSC_INSD_IJSF_NSD_IJSL_NSD_IJSM_SM_EEES1P_EEEEEENSD_IJNS5_11ScaledBasisISG_JLi1EEEENSD_IJNS1W_ISG_JLi0EEEENSD_IJNS1W_ISL_JLi0EEEENS1W_ISF_JLi1EEEEEEENS1W_ISQ_JLi1EEEEEEEEEEEEEERNSV_INS1N_IfLm1EEENSC_ISG_SI_EEEES2B_T_iiiiiiiiiS1G_S1L_ENKUlS2C_iRT0_RT1_RT2_RT3_RT4_RT5_E_clISt17integral_constantIbLb0EENS5_9TiledCopyINS5_9Copy_Atom..preheader172_crit_edge ]
  %indvars.iv = phi i32 [ %135, %.preheader172.lr.ph ], [ %indvars.iv.next, %_ZZN7cutlass4fmha10collective15FMHAFwdMainloopINS0_9XeDefaultILi2EEELb0ELb0ELb0EN4cute8TiledMMAINS5_8MMA_AtomIJNS5_10XE_DPAS_TTILi8EfNS_10bfloat16_tES9_fEEEEENS5_6LayoutINS5_5tupleIJNS5_1CILi16EEENSE_ILi1EEESG_EEENSD_IJSG_NSE_ILi0EEESI_EEEEEKNSD_IJNSC_INSD_IJNSE_ILi8EEESF_NSE_ILi2EEEEEENSD_IJSG_SF_SL_EEEEENSC_INSE_ILi32EEESG_EESR_EEEEESU_Li4ENS5_6TensorINS5_10ViewEngineINS5_8gmem_ptrIPS9_EEEENSC_INSD_IJiiiiEEENSD_IJiSG_iiEEEEEEES14_NSV_IS10_NSC_IS11_NSD_IJSG_iiiEEEEEEES14_S17_vvvvvEclINSD_IJjjEEEEEvRKNSV_IS10_NSC_INSD_IJiiEEENSD_IJiSG_EEEEEEES1G_RKNSV_IS10_NSC_IS1B_NSD_IJSG_iEEEEEEERNS5_14SubgroupTensorINS5_11ArrayEngineIfLm128EEENSC_INSD_IJSL_SM_SM_NSE_ILi4EEEEEENSD_IJSG_SL_SF_SQ_EEEEENSC_INSD_IJSF_NSD_IJSL_NSD_IJSM_SM_EEES1P_EEEEEENSD_IJNS5_11ScaledBasisISG_JLi1EEEENSD_IJNS1W_ISG_JLi0EEEENSD_IJNS1W_ISL_JLi0EEEENS1W_ISF_JLi1EEEEEEENS1W_ISQ_JLi1EEEEEEEEEEEEEERNSV_INS1N_IfLm1EEENSC_ISG_SI_EEEES2B_T_iiiiiiiiiS1G_S1L_ENKUlS2C_iRT0_RT1_RT2_RT3_RT4_RT5_E_clISt17integral_constantIbLb0EENS5_9TiledCopyINS5_9Copy_Atom..preheader172_crit_edge ]
  %141 = phi i32 [ %131, %.preheader172.lr.ph ], [ %1460, %_ZZN7cutlass4fmha10collective15FMHAFwdMainloopINS0_9XeDefaultILi2EEELb0ELb0ELb0EN4cute8TiledMMAINS5_8MMA_AtomIJNS5_10XE_DPAS_TTILi8EfNS_10bfloat16_tES9_fEEEEENS5_6LayoutINS5_5tupleIJNS5_1CILi16EEENSE_ILi1EEESG_EEENSD_IJSG_NSE_ILi0EEESI_EEEEEKNSD_IJNSC_INSD_IJNSE_ILi8EEESF_NSE_ILi2EEEEEENSD_IJSG_SF_SL_EEEEENSC_INSE_ILi32EEESG_EESR_EEEEESU_Li4ENS5_6TensorINS5_10ViewEngineINS5_8gmem_ptrIPS9_EEEENSC_INSD_IJiiiiEEENSD_IJiSG_iiEEEEEEES14_NSV_IS10_NSC_IS11_NSD_IJSG_iiiEEEEEEES14_S17_vvvvvEclINSD_IJjjEEEEEvRKNSV_IS10_NSC_INSD_IJiiEEENSD_IJiSG_EEEEEEES1G_RKNSV_IS10_NSC_IS1B_NSD_IJSG_iEEEEEEERNS5_14SubgroupTensorINS5_11ArrayEngineIfLm128EEENSC_INSD_IJSL_SM_SM_NSE_ILi4EEEEEENSD_IJSG_SL_SF_SQ_EEEEENSC_INSD_IJSF_NSD_IJSL_NSD_IJSM_SM_EEES1P_EEEEEENSD_IJNS5_11ScaledBasisISG_JLi1EEEENSD_IJNS1W_ISG_JLi0EEEENSD_IJNS1W_ISL_JLi0EEEENS1W_ISF_JLi1EEEEEEENS1W_ISQ_JLi1EEEEEEEEEEEEEERNSV_INS1N_IfLm1EEENSC_ISG_SI_EEEES2B_T_iiiiiiiiiS1G_S1L_ENKUlS2C_iRT0_RT1_RT2_RT3_RT4_RT5_E_clISt17integral_constantIbLb0EENS5_9TiledCopyINS5_9Copy_Atom..preheader172_crit_edge ]
  %.sroa.0121.1180 = phi float [ 0xC7EFFFFFE0000000, %.preheader172.lr.ph ], [ %523, %_ZZN7cutlass4fmha10collective15FMHAFwdMainloopINS0_9XeDefaultILi2EEELb0ELb0ELb0EN4cute8TiledMMAINS5_8MMA_AtomIJNS5_10XE_DPAS_TTILi8EfNS_10bfloat16_tES9_fEEEEENS5_6LayoutINS5_5tupleIJNS5_1CILi16EEENSE_ILi1EEESG_EEENSD_IJSG_NSE_ILi0EEESI_EEEEEKNSD_IJNSC_INSD_IJNSE_ILi8EEESF_NSE_ILi2EEEEEENSD_IJSG_SF_SL_EEEEENSC_INSE_ILi32EEESG_EESR_EEEEESU_Li4ENS5_6TensorINS5_10ViewEngineINS5_8gmem_ptrIPS9_EEEENSC_INSD_IJiiiiEEENSD_IJiSG_iiEEEEEEES14_NSV_IS10_NSC_IS11_NSD_IJSG_iiiEEEEEEES14_S17_vvvvvEclINSD_IJjjEEEEEvRKNSV_IS10_NSC_INSD_IJiiEEENSD_IJiSG_EEEEEEES1G_RKNSV_IS10_NSC_IS1B_NSD_IJSG_iEEEEEEERNS5_14SubgroupTensorINS5_11ArrayEngineIfLm128EEENSC_INSD_IJSL_SM_SM_NSE_ILi4EEEEEENSD_IJSG_SL_SF_SQ_EEEEENSC_INSD_IJSF_NSD_IJSL_NSD_IJSM_SM_EEES1P_EEEEEENSD_IJNS5_11ScaledBasisISG_JLi1EEEENSD_IJNS1W_ISG_JLi0EEEENSD_IJNS1W_ISL_JLi0EEEENS1W_ISF_JLi1EEEEEEENS1W_ISQ_JLi1EEEEEEEEEEEEEERNSV_INS1N_IfLm1EEENSC_ISG_SI_EEEES2B_T_iiiiiiiiiS1G_S1L_ENKUlS2C_iRT0_RT1_RT2_RT3_RT4_RT5_E_clISt17integral_constantIbLb0EENS5_9TiledCopyINS5_9Copy_Atom..preheader172_crit_edge ]
  %.sroa.0114.1179 = phi float [ 0.000000e+00, %.preheader172.lr.ph ], [ %1450, %_ZZN7cutlass4fmha10collective15FMHAFwdMainloopINS0_9XeDefaultILi2EEELb0ELb0ELb0EN4cute8TiledMMAINS5_8MMA_AtomIJNS5_10XE_DPAS_TTILi8EfNS_10bfloat16_tES9_fEEEEENS5_6LayoutINS5_5tupleIJNS5_1CILi16EEENSE_ILi1EEESG_EEENSD_IJSG_NSE_ILi0EEESI_EEEEEKNSD_IJNSC_INSD_IJNSE_ILi8EEESF_NSE_ILi2EEEEEENSD_IJSG_SF_SL_EEEEENSC_INSE_ILi32EEESG_EESR_EEEEESU_Li4ENS5_6TensorINS5_10ViewEngineINS5_8gmem_ptrIPS9_EEEENSC_INSD_IJiiiiEEENSD_IJiSG_iiEEEEEEES14_NSV_IS10_NSC_IS11_NSD_IJSG_iiiEEEEEEES14_S17_vvvvvEclINSD_IJjjEEEEEvRKNSV_IS10_NSC_INSD_IJiiEEENSD_IJiSG_EEEEEEES1G_RKNSV_IS10_NSC_IS1B_NSD_IJSG_iEEEEEEERNS5_14SubgroupTensorINS5_11ArrayEngineIfLm128EEENSC_INSD_IJSL_SM_SM_NSE_ILi4EEEEEENSD_IJSG_SL_SF_SQ_EEEEENSC_INSD_IJSF_NSD_IJSL_NSD_IJSM_SM_EEES1P_EEEEEENSD_IJNS5_11ScaledBasisISG_JLi1EEEENSD_IJNS1W_ISG_JLi0EEEENSD_IJNS1W_ISL_JLi0EEEENS1W_ISF_JLi1EEEEEEENS1W_ISQ_JLi1EEEEEEEEEEEEEERNSV_INS1N_IfLm1EEENSC_ISG_SI_EEEES2B_T_iiiiiiiiiS1G_S1L_ENKUlS2C_iRT0_RT1_RT2_RT3_RT4_RT5_E_clISt17integral_constantIbLb0EENS5_9TiledCopyINS5_9Copy_Atom..preheader172_crit_edge ]
  %142 = sub nsw i32 %141, %qot3462, !spirv.Decorations !1212		; visa id: 574
  %143 = shl nsw i32 %142, 5, !spirv.Decorations !1212		; visa id: 575
  br i1 %109, label %.lr.ph, label %.preheader172.._crit_edge176_crit_edge, !stats.blockFrequency.digits !1224, !stats.blockFrequency.scale !1218		; visa id: 576

.preheader172.._crit_edge176_crit_edge:           ; preds = %.preheader172
; BB38 :
  br label %._crit_edge176, !stats.blockFrequency.digits !1225, !stats.blockFrequency.scale !1226		; visa id: 610

.lr.ph:                                           ; preds = %.preheader172
; BB39 :
  br i1 %136, label %.lr.ph..epil.preheader_crit_edge, label %.lr.ph.new, !stats.blockFrequency.digits !1220, !stats.blockFrequency.scale !1204		; visa id: 612

.lr.ph..epil.preheader_crit_edge:                 ; preds = %.lr.ph
; BB40 :
  br label %.epil.preheader, !stats.blockFrequency.digits !1220, !stats.blockFrequency.scale !1221		; visa id: 647

.lr.ph.new:                                       ; preds = %.lr.ph
; BB41 :
  %144 = add i32 %143, 16		; visa id: 649
  br label %.preheader167, !stats.blockFrequency.digits !1220, !stats.blockFrequency.scale !1221		; visa id: 684

.preheader167:                                    ; preds = %.preheader167..preheader167_crit_edge, %.lr.ph.new
; BB42 :
  %.sroa.279.4 = phi <8 x float> [ zeroinitializer, %.lr.ph.new ], [ %304, %.preheader167..preheader167_crit_edge ]
  %.sroa.187.4 = phi <8 x float> [ zeroinitializer, %.lr.ph.new ], [ %305, %.preheader167..preheader167_crit_edge ]
  %.sroa.95.4 = phi <8 x float> [ zeroinitializer, %.lr.ph.new ], [ %303, %.preheader167..preheader167_crit_edge ]
  %.sroa.01471.4 = phi <8 x float> [ zeroinitializer, %.lr.ph.new ], [ %302, %.preheader167..preheader167_crit_edge ]
  %145 = phi i32 [ 0, %.lr.ph.new ], [ %306, %.preheader167..preheader167_crit_edge ]
  %niter = phi i32 [ 0, %.lr.ph.new ], [ %niter.next.1, %.preheader167..preheader167_crit_edge ]
  %146 = shl i32 %145, 5, !spirv.Decorations !1212		; visa id: 685
  call void @llvm.genx.GenISA.LSC2DBlockSetAddrPayloadField.p4i8.i32(i8 addrspace(4)* %Block2D_AddrPayload, i32 5, i32 %146, i1 false)		; visa id: 686
  call void @llvm.genx.GenISA.LSC2DBlockSetAddrPayloadField.p4i8.i32(i8 addrspace(4)* %Block2D_AddrPayload, i32 6, i32 %103, i1 false)		; visa id: 687
  %147 = call <32 x i16> asm "lsc_load_block2d.ugm (M1, 1)  $0:d$2.$3x$4x$5nn flat[$1+(0,0)]", "=rw,rw.u,P,P,P,P"(i8 addrspace(4)* %Block2D_AddrPayload, i32 16, i32 2, i32 16, i32 16) #0		; visa id: 688
  %148 = lshr exact i32 %146, 1		; visa id: 688
  call void @llvm.genx.GenISA.LSC2DBlockSetAddrPayloadField.p4i8.i32(i8 addrspace(4)* %Block2D_AddrPayload109, i32 5, i32 %148, i1 false)		; visa id: 689
  call void @llvm.genx.GenISA.LSC2DBlockSetAddrPayloadField.p4i8.i32(i8 addrspace(4)* %Block2D_AddrPayload109, i32 6, i32 %143, i1 false)		; visa id: 690
  %149 = call <16 x i16> asm "lsc_load_block2d.ugm (M1, 1)  $0:d$2.$3x$4tn flat[$1+(0,0)]", "=rw,rw.u,P,P,P"(i8 addrspace(4)* %Block2D_AddrPayload109, i32 32, i32 8, i32 16) #0		; visa id: 691
  call void @llvm.genx.GenISA.LSC2DBlockSetAddrPayloadField.p4i8.i32(i8 addrspace(4)* %Block2D_AddrPayload109, i32 5, i32 %148, i1 false)		; visa id: 691
  call void @llvm.genx.GenISA.LSC2DBlockSetAddrPayloadField.p4i8.i32(i8 addrspace(4)* %Block2D_AddrPayload109, i32 6, i32 %144, i1 false)		; visa id: 692
  %150 = call <16 x i16> asm "lsc_load_block2d.ugm (M1, 1)  $0:d$2.$3x$4tn flat[$1+(0,0)]", "=rw,rw.u,P,P,P"(i8 addrspace(4)* %Block2D_AddrPayload109, i32 32, i32 8, i32 16) #0		; visa id: 693
  %151 = or i32 %148, 8		; visa id: 693
  call void @llvm.genx.GenISA.LSC2DBlockSetAddrPayloadField.p4i8.i32(i8 addrspace(4)* %Block2D_AddrPayload109, i32 5, i32 %151, i1 false)		; visa id: 694
  call void @llvm.genx.GenISA.LSC2DBlockSetAddrPayloadField.p4i8.i32(i8 addrspace(4)* %Block2D_AddrPayload109, i32 6, i32 %143, i1 false)		; visa id: 695
  %152 = call <16 x i16> asm "lsc_load_block2d.ugm (M1, 1)  $0:d$2.$3x$4tn flat[$1+(0,0)]", "=rw,rw.u,P,P,P"(i8 addrspace(4)* %Block2D_AddrPayload109, i32 32, i32 8, i32 16) #0		; visa id: 696
  call void @llvm.genx.GenISA.LSC2DBlockSetAddrPayloadField.p4i8.i32(i8 addrspace(4)* %Block2D_AddrPayload109, i32 5, i32 %151, i1 false)		; visa id: 696
  call void @llvm.genx.GenISA.LSC2DBlockSetAddrPayloadField.p4i8.i32(i8 addrspace(4)* %Block2D_AddrPayload109, i32 6, i32 %144, i1 false)		; visa id: 697
  %153 = call <16 x i16> asm "lsc_load_block2d.ugm (M1, 1)  $0:d$2.$3x$4tn flat[$1+(0,0)]", "=rw,rw.u,P,P,P"(i8 addrspace(4)* %Block2D_AddrPayload109, i32 32, i32 8, i32 16) #0		; visa id: 698
  %154 = extractelement <32 x i16> %147, i32 0		; visa id: 698
  %155 = insertelement <8 x i16> undef, i16 %154, i32 0		; visa id: 698
  %156 = extractelement <32 x i16> %147, i32 1		; visa id: 698
  %157 = insertelement <8 x i16> %155, i16 %156, i32 1		; visa id: 698
  %158 = extractelement <32 x i16> %147, i32 2		; visa id: 698
  %159 = insertelement <8 x i16> %157, i16 %158, i32 2		; visa id: 698
  %160 = extractelement <32 x i16> %147, i32 3		; visa id: 698
  %161 = insertelement <8 x i16> %159, i16 %160, i32 3		; visa id: 698
  %162 = extractelement <32 x i16> %147, i32 4		; visa id: 698
  %163 = insertelement <8 x i16> %161, i16 %162, i32 4		; visa id: 698
  %164 = extractelement <32 x i16> %147, i32 5		; visa id: 698
  %165 = insertelement <8 x i16> %163, i16 %164, i32 5		; visa id: 698
  %166 = extractelement <32 x i16> %147, i32 6		; visa id: 698
  %167 = insertelement <8 x i16> %165, i16 %166, i32 6		; visa id: 698
  %168 = extractelement <32 x i16> %147, i32 7		; visa id: 698
  %169 = insertelement <8 x i16> %167, i16 %168, i32 7		; visa id: 698
  %170 = extractelement <32 x i16> %147, i32 8		; visa id: 698
  %171 = insertelement <8 x i16> undef, i16 %170, i32 0		; visa id: 698
  %172 = extractelement <32 x i16> %147, i32 9		; visa id: 698
  %173 = insertelement <8 x i16> %171, i16 %172, i32 1		; visa id: 698
  %174 = extractelement <32 x i16> %147, i32 10		; visa id: 698
  %175 = insertelement <8 x i16> %173, i16 %174, i32 2		; visa id: 698
  %176 = extractelement <32 x i16> %147, i32 11		; visa id: 698
  %177 = insertelement <8 x i16> %175, i16 %176, i32 3		; visa id: 698
  %178 = extractelement <32 x i16> %147, i32 12		; visa id: 698
  %179 = insertelement <8 x i16> %177, i16 %178, i32 4		; visa id: 698
  %180 = extractelement <32 x i16> %147, i32 13		; visa id: 698
  %181 = insertelement <8 x i16> %179, i16 %180, i32 5		; visa id: 698
  %182 = extractelement <32 x i16> %147, i32 14		; visa id: 698
  %183 = insertelement <8 x i16> %181, i16 %182, i32 6		; visa id: 698
  %184 = extractelement <32 x i16> %147, i32 15		; visa id: 698
  %185 = insertelement <8 x i16> %183, i16 %184, i32 7		; visa id: 698
  %186 = extractelement <32 x i16> %147, i32 16		; visa id: 698
  %187 = insertelement <8 x i16> undef, i16 %186, i32 0		; visa id: 698
  %188 = extractelement <32 x i16> %147, i32 17		; visa id: 698
  %189 = insertelement <8 x i16> %187, i16 %188, i32 1		; visa id: 698
  %190 = extractelement <32 x i16> %147, i32 18		; visa id: 698
  %191 = insertelement <8 x i16> %189, i16 %190, i32 2		; visa id: 698
  %192 = extractelement <32 x i16> %147, i32 19		; visa id: 698
  %193 = insertelement <8 x i16> %191, i16 %192, i32 3		; visa id: 698
  %194 = extractelement <32 x i16> %147, i32 20		; visa id: 698
  %195 = insertelement <8 x i16> %193, i16 %194, i32 4		; visa id: 698
  %196 = extractelement <32 x i16> %147, i32 21		; visa id: 698
  %197 = insertelement <8 x i16> %195, i16 %196, i32 5		; visa id: 698
  %198 = extractelement <32 x i16> %147, i32 22		; visa id: 698
  %199 = insertelement <8 x i16> %197, i16 %198, i32 6		; visa id: 698
  %200 = extractelement <32 x i16> %147, i32 23		; visa id: 698
  %201 = insertelement <8 x i16> %199, i16 %200, i32 7		; visa id: 698
  %202 = extractelement <32 x i16> %147, i32 24		; visa id: 698
  %203 = insertelement <8 x i16> undef, i16 %202, i32 0		; visa id: 698
  %204 = extractelement <32 x i16> %147, i32 25		; visa id: 698
  %205 = insertelement <8 x i16> %203, i16 %204, i32 1		; visa id: 698
  %206 = extractelement <32 x i16> %147, i32 26		; visa id: 698
  %207 = insertelement <8 x i16> %205, i16 %206, i32 2		; visa id: 698
  %208 = extractelement <32 x i16> %147, i32 27		; visa id: 698
  %209 = insertelement <8 x i16> %207, i16 %208, i32 3		; visa id: 698
  %210 = extractelement <32 x i16> %147, i32 28		; visa id: 698
  %211 = insertelement <8 x i16> %209, i16 %210, i32 4		; visa id: 698
  %212 = extractelement <32 x i16> %147, i32 29		; visa id: 698
  %213 = insertelement <8 x i16> %211, i16 %212, i32 5		; visa id: 698
  %214 = extractelement <32 x i16> %147, i32 30		; visa id: 698
  %215 = insertelement <8 x i16> %213, i16 %214, i32 6		; visa id: 698
  %216 = extractelement <32 x i16> %147, i32 31		; visa id: 698
  %217 = insertelement <8 x i16> %215, i16 %216, i32 7		; visa id: 698
  %218 = call <8 x float> asm "{\0A.decl DST     v_type=G type=f num_elts=$5 alias=<$0,0>\0A.decl SRC1_UD v_type=G type=UD num_elts=128 alias=<$2,0>\0A.decl SRC2_UD v_type=G type=UD num_elts=$4 alias=<$1,0>\0Adpas.bf.bf.8.$3 (M1, 16) DST.0 DST.0 SRC1_UD.0 SRC2_UD(0,0)\0A}\0A", "=rw,rw,rw,P,P,P,0"(<8 x i16> %169, <16 x i16> %149, i32 8, i32 64, i32 128, <8 x float> %.sroa.01471.4) #0		; visa id: 698
  %219 = call <8 x float> asm "{\0A.decl DST     v_type=G type=f num_elts=$5 alias=<$0,0>\0A.decl SRC1_UD v_type=G type=UD num_elts=128 alias=<$2,0>\0A.decl SRC2_UD v_type=G type=UD num_elts=$4 alias=<$1,0>\0Adpas.bf.bf.8.$3 (M1, 16) DST.0 DST.0 SRC1_UD.0 SRC2_UD(0,0)\0A}\0A", "=rw,rw,rw,P,P,P,0"(<8 x i16> %185, <16 x i16> %149, i32 8, i32 64, i32 128, <8 x float> %.sroa.95.4) #0		; visa id: 698
  %220 = call <8 x float> asm "{\0A.decl DST     v_type=G type=f num_elts=$5 alias=<$0,0>\0A.decl SRC1_UD v_type=G type=UD num_elts=128 alias=<$2,0>\0A.decl SRC2_UD v_type=G type=UD num_elts=$4 alias=<$1,0>\0Adpas.bf.bf.8.$3 (M1, 16) DST.0 DST.0 SRC1_UD.0 SRC2_UD(0,0)\0A}\0A", "=rw,rw,rw,P,P,P,0"(<8 x i16> %185, <16 x i16> %150, i32 8, i32 64, i32 128, <8 x float> %.sroa.279.4) #0		; visa id: 698
  %221 = call <8 x float> asm "{\0A.decl DST     v_type=G type=f num_elts=$5 alias=<$0,0>\0A.decl SRC1_UD v_type=G type=UD num_elts=128 alias=<$2,0>\0A.decl SRC2_UD v_type=G type=UD num_elts=$4 alias=<$1,0>\0Adpas.bf.bf.8.$3 (M1, 16) DST.0 DST.0 SRC1_UD.0 SRC2_UD(0,0)\0A}\0A", "=rw,rw,rw,P,P,P,0"(<8 x i16> %169, <16 x i16> %150, i32 8, i32 64, i32 128, <8 x float> %.sroa.187.4) #0		; visa id: 698
  %222 = call <8 x float> asm "{\0A.decl DST     v_type=G type=f num_elts=$5 alias=<$0,0>\0A.decl SRC1_UD v_type=G type=UD num_elts=128 alias=<$2,0>\0A.decl SRC2_UD v_type=G type=UD num_elts=$4 alias=<$1,0>\0Adpas.bf.bf.8.$3 (M1, 16) DST.0 DST.0 SRC1_UD.0 SRC2_UD(0,0)\0A}\0A", "=rw,rw,rw,P,P,P,0"(<8 x i16> %201, <16 x i16> %152, i32 8, i32 64, i32 128, <8 x float> %218) #0		; visa id: 698
  %223 = call <8 x float> asm "{\0A.decl DST     v_type=G type=f num_elts=$5 alias=<$0,0>\0A.decl SRC1_UD v_type=G type=UD num_elts=128 alias=<$2,0>\0A.decl SRC2_UD v_type=G type=UD num_elts=$4 alias=<$1,0>\0Adpas.bf.bf.8.$3 (M1, 16) DST.0 DST.0 SRC1_UD.0 SRC2_UD(0,0)\0A}\0A", "=rw,rw,rw,P,P,P,0"(<8 x i16> %217, <16 x i16> %152, i32 8, i32 64, i32 128, <8 x float> %219) #0		; visa id: 698
  %224 = call <8 x float> asm "{\0A.decl DST     v_type=G type=f num_elts=$5 alias=<$0,0>\0A.decl SRC1_UD v_type=G type=UD num_elts=128 alias=<$2,0>\0A.decl SRC2_UD v_type=G type=UD num_elts=$4 alias=<$1,0>\0Adpas.bf.bf.8.$3 (M1, 16) DST.0 DST.0 SRC1_UD.0 SRC2_UD(0,0)\0A}\0A", "=rw,rw,rw,P,P,P,0"(<8 x i16> %217, <16 x i16> %153, i32 8, i32 64, i32 128, <8 x float> %220) #0		; visa id: 698
  %225 = call <8 x float> asm "{\0A.decl DST     v_type=G type=f num_elts=$5 alias=<$0,0>\0A.decl SRC1_UD v_type=G type=UD num_elts=128 alias=<$2,0>\0A.decl SRC2_UD v_type=G type=UD num_elts=$4 alias=<$1,0>\0Adpas.bf.bf.8.$3 (M1, 16) DST.0 DST.0 SRC1_UD.0 SRC2_UD(0,0)\0A}\0A", "=rw,rw,rw,P,P,P,0"(<8 x i16> %201, <16 x i16> %153, i32 8, i32 64, i32 128, <8 x float> %221) #0		; visa id: 698
  %226 = or i32 %146, 32		; visa id: 698
  call void @llvm.genx.GenISA.LSC2DBlockSetAddrPayloadField.p4i8.i32(i8 addrspace(4)* %Block2D_AddrPayload, i32 5, i32 %226, i1 false)		; visa id: 699
  call void @llvm.genx.GenISA.LSC2DBlockSetAddrPayloadField.p4i8.i32(i8 addrspace(4)* %Block2D_AddrPayload, i32 6, i32 %103, i1 false)		; visa id: 700
  %227 = call <32 x i16> asm "lsc_load_block2d.ugm (M1, 1)  $0:d$2.$3x$4x$5nn flat[$1+(0,0)]", "=rw,rw.u,P,P,P,P"(i8 addrspace(4)* %Block2D_AddrPayload, i32 16, i32 2, i32 16, i32 16) #0		; visa id: 701
  %228 = lshr exact i32 %226, 1		; visa id: 701
  call void @llvm.genx.GenISA.LSC2DBlockSetAddrPayloadField.p4i8.i32(i8 addrspace(4)* %Block2D_AddrPayload109, i32 5, i32 %228, i1 false)		; visa id: 702
  call void @llvm.genx.GenISA.LSC2DBlockSetAddrPayloadField.p4i8.i32(i8 addrspace(4)* %Block2D_AddrPayload109, i32 6, i32 %143, i1 false)		; visa id: 703
  %229 = call <16 x i16> asm "lsc_load_block2d.ugm (M1, 1)  $0:d$2.$3x$4tn flat[$1+(0,0)]", "=rw,rw.u,P,P,P"(i8 addrspace(4)* %Block2D_AddrPayload109, i32 32, i32 8, i32 16) #0		; visa id: 704
  call void @llvm.genx.GenISA.LSC2DBlockSetAddrPayloadField.p4i8.i32(i8 addrspace(4)* %Block2D_AddrPayload109, i32 5, i32 %228, i1 false)		; visa id: 704
  call void @llvm.genx.GenISA.LSC2DBlockSetAddrPayloadField.p4i8.i32(i8 addrspace(4)* %Block2D_AddrPayload109, i32 6, i32 %144, i1 false)		; visa id: 705
  %230 = call <16 x i16> asm "lsc_load_block2d.ugm (M1, 1)  $0:d$2.$3x$4tn flat[$1+(0,0)]", "=rw,rw.u,P,P,P"(i8 addrspace(4)* %Block2D_AddrPayload109, i32 32, i32 8, i32 16) #0		; visa id: 706
  %231 = or i32 %228, 8		; visa id: 706
  call void @llvm.genx.GenISA.LSC2DBlockSetAddrPayloadField.p4i8.i32(i8 addrspace(4)* %Block2D_AddrPayload109, i32 5, i32 %231, i1 false)		; visa id: 707
  call void @llvm.genx.GenISA.LSC2DBlockSetAddrPayloadField.p4i8.i32(i8 addrspace(4)* %Block2D_AddrPayload109, i32 6, i32 %143, i1 false)		; visa id: 708
  %232 = call <16 x i16> asm "lsc_load_block2d.ugm (M1, 1)  $0:d$2.$3x$4tn flat[$1+(0,0)]", "=rw,rw.u,P,P,P"(i8 addrspace(4)* %Block2D_AddrPayload109, i32 32, i32 8, i32 16) #0		; visa id: 709
  call void @llvm.genx.GenISA.LSC2DBlockSetAddrPayloadField.p4i8.i32(i8 addrspace(4)* %Block2D_AddrPayload109, i32 5, i32 %231, i1 false)		; visa id: 709
  call void @llvm.genx.GenISA.LSC2DBlockSetAddrPayloadField.p4i8.i32(i8 addrspace(4)* %Block2D_AddrPayload109, i32 6, i32 %144, i1 false)		; visa id: 710
  %233 = call <16 x i16> asm "lsc_load_block2d.ugm (M1, 1)  $0:d$2.$3x$4tn flat[$1+(0,0)]", "=rw,rw.u,P,P,P"(i8 addrspace(4)* %Block2D_AddrPayload109, i32 32, i32 8, i32 16) #0		; visa id: 711
  %234 = extractelement <32 x i16> %227, i32 0		; visa id: 711
  %235 = insertelement <8 x i16> undef, i16 %234, i32 0		; visa id: 711
  %236 = extractelement <32 x i16> %227, i32 1		; visa id: 711
  %237 = insertelement <8 x i16> %235, i16 %236, i32 1		; visa id: 711
  %238 = extractelement <32 x i16> %227, i32 2		; visa id: 711
  %239 = insertelement <8 x i16> %237, i16 %238, i32 2		; visa id: 711
  %240 = extractelement <32 x i16> %227, i32 3		; visa id: 711
  %241 = insertelement <8 x i16> %239, i16 %240, i32 3		; visa id: 711
  %242 = extractelement <32 x i16> %227, i32 4		; visa id: 711
  %243 = insertelement <8 x i16> %241, i16 %242, i32 4		; visa id: 711
  %244 = extractelement <32 x i16> %227, i32 5		; visa id: 711
  %245 = insertelement <8 x i16> %243, i16 %244, i32 5		; visa id: 711
  %246 = extractelement <32 x i16> %227, i32 6		; visa id: 711
  %247 = insertelement <8 x i16> %245, i16 %246, i32 6		; visa id: 711
  %248 = extractelement <32 x i16> %227, i32 7		; visa id: 711
  %249 = insertelement <8 x i16> %247, i16 %248, i32 7		; visa id: 711
  %250 = extractelement <32 x i16> %227, i32 8		; visa id: 711
  %251 = insertelement <8 x i16> undef, i16 %250, i32 0		; visa id: 711
  %252 = extractelement <32 x i16> %227, i32 9		; visa id: 711
  %253 = insertelement <8 x i16> %251, i16 %252, i32 1		; visa id: 711
  %254 = extractelement <32 x i16> %227, i32 10		; visa id: 711
  %255 = insertelement <8 x i16> %253, i16 %254, i32 2		; visa id: 711
  %256 = extractelement <32 x i16> %227, i32 11		; visa id: 711
  %257 = insertelement <8 x i16> %255, i16 %256, i32 3		; visa id: 711
  %258 = extractelement <32 x i16> %227, i32 12		; visa id: 711
  %259 = insertelement <8 x i16> %257, i16 %258, i32 4		; visa id: 711
  %260 = extractelement <32 x i16> %227, i32 13		; visa id: 711
  %261 = insertelement <8 x i16> %259, i16 %260, i32 5		; visa id: 711
  %262 = extractelement <32 x i16> %227, i32 14		; visa id: 711
  %263 = insertelement <8 x i16> %261, i16 %262, i32 6		; visa id: 711
  %264 = extractelement <32 x i16> %227, i32 15		; visa id: 711
  %265 = insertelement <8 x i16> %263, i16 %264, i32 7		; visa id: 711
  %266 = extractelement <32 x i16> %227, i32 16		; visa id: 711
  %267 = insertelement <8 x i16> undef, i16 %266, i32 0		; visa id: 711
  %268 = extractelement <32 x i16> %227, i32 17		; visa id: 711
  %269 = insertelement <8 x i16> %267, i16 %268, i32 1		; visa id: 711
  %270 = extractelement <32 x i16> %227, i32 18		; visa id: 711
  %271 = insertelement <8 x i16> %269, i16 %270, i32 2		; visa id: 711
  %272 = extractelement <32 x i16> %227, i32 19		; visa id: 711
  %273 = insertelement <8 x i16> %271, i16 %272, i32 3		; visa id: 711
  %274 = extractelement <32 x i16> %227, i32 20		; visa id: 711
  %275 = insertelement <8 x i16> %273, i16 %274, i32 4		; visa id: 711
  %276 = extractelement <32 x i16> %227, i32 21		; visa id: 711
  %277 = insertelement <8 x i16> %275, i16 %276, i32 5		; visa id: 711
  %278 = extractelement <32 x i16> %227, i32 22		; visa id: 711
  %279 = insertelement <8 x i16> %277, i16 %278, i32 6		; visa id: 711
  %280 = extractelement <32 x i16> %227, i32 23		; visa id: 711
  %281 = insertelement <8 x i16> %279, i16 %280, i32 7		; visa id: 711
  %282 = extractelement <32 x i16> %227, i32 24		; visa id: 711
  %283 = insertelement <8 x i16> undef, i16 %282, i32 0		; visa id: 711
  %284 = extractelement <32 x i16> %227, i32 25		; visa id: 711
  %285 = insertelement <8 x i16> %283, i16 %284, i32 1		; visa id: 711
  %286 = extractelement <32 x i16> %227, i32 26		; visa id: 711
  %287 = insertelement <8 x i16> %285, i16 %286, i32 2		; visa id: 711
  %288 = extractelement <32 x i16> %227, i32 27		; visa id: 711
  %289 = insertelement <8 x i16> %287, i16 %288, i32 3		; visa id: 711
  %290 = extractelement <32 x i16> %227, i32 28		; visa id: 711
  %291 = insertelement <8 x i16> %289, i16 %290, i32 4		; visa id: 711
  %292 = extractelement <32 x i16> %227, i32 29		; visa id: 711
  %293 = insertelement <8 x i16> %291, i16 %292, i32 5		; visa id: 711
  %294 = extractelement <32 x i16> %227, i32 30		; visa id: 711
  %295 = insertelement <8 x i16> %293, i16 %294, i32 6		; visa id: 711
  %296 = extractelement <32 x i16> %227, i32 31		; visa id: 711
  %297 = insertelement <8 x i16> %295, i16 %296, i32 7		; visa id: 711
  %298 = call <8 x float> asm "{\0A.decl DST     v_type=G type=f num_elts=$5 alias=<$0,0>\0A.decl SRC1_UD v_type=G type=UD num_elts=128 alias=<$2,0>\0A.decl SRC2_UD v_type=G type=UD num_elts=$4 alias=<$1,0>\0Adpas.bf.bf.8.$3 (M1, 16) DST.0 DST.0 SRC1_UD.0 SRC2_UD(0,0)\0A}\0A", "=rw,rw,rw,P,P,P,0"(<8 x i16> %249, <16 x i16> %229, i32 8, i32 64, i32 128, <8 x float> %222) #0		; visa id: 711
  %299 = call <8 x float> asm "{\0A.decl DST     v_type=G type=f num_elts=$5 alias=<$0,0>\0A.decl SRC1_UD v_type=G type=UD num_elts=128 alias=<$2,0>\0A.decl SRC2_UD v_type=G type=UD num_elts=$4 alias=<$1,0>\0Adpas.bf.bf.8.$3 (M1, 16) DST.0 DST.0 SRC1_UD.0 SRC2_UD(0,0)\0A}\0A", "=rw,rw,rw,P,P,P,0"(<8 x i16> %265, <16 x i16> %229, i32 8, i32 64, i32 128, <8 x float> %223) #0		; visa id: 711
  %300 = call <8 x float> asm "{\0A.decl DST     v_type=G type=f num_elts=$5 alias=<$0,0>\0A.decl SRC1_UD v_type=G type=UD num_elts=128 alias=<$2,0>\0A.decl SRC2_UD v_type=G type=UD num_elts=$4 alias=<$1,0>\0Adpas.bf.bf.8.$3 (M1, 16) DST.0 DST.0 SRC1_UD.0 SRC2_UD(0,0)\0A}\0A", "=rw,rw,rw,P,P,P,0"(<8 x i16> %265, <16 x i16> %230, i32 8, i32 64, i32 128, <8 x float> %224) #0		; visa id: 711
  %301 = call <8 x float> asm "{\0A.decl DST     v_type=G type=f num_elts=$5 alias=<$0,0>\0A.decl SRC1_UD v_type=G type=UD num_elts=128 alias=<$2,0>\0A.decl SRC2_UD v_type=G type=UD num_elts=$4 alias=<$1,0>\0Adpas.bf.bf.8.$3 (M1, 16) DST.0 DST.0 SRC1_UD.0 SRC2_UD(0,0)\0A}\0A", "=rw,rw,rw,P,P,P,0"(<8 x i16> %249, <16 x i16> %230, i32 8, i32 64, i32 128, <8 x float> %225) #0		; visa id: 711
  %302 = call <8 x float> asm "{\0A.decl DST     v_type=G type=f num_elts=$5 alias=<$0,0>\0A.decl SRC1_UD v_type=G type=UD num_elts=128 alias=<$2,0>\0A.decl SRC2_UD v_type=G type=UD num_elts=$4 alias=<$1,0>\0Adpas.bf.bf.8.$3 (M1, 16) DST.0 DST.0 SRC1_UD.0 SRC2_UD(0,0)\0A}\0A", "=rw,rw,rw,P,P,P,0"(<8 x i16> %281, <16 x i16> %232, i32 8, i32 64, i32 128, <8 x float> %298) #0		; visa id: 711
  %303 = call <8 x float> asm "{\0A.decl DST     v_type=G type=f num_elts=$5 alias=<$0,0>\0A.decl SRC1_UD v_type=G type=UD num_elts=128 alias=<$2,0>\0A.decl SRC2_UD v_type=G type=UD num_elts=$4 alias=<$1,0>\0Adpas.bf.bf.8.$3 (M1, 16) DST.0 DST.0 SRC1_UD.0 SRC2_UD(0,0)\0A}\0A", "=rw,rw,rw,P,P,P,0"(<8 x i16> %297, <16 x i16> %232, i32 8, i32 64, i32 128, <8 x float> %299) #0		; visa id: 711
  %304 = call <8 x float> asm "{\0A.decl DST     v_type=G type=f num_elts=$5 alias=<$0,0>\0A.decl SRC1_UD v_type=G type=UD num_elts=128 alias=<$2,0>\0A.decl SRC2_UD v_type=G type=UD num_elts=$4 alias=<$1,0>\0Adpas.bf.bf.8.$3 (M1, 16) DST.0 DST.0 SRC1_UD.0 SRC2_UD(0,0)\0A}\0A", "=rw,rw,rw,P,P,P,0"(<8 x i16> %297, <16 x i16> %233, i32 8, i32 64, i32 128, <8 x float> %300) #0		; visa id: 711
  %305 = call <8 x float> asm "{\0A.decl DST     v_type=G type=f num_elts=$5 alias=<$0,0>\0A.decl SRC1_UD v_type=G type=UD num_elts=128 alias=<$2,0>\0A.decl SRC2_UD v_type=G type=UD num_elts=$4 alias=<$1,0>\0Adpas.bf.bf.8.$3 (M1, 16) DST.0 DST.0 SRC1_UD.0 SRC2_UD(0,0)\0A}\0A", "=rw,rw,rw,P,P,P,0"(<8 x i16> %281, <16 x i16> %233, i32 8, i32 64, i32 128, <8 x float> %301) #0		; visa id: 711
  %306 = add nuw nsw i32 %145, 2, !spirv.Decorations !1215		; visa id: 711
  %niter.next.1 = add i32 %niter, 2		; visa id: 712
  %niter.ncmp.1.not = icmp eq i32 %niter.next.1, %unroll_iter		; visa id: 713
  br i1 %niter.ncmp.1.not, label %._crit_edge176.unr-lcssa, label %.preheader167..preheader167_crit_edge, !llvm.loop !1227, !stats.blockFrequency.digits !1229, !stats.blockFrequency.scale !1230		; visa id: 714

.preheader167..preheader167_crit_edge:            ; preds = %.preheader167
; BB:
  br label %.preheader167, !stats.blockFrequency.digits !1231, !stats.blockFrequency.scale !1230

._crit_edge176.unr-lcssa:                         ; preds = %.preheader167
; BB44 :
  %.lcssa3530 = phi <8 x float> [ %302, %.preheader167 ]
  %.lcssa3529 = phi <8 x float> [ %303, %.preheader167 ]
  %.lcssa3528 = phi <8 x float> [ %304, %.preheader167 ]
  %.lcssa3527 = phi <8 x float> [ %305, %.preheader167 ]
  %.lcssa = phi i32 [ %306, %.preheader167 ]
  br i1 %lcmp.mod.not, label %._crit_edge176.unr-lcssa.._crit_edge176_crit_edge, label %._crit_edge176.unr-lcssa..epil.preheader_crit_edge, !stats.blockFrequency.digits !1220, !stats.blockFrequency.scale !1221		; visa id: 716

._crit_edge176.unr-lcssa..epil.preheader_crit_edge: ; preds = %._crit_edge176.unr-lcssa
; BB:
  br label %.epil.preheader, !stats.blockFrequency.digits !1220, !stats.blockFrequency.scale !1232

.epil.preheader:                                  ; preds = %._crit_edge176.unr-lcssa..epil.preheader_crit_edge, %.lr.ph..epil.preheader_crit_edge
; BB46 :
  %.unr3454 = phi i32 [ %.lcssa, %._crit_edge176.unr-lcssa..epil.preheader_crit_edge ], [ 0, %.lr.ph..epil.preheader_crit_edge ]
  %.sroa.01471.13453 = phi <8 x float> [ %.lcssa3530, %._crit_edge176.unr-lcssa..epil.preheader_crit_edge ], [ zeroinitializer, %.lr.ph..epil.preheader_crit_edge ]
  %.sroa.95.13452 = phi <8 x float> [ %.lcssa3529, %._crit_edge176.unr-lcssa..epil.preheader_crit_edge ], [ zeroinitializer, %.lr.ph..epil.preheader_crit_edge ]
  %.sroa.187.13451 = phi <8 x float> [ %.lcssa3527, %._crit_edge176.unr-lcssa..epil.preheader_crit_edge ], [ zeroinitializer, %.lr.ph..epil.preheader_crit_edge ]
  %.sroa.279.13450 = phi <8 x float> [ %.lcssa3528, %._crit_edge176.unr-lcssa..epil.preheader_crit_edge ], [ zeroinitializer, %.lr.ph..epil.preheader_crit_edge ]
  %307 = shl nsw i32 %.unr3454, 5, !spirv.Decorations !1212		; visa id: 718
  call void @llvm.genx.GenISA.LSC2DBlockSetAddrPayloadField.p4i8.i32(i8 addrspace(4)* %Block2D_AddrPayload, i32 5, i32 %307, i1 false)		; visa id: 719
  call void @llvm.genx.GenISA.LSC2DBlockSetAddrPayloadField.p4i8.i32(i8 addrspace(4)* %Block2D_AddrPayload, i32 6, i32 %103, i1 false)		; visa id: 720
  %308 = call <32 x i16> asm "lsc_load_block2d.ugm (M1, 1)  $0:d$2.$3x$4x$5nn flat[$1+(0,0)]", "=rw,rw.u,P,P,P,P"(i8 addrspace(4)* %Block2D_AddrPayload, i32 16, i32 2, i32 16, i32 16) #0		; visa id: 721
  %309 = lshr exact i32 %307, 1		; visa id: 721
  call void @llvm.genx.GenISA.LSC2DBlockSetAddrPayloadField.p4i8.i32(i8 addrspace(4)* %Block2D_AddrPayload109, i32 5, i32 %309, i1 false)		; visa id: 722
  call void @llvm.genx.GenISA.LSC2DBlockSetAddrPayloadField.p4i8.i32(i8 addrspace(4)* %Block2D_AddrPayload109, i32 6, i32 %143, i1 false)		; visa id: 723
  %310 = call <16 x i16> asm "lsc_load_block2d.ugm (M1, 1)  $0:d$2.$3x$4tn flat[$1+(0,0)]", "=rw,rw.u,P,P,P"(i8 addrspace(4)* %Block2D_AddrPayload109, i32 32, i32 8, i32 16) #0		; visa id: 724
  %311 = add i32 %143, 16		; visa id: 724
  call void @llvm.genx.GenISA.LSC2DBlockSetAddrPayloadField.p4i8.i32(i8 addrspace(4)* %Block2D_AddrPayload109, i32 5, i32 %309, i1 false)		; visa id: 725
  call void @llvm.genx.GenISA.LSC2DBlockSetAddrPayloadField.p4i8.i32(i8 addrspace(4)* %Block2D_AddrPayload109, i32 6, i32 %311, i1 false)		; visa id: 726
  %312 = call <16 x i16> asm "lsc_load_block2d.ugm (M1, 1)  $0:d$2.$3x$4tn flat[$1+(0,0)]", "=rw,rw.u,P,P,P"(i8 addrspace(4)* %Block2D_AddrPayload109, i32 32, i32 8, i32 16) #0		; visa id: 727
  %313 = or i32 %309, 8		; visa id: 727
  call void @llvm.genx.GenISA.LSC2DBlockSetAddrPayloadField.p4i8.i32(i8 addrspace(4)* %Block2D_AddrPayload109, i32 5, i32 %313, i1 false)		; visa id: 728
  call void @llvm.genx.GenISA.LSC2DBlockSetAddrPayloadField.p4i8.i32(i8 addrspace(4)* %Block2D_AddrPayload109, i32 6, i32 %143, i1 false)		; visa id: 729
  %314 = call <16 x i16> asm "lsc_load_block2d.ugm (M1, 1)  $0:d$2.$3x$4tn flat[$1+(0,0)]", "=rw,rw.u,P,P,P"(i8 addrspace(4)* %Block2D_AddrPayload109, i32 32, i32 8, i32 16) #0		; visa id: 730
  call void @llvm.genx.GenISA.LSC2DBlockSetAddrPayloadField.p4i8.i32(i8 addrspace(4)* %Block2D_AddrPayload109, i32 5, i32 %313, i1 false)		; visa id: 730
  call void @llvm.genx.GenISA.LSC2DBlockSetAddrPayloadField.p4i8.i32(i8 addrspace(4)* %Block2D_AddrPayload109, i32 6, i32 %311, i1 false)		; visa id: 731
  %315 = call <16 x i16> asm "lsc_load_block2d.ugm (M1, 1)  $0:d$2.$3x$4tn flat[$1+(0,0)]", "=rw,rw.u,P,P,P"(i8 addrspace(4)* %Block2D_AddrPayload109, i32 32, i32 8, i32 16) #0		; visa id: 732
  %316 = extractelement <32 x i16> %308, i32 0		; visa id: 732
  %317 = insertelement <8 x i16> undef, i16 %316, i32 0		; visa id: 732
  %318 = extractelement <32 x i16> %308, i32 1		; visa id: 732
  %319 = insertelement <8 x i16> %317, i16 %318, i32 1		; visa id: 732
  %320 = extractelement <32 x i16> %308, i32 2		; visa id: 732
  %321 = insertelement <8 x i16> %319, i16 %320, i32 2		; visa id: 732
  %322 = extractelement <32 x i16> %308, i32 3		; visa id: 732
  %323 = insertelement <8 x i16> %321, i16 %322, i32 3		; visa id: 732
  %324 = extractelement <32 x i16> %308, i32 4		; visa id: 732
  %325 = insertelement <8 x i16> %323, i16 %324, i32 4		; visa id: 732
  %326 = extractelement <32 x i16> %308, i32 5		; visa id: 732
  %327 = insertelement <8 x i16> %325, i16 %326, i32 5		; visa id: 732
  %328 = extractelement <32 x i16> %308, i32 6		; visa id: 732
  %329 = insertelement <8 x i16> %327, i16 %328, i32 6		; visa id: 732
  %330 = extractelement <32 x i16> %308, i32 7		; visa id: 732
  %331 = insertelement <8 x i16> %329, i16 %330, i32 7		; visa id: 732
  %332 = extractelement <32 x i16> %308, i32 8		; visa id: 732
  %333 = insertelement <8 x i16> undef, i16 %332, i32 0		; visa id: 732
  %334 = extractelement <32 x i16> %308, i32 9		; visa id: 732
  %335 = insertelement <8 x i16> %333, i16 %334, i32 1		; visa id: 732
  %336 = extractelement <32 x i16> %308, i32 10		; visa id: 732
  %337 = insertelement <8 x i16> %335, i16 %336, i32 2		; visa id: 732
  %338 = extractelement <32 x i16> %308, i32 11		; visa id: 732
  %339 = insertelement <8 x i16> %337, i16 %338, i32 3		; visa id: 732
  %340 = extractelement <32 x i16> %308, i32 12		; visa id: 732
  %341 = insertelement <8 x i16> %339, i16 %340, i32 4		; visa id: 732
  %342 = extractelement <32 x i16> %308, i32 13		; visa id: 732
  %343 = insertelement <8 x i16> %341, i16 %342, i32 5		; visa id: 732
  %344 = extractelement <32 x i16> %308, i32 14		; visa id: 732
  %345 = insertelement <8 x i16> %343, i16 %344, i32 6		; visa id: 732
  %346 = extractelement <32 x i16> %308, i32 15		; visa id: 732
  %347 = insertelement <8 x i16> %345, i16 %346, i32 7		; visa id: 732
  %348 = extractelement <32 x i16> %308, i32 16		; visa id: 732
  %349 = insertelement <8 x i16> undef, i16 %348, i32 0		; visa id: 732
  %350 = extractelement <32 x i16> %308, i32 17		; visa id: 732
  %351 = insertelement <8 x i16> %349, i16 %350, i32 1		; visa id: 732
  %352 = extractelement <32 x i16> %308, i32 18		; visa id: 732
  %353 = insertelement <8 x i16> %351, i16 %352, i32 2		; visa id: 732
  %354 = extractelement <32 x i16> %308, i32 19		; visa id: 732
  %355 = insertelement <8 x i16> %353, i16 %354, i32 3		; visa id: 732
  %356 = extractelement <32 x i16> %308, i32 20		; visa id: 732
  %357 = insertelement <8 x i16> %355, i16 %356, i32 4		; visa id: 732
  %358 = extractelement <32 x i16> %308, i32 21		; visa id: 732
  %359 = insertelement <8 x i16> %357, i16 %358, i32 5		; visa id: 732
  %360 = extractelement <32 x i16> %308, i32 22		; visa id: 732
  %361 = insertelement <8 x i16> %359, i16 %360, i32 6		; visa id: 732
  %362 = extractelement <32 x i16> %308, i32 23		; visa id: 732
  %363 = insertelement <8 x i16> %361, i16 %362, i32 7		; visa id: 732
  %364 = extractelement <32 x i16> %308, i32 24		; visa id: 732
  %365 = insertelement <8 x i16> undef, i16 %364, i32 0		; visa id: 732
  %366 = extractelement <32 x i16> %308, i32 25		; visa id: 732
  %367 = insertelement <8 x i16> %365, i16 %366, i32 1		; visa id: 732
  %368 = extractelement <32 x i16> %308, i32 26		; visa id: 732
  %369 = insertelement <8 x i16> %367, i16 %368, i32 2		; visa id: 732
  %370 = extractelement <32 x i16> %308, i32 27		; visa id: 732
  %371 = insertelement <8 x i16> %369, i16 %370, i32 3		; visa id: 732
  %372 = extractelement <32 x i16> %308, i32 28		; visa id: 732
  %373 = insertelement <8 x i16> %371, i16 %372, i32 4		; visa id: 732
  %374 = extractelement <32 x i16> %308, i32 29		; visa id: 732
  %375 = insertelement <8 x i16> %373, i16 %374, i32 5		; visa id: 732
  %376 = extractelement <32 x i16> %308, i32 30		; visa id: 732
  %377 = insertelement <8 x i16> %375, i16 %376, i32 6		; visa id: 732
  %378 = extractelement <32 x i16> %308, i32 31		; visa id: 732
  %379 = insertelement <8 x i16> %377, i16 %378, i32 7		; visa id: 732
  %380 = call <8 x float> asm "{\0A.decl DST     v_type=G type=f num_elts=$5 alias=<$0,0>\0A.decl SRC1_UD v_type=G type=UD num_elts=128 alias=<$2,0>\0A.decl SRC2_UD v_type=G type=UD num_elts=$4 alias=<$1,0>\0Adpas.bf.bf.8.$3 (M1, 16) DST.0 DST.0 SRC1_UD.0 SRC2_UD(0,0)\0A}\0A", "=rw,rw,rw,P,P,P,0"(<8 x i16> %331, <16 x i16> %310, i32 8, i32 64, i32 128, <8 x float> %.sroa.01471.13453) #0		; visa id: 732
  %381 = call <8 x float> asm "{\0A.decl DST     v_type=G type=f num_elts=$5 alias=<$0,0>\0A.decl SRC1_UD v_type=G type=UD num_elts=128 alias=<$2,0>\0A.decl SRC2_UD v_type=G type=UD num_elts=$4 alias=<$1,0>\0Adpas.bf.bf.8.$3 (M1, 16) DST.0 DST.0 SRC1_UD.0 SRC2_UD(0,0)\0A}\0A", "=rw,rw,rw,P,P,P,0"(<8 x i16> %347, <16 x i16> %310, i32 8, i32 64, i32 128, <8 x float> %.sroa.95.13452) #0		; visa id: 732
  %382 = call <8 x float> asm "{\0A.decl DST     v_type=G type=f num_elts=$5 alias=<$0,0>\0A.decl SRC1_UD v_type=G type=UD num_elts=128 alias=<$2,0>\0A.decl SRC2_UD v_type=G type=UD num_elts=$4 alias=<$1,0>\0Adpas.bf.bf.8.$3 (M1, 16) DST.0 DST.0 SRC1_UD.0 SRC2_UD(0,0)\0A}\0A", "=rw,rw,rw,P,P,P,0"(<8 x i16> %347, <16 x i16> %312, i32 8, i32 64, i32 128, <8 x float> %.sroa.279.13450) #0		; visa id: 732
  %383 = call <8 x float> asm "{\0A.decl DST     v_type=G type=f num_elts=$5 alias=<$0,0>\0A.decl SRC1_UD v_type=G type=UD num_elts=128 alias=<$2,0>\0A.decl SRC2_UD v_type=G type=UD num_elts=$4 alias=<$1,0>\0Adpas.bf.bf.8.$3 (M1, 16) DST.0 DST.0 SRC1_UD.0 SRC2_UD(0,0)\0A}\0A", "=rw,rw,rw,P,P,P,0"(<8 x i16> %331, <16 x i16> %312, i32 8, i32 64, i32 128, <8 x float> %.sroa.187.13451) #0		; visa id: 732
  %384 = call <8 x float> asm "{\0A.decl DST     v_type=G type=f num_elts=$5 alias=<$0,0>\0A.decl SRC1_UD v_type=G type=UD num_elts=128 alias=<$2,0>\0A.decl SRC2_UD v_type=G type=UD num_elts=$4 alias=<$1,0>\0Adpas.bf.bf.8.$3 (M1, 16) DST.0 DST.0 SRC1_UD.0 SRC2_UD(0,0)\0A}\0A", "=rw,rw,rw,P,P,P,0"(<8 x i16> %363, <16 x i16> %314, i32 8, i32 64, i32 128, <8 x float> %380) #0		; visa id: 732
  %385 = call <8 x float> asm "{\0A.decl DST     v_type=G type=f num_elts=$5 alias=<$0,0>\0A.decl SRC1_UD v_type=G type=UD num_elts=128 alias=<$2,0>\0A.decl SRC2_UD v_type=G type=UD num_elts=$4 alias=<$1,0>\0Adpas.bf.bf.8.$3 (M1, 16) DST.0 DST.0 SRC1_UD.0 SRC2_UD(0,0)\0A}\0A", "=rw,rw,rw,P,P,P,0"(<8 x i16> %379, <16 x i16> %314, i32 8, i32 64, i32 128, <8 x float> %381) #0		; visa id: 732
  %386 = call <8 x float> asm "{\0A.decl DST     v_type=G type=f num_elts=$5 alias=<$0,0>\0A.decl SRC1_UD v_type=G type=UD num_elts=128 alias=<$2,0>\0A.decl SRC2_UD v_type=G type=UD num_elts=$4 alias=<$1,0>\0Adpas.bf.bf.8.$3 (M1, 16) DST.0 DST.0 SRC1_UD.0 SRC2_UD(0,0)\0A}\0A", "=rw,rw,rw,P,P,P,0"(<8 x i16> %379, <16 x i16> %315, i32 8, i32 64, i32 128, <8 x float> %382) #0		; visa id: 732
  %387 = call <8 x float> asm "{\0A.decl DST     v_type=G type=f num_elts=$5 alias=<$0,0>\0A.decl SRC1_UD v_type=G type=UD num_elts=128 alias=<$2,0>\0A.decl SRC2_UD v_type=G type=UD num_elts=$4 alias=<$1,0>\0Adpas.bf.bf.8.$3 (M1, 16) DST.0 DST.0 SRC1_UD.0 SRC2_UD(0,0)\0A}\0A", "=rw,rw,rw,P,P,P,0"(<8 x i16> %363, <16 x i16> %315, i32 8, i32 64, i32 128, <8 x float> %383) #0		; visa id: 732
  br label %._crit_edge176, !stats.blockFrequency.digits !1214, !stats.blockFrequency.scale !1204		; visa id: 732

._crit_edge176.unr-lcssa.._crit_edge176_crit_edge: ; preds = %._crit_edge176.unr-lcssa
; BB:
  br label %._crit_edge176, !stats.blockFrequency.digits !1220, !stats.blockFrequency.scale !1232

._crit_edge176:                                   ; preds = %._crit_edge176.unr-lcssa.._crit_edge176_crit_edge, %.preheader172.._crit_edge176_crit_edge, %.epil.preheader
; BB48 :
  %.sroa.279.3 = phi <8 x float> [ zeroinitializer, %.preheader172.._crit_edge176_crit_edge ], [ %386, %.epil.preheader ], [ %.lcssa3528, %._crit_edge176.unr-lcssa.._crit_edge176_crit_edge ]
  %.sroa.187.3 = phi <8 x float> [ zeroinitializer, %.preheader172.._crit_edge176_crit_edge ], [ %387, %.epil.preheader ], [ %.lcssa3527, %._crit_edge176.unr-lcssa.._crit_edge176_crit_edge ]
  %.sroa.95.3 = phi <8 x float> [ zeroinitializer, %.preheader172.._crit_edge176_crit_edge ], [ %385, %.epil.preheader ], [ %.lcssa3529, %._crit_edge176.unr-lcssa.._crit_edge176_crit_edge ]
  %.sroa.01471.3 = phi <8 x float> [ zeroinitializer, %.preheader172.._crit_edge176_crit_edge ], [ %384, %.epil.preheader ], [ %.lcssa3530, %._crit_edge176.unr-lcssa.._crit_edge176_crit_edge ]
  %388 = add nsw i32 %143, %105, !spirv.Decorations !1212		; visa id: 733
  call void @llvm.genx.GenISA.LSC2DBlockSetAddrPayloadField.p4i8.i32(i8 addrspace(4)* %Block2D_AddrPayload115, i32 5, i32 %137, i1 false)		; visa id: 734
  call void @llvm.genx.GenISA.LSC2DBlockSetAddrPayloadField.p4i8.i32(i8 addrspace(4)* %Block2D_AddrPayload115, i32 6, i32 %388, i1 false)		; visa id: 735
  call void asm sideeffect "lsc_load_block2d.ugm.ca.ca (M1, 1)  %null:d$1.$2x$3nn flat[$0+(0,0)]", "rw.u,P,P,P"(i8 addrspace(4)* %Block2D_AddrPayload115, i32 16, i32 32, i32 2) #0		; visa id: 736
  call void @llvm.genx.GenISA.LSC2DBlockSetAddrPayloadField.p4i8.i32(i8 addrspace(4)* %Block2D_AddrPayload115, i32 5, i32 %138, i1 false)		; visa id: 736
  call void @llvm.genx.GenISA.LSC2DBlockSetAddrPayloadField.p4i8.i32(i8 addrspace(4)* %Block2D_AddrPayload115, i32 6, i32 %388, i1 false)		; visa id: 737
  call void asm sideeffect "lsc_load_block2d.ugm.ca.ca (M1, 1)  %null:d$1.$2x$3nn flat[$0+(0,0)]", "rw.u,P,P,P"(i8 addrspace(4)* %Block2D_AddrPayload115, i32 16, i32 32, i32 2) #0		; visa id: 738
  call void @llvm.genx.GenISA.LSC2DBlockSetAddrPayloadField.p4i8.i32(i8 addrspace(4)* %Block2D_AddrPayload115, i32 5, i32 %139, i1 false)		; visa id: 738
  call void @llvm.genx.GenISA.LSC2DBlockSetAddrPayloadField.p4i8.i32(i8 addrspace(4)* %Block2D_AddrPayload115, i32 6, i32 %388, i1 false)		; visa id: 739
  call void asm sideeffect "lsc_load_block2d.ugm.ca.ca (M1, 1)  %null:d$1.$2x$3nn flat[$0+(0,0)]", "rw.u,P,P,P"(i8 addrspace(4)* %Block2D_AddrPayload115, i32 16, i32 32, i32 2) #0		; visa id: 740
  call void @llvm.genx.GenISA.LSC2DBlockSetAddrPayloadField.p4i8.i32(i8 addrspace(4)* %Block2D_AddrPayload115, i32 5, i32 %140, i1 false)		; visa id: 740
  call void @llvm.genx.GenISA.LSC2DBlockSetAddrPayloadField.p4i8.i32(i8 addrspace(4)* %Block2D_AddrPayload115, i32 6, i32 %388, i1 false)		; visa id: 741
  call void asm sideeffect "lsc_load_block2d.ugm.ca.ca (M1, 1)  %null:d$1.$2x$3nn flat[$0+(0,0)]", "rw.u,P,P,P"(i8 addrspace(4)* %Block2D_AddrPayload115, i32 16, i32 32, i32 2) #0		; visa id: 742
  %389 = icmp eq i32 %141, %134		; visa id: 742
  %390 = and i1 %.not.not, %389		; visa id: 743
  br i1 %390, label %.preheader170, label %._crit_edge176..loopexit4.i_crit_edge, !stats.blockFrequency.digits !1224, !stats.blockFrequency.scale !1218		; visa id: 746

._crit_edge176..loopexit4.i_crit_edge:            ; preds = %._crit_edge176
; BB:
  br label %.loopexit4.i, !stats.blockFrequency.digits !1203, !stats.blockFrequency.scale !1226

.preheader170:                                    ; preds = %._crit_edge176
; BB50 :
  %simdLaneId16 = call i16 @llvm.genx.GenISA.simdLaneId()		; visa id: 748
  %simdLaneId = zext i16 %simdLaneId16 to i32		; visa id: 750
  %391 = or i32 %indvars.iv, %simdLaneId		; visa id: 751
  %392 = icmp slt i32 %391, %45		; visa id: 752
  %spec.select.le = select i1 %392, float 0x7FFFFFFFE0000000, float 0xFFF0000000000000		; visa id: 753
  %393 = extractelement <8 x float> %.sroa.01471.3, i32 0		; visa id: 754
  %394 = call float @llvm.minnum.f32(float %393, float %spec.select.le)		; visa id: 755
  %.sroa.01471.0.vec.insert1492 = insertelement <8 x float> poison, float %394, i64 0		; visa id: 756
  %395 = extractelement <8 x float> %.sroa.01471.3, i32 1		; visa id: 757
  %396 = call float @llvm.minnum.f32(float %395, float %spec.select.le)		; visa id: 758
  %.sroa.01471.4.vec.insert1498 = insertelement <8 x float> %.sroa.01471.0.vec.insert1492, float %396, i64 1		; visa id: 759
  %397 = extractelement <8 x float> %.sroa.01471.3, i32 2		; visa id: 760
  %398 = call float @llvm.minnum.f32(float %397, float %spec.select.le)		; visa id: 761
  %.sroa.01471.8.vec.insert1515 = insertelement <8 x float> %.sroa.01471.4.vec.insert1498, float %398, i64 2		; visa id: 762
  %399 = extractelement <8 x float> %.sroa.01471.3, i32 3		; visa id: 763
  %400 = call float @llvm.minnum.f32(float %399, float %spec.select.le)		; visa id: 764
  %.sroa.01471.12.vec.insert1532 = insertelement <8 x float> %.sroa.01471.8.vec.insert1515, float %400, i64 3		; visa id: 765
  %401 = extractelement <8 x float> %.sroa.01471.3, i32 4		; visa id: 766
  %402 = call float @llvm.minnum.f32(float %401, float %spec.select.le)		; visa id: 767
  %.sroa.01471.16.vec.insert1549 = insertelement <8 x float> %.sroa.01471.12.vec.insert1532, float %402, i64 4		; visa id: 768
  %403 = extractelement <8 x float> %.sroa.01471.3, i32 5		; visa id: 769
  %404 = call float @llvm.minnum.f32(float %403, float %spec.select.le)		; visa id: 770
  %.sroa.01471.20.vec.insert1566 = insertelement <8 x float> %.sroa.01471.16.vec.insert1549, float %404, i64 5		; visa id: 771
  %405 = extractelement <8 x float> %.sroa.01471.3, i32 6		; visa id: 772
  %406 = call float @llvm.minnum.f32(float %405, float %spec.select.le)		; visa id: 773
  %.sroa.01471.24.vec.insert1583 = insertelement <8 x float> %.sroa.01471.20.vec.insert1566, float %406, i64 6		; visa id: 774
  %407 = extractelement <8 x float> %.sroa.01471.3, i32 7		; visa id: 775
  %408 = call float @llvm.minnum.f32(float %407, float %spec.select.le)		; visa id: 776
  %.sroa.01471.28.vec.insert1600 = insertelement <8 x float> %.sroa.01471.24.vec.insert1583, float %408, i64 7		; visa id: 777
  %409 = extractelement <8 x float> %.sroa.95.3, i32 0		; visa id: 778
  %410 = call float @llvm.minnum.f32(float %409, float %spec.select.le)		; visa id: 779
  %.sroa.95.32.vec.insert1624 = insertelement <8 x float> poison, float %410, i64 0		; visa id: 780
  %411 = extractelement <8 x float> %.sroa.95.3, i32 1		; visa id: 781
  %412 = call float @llvm.minnum.f32(float %411, float %spec.select.le)		; visa id: 782
  %.sroa.95.36.vec.insert1641 = insertelement <8 x float> %.sroa.95.32.vec.insert1624, float %412, i64 1		; visa id: 783
  %413 = extractelement <8 x float> %.sroa.95.3, i32 2		; visa id: 784
  %414 = call float @llvm.minnum.f32(float %413, float %spec.select.le)		; visa id: 785
  %.sroa.95.40.vec.insert1658 = insertelement <8 x float> %.sroa.95.36.vec.insert1641, float %414, i64 2		; visa id: 786
  %415 = extractelement <8 x float> %.sroa.95.3, i32 3		; visa id: 787
  %416 = call float @llvm.minnum.f32(float %415, float %spec.select.le)		; visa id: 788
  %.sroa.95.44.vec.insert1675 = insertelement <8 x float> %.sroa.95.40.vec.insert1658, float %416, i64 3		; visa id: 789
  %417 = extractelement <8 x float> %.sroa.95.3, i32 4		; visa id: 790
  %418 = call float @llvm.minnum.f32(float %417, float %spec.select.le)		; visa id: 791
  %.sroa.95.48.vec.insert1692 = insertelement <8 x float> %.sroa.95.44.vec.insert1675, float %418, i64 4		; visa id: 792
  %419 = extractelement <8 x float> %.sroa.95.3, i32 5		; visa id: 793
  %420 = call float @llvm.minnum.f32(float %419, float %spec.select.le)		; visa id: 794
  %.sroa.95.52.vec.insert1709 = insertelement <8 x float> %.sroa.95.48.vec.insert1692, float %420, i64 5		; visa id: 795
  %421 = extractelement <8 x float> %.sroa.95.3, i32 6		; visa id: 796
  %422 = call float @llvm.minnum.f32(float %421, float %spec.select.le)		; visa id: 797
  %.sroa.95.56.vec.insert1726 = insertelement <8 x float> %.sroa.95.52.vec.insert1709, float %422, i64 6		; visa id: 798
  %423 = extractelement <8 x float> %.sroa.95.3, i32 7		; visa id: 799
  %424 = call float @llvm.minnum.f32(float %423, float %spec.select.le)		; visa id: 800
  %.sroa.95.60.vec.insert1743 = insertelement <8 x float> %.sroa.95.56.vec.insert1726, float %424, i64 7		; visa id: 801
  %425 = extractelement <8 x float> %.sroa.187.3, i32 0		; visa id: 802
  %426 = call float @llvm.minnum.f32(float %425, float %spec.select.le)		; visa id: 803
  %.sroa.187.64.vec.insert1771 = insertelement <8 x float> poison, float %426, i64 0		; visa id: 804
  %427 = extractelement <8 x float> %.sroa.187.3, i32 1		; visa id: 805
  %428 = call float @llvm.minnum.f32(float %427, float %spec.select.le)		; visa id: 806
  %.sroa.187.68.vec.insert1784 = insertelement <8 x float> %.sroa.187.64.vec.insert1771, float %428, i64 1		; visa id: 807
  %429 = extractelement <8 x float> %.sroa.187.3, i32 2		; visa id: 808
  %430 = call float @llvm.minnum.f32(float %429, float %spec.select.le)		; visa id: 809
  %.sroa.187.72.vec.insert1801 = insertelement <8 x float> %.sroa.187.68.vec.insert1784, float %430, i64 2		; visa id: 810
  %431 = extractelement <8 x float> %.sroa.187.3, i32 3		; visa id: 811
  %432 = call float @llvm.minnum.f32(float %431, float %spec.select.le)		; visa id: 812
  %.sroa.187.76.vec.insert1818 = insertelement <8 x float> %.sroa.187.72.vec.insert1801, float %432, i64 3		; visa id: 813
  %433 = extractelement <8 x float> %.sroa.187.3, i32 4		; visa id: 814
  %434 = call float @llvm.minnum.f32(float %433, float %spec.select.le)		; visa id: 815
  %.sroa.187.80.vec.insert1835 = insertelement <8 x float> %.sroa.187.76.vec.insert1818, float %434, i64 4		; visa id: 816
  %435 = extractelement <8 x float> %.sroa.187.3, i32 5		; visa id: 817
  %436 = call float @llvm.minnum.f32(float %435, float %spec.select.le)		; visa id: 818
  %.sroa.187.84.vec.insert1852 = insertelement <8 x float> %.sroa.187.80.vec.insert1835, float %436, i64 5		; visa id: 819
  %437 = extractelement <8 x float> %.sroa.187.3, i32 6		; visa id: 820
  %438 = call float @llvm.minnum.f32(float %437, float %spec.select.le)		; visa id: 821
  %.sroa.187.88.vec.insert1869 = insertelement <8 x float> %.sroa.187.84.vec.insert1852, float %438, i64 6		; visa id: 822
  %439 = extractelement <8 x float> %.sroa.187.3, i32 7		; visa id: 823
  %440 = call float @llvm.minnum.f32(float %439, float %spec.select.le)		; visa id: 824
  %.sroa.187.92.vec.insert1886 = insertelement <8 x float> %.sroa.187.88.vec.insert1869, float %440, i64 7		; visa id: 825
  %441 = extractelement <8 x float> %.sroa.279.3, i32 0		; visa id: 826
  %442 = call float @llvm.minnum.f32(float %441, float %spec.select.le)		; visa id: 827
  %.sroa.279.96.vec.insert1910 = insertelement <8 x float> poison, float %442, i64 0		; visa id: 828
  %443 = extractelement <8 x float> %.sroa.279.3, i32 1		; visa id: 829
  %444 = call float @llvm.minnum.f32(float %443, float %spec.select.le)		; visa id: 830
  %.sroa.279.100.vec.insert1927 = insertelement <8 x float> %.sroa.279.96.vec.insert1910, float %444, i64 1		; visa id: 831
  %445 = extractelement <8 x float> %.sroa.279.3, i32 2		; visa id: 832
  %446 = call float @llvm.minnum.f32(float %445, float %spec.select.le)		; visa id: 833
  %.sroa.279.104.vec.insert1944 = insertelement <8 x float> %.sroa.279.100.vec.insert1927, float %446, i64 2		; visa id: 834
  %447 = extractelement <8 x float> %.sroa.279.3, i32 3		; visa id: 835
  %448 = call float @llvm.minnum.f32(float %447, float %spec.select.le)		; visa id: 836
  %.sroa.279.108.vec.insert1961 = insertelement <8 x float> %.sroa.279.104.vec.insert1944, float %448, i64 3		; visa id: 837
  %449 = extractelement <8 x float> %.sroa.279.3, i32 4		; visa id: 838
  %450 = call float @llvm.minnum.f32(float %449, float %spec.select.le)		; visa id: 839
  %.sroa.279.112.vec.insert1978 = insertelement <8 x float> %.sroa.279.108.vec.insert1961, float %450, i64 4		; visa id: 840
  %451 = extractelement <8 x float> %.sroa.279.3, i32 5		; visa id: 841
  %452 = call float @llvm.minnum.f32(float %451, float %spec.select.le)		; visa id: 842
  %.sroa.279.116.vec.insert1995 = insertelement <8 x float> %.sroa.279.112.vec.insert1978, float %452, i64 5		; visa id: 843
  %453 = extractelement <8 x float> %.sroa.279.3, i32 6		; visa id: 844
  %454 = call float @llvm.minnum.f32(float %453, float %spec.select.le)		; visa id: 845
  %.sroa.279.120.vec.insert2012 = insertelement <8 x float> %.sroa.279.116.vec.insert1995, float %454, i64 6		; visa id: 846
  %455 = extractelement <8 x float> %.sroa.279.3, i32 7		; visa id: 847
  %456 = call float @llvm.minnum.f32(float %455, float %spec.select.le)		; visa id: 848
  %.sroa.279.124.vec.insert2029 = insertelement <8 x float> %.sroa.279.120.vec.insert2012, float %456, i64 7		; visa id: 849
  br label %.loopexit4.i, !stats.blockFrequency.digits !1203, !stats.blockFrequency.scale !1226		; visa id: 882

.loopexit4.i:                                     ; preds = %._crit_edge176..loopexit4.i_crit_edge, %.preheader170
; BB51 :
  %.sroa.279.5 = phi <8 x float> [ %.sroa.279.124.vec.insert2029, %.preheader170 ], [ %.sroa.279.3, %._crit_edge176..loopexit4.i_crit_edge ]
  %.sroa.187.5 = phi <8 x float> [ %.sroa.187.92.vec.insert1886, %.preheader170 ], [ %.sroa.187.3, %._crit_edge176..loopexit4.i_crit_edge ]
  %.sroa.95.5 = phi <8 x float> [ %.sroa.95.60.vec.insert1743, %.preheader170 ], [ %.sroa.95.3, %._crit_edge176..loopexit4.i_crit_edge ]
  %.sroa.01471.5 = phi <8 x float> [ %.sroa.01471.28.vec.insert1600, %.preheader170 ], [ %.sroa.01471.3, %._crit_edge176..loopexit4.i_crit_edge ]
  %457 = extractelement <8 x float> %.sroa.01471.5, i32 0		; visa id: 883
  %458 = extractelement <8 x float> %.sroa.187.5, i32 0		; visa id: 884
  %459 = fcmp reassoc nsz arcp contract olt float %457, %458, !spirv.Decorations !1233		; visa id: 885
  %460 = select i1 %459, float %458, float %457		; visa id: 886
  %461 = extractelement <8 x float> %.sroa.01471.5, i32 1		; visa id: 887
  %462 = extractelement <8 x float> %.sroa.187.5, i32 1		; visa id: 888
  %463 = fcmp reassoc nsz arcp contract olt float %461, %462, !spirv.Decorations !1233		; visa id: 889
  %464 = select i1 %463, float %462, float %461		; visa id: 890
  %465 = extractelement <8 x float> %.sroa.01471.5, i32 2		; visa id: 891
  %466 = extractelement <8 x float> %.sroa.187.5, i32 2		; visa id: 892
  %467 = fcmp reassoc nsz arcp contract olt float %465, %466, !spirv.Decorations !1233		; visa id: 893
  %468 = select i1 %467, float %466, float %465		; visa id: 894
  %469 = extractelement <8 x float> %.sroa.01471.5, i32 3		; visa id: 895
  %470 = extractelement <8 x float> %.sroa.187.5, i32 3		; visa id: 896
  %471 = fcmp reassoc nsz arcp contract olt float %469, %470, !spirv.Decorations !1233		; visa id: 897
  %472 = select i1 %471, float %470, float %469		; visa id: 898
  %473 = extractelement <8 x float> %.sroa.01471.5, i32 4		; visa id: 899
  %474 = extractelement <8 x float> %.sroa.187.5, i32 4		; visa id: 900
  %475 = fcmp reassoc nsz arcp contract olt float %473, %474, !spirv.Decorations !1233		; visa id: 901
  %476 = select i1 %475, float %474, float %473		; visa id: 902
  %477 = extractelement <8 x float> %.sroa.01471.5, i32 5		; visa id: 903
  %478 = extractelement <8 x float> %.sroa.187.5, i32 5		; visa id: 904
  %479 = fcmp reassoc nsz arcp contract olt float %477, %478, !spirv.Decorations !1233		; visa id: 905
  %480 = select i1 %479, float %478, float %477		; visa id: 906
  %481 = extractelement <8 x float> %.sroa.01471.5, i32 6		; visa id: 907
  %482 = extractelement <8 x float> %.sroa.187.5, i32 6		; visa id: 908
  %483 = fcmp reassoc nsz arcp contract olt float %481, %482, !spirv.Decorations !1233		; visa id: 909
  %484 = select i1 %483, float %482, float %481		; visa id: 910
  %485 = extractelement <8 x float> %.sroa.01471.5, i32 7		; visa id: 911
  %486 = extractelement <8 x float> %.sroa.187.5, i32 7		; visa id: 912
  %487 = fcmp reassoc nsz arcp contract olt float %485, %486, !spirv.Decorations !1233		; visa id: 913
  %488 = select i1 %487, float %486, float %485		; visa id: 914
  %489 = extractelement <8 x float> %.sroa.95.5, i32 0		; visa id: 915
  %490 = extractelement <8 x float> %.sroa.279.5, i32 0		; visa id: 916
  %491 = fcmp reassoc nsz arcp contract olt float %489, %490, !spirv.Decorations !1233		; visa id: 917
  %492 = select i1 %491, float %490, float %489		; visa id: 918
  %493 = extractelement <8 x float> %.sroa.95.5, i32 1		; visa id: 919
  %494 = extractelement <8 x float> %.sroa.279.5, i32 1		; visa id: 920
  %495 = fcmp reassoc nsz arcp contract olt float %493, %494, !spirv.Decorations !1233		; visa id: 921
  %496 = select i1 %495, float %494, float %493		; visa id: 922
  %497 = extractelement <8 x float> %.sroa.95.5, i32 2		; visa id: 923
  %498 = extractelement <8 x float> %.sroa.279.5, i32 2		; visa id: 924
  %499 = fcmp reassoc nsz arcp contract olt float %497, %498, !spirv.Decorations !1233		; visa id: 925
  %500 = select i1 %499, float %498, float %497		; visa id: 926
  %501 = extractelement <8 x float> %.sroa.95.5, i32 3		; visa id: 927
  %502 = extractelement <8 x float> %.sroa.279.5, i32 3		; visa id: 928
  %503 = fcmp reassoc nsz arcp contract olt float %501, %502, !spirv.Decorations !1233		; visa id: 929
  %504 = select i1 %503, float %502, float %501		; visa id: 930
  %505 = extractelement <8 x float> %.sroa.95.5, i32 4		; visa id: 931
  %506 = extractelement <8 x float> %.sroa.279.5, i32 4		; visa id: 932
  %507 = fcmp reassoc nsz arcp contract olt float %505, %506, !spirv.Decorations !1233		; visa id: 933
  %508 = select i1 %507, float %506, float %505		; visa id: 934
  %509 = extractelement <8 x float> %.sroa.95.5, i32 5		; visa id: 935
  %510 = extractelement <8 x float> %.sroa.279.5, i32 5		; visa id: 936
  %511 = fcmp reassoc nsz arcp contract olt float %509, %510, !spirv.Decorations !1233		; visa id: 937
  %512 = select i1 %511, float %510, float %509		; visa id: 938
  %513 = extractelement <8 x float> %.sroa.95.5, i32 6		; visa id: 939
  %514 = extractelement <8 x float> %.sroa.279.5, i32 6		; visa id: 940
  %515 = fcmp reassoc nsz arcp contract olt float %513, %514, !spirv.Decorations !1233		; visa id: 941
  %516 = select i1 %515, float %514, float %513		; visa id: 942
  %517 = extractelement <8 x float> %.sroa.95.5, i32 7		; visa id: 943
  %518 = extractelement <8 x float> %.sroa.279.5, i32 7		; visa id: 944
  %519 = fcmp reassoc nsz arcp contract olt float %517, %518, !spirv.Decorations !1233		; visa id: 945
  %520 = select i1 %519, float %518, float %517		; visa id: 946
  %521 = call float asm "{\0A.decl INTERLEAVE_2 v_type=P num_elts=16\0A.decl INTERLEAVE_4 v_type=P num_elts=16\0A.decl INTERLEAVE_8 v_type=P num_elts=16\0A.decl IN0 v_type=G type=UD num_elts=16 alias=<$1,0>\0A.decl IN1 v_type=G type=UD num_elts=16 alias=<$2,0>\0A.decl IN2 v_type=G type=UD num_elts=16 alias=<$3,0>\0A.decl IN3 v_type=G type=UD num_elts=16 alias=<$4,0>\0A.decl IN4 v_type=G type=UD num_elts=16 alias=<$5,0>\0A.decl IN5 v_type=G type=UD num_elts=16 alias=<$6,0>\0A.decl IN6 v_type=G type=UD num_elts=16 alias=<$7,0>\0A.decl IN7 v_type=G type=UD num_elts=16 alias=<$8,0>\0A.decl IN8 v_type=G type=UD num_elts=16 alias=<$9,0>\0A.decl IN9 v_type=G type=UD num_elts=16 alias=<$10,0>\0A.decl IN10 v_type=G type=UD num_elts=16 alias=<$11,0>\0A.decl IN11 v_type=G type=UD num_elts=16 alias=<$12,0>\0A.decl IN12 v_type=G type=UD num_elts=16 alias=<$13,0>\0A.decl IN13 v_type=G type=UD num_elts=16 alias=<$14,0>\0A.decl IN14 v_type=G type=UD num_elts=16 alias=<$15,0>\0A.decl IN15 v_type=G type=UD num_elts=16 alias=<$16,0>\0A.decl RA0 v_type=G type=UD num_elts=32 align=64\0A.decl RA2 v_type=G type=UD num_elts=32 align=64\0A.decl RA4 v_type=G type=UD num_elts=32 align=64\0A.decl RA6 v_type=G type=UD num_elts=32 align=64\0A.decl RA8 v_type=G type=UD num_elts=32 align=64\0A.decl RA10 v_type=G type=UD num_elts=32 align=64\0A.decl RA12 v_type=G type=UD num_elts=32 align=64\0A.decl RA14 v_type=G type=UD num_elts=32 align=64\0A.decl RF0 v_type=G type=F num_elts=16 alias=<RA0,0>\0A.decl RF1 v_type=G type=F num_elts=16 alias=<RA0,64>\0A.decl RF2 v_type=G type=F num_elts=16 alias=<RA2,0>\0A.decl RF3 v_type=G type=F num_elts=16 alias=<RA2,64>\0A.decl RF4 v_type=G type=F num_elts=16 alias=<RA4,0>\0A.decl RF5 v_type=G type=F num_elts=16 alias=<RA4,64>\0A.decl RF6 v_type=G type=F num_elts=16 alias=<RA6,0>\0A.decl RF7 v_type=G type=F num_elts=16 alias=<RA6,64>\0A.decl RF8 v_type=G type=F num_elts=16 alias=<RA8,0>\0A.decl RF9 v_type=G type=F num_elts=16 alias=<RA8,64>\0A.decl RF10 v_type=G type=F num_elts=16 alias=<RA10,0>\0A.decl RF11 v_type=G type=F num_elts=16 alias=<RA10,64>\0A.decl RF12 v_type=G type=F num_elts=16 alias=<RA12,0>\0A.decl RF13 v_type=G type=F num_elts=16 alias=<RA12,64>\0A.decl RF14 v_type=G type=F num_elts=16 alias=<RA14,0>\0A.decl RF15 v_type=G type=F num_elts=16 alias=<RA14,64>\0Asetp (M1_NM,16) INTERLEAVE_2 0x5555:uw\0Asetp (M1_NM,16) INTERLEAVE_4 0x3333:uw\0Asetp (M1_NM,16) INTERLEAVE_8 0x0F0F:uw\0A(!INTERLEAVE_2) sel (M1_NM,16) RA0(0,0)<1>  IN1(0,0)<2;2,0>  IN0(0,0)<1;1,0>\0A (INTERLEAVE_2) sel (M1_NM,16) RA0(1,0)<1>  IN0(0,1)<2;2,0>  IN1(0,0)<1;1,0>\0A(!INTERLEAVE_2) sel (M1_NM,16) RA2(0,0)<1>  IN3(0,0)<2;2,0>  IN2(0,0)<1;1,0>\0A (INTERLEAVE_2) sel (M1_NM,16) RA2(1,0)<1>  IN2(0,1)<2;2,0>  IN3(0,0)<1;1,0>\0A(!INTERLEAVE_2) sel (M1_NM,16) RA4(0,0)<1>  IN5(0,0)<2;2,0>  IN4(0,0)<1;1,0>\0A (INTERLEAVE_2) sel (M1_NM,16) RA4(1,0)<1>  IN4(0,1)<2;2,0>  IN5(0,0)<1;1,0>\0A(!INTERLEAVE_2) sel (M1_NM,16) RA6(0,0)<1>  IN7(0,0)<2;2,0>  IN6(0,0)<1;1,0>\0A (INTERLEAVE_2) sel (M1_NM,16) RA6(1,0)<1>  IN6(0,1)<2;2,0>  IN7(0,0)<1;1,0>\0A(!INTERLEAVE_2) sel (M1_NM,16) RA8(0,0)<1>  IN9(0,0)<2;2,0>  IN8(0,0)<1;1,0>\0A (INTERLEAVE_2) sel (M1_NM,16) RA8(1,0)<1>  IN8(0,1)<2;2,0>  IN9(0,0)<1;1,0>\0A(!INTERLEAVE_2) sel (M1_NM,16) RA10(0,0)<1> IN11(0,0)<2;2,0> IN10(0,0)<1;1,0>\0A (INTERLEAVE_2) sel (M1_NM,16) RA10(1,0)<1> IN10(0,1)<2;2,0> IN11(0,0)<1;1,0>\0A(!INTERLEAVE_2) sel (M1_NM,16) RA12(0,0)<1> IN13(0,0)<2;2,0> IN12(0,0)<1;1,0>\0A (INTERLEAVE_2) sel (M1_NM,16) RA12(1,0)<1> IN12(0,1)<2;2,0> IN13(0,0)<1;1,0>\0A(!INTERLEAVE_2) sel (M1_NM,16) RA14(0,0)<1> IN15(0,0)<2;2,0> IN14(0,0)<1;1,0>\0A (INTERLEAVE_2) sel (M1_NM,16) RA14(1,0)<1> IN14(0,1)<2;2,0> IN15(0,0)<1;1,0>\0Amax (M1_NM,16) RF0(0,0)<1> RF0(0,0)<1;1,0> RF1(0,0)<1;1,0>\0Amax (M1_NM,16) RF3(0,0)<1> RF2(0,0)<1;1,0> RF3(0,0)<1;1,0>\0Amax (M1_NM,16) RF4(0,0)<1> RF4(0,0)<1;1,0> RF5(0,0)<1;1,0>\0Amax (M1_NM,16) RF7(0,0)<1> RF6(0,0)<1;1,0> RF7(0,0)<1;1,0>\0Amax (M1_NM,16) RF8(0,0)<1> RF8(0,0)<1;1,0> RF9(0,0)<1;1,0>\0Amax (M1_NM,16) RF11(0,0)<1> RF10(0,0)<1;1,0> RF11(0,0)<1;1,0>\0Amax (M1_NM,16) RF12(0,0)<1> RF12(0,0)<1;1,0> RF13(0,0)<1;1,0>\0Amax (M1_NM,16) RF15(0,0)<1> RF14(0,0)<1;1,0> RF15(0,0)<1;1,0>\0A(!INTERLEAVE_4) sel (M1_NM,16) RA0(1,0)<1>  RA2(0,14)<1;1,0>  RA0(0,0)<1;1,0>\0A (INTERLEAVE_4) sel (M1_NM,16) RA0(0,0)<1>  RA0(0,2)<1;1,0>   RA2(1,0)<1;1,0>\0A(!INTERLEAVE_4) sel (M1_NM,16) RA4(1,0)<1>  RA6(0,14)<1;1,0>  RA4(0,0)<1;1,0>\0A (INTERLEAVE_4) sel (M1_NM,16) RA4(0,0)<1>  RA4(0,2)<1;1,0>   RA6(1,0)<1;1,0>\0A(!INTERLEAVE_4) sel (M1_NM,16) RA8(1,0)<1>  RA10(0,14)<1;1,0> RA8(0,0)<1;1,0>\0A (INTERLEAVE_4) sel (M1_NM,16) RA8(0,0)<1>  RA8(0,2)<1;1,0>   RA10(1,0)<1;1,0>\0A(!INTERLEAVE_4) sel (M1_NM,16) RA12(1,0)<1> RA14(0,14)<1;1,0> RA12(0,0)<1;1,0>\0A (INTERLEAVE_4) sel (M1_NM,16) RA12(0,0)<1> RA12(0,2)<1;1,0>  RA14(1,0)<1;1,0>\0Amax (M1_NM,16) RF0(0,0)<1>  RF0(0,0)<1;1,0>  RF1(0,0)<1;1,0>\0Amax (M1_NM,16) RF5(0,0)<1>  RF4(0,0)<1;1,0>  RF5(0,0)<1;1,0>\0Amax (M1_NM,16) RF8(0,0)<1>  RF8(0,0)<1;1,0>  RF9(0,0)<1;1,0>\0Amax (M1_NM,16) RF13(0,0)<1> RF12(0,0)<1;1,0> RF13(0,0)<1;1,0>\0A(!INTERLEAVE_8) sel (M1_NM,16) RA0(1,0)<1> RA4(0,12)<1;1,0>  RA0(0,0)<1;1,0>\0A (INTERLEAVE_8) sel (M1_NM,16) RA0(0,0)<1> RA0(0,4)<1;1,0>   RA4(1,0)<1;1,0>\0A(!INTERLEAVE_8) sel (M1_NM,16) RA8(1,0)<1> RA12(0,12)<1;1,0> RA8(0,0)<1;1,0>\0A (INTERLEAVE_8) sel (M1_NM,16) RA8(0,0)<1> RA8(0,4)<1;1,0>   RA12(1,0)<1;1,0>\0Amax (M1_NM,16) RF0(0,0)<1> RF0(0,0)<1;1,0> RF1(0,0)<1;1,0>\0Amax (M1_NM,16) RF8(0,0)<1> RF8(0,0)<1;1,0> RF9(0,0)<1;1,0>\0Amov (M1_NM, 8) RA0(1,0)<1> RA0(0,8)<1;1,0>\0Amov (M1_NM, 8) RA8(1,8)<1> RA8(0,0)<1;1,0>\0Amax (M1_NM,8) $0(0,0)<1> RF0(0,0)<1;1,0> RF1(0,0)<1;1,0>\0Amax (M1_NM,8) $0(0,8)<1> RF8(0,8)<1;1,0> RF9(0,8)<1;1,0>\0A}\0A", "=rw,rw,rw,rw,rw,rw,rw,rw,rw,rw,rw,rw,rw,rw,rw,rw,rw"(float %460, float %464, float %468, float %472, float %476, float %480, float %484, float %488, float %492, float %496, float %500, float %504, float %508, float %512, float %516, float %520) #0		; visa id: 947
  %522 = fmul reassoc nsz arcp contract float %521, %const_reg_fp32, !spirv.Decorations !1233		; visa id: 947
  %523 = call float @llvm.maxnum.f32(float %.sroa.0121.1180, float %522)		; visa id: 948
  %524 = fmul reassoc nsz arcp contract float %457, %const_reg_fp32, !spirv.Decorations !1233
  %simdBroadcast106 = call float @llvm.genx.GenISA.WaveBroadcast.f32(float %523, i32 0, i32 0)
  %525 = fsub reassoc nsz arcp contract float %524, %simdBroadcast106, !spirv.Decorations !1233		; visa id: 949
  %526 = fmul reassoc nsz arcp contract float %461, %const_reg_fp32, !spirv.Decorations !1233
  %simdBroadcast106.1 = call float @llvm.genx.GenISA.WaveBroadcast.f32(float %523, i32 1, i32 0)
  %527 = fsub reassoc nsz arcp contract float %526, %simdBroadcast106.1, !spirv.Decorations !1233		; visa id: 950
  %528 = fmul reassoc nsz arcp contract float %465, %const_reg_fp32, !spirv.Decorations !1233
  %simdBroadcast106.2 = call float @llvm.genx.GenISA.WaveBroadcast.f32(float %523, i32 2, i32 0)
  %529 = fsub reassoc nsz arcp contract float %528, %simdBroadcast106.2, !spirv.Decorations !1233		; visa id: 951
  %530 = fmul reassoc nsz arcp contract float %469, %const_reg_fp32, !spirv.Decorations !1233
  %simdBroadcast106.3 = call float @llvm.genx.GenISA.WaveBroadcast.f32(float %523, i32 3, i32 0)
  %531 = fsub reassoc nsz arcp contract float %530, %simdBroadcast106.3, !spirv.Decorations !1233		; visa id: 952
  %532 = fmul reassoc nsz arcp contract float %473, %const_reg_fp32, !spirv.Decorations !1233
  %simdBroadcast106.4 = call float @llvm.genx.GenISA.WaveBroadcast.f32(float %523, i32 4, i32 0)
  %533 = fsub reassoc nsz arcp contract float %532, %simdBroadcast106.4, !spirv.Decorations !1233		; visa id: 953
  %534 = fmul reassoc nsz arcp contract float %477, %const_reg_fp32, !spirv.Decorations !1233
  %simdBroadcast106.5 = call float @llvm.genx.GenISA.WaveBroadcast.f32(float %523, i32 5, i32 0)
  %535 = fsub reassoc nsz arcp contract float %534, %simdBroadcast106.5, !spirv.Decorations !1233		; visa id: 954
  %536 = fmul reassoc nsz arcp contract float %481, %const_reg_fp32, !spirv.Decorations !1233
  %simdBroadcast106.6 = call float @llvm.genx.GenISA.WaveBroadcast.f32(float %523, i32 6, i32 0)
  %537 = fsub reassoc nsz arcp contract float %536, %simdBroadcast106.6, !spirv.Decorations !1233		; visa id: 955
  %538 = fmul reassoc nsz arcp contract float %485, %const_reg_fp32, !spirv.Decorations !1233
  %simdBroadcast106.7 = call float @llvm.genx.GenISA.WaveBroadcast.f32(float %523, i32 7, i32 0)
  %539 = fsub reassoc nsz arcp contract float %538, %simdBroadcast106.7, !spirv.Decorations !1233		; visa id: 956
  %540 = fmul reassoc nsz arcp contract float %489, %const_reg_fp32, !spirv.Decorations !1233
  %simdBroadcast106.8 = call float @llvm.genx.GenISA.WaveBroadcast.f32(float %523, i32 8, i32 0)
  %541 = fsub reassoc nsz arcp contract float %540, %simdBroadcast106.8, !spirv.Decorations !1233		; visa id: 957
  %542 = fmul reassoc nsz arcp contract float %493, %const_reg_fp32, !spirv.Decorations !1233
  %simdBroadcast106.9 = call float @llvm.genx.GenISA.WaveBroadcast.f32(float %523, i32 9, i32 0)
  %543 = fsub reassoc nsz arcp contract float %542, %simdBroadcast106.9, !spirv.Decorations !1233		; visa id: 958
  %544 = fmul reassoc nsz arcp contract float %497, %const_reg_fp32, !spirv.Decorations !1233
  %simdBroadcast106.10 = call float @llvm.genx.GenISA.WaveBroadcast.f32(float %523, i32 10, i32 0)
  %545 = fsub reassoc nsz arcp contract float %544, %simdBroadcast106.10, !spirv.Decorations !1233		; visa id: 959
  %546 = fmul reassoc nsz arcp contract float %501, %const_reg_fp32, !spirv.Decorations !1233
  %simdBroadcast106.11 = call float @llvm.genx.GenISA.WaveBroadcast.f32(float %523, i32 11, i32 0)
  %547 = fsub reassoc nsz arcp contract float %546, %simdBroadcast106.11, !spirv.Decorations !1233		; visa id: 960
  %548 = fmul reassoc nsz arcp contract float %505, %const_reg_fp32, !spirv.Decorations !1233
  %simdBroadcast106.12 = call float @llvm.genx.GenISA.WaveBroadcast.f32(float %523, i32 12, i32 0)
  %549 = fsub reassoc nsz arcp contract float %548, %simdBroadcast106.12, !spirv.Decorations !1233		; visa id: 961
  %550 = fmul reassoc nsz arcp contract float %509, %const_reg_fp32, !spirv.Decorations !1233
  %simdBroadcast106.13 = call float @llvm.genx.GenISA.WaveBroadcast.f32(float %523, i32 13, i32 0)
  %551 = fsub reassoc nsz arcp contract float %550, %simdBroadcast106.13, !spirv.Decorations !1233		; visa id: 962
  %552 = fmul reassoc nsz arcp contract float %513, %const_reg_fp32, !spirv.Decorations !1233
  %simdBroadcast106.14 = call float @llvm.genx.GenISA.WaveBroadcast.f32(float %523, i32 14, i32 0)
  %553 = fsub reassoc nsz arcp contract float %552, %simdBroadcast106.14, !spirv.Decorations !1233		; visa id: 963
  %554 = fmul reassoc nsz arcp contract float %517, %const_reg_fp32, !spirv.Decorations !1233
  %simdBroadcast106.15 = call float @llvm.genx.GenISA.WaveBroadcast.f32(float %523, i32 15, i32 0)
  %555 = fsub reassoc nsz arcp contract float %554, %simdBroadcast106.15, !spirv.Decorations !1233		; visa id: 964
  %556 = fmul reassoc nsz arcp contract float %458, %const_reg_fp32, !spirv.Decorations !1233
  %557 = fsub reassoc nsz arcp contract float %556, %simdBroadcast106, !spirv.Decorations !1233		; visa id: 965
  %558 = fmul reassoc nsz arcp contract float %462, %const_reg_fp32, !spirv.Decorations !1233
  %559 = fsub reassoc nsz arcp contract float %558, %simdBroadcast106.1, !spirv.Decorations !1233		; visa id: 966
  %560 = fmul reassoc nsz arcp contract float %466, %const_reg_fp32, !spirv.Decorations !1233
  %561 = fsub reassoc nsz arcp contract float %560, %simdBroadcast106.2, !spirv.Decorations !1233		; visa id: 967
  %562 = fmul reassoc nsz arcp contract float %470, %const_reg_fp32, !spirv.Decorations !1233
  %563 = fsub reassoc nsz arcp contract float %562, %simdBroadcast106.3, !spirv.Decorations !1233		; visa id: 968
  %564 = fmul reassoc nsz arcp contract float %474, %const_reg_fp32, !spirv.Decorations !1233
  %565 = fsub reassoc nsz arcp contract float %564, %simdBroadcast106.4, !spirv.Decorations !1233		; visa id: 969
  %566 = fmul reassoc nsz arcp contract float %478, %const_reg_fp32, !spirv.Decorations !1233
  %567 = fsub reassoc nsz arcp contract float %566, %simdBroadcast106.5, !spirv.Decorations !1233		; visa id: 970
  %568 = fmul reassoc nsz arcp contract float %482, %const_reg_fp32, !spirv.Decorations !1233
  %569 = fsub reassoc nsz arcp contract float %568, %simdBroadcast106.6, !spirv.Decorations !1233		; visa id: 971
  %570 = fmul reassoc nsz arcp contract float %486, %const_reg_fp32, !spirv.Decorations !1233
  %571 = fsub reassoc nsz arcp contract float %570, %simdBroadcast106.7, !spirv.Decorations !1233		; visa id: 972
  %572 = fmul reassoc nsz arcp contract float %490, %const_reg_fp32, !spirv.Decorations !1233
  %573 = fsub reassoc nsz arcp contract float %572, %simdBroadcast106.8, !spirv.Decorations !1233		; visa id: 973
  %574 = fmul reassoc nsz arcp contract float %494, %const_reg_fp32, !spirv.Decorations !1233
  %575 = fsub reassoc nsz arcp contract float %574, %simdBroadcast106.9, !spirv.Decorations !1233		; visa id: 974
  %576 = fmul reassoc nsz arcp contract float %498, %const_reg_fp32, !spirv.Decorations !1233
  %577 = fsub reassoc nsz arcp contract float %576, %simdBroadcast106.10, !spirv.Decorations !1233		; visa id: 975
  %578 = fmul reassoc nsz arcp contract float %502, %const_reg_fp32, !spirv.Decorations !1233
  %579 = fsub reassoc nsz arcp contract float %578, %simdBroadcast106.11, !spirv.Decorations !1233		; visa id: 976
  %580 = fmul reassoc nsz arcp contract float %506, %const_reg_fp32, !spirv.Decorations !1233
  %581 = fsub reassoc nsz arcp contract float %580, %simdBroadcast106.12, !spirv.Decorations !1233		; visa id: 977
  %582 = fmul reassoc nsz arcp contract float %510, %const_reg_fp32, !spirv.Decorations !1233
  %583 = fsub reassoc nsz arcp contract float %582, %simdBroadcast106.13, !spirv.Decorations !1233		; visa id: 978
  %584 = fmul reassoc nsz arcp contract float %514, %const_reg_fp32, !spirv.Decorations !1233
  %585 = fsub reassoc nsz arcp contract float %584, %simdBroadcast106.14, !spirv.Decorations !1233		; visa id: 979
  %586 = fmul reassoc nsz arcp contract float %518, %const_reg_fp32, !spirv.Decorations !1233
  %587 = fsub reassoc nsz arcp contract float %586, %simdBroadcast106.15, !spirv.Decorations !1233		; visa id: 980
  %588 = call float @llvm.exp2.f32(float %525)		; visa id: 981
  %589 = call float @llvm.exp2.f32(float %527)		; visa id: 982
  %590 = call float @llvm.exp2.f32(float %529)		; visa id: 983
  %591 = call float @llvm.exp2.f32(float %531)		; visa id: 984
  %592 = call float @llvm.exp2.f32(float %533)		; visa id: 985
  %593 = call float @llvm.exp2.f32(float %535)		; visa id: 986
  %594 = call float @llvm.exp2.f32(float %537)		; visa id: 987
  %595 = call float @llvm.exp2.f32(float %539)		; visa id: 988
  %596 = call float @llvm.exp2.f32(float %541)		; visa id: 989
  %597 = call float @llvm.exp2.f32(float %543)		; visa id: 990
  %598 = call float @llvm.exp2.f32(float %545)		; visa id: 991
  %599 = call float @llvm.exp2.f32(float %547)		; visa id: 992
  %600 = call float @llvm.exp2.f32(float %549)		; visa id: 993
  %601 = call float @llvm.exp2.f32(float %551)		; visa id: 994
  %602 = call float @llvm.exp2.f32(float %553)		; visa id: 995
  %603 = call float @llvm.exp2.f32(float %555)		; visa id: 996
  %604 = call float @llvm.exp2.f32(float %557)		; visa id: 997
  %605 = call float @llvm.exp2.f32(float %559)		; visa id: 998
  %606 = call float @llvm.exp2.f32(float %561)		; visa id: 999
  %607 = call float @llvm.exp2.f32(float %563)		; visa id: 1000
  %608 = call float @llvm.exp2.f32(float %565)		; visa id: 1001
  %609 = call float @llvm.exp2.f32(float %567)		; visa id: 1002
  %610 = call float @llvm.exp2.f32(float %569)		; visa id: 1003
  %611 = call float @llvm.exp2.f32(float %571)		; visa id: 1004
  %612 = call float @llvm.exp2.f32(float %573)		; visa id: 1005
  %613 = call float @llvm.exp2.f32(float %575)		; visa id: 1006
  %614 = call float @llvm.exp2.f32(float %577)		; visa id: 1007
  %615 = call float @llvm.exp2.f32(float %579)		; visa id: 1008
  %616 = call float @llvm.exp2.f32(float %581)		; visa id: 1009
  %617 = call float @llvm.exp2.f32(float %583)		; visa id: 1010
  %618 = call float @llvm.exp2.f32(float %585)		; visa id: 1011
  %619 = call float @llvm.exp2.f32(float %587)		; visa id: 1012
  %620 = icmp eq i32 %141, 0		; visa id: 1013
  br i1 %620, label %.loopexit4.i..loopexit.i_crit_edge, label %.loopexit.i.loopexit, !stats.blockFrequency.digits !1224, !stats.blockFrequency.scale !1218		; visa id: 1014

.loopexit4.i..loopexit.i_crit_edge:               ; preds = %.loopexit4.i
; BB:
  br label %.loopexit.i, !stats.blockFrequency.digits !1225, !stats.blockFrequency.scale !1226

.loopexit.i.loopexit:                             ; preds = %.loopexit4.i
; BB53 :
  %621 = fsub reassoc nsz arcp contract float %.sroa.0121.1180, %523, !spirv.Decorations !1233		; visa id: 1016
  %622 = call float @llvm.exp2.f32(float %621)		; visa id: 1017
  %simdBroadcast107 = call float @llvm.genx.GenISA.WaveBroadcast.f32(float %622, i32 0, i32 0)
  %623 = extractelement <8 x float> %.sroa.0.0, i32 0		; visa id: 1018
  %624 = fmul reassoc nsz arcp contract float %623, %simdBroadcast107, !spirv.Decorations !1233		; visa id: 1019
  %.sroa.0.0.vec.insert = insertelement <8 x float> poison, float %624, i64 0		; visa id: 1020
  %simdBroadcast107.1 = call float @llvm.genx.GenISA.WaveBroadcast.f32(float %622, i32 1, i32 0)
  %625 = extractelement <8 x float> %.sroa.0.0, i32 1		; visa id: 1021
  %626 = fmul reassoc nsz arcp contract float %625, %simdBroadcast107.1, !spirv.Decorations !1233		; visa id: 1022
  %.sroa.0.4.vec.insert = insertelement <8 x float> %.sroa.0.0.vec.insert, float %626, i64 1		; visa id: 1023
  %simdBroadcast107.2 = call float @llvm.genx.GenISA.WaveBroadcast.f32(float %622, i32 2, i32 0)
  %627 = extractelement <8 x float> %.sroa.0.0, i32 2		; visa id: 1024
  %628 = fmul reassoc nsz arcp contract float %627, %simdBroadcast107.2, !spirv.Decorations !1233		; visa id: 1025
  %.sroa.0.8.vec.insert = insertelement <8 x float> %.sroa.0.4.vec.insert, float %628, i64 2		; visa id: 1026
  %simdBroadcast107.3 = call float @llvm.genx.GenISA.WaveBroadcast.f32(float %622, i32 3, i32 0)
  %629 = extractelement <8 x float> %.sroa.0.0, i32 3		; visa id: 1027
  %630 = fmul reassoc nsz arcp contract float %629, %simdBroadcast107.3, !spirv.Decorations !1233		; visa id: 1028
  %.sroa.0.12.vec.insert = insertelement <8 x float> %.sroa.0.8.vec.insert, float %630, i64 3		; visa id: 1029
  %simdBroadcast107.4 = call float @llvm.genx.GenISA.WaveBroadcast.f32(float %622, i32 4, i32 0)
  %631 = extractelement <8 x float> %.sroa.0.0, i32 4		; visa id: 1030
  %632 = fmul reassoc nsz arcp contract float %631, %simdBroadcast107.4, !spirv.Decorations !1233		; visa id: 1031
  %.sroa.0.16.vec.insert = insertelement <8 x float> %.sroa.0.12.vec.insert, float %632, i64 4		; visa id: 1032
  %simdBroadcast107.5 = call float @llvm.genx.GenISA.WaveBroadcast.f32(float %622, i32 5, i32 0)
  %633 = extractelement <8 x float> %.sroa.0.0, i32 5		; visa id: 1033
  %634 = fmul reassoc nsz arcp contract float %633, %simdBroadcast107.5, !spirv.Decorations !1233		; visa id: 1034
  %.sroa.0.20.vec.insert = insertelement <8 x float> %.sroa.0.16.vec.insert, float %634, i64 5		; visa id: 1035
  %simdBroadcast107.6 = call float @llvm.genx.GenISA.WaveBroadcast.f32(float %622, i32 6, i32 0)
  %635 = extractelement <8 x float> %.sroa.0.0, i32 6		; visa id: 1036
  %636 = fmul reassoc nsz arcp contract float %635, %simdBroadcast107.6, !spirv.Decorations !1233		; visa id: 1037
  %.sroa.0.24.vec.insert = insertelement <8 x float> %.sroa.0.20.vec.insert, float %636, i64 6		; visa id: 1038
  %simdBroadcast107.7 = call float @llvm.genx.GenISA.WaveBroadcast.f32(float %622, i32 7, i32 0)
  %637 = extractelement <8 x float> %.sroa.0.0, i32 7		; visa id: 1039
  %638 = fmul reassoc nsz arcp contract float %637, %simdBroadcast107.7, !spirv.Decorations !1233		; visa id: 1040
  %.sroa.0.28.vec.insert = insertelement <8 x float> %.sroa.0.24.vec.insert, float %638, i64 7		; visa id: 1041
  %simdBroadcast107.8 = call float @llvm.genx.GenISA.WaveBroadcast.f32(float %622, i32 8, i32 0)
  %639 = extractelement <8 x float> %.sroa.32.0, i32 0		; visa id: 1042
  %640 = fmul reassoc nsz arcp contract float %639, %simdBroadcast107.8, !spirv.Decorations !1233		; visa id: 1043
  %.sroa.32.32.vec.insert = insertelement <8 x float> poison, float %640, i64 0		; visa id: 1044
  %simdBroadcast107.9 = call float @llvm.genx.GenISA.WaveBroadcast.f32(float %622, i32 9, i32 0)
  %641 = extractelement <8 x float> %.sroa.32.0, i32 1		; visa id: 1045
  %642 = fmul reassoc nsz arcp contract float %641, %simdBroadcast107.9, !spirv.Decorations !1233		; visa id: 1046
  %.sroa.32.36.vec.insert = insertelement <8 x float> %.sroa.32.32.vec.insert, float %642, i64 1		; visa id: 1047
  %simdBroadcast107.10 = call float @llvm.genx.GenISA.WaveBroadcast.f32(float %622, i32 10, i32 0)
  %643 = extractelement <8 x float> %.sroa.32.0, i32 2		; visa id: 1048
  %644 = fmul reassoc nsz arcp contract float %643, %simdBroadcast107.10, !spirv.Decorations !1233		; visa id: 1049
  %.sroa.32.40.vec.insert = insertelement <8 x float> %.sroa.32.36.vec.insert, float %644, i64 2		; visa id: 1050
  %simdBroadcast107.11 = call float @llvm.genx.GenISA.WaveBroadcast.f32(float %622, i32 11, i32 0)
  %645 = extractelement <8 x float> %.sroa.32.0, i32 3		; visa id: 1051
  %646 = fmul reassoc nsz arcp contract float %645, %simdBroadcast107.11, !spirv.Decorations !1233		; visa id: 1052
  %.sroa.32.44.vec.insert = insertelement <8 x float> %.sroa.32.40.vec.insert, float %646, i64 3		; visa id: 1053
  %simdBroadcast107.12 = call float @llvm.genx.GenISA.WaveBroadcast.f32(float %622, i32 12, i32 0)
  %647 = extractelement <8 x float> %.sroa.32.0, i32 4		; visa id: 1054
  %648 = fmul reassoc nsz arcp contract float %647, %simdBroadcast107.12, !spirv.Decorations !1233		; visa id: 1055
  %.sroa.32.48.vec.insert = insertelement <8 x float> %.sroa.32.44.vec.insert, float %648, i64 4		; visa id: 1056
  %simdBroadcast107.13 = call float @llvm.genx.GenISA.WaveBroadcast.f32(float %622, i32 13, i32 0)
  %649 = extractelement <8 x float> %.sroa.32.0, i32 5		; visa id: 1057
  %650 = fmul reassoc nsz arcp contract float %649, %simdBroadcast107.13, !spirv.Decorations !1233		; visa id: 1058
  %.sroa.32.52.vec.insert = insertelement <8 x float> %.sroa.32.48.vec.insert, float %650, i64 5		; visa id: 1059
  %simdBroadcast107.14 = call float @llvm.genx.GenISA.WaveBroadcast.f32(float %622, i32 14, i32 0)
  %651 = extractelement <8 x float> %.sroa.32.0, i32 6		; visa id: 1060
  %652 = fmul reassoc nsz arcp contract float %651, %simdBroadcast107.14, !spirv.Decorations !1233		; visa id: 1061
  %.sroa.32.56.vec.insert = insertelement <8 x float> %.sroa.32.52.vec.insert, float %652, i64 6		; visa id: 1062
  %simdBroadcast107.15 = call float @llvm.genx.GenISA.WaveBroadcast.f32(float %622, i32 15, i32 0)
  %653 = extractelement <8 x float> %.sroa.32.0, i32 7		; visa id: 1063
  %654 = fmul reassoc nsz arcp contract float %653, %simdBroadcast107.15, !spirv.Decorations !1233		; visa id: 1064
  %.sroa.32.60.vec.insert = insertelement <8 x float> %.sroa.32.56.vec.insert, float %654, i64 7		; visa id: 1065
  %655 = extractelement <8 x float> %.sroa.60.0, i32 0		; visa id: 1066
  %656 = fmul reassoc nsz arcp contract float %655, %simdBroadcast107, !spirv.Decorations !1233		; visa id: 1067
  %.sroa.60.64.vec.insert = insertelement <8 x float> poison, float %656, i64 0		; visa id: 1068
  %657 = extractelement <8 x float> %.sroa.60.0, i32 1		; visa id: 1069
  %658 = fmul reassoc nsz arcp contract float %657, %simdBroadcast107.1, !spirv.Decorations !1233		; visa id: 1070
  %.sroa.60.68.vec.insert = insertelement <8 x float> %.sroa.60.64.vec.insert, float %658, i64 1		; visa id: 1071
  %659 = extractelement <8 x float> %.sroa.60.0, i32 2		; visa id: 1072
  %660 = fmul reassoc nsz arcp contract float %659, %simdBroadcast107.2, !spirv.Decorations !1233		; visa id: 1073
  %.sroa.60.72.vec.insert = insertelement <8 x float> %.sroa.60.68.vec.insert, float %660, i64 2		; visa id: 1074
  %661 = extractelement <8 x float> %.sroa.60.0, i32 3		; visa id: 1075
  %662 = fmul reassoc nsz arcp contract float %661, %simdBroadcast107.3, !spirv.Decorations !1233		; visa id: 1076
  %.sroa.60.76.vec.insert = insertelement <8 x float> %.sroa.60.72.vec.insert, float %662, i64 3		; visa id: 1077
  %663 = extractelement <8 x float> %.sroa.60.0, i32 4		; visa id: 1078
  %664 = fmul reassoc nsz arcp contract float %663, %simdBroadcast107.4, !spirv.Decorations !1233		; visa id: 1079
  %.sroa.60.80.vec.insert = insertelement <8 x float> %.sroa.60.76.vec.insert, float %664, i64 4		; visa id: 1080
  %665 = extractelement <8 x float> %.sroa.60.0, i32 5		; visa id: 1081
  %666 = fmul reassoc nsz arcp contract float %665, %simdBroadcast107.5, !spirv.Decorations !1233		; visa id: 1082
  %.sroa.60.84.vec.insert = insertelement <8 x float> %.sroa.60.80.vec.insert, float %666, i64 5		; visa id: 1083
  %667 = extractelement <8 x float> %.sroa.60.0, i32 6		; visa id: 1084
  %668 = fmul reassoc nsz arcp contract float %667, %simdBroadcast107.6, !spirv.Decorations !1233		; visa id: 1085
  %.sroa.60.88.vec.insert = insertelement <8 x float> %.sroa.60.84.vec.insert, float %668, i64 6		; visa id: 1086
  %669 = extractelement <8 x float> %.sroa.60.0, i32 7		; visa id: 1087
  %670 = fmul reassoc nsz arcp contract float %669, %simdBroadcast107.7, !spirv.Decorations !1233		; visa id: 1088
  %.sroa.60.92.vec.insert = insertelement <8 x float> %.sroa.60.88.vec.insert, float %670, i64 7		; visa id: 1089
  %671 = extractelement <8 x float> %.sroa.88.0, i32 0		; visa id: 1090
  %672 = fmul reassoc nsz arcp contract float %671, %simdBroadcast107.8, !spirv.Decorations !1233		; visa id: 1091
  %.sroa.88.96.vec.insert = insertelement <8 x float> poison, float %672, i64 0		; visa id: 1092
  %673 = extractelement <8 x float> %.sroa.88.0, i32 1		; visa id: 1093
  %674 = fmul reassoc nsz arcp contract float %673, %simdBroadcast107.9, !spirv.Decorations !1233		; visa id: 1094
  %.sroa.88.100.vec.insert = insertelement <8 x float> %.sroa.88.96.vec.insert, float %674, i64 1		; visa id: 1095
  %675 = extractelement <8 x float> %.sroa.88.0, i32 2		; visa id: 1096
  %676 = fmul reassoc nsz arcp contract float %675, %simdBroadcast107.10, !spirv.Decorations !1233		; visa id: 1097
  %.sroa.88.104.vec.insert = insertelement <8 x float> %.sroa.88.100.vec.insert, float %676, i64 2		; visa id: 1098
  %677 = extractelement <8 x float> %.sroa.88.0, i32 3		; visa id: 1099
  %678 = fmul reassoc nsz arcp contract float %677, %simdBroadcast107.11, !spirv.Decorations !1233		; visa id: 1100
  %.sroa.88.108.vec.insert = insertelement <8 x float> %.sroa.88.104.vec.insert, float %678, i64 3		; visa id: 1101
  %679 = extractelement <8 x float> %.sroa.88.0, i32 4		; visa id: 1102
  %680 = fmul reassoc nsz arcp contract float %679, %simdBroadcast107.12, !spirv.Decorations !1233		; visa id: 1103
  %.sroa.88.112.vec.insert = insertelement <8 x float> %.sroa.88.108.vec.insert, float %680, i64 4		; visa id: 1104
  %681 = extractelement <8 x float> %.sroa.88.0, i32 5		; visa id: 1105
  %682 = fmul reassoc nsz arcp contract float %681, %simdBroadcast107.13, !spirv.Decorations !1233		; visa id: 1106
  %.sroa.88.116.vec.insert = insertelement <8 x float> %.sroa.88.112.vec.insert, float %682, i64 5		; visa id: 1107
  %683 = extractelement <8 x float> %.sroa.88.0, i32 6		; visa id: 1108
  %684 = fmul reassoc nsz arcp contract float %683, %simdBroadcast107.14, !spirv.Decorations !1233		; visa id: 1109
  %.sroa.88.120.vec.insert = insertelement <8 x float> %.sroa.88.116.vec.insert, float %684, i64 6		; visa id: 1110
  %685 = extractelement <8 x float> %.sroa.88.0, i32 7		; visa id: 1111
  %686 = fmul reassoc nsz arcp contract float %685, %simdBroadcast107.15, !spirv.Decorations !1233		; visa id: 1112
  %.sroa.88.124.vec.insert = insertelement <8 x float> %.sroa.88.120.vec.insert, float %686, i64 7		; visa id: 1113
  %687 = extractelement <8 x float> %.sroa.116.0, i32 0		; visa id: 1114
  %688 = fmul reassoc nsz arcp contract float %687, %simdBroadcast107, !spirv.Decorations !1233		; visa id: 1115
  %.sroa.116.128.vec.insert = insertelement <8 x float> poison, float %688, i64 0		; visa id: 1116
  %689 = extractelement <8 x float> %.sroa.116.0, i32 1		; visa id: 1117
  %690 = fmul reassoc nsz arcp contract float %689, %simdBroadcast107.1, !spirv.Decorations !1233		; visa id: 1118
  %.sroa.116.132.vec.insert = insertelement <8 x float> %.sroa.116.128.vec.insert, float %690, i64 1		; visa id: 1119
  %691 = extractelement <8 x float> %.sroa.116.0, i32 2		; visa id: 1120
  %692 = fmul reassoc nsz arcp contract float %691, %simdBroadcast107.2, !spirv.Decorations !1233		; visa id: 1121
  %.sroa.116.136.vec.insert = insertelement <8 x float> %.sroa.116.132.vec.insert, float %692, i64 2		; visa id: 1122
  %693 = extractelement <8 x float> %.sroa.116.0, i32 3		; visa id: 1123
  %694 = fmul reassoc nsz arcp contract float %693, %simdBroadcast107.3, !spirv.Decorations !1233		; visa id: 1124
  %.sroa.116.140.vec.insert = insertelement <8 x float> %.sroa.116.136.vec.insert, float %694, i64 3		; visa id: 1125
  %695 = extractelement <8 x float> %.sroa.116.0, i32 4		; visa id: 1126
  %696 = fmul reassoc nsz arcp contract float %695, %simdBroadcast107.4, !spirv.Decorations !1233		; visa id: 1127
  %.sroa.116.144.vec.insert = insertelement <8 x float> %.sroa.116.140.vec.insert, float %696, i64 4		; visa id: 1128
  %697 = extractelement <8 x float> %.sroa.116.0, i32 5		; visa id: 1129
  %698 = fmul reassoc nsz arcp contract float %697, %simdBroadcast107.5, !spirv.Decorations !1233		; visa id: 1130
  %.sroa.116.148.vec.insert = insertelement <8 x float> %.sroa.116.144.vec.insert, float %698, i64 5		; visa id: 1131
  %699 = extractelement <8 x float> %.sroa.116.0, i32 6		; visa id: 1132
  %700 = fmul reassoc nsz arcp contract float %699, %simdBroadcast107.6, !spirv.Decorations !1233		; visa id: 1133
  %.sroa.116.152.vec.insert = insertelement <8 x float> %.sroa.116.148.vec.insert, float %700, i64 6		; visa id: 1134
  %701 = extractelement <8 x float> %.sroa.116.0, i32 7		; visa id: 1135
  %702 = fmul reassoc nsz arcp contract float %701, %simdBroadcast107.7, !spirv.Decorations !1233		; visa id: 1136
  %.sroa.116.156.vec.insert = insertelement <8 x float> %.sroa.116.152.vec.insert, float %702, i64 7		; visa id: 1137
  %703 = extractelement <8 x float> %.sroa.144.0, i32 0		; visa id: 1138
  %704 = fmul reassoc nsz arcp contract float %703, %simdBroadcast107.8, !spirv.Decorations !1233		; visa id: 1139
  %.sroa.144.160.vec.insert = insertelement <8 x float> poison, float %704, i64 0		; visa id: 1140
  %705 = extractelement <8 x float> %.sroa.144.0, i32 1		; visa id: 1141
  %706 = fmul reassoc nsz arcp contract float %705, %simdBroadcast107.9, !spirv.Decorations !1233		; visa id: 1142
  %.sroa.144.164.vec.insert = insertelement <8 x float> %.sroa.144.160.vec.insert, float %706, i64 1		; visa id: 1143
  %707 = extractelement <8 x float> %.sroa.144.0, i32 2		; visa id: 1144
  %708 = fmul reassoc nsz arcp contract float %707, %simdBroadcast107.10, !spirv.Decorations !1233		; visa id: 1145
  %.sroa.144.168.vec.insert = insertelement <8 x float> %.sroa.144.164.vec.insert, float %708, i64 2		; visa id: 1146
  %709 = extractelement <8 x float> %.sroa.144.0, i32 3		; visa id: 1147
  %710 = fmul reassoc nsz arcp contract float %709, %simdBroadcast107.11, !spirv.Decorations !1233		; visa id: 1148
  %.sroa.144.172.vec.insert = insertelement <8 x float> %.sroa.144.168.vec.insert, float %710, i64 3		; visa id: 1149
  %711 = extractelement <8 x float> %.sroa.144.0, i32 4		; visa id: 1150
  %712 = fmul reassoc nsz arcp contract float %711, %simdBroadcast107.12, !spirv.Decorations !1233		; visa id: 1151
  %.sroa.144.176.vec.insert = insertelement <8 x float> %.sroa.144.172.vec.insert, float %712, i64 4		; visa id: 1152
  %713 = extractelement <8 x float> %.sroa.144.0, i32 5		; visa id: 1153
  %714 = fmul reassoc nsz arcp contract float %713, %simdBroadcast107.13, !spirv.Decorations !1233		; visa id: 1154
  %.sroa.144.180.vec.insert = insertelement <8 x float> %.sroa.144.176.vec.insert, float %714, i64 5		; visa id: 1155
  %715 = extractelement <8 x float> %.sroa.144.0, i32 6		; visa id: 1156
  %716 = fmul reassoc nsz arcp contract float %715, %simdBroadcast107.14, !spirv.Decorations !1233		; visa id: 1157
  %.sroa.144.184.vec.insert = insertelement <8 x float> %.sroa.144.180.vec.insert, float %716, i64 6		; visa id: 1158
  %717 = extractelement <8 x float> %.sroa.144.0, i32 7		; visa id: 1159
  %718 = fmul reassoc nsz arcp contract float %717, %simdBroadcast107.15, !spirv.Decorations !1233		; visa id: 1160
  %.sroa.144.188.vec.insert = insertelement <8 x float> %.sroa.144.184.vec.insert, float %718, i64 7		; visa id: 1161
  %719 = extractelement <8 x float> %.sroa.172.0, i32 0		; visa id: 1162
  %720 = fmul reassoc nsz arcp contract float %719, %simdBroadcast107, !spirv.Decorations !1233		; visa id: 1163
  %.sroa.172.192.vec.insert = insertelement <8 x float> poison, float %720, i64 0		; visa id: 1164
  %721 = extractelement <8 x float> %.sroa.172.0, i32 1		; visa id: 1165
  %722 = fmul reassoc nsz arcp contract float %721, %simdBroadcast107.1, !spirv.Decorations !1233		; visa id: 1166
  %.sroa.172.196.vec.insert = insertelement <8 x float> %.sroa.172.192.vec.insert, float %722, i64 1		; visa id: 1167
  %723 = extractelement <8 x float> %.sroa.172.0, i32 2		; visa id: 1168
  %724 = fmul reassoc nsz arcp contract float %723, %simdBroadcast107.2, !spirv.Decorations !1233		; visa id: 1169
  %.sroa.172.200.vec.insert = insertelement <8 x float> %.sroa.172.196.vec.insert, float %724, i64 2		; visa id: 1170
  %725 = extractelement <8 x float> %.sroa.172.0, i32 3		; visa id: 1171
  %726 = fmul reassoc nsz arcp contract float %725, %simdBroadcast107.3, !spirv.Decorations !1233		; visa id: 1172
  %.sroa.172.204.vec.insert = insertelement <8 x float> %.sroa.172.200.vec.insert, float %726, i64 3		; visa id: 1173
  %727 = extractelement <8 x float> %.sroa.172.0, i32 4		; visa id: 1174
  %728 = fmul reassoc nsz arcp contract float %727, %simdBroadcast107.4, !spirv.Decorations !1233		; visa id: 1175
  %.sroa.172.208.vec.insert = insertelement <8 x float> %.sroa.172.204.vec.insert, float %728, i64 4		; visa id: 1176
  %729 = extractelement <8 x float> %.sroa.172.0, i32 5		; visa id: 1177
  %730 = fmul reassoc nsz arcp contract float %729, %simdBroadcast107.5, !spirv.Decorations !1233		; visa id: 1178
  %.sroa.172.212.vec.insert = insertelement <8 x float> %.sroa.172.208.vec.insert, float %730, i64 5		; visa id: 1179
  %731 = extractelement <8 x float> %.sroa.172.0, i32 6		; visa id: 1180
  %732 = fmul reassoc nsz arcp contract float %731, %simdBroadcast107.6, !spirv.Decorations !1233		; visa id: 1181
  %.sroa.172.216.vec.insert = insertelement <8 x float> %.sroa.172.212.vec.insert, float %732, i64 6		; visa id: 1182
  %733 = extractelement <8 x float> %.sroa.172.0, i32 7		; visa id: 1183
  %734 = fmul reassoc nsz arcp contract float %733, %simdBroadcast107.7, !spirv.Decorations !1233		; visa id: 1184
  %.sroa.172.220.vec.insert = insertelement <8 x float> %.sroa.172.216.vec.insert, float %734, i64 7		; visa id: 1185
  %735 = extractelement <8 x float> %.sroa.200.0, i32 0		; visa id: 1186
  %736 = fmul reassoc nsz arcp contract float %735, %simdBroadcast107.8, !spirv.Decorations !1233		; visa id: 1187
  %.sroa.200.224.vec.insert = insertelement <8 x float> poison, float %736, i64 0		; visa id: 1188
  %737 = extractelement <8 x float> %.sroa.200.0, i32 1		; visa id: 1189
  %738 = fmul reassoc nsz arcp contract float %737, %simdBroadcast107.9, !spirv.Decorations !1233		; visa id: 1190
  %.sroa.200.228.vec.insert = insertelement <8 x float> %.sroa.200.224.vec.insert, float %738, i64 1		; visa id: 1191
  %739 = extractelement <8 x float> %.sroa.200.0, i32 2		; visa id: 1192
  %740 = fmul reassoc nsz arcp contract float %739, %simdBroadcast107.10, !spirv.Decorations !1233		; visa id: 1193
  %.sroa.200.232.vec.insert = insertelement <8 x float> %.sroa.200.228.vec.insert, float %740, i64 2		; visa id: 1194
  %741 = extractelement <8 x float> %.sroa.200.0, i32 3		; visa id: 1195
  %742 = fmul reassoc nsz arcp contract float %741, %simdBroadcast107.11, !spirv.Decorations !1233		; visa id: 1196
  %.sroa.200.236.vec.insert = insertelement <8 x float> %.sroa.200.232.vec.insert, float %742, i64 3		; visa id: 1197
  %743 = extractelement <8 x float> %.sroa.200.0, i32 4		; visa id: 1198
  %744 = fmul reassoc nsz arcp contract float %743, %simdBroadcast107.12, !spirv.Decorations !1233		; visa id: 1199
  %.sroa.200.240.vec.insert = insertelement <8 x float> %.sroa.200.236.vec.insert, float %744, i64 4		; visa id: 1200
  %745 = extractelement <8 x float> %.sroa.200.0, i32 5		; visa id: 1201
  %746 = fmul reassoc nsz arcp contract float %745, %simdBroadcast107.13, !spirv.Decorations !1233		; visa id: 1202
  %.sroa.200.244.vec.insert = insertelement <8 x float> %.sroa.200.240.vec.insert, float %746, i64 5		; visa id: 1203
  %747 = extractelement <8 x float> %.sroa.200.0, i32 6		; visa id: 1204
  %748 = fmul reassoc nsz arcp contract float %747, %simdBroadcast107.14, !spirv.Decorations !1233		; visa id: 1205
  %.sroa.200.248.vec.insert = insertelement <8 x float> %.sroa.200.244.vec.insert, float %748, i64 6		; visa id: 1206
  %749 = extractelement <8 x float> %.sroa.200.0, i32 7		; visa id: 1207
  %750 = fmul reassoc nsz arcp contract float %749, %simdBroadcast107.15, !spirv.Decorations !1233		; visa id: 1208
  %.sroa.200.252.vec.insert = insertelement <8 x float> %.sroa.200.248.vec.insert, float %750, i64 7		; visa id: 1209
  %751 = extractelement <8 x float> %.sroa.228.0, i32 0		; visa id: 1210
  %752 = fmul reassoc nsz arcp contract float %751, %simdBroadcast107, !spirv.Decorations !1233		; visa id: 1211
  %.sroa.228.256.vec.insert = insertelement <8 x float> poison, float %752, i64 0		; visa id: 1212
  %753 = extractelement <8 x float> %.sroa.228.0, i32 1		; visa id: 1213
  %754 = fmul reassoc nsz arcp contract float %753, %simdBroadcast107.1, !spirv.Decorations !1233		; visa id: 1214
  %.sroa.228.260.vec.insert = insertelement <8 x float> %.sroa.228.256.vec.insert, float %754, i64 1		; visa id: 1215
  %755 = extractelement <8 x float> %.sroa.228.0, i32 2		; visa id: 1216
  %756 = fmul reassoc nsz arcp contract float %755, %simdBroadcast107.2, !spirv.Decorations !1233		; visa id: 1217
  %.sroa.228.264.vec.insert = insertelement <8 x float> %.sroa.228.260.vec.insert, float %756, i64 2		; visa id: 1218
  %757 = extractelement <8 x float> %.sroa.228.0, i32 3		; visa id: 1219
  %758 = fmul reassoc nsz arcp contract float %757, %simdBroadcast107.3, !spirv.Decorations !1233		; visa id: 1220
  %.sroa.228.268.vec.insert = insertelement <8 x float> %.sroa.228.264.vec.insert, float %758, i64 3		; visa id: 1221
  %759 = extractelement <8 x float> %.sroa.228.0, i32 4		; visa id: 1222
  %760 = fmul reassoc nsz arcp contract float %759, %simdBroadcast107.4, !spirv.Decorations !1233		; visa id: 1223
  %.sroa.228.272.vec.insert = insertelement <8 x float> %.sroa.228.268.vec.insert, float %760, i64 4		; visa id: 1224
  %761 = extractelement <8 x float> %.sroa.228.0, i32 5		; visa id: 1225
  %762 = fmul reassoc nsz arcp contract float %761, %simdBroadcast107.5, !spirv.Decorations !1233		; visa id: 1226
  %.sroa.228.276.vec.insert = insertelement <8 x float> %.sroa.228.272.vec.insert, float %762, i64 5		; visa id: 1227
  %763 = extractelement <8 x float> %.sroa.228.0, i32 6		; visa id: 1228
  %764 = fmul reassoc nsz arcp contract float %763, %simdBroadcast107.6, !spirv.Decorations !1233		; visa id: 1229
  %.sroa.228.280.vec.insert = insertelement <8 x float> %.sroa.228.276.vec.insert, float %764, i64 6		; visa id: 1230
  %765 = extractelement <8 x float> %.sroa.228.0, i32 7		; visa id: 1231
  %766 = fmul reassoc nsz arcp contract float %765, %simdBroadcast107.7, !spirv.Decorations !1233		; visa id: 1232
  %.sroa.228.284.vec.insert = insertelement <8 x float> %.sroa.228.280.vec.insert, float %766, i64 7		; visa id: 1233
  %767 = extractelement <8 x float> %.sroa.256.0, i32 0		; visa id: 1234
  %768 = fmul reassoc nsz arcp contract float %767, %simdBroadcast107.8, !spirv.Decorations !1233		; visa id: 1235
  %.sroa.256.288.vec.insert = insertelement <8 x float> poison, float %768, i64 0		; visa id: 1236
  %769 = extractelement <8 x float> %.sroa.256.0, i32 1		; visa id: 1237
  %770 = fmul reassoc nsz arcp contract float %769, %simdBroadcast107.9, !spirv.Decorations !1233		; visa id: 1238
  %.sroa.256.292.vec.insert = insertelement <8 x float> %.sroa.256.288.vec.insert, float %770, i64 1		; visa id: 1239
  %771 = extractelement <8 x float> %.sroa.256.0, i32 2		; visa id: 1240
  %772 = fmul reassoc nsz arcp contract float %771, %simdBroadcast107.10, !spirv.Decorations !1233		; visa id: 1241
  %.sroa.256.296.vec.insert = insertelement <8 x float> %.sroa.256.292.vec.insert, float %772, i64 2		; visa id: 1242
  %773 = extractelement <8 x float> %.sroa.256.0, i32 3		; visa id: 1243
  %774 = fmul reassoc nsz arcp contract float %773, %simdBroadcast107.11, !spirv.Decorations !1233		; visa id: 1244
  %.sroa.256.300.vec.insert = insertelement <8 x float> %.sroa.256.296.vec.insert, float %774, i64 3		; visa id: 1245
  %775 = extractelement <8 x float> %.sroa.256.0, i32 4		; visa id: 1246
  %776 = fmul reassoc nsz arcp contract float %775, %simdBroadcast107.12, !spirv.Decorations !1233		; visa id: 1247
  %.sroa.256.304.vec.insert = insertelement <8 x float> %.sroa.256.300.vec.insert, float %776, i64 4		; visa id: 1248
  %777 = extractelement <8 x float> %.sroa.256.0, i32 5		; visa id: 1249
  %778 = fmul reassoc nsz arcp contract float %777, %simdBroadcast107.13, !spirv.Decorations !1233		; visa id: 1250
  %.sroa.256.308.vec.insert = insertelement <8 x float> %.sroa.256.304.vec.insert, float %778, i64 5		; visa id: 1251
  %779 = extractelement <8 x float> %.sroa.256.0, i32 6		; visa id: 1252
  %780 = fmul reassoc nsz arcp contract float %779, %simdBroadcast107.14, !spirv.Decorations !1233		; visa id: 1253
  %.sroa.256.312.vec.insert = insertelement <8 x float> %.sroa.256.308.vec.insert, float %780, i64 6		; visa id: 1254
  %781 = extractelement <8 x float> %.sroa.256.0, i32 7		; visa id: 1255
  %782 = fmul reassoc nsz arcp contract float %781, %simdBroadcast107.15, !spirv.Decorations !1233		; visa id: 1256
  %.sroa.256.316.vec.insert = insertelement <8 x float> %.sroa.256.312.vec.insert, float %782, i64 7		; visa id: 1257
  %783 = extractelement <8 x float> %.sroa.284.0, i32 0		; visa id: 1258
  %784 = fmul reassoc nsz arcp contract float %783, %simdBroadcast107, !spirv.Decorations !1233		; visa id: 1259
  %.sroa.284.320.vec.insert = insertelement <8 x float> poison, float %784, i64 0		; visa id: 1260
  %785 = extractelement <8 x float> %.sroa.284.0, i32 1		; visa id: 1261
  %786 = fmul reassoc nsz arcp contract float %785, %simdBroadcast107.1, !spirv.Decorations !1233		; visa id: 1262
  %.sroa.284.324.vec.insert = insertelement <8 x float> %.sroa.284.320.vec.insert, float %786, i64 1		; visa id: 1263
  %787 = extractelement <8 x float> %.sroa.284.0, i32 2		; visa id: 1264
  %788 = fmul reassoc nsz arcp contract float %787, %simdBroadcast107.2, !spirv.Decorations !1233		; visa id: 1265
  %.sroa.284.328.vec.insert = insertelement <8 x float> %.sroa.284.324.vec.insert, float %788, i64 2		; visa id: 1266
  %789 = extractelement <8 x float> %.sroa.284.0, i32 3		; visa id: 1267
  %790 = fmul reassoc nsz arcp contract float %789, %simdBroadcast107.3, !spirv.Decorations !1233		; visa id: 1268
  %.sroa.284.332.vec.insert = insertelement <8 x float> %.sroa.284.328.vec.insert, float %790, i64 3		; visa id: 1269
  %791 = extractelement <8 x float> %.sroa.284.0, i32 4		; visa id: 1270
  %792 = fmul reassoc nsz arcp contract float %791, %simdBroadcast107.4, !spirv.Decorations !1233		; visa id: 1271
  %.sroa.284.336.vec.insert = insertelement <8 x float> %.sroa.284.332.vec.insert, float %792, i64 4		; visa id: 1272
  %793 = extractelement <8 x float> %.sroa.284.0, i32 5		; visa id: 1273
  %794 = fmul reassoc nsz arcp contract float %793, %simdBroadcast107.5, !spirv.Decorations !1233		; visa id: 1274
  %.sroa.284.340.vec.insert = insertelement <8 x float> %.sroa.284.336.vec.insert, float %794, i64 5		; visa id: 1275
  %795 = extractelement <8 x float> %.sroa.284.0, i32 6		; visa id: 1276
  %796 = fmul reassoc nsz arcp contract float %795, %simdBroadcast107.6, !spirv.Decorations !1233		; visa id: 1277
  %.sroa.284.344.vec.insert = insertelement <8 x float> %.sroa.284.340.vec.insert, float %796, i64 6		; visa id: 1278
  %797 = extractelement <8 x float> %.sroa.284.0, i32 7		; visa id: 1279
  %798 = fmul reassoc nsz arcp contract float %797, %simdBroadcast107.7, !spirv.Decorations !1233		; visa id: 1280
  %.sroa.284.348.vec.insert = insertelement <8 x float> %.sroa.284.344.vec.insert, float %798, i64 7		; visa id: 1281
  %799 = extractelement <8 x float> %.sroa.312.0, i32 0		; visa id: 1282
  %800 = fmul reassoc nsz arcp contract float %799, %simdBroadcast107.8, !spirv.Decorations !1233		; visa id: 1283
  %.sroa.312.352.vec.insert = insertelement <8 x float> poison, float %800, i64 0		; visa id: 1284
  %801 = extractelement <8 x float> %.sroa.312.0, i32 1		; visa id: 1285
  %802 = fmul reassoc nsz arcp contract float %801, %simdBroadcast107.9, !spirv.Decorations !1233		; visa id: 1286
  %.sroa.312.356.vec.insert = insertelement <8 x float> %.sroa.312.352.vec.insert, float %802, i64 1		; visa id: 1287
  %803 = extractelement <8 x float> %.sroa.312.0, i32 2		; visa id: 1288
  %804 = fmul reassoc nsz arcp contract float %803, %simdBroadcast107.10, !spirv.Decorations !1233		; visa id: 1289
  %.sroa.312.360.vec.insert = insertelement <8 x float> %.sroa.312.356.vec.insert, float %804, i64 2		; visa id: 1290
  %805 = extractelement <8 x float> %.sroa.312.0, i32 3		; visa id: 1291
  %806 = fmul reassoc nsz arcp contract float %805, %simdBroadcast107.11, !spirv.Decorations !1233		; visa id: 1292
  %.sroa.312.364.vec.insert = insertelement <8 x float> %.sroa.312.360.vec.insert, float %806, i64 3		; visa id: 1293
  %807 = extractelement <8 x float> %.sroa.312.0, i32 4		; visa id: 1294
  %808 = fmul reassoc nsz arcp contract float %807, %simdBroadcast107.12, !spirv.Decorations !1233		; visa id: 1295
  %.sroa.312.368.vec.insert = insertelement <8 x float> %.sroa.312.364.vec.insert, float %808, i64 4		; visa id: 1296
  %809 = extractelement <8 x float> %.sroa.312.0, i32 5		; visa id: 1297
  %810 = fmul reassoc nsz arcp contract float %809, %simdBroadcast107.13, !spirv.Decorations !1233		; visa id: 1298
  %.sroa.312.372.vec.insert = insertelement <8 x float> %.sroa.312.368.vec.insert, float %810, i64 5		; visa id: 1299
  %811 = extractelement <8 x float> %.sroa.312.0, i32 6		; visa id: 1300
  %812 = fmul reassoc nsz arcp contract float %811, %simdBroadcast107.14, !spirv.Decorations !1233		; visa id: 1301
  %.sroa.312.376.vec.insert = insertelement <8 x float> %.sroa.312.372.vec.insert, float %812, i64 6		; visa id: 1302
  %813 = extractelement <8 x float> %.sroa.312.0, i32 7		; visa id: 1303
  %814 = fmul reassoc nsz arcp contract float %813, %simdBroadcast107.15, !spirv.Decorations !1233		; visa id: 1304
  %.sroa.312.380.vec.insert = insertelement <8 x float> %.sroa.312.376.vec.insert, float %814, i64 7		; visa id: 1305
  %815 = extractelement <8 x float> %.sroa.340.0, i32 0		; visa id: 1306
  %816 = fmul reassoc nsz arcp contract float %815, %simdBroadcast107, !spirv.Decorations !1233		; visa id: 1307
  %.sroa.340.384.vec.insert = insertelement <8 x float> poison, float %816, i64 0		; visa id: 1308
  %817 = extractelement <8 x float> %.sroa.340.0, i32 1		; visa id: 1309
  %818 = fmul reassoc nsz arcp contract float %817, %simdBroadcast107.1, !spirv.Decorations !1233		; visa id: 1310
  %.sroa.340.388.vec.insert = insertelement <8 x float> %.sroa.340.384.vec.insert, float %818, i64 1		; visa id: 1311
  %819 = extractelement <8 x float> %.sroa.340.0, i32 2		; visa id: 1312
  %820 = fmul reassoc nsz arcp contract float %819, %simdBroadcast107.2, !spirv.Decorations !1233		; visa id: 1313
  %.sroa.340.392.vec.insert = insertelement <8 x float> %.sroa.340.388.vec.insert, float %820, i64 2		; visa id: 1314
  %821 = extractelement <8 x float> %.sroa.340.0, i32 3		; visa id: 1315
  %822 = fmul reassoc nsz arcp contract float %821, %simdBroadcast107.3, !spirv.Decorations !1233		; visa id: 1316
  %.sroa.340.396.vec.insert = insertelement <8 x float> %.sroa.340.392.vec.insert, float %822, i64 3		; visa id: 1317
  %823 = extractelement <8 x float> %.sroa.340.0, i32 4		; visa id: 1318
  %824 = fmul reassoc nsz arcp contract float %823, %simdBroadcast107.4, !spirv.Decorations !1233		; visa id: 1319
  %.sroa.340.400.vec.insert = insertelement <8 x float> %.sroa.340.396.vec.insert, float %824, i64 4		; visa id: 1320
  %825 = extractelement <8 x float> %.sroa.340.0, i32 5		; visa id: 1321
  %826 = fmul reassoc nsz arcp contract float %825, %simdBroadcast107.5, !spirv.Decorations !1233		; visa id: 1322
  %.sroa.340.404.vec.insert = insertelement <8 x float> %.sroa.340.400.vec.insert, float %826, i64 5		; visa id: 1323
  %827 = extractelement <8 x float> %.sroa.340.0, i32 6		; visa id: 1324
  %828 = fmul reassoc nsz arcp contract float %827, %simdBroadcast107.6, !spirv.Decorations !1233		; visa id: 1325
  %.sroa.340.408.vec.insert = insertelement <8 x float> %.sroa.340.404.vec.insert, float %828, i64 6		; visa id: 1326
  %829 = extractelement <8 x float> %.sroa.340.0, i32 7		; visa id: 1327
  %830 = fmul reassoc nsz arcp contract float %829, %simdBroadcast107.7, !spirv.Decorations !1233		; visa id: 1328
  %.sroa.340.412.vec.insert = insertelement <8 x float> %.sroa.340.408.vec.insert, float %830, i64 7		; visa id: 1329
  %831 = extractelement <8 x float> %.sroa.368.0, i32 0		; visa id: 1330
  %832 = fmul reassoc nsz arcp contract float %831, %simdBroadcast107.8, !spirv.Decorations !1233		; visa id: 1331
  %.sroa.368.416.vec.insert = insertelement <8 x float> poison, float %832, i64 0		; visa id: 1332
  %833 = extractelement <8 x float> %.sroa.368.0, i32 1		; visa id: 1333
  %834 = fmul reassoc nsz arcp contract float %833, %simdBroadcast107.9, !spirv.Decorations !1233		; visa id: 1334
  %.sroa.368.420.vec.insert = insertelement <8 x float> %.sroa.368.416.vec.insert, float %834, i64 1		; visa id: 1335
  %835 = extractelement <8 x float> %.sroa.368.0, i32 2		; visa id: 1336
  %836 = fmul reassoc nsz arcp contract float %835, %simdBroadcast107.10, !spirv.Decorations !1233		; visa id: 1337
  %.sroa.368.424.vec.insert = insertelement <8 x float> %.sroa.368.420.vec.insert, float %836, i64 2		; visa id: 1338
  %837 = extractelement <8 x float> %.sroa.368.0, i32 3		; visa id: 1339
  %838 = fmul reassoc nsz arcp contract float %837, %simdBroadcast107.11, !spirv.Decorations !1233		; visa id: 1340
  %.sroa.368.428.vec.insert = insertelement <8 x float> %.sroa.368.424.vec.insert, float %838, i64 3		; visa id: 1341
  %839 = extractelement <8 x float> %.sroa.368.0, i32 4		; visa id: 1342
  %840 = fmul reassoc nsz arcp contract float %839, %simdBroadcast107.12, !spirv.Decorations !1233		; visa id: 1343
  %.sroa.368.432.vec.insert = insertelement <8 x float> %.sroa.368.428.vec.insert, float %840, i64 4		; visa id: 1344
  %841 = extractelement <8 x float> %.sroa.368.0, i32 5		; visa id: 1345
  %842 = fmul reassoc nsz arcp contract float %841, %simdBroadcast107.13, !spirv.Decorations !1233		; visa id: 1346
  %.sroa.368.436.vec.insert = insertelement <8 x float> %.sroa.368.432.vec.insert, float %842, i64 5		; visa id: 1347
  %843 = extractelement <8 x float> %.sroa.368.0, i32 6		; visa id: 1348
  %844 = fmul reassoc nsz arcp contract float %843, %simdBroadcast107.14, !spirv.Decorations !1233		; visa id: 1349
  %.sroa.368.440.vec.insert = insertelement <8 x float> %.sroa.368.436.vec.insert, float %844, i64 6		; visa id: 1350
  %845 = extractelement <8 x float> %.sroa.368.0, i32 7		; visa id: 1351
  %846 = fmul reassoc nsz arcp contract float %845, %simdBroadcast107.15, !spirv.Decorations !1233		; visa id: 1352
  %.sroa.368.444.vec.insert = insertelement <8 x float> %.sroa.368.440.vec.insert, float %846, i64 7		; visa id: 1353
  %847 = extractelement <8 x float> %.sroa.396.0, i32 0		; visa id: 1354
  %848 = fmul reassoc nsz arcp contract float %847, %simdBroadcast107, !spirv.Decorations !1233		; visa id: 1355
  %.sroa.396.448.vec.insert = insertelement <8 x float> poison, float %848, i64 0		; visa id: 1356
  %849 = extractelement <8 x float> %.sroa.396.0, i32 1		; visa id: 1357
  %850 = fmul reassoc nsz arcp contract float %849, %simdBroadcast107.1, !spirv.Decorations !1233		; visa id: 1358
  %.sroa.396.452.vec.insert = insertelement <8 x float> %.sroa.396.448.vec.insert, float %850, i64 1		; visa id: 1359
  %851 = extractelement <8 x float> %.sroa.396.0, i32 2		; visa id: 1360
  %852 = fmul reassoc nsz arcp contract float %851, %simdBroadcast107.2, !spirv.Decorations !1233		; visa id: 1361
  %.sroa.396.456.vec.insert = insertelement <8 x float> %.sroa.396.452.vec.insert, float %852, i64 2		; visa id: 1362
  %853 = extractelement <8 x float> %.sroa.396.0, i32 3		; visa id: 1363
  %854 = fmul reassoc nsz arcp contract float %853, %simdBroadcast107.3, !spirv.Decorations !1233		; visa id: 1364
  %.sroa.396.460.vec.insert = insertelement <8 x float> %.sroa.396.456.vec.insert, float %854, i64 3		; visa id: 1365
  %855 = extractelement <8 x float> %.sroa.396.0, i32 4		; visa id: 1366
  %856 = fmul reassoc nsz arcp contract float %855, %simdBroadcast107.4, !spirv.Decorations !1233		; visa id: 1367
  %.sroa.396.464.vec.insert = insertelement <8 x float> %.sroa.396.460.vec.insert, float %856, i64 4		; visa id: 1368
  %857 = extractelement <8 x float> %.sroa.396.0, i32 5		; visa id: 1369
  %858 = fmul reassoc nsz arcp contract float %857, %simdBroadcast107.5, !spirv.Decorations !1233		; visa id: 1370
  %.sroa.396.468.vec.insert = insertelement <8 x float> %.sroa.396.464.vec.insert, float %858, i64 5		; visa id: 1371
  %859 = extractelement <8 x float> %.sroa.396.0, i32 6		; visa id: 1372
  %860 = fmul reassoc nsz arcp contract float %859, %simdBroadcast107.6, !spirv.Decorations !1233		; visa id: 1373
  %.sroa.396.472.vec.insert = insertelement <8 x float> %.sroa.396.468.vec.insert, float %860, i64 6		; visa id: 1374
  %861 = extractelement <8 x float> %.sroa.396.0, i32 7		; visa id: 1375
  %862 = fmul reassoc nsz arcp contract float %861, %simdBroadcast107.7, !spirv.Decorations !1233		; visa id: 1376
  %.sroa.396.476.vec.insert = insertelement <8 x float> %.sroa.396.472.vec.insert, float %862, i64 7		; visa id: 1377
  %863 = extractelement <8 x float> %.sroa.424.0, i32 0		; visa id: 1378
  %864 = fmul reassoc nsz arcp contract float %863, %simdBroadcast107.8, !spirv.Decorations !1233		; visa id: 1379
  %.sroa.424.480.vec.insert = insertelement <8 x float> poison, float %864, i64 0		; visa id: 1380
  %865 = extractelement <8 x float> %.sroa.424.0, i32 1		; visa id: 1381
  %866 = fmul reassoc nsz arcp contract float %865, %simdBroadcast107.9, !spirv.Decorations !1233		; visa id: 1382
  %.sroa.424.484.vec.insert = insertelement <8 x float> %.sroa.424.480.vec.insert, float %866, i64 1		; visa id: 1383
  %867 = extractelement <8 x float> %.sroa.424.0, i32 2		; visa id: 1384
  %868 = fmul reassoc nsz arcp contract float %867, %simdBroadcast107.10, !spirv.Decorations !1233		; visa id: 1385
  %.sroa.424.488.vec.insert = insertelement <8 x float> %.sroa.424.484.vec.insert, float %868, i64 2		; visa id: 1386
  %869 = extractelement <8 x float> %.sroa.424.0, i32 3		; visa id: 1387
  %870 = fmul reassoc nsz arcp contract float %869, %simdBroadcast107.11, !spirv.Decorations !1233		; visa id: 1388
  %.sroa.424.492.vec.insert = insertelement <8 x float> %.sroa.424.488.vec.insert, float %870, i64 3		; visa id: 1389
  %871 = extractelement <8 x float> %.sroa.424.0, i32 4		; visa id: 1390
  %872 = fmul reassoc nsz arcp contract float %871, %simdBroadcast107.12, !spirv.Decorations !1233		; visa id: 1391
  %.sroa.424.496.vec.insert = insertelement <8 x float> %.sroa.424.492.vec.insert, float %872, i64 4		; visa id: 1392
  %873 = extractelement <8 x float> %.sroa.424.0, i32 5		; visa id: 1393
  %874 = fmul reassoc nsz arcp contract float %873, %simdBroadcast107.13, !spirv.Decorations !1233		; visa id: 1394
  %.sroa.424.500.vec.insert = insertelement <8 x float> %.sroa.424.496.vec.insert, float %874, i64 5		; visa id: 1395
  %875 = extractelement <8 x float> %.sroa.424.0, i32 6		; visa id: 1396
  %876 = fmul reassoc nsz arcp contract float %875, %simdBroadcast107.14, !spirv.Decorations !1233		; visa id: 1397
  %.sroa.424.504.vec.insert = insertelement <8 x float> %.sroa.424.500.vec.insert, float %876, i64 6		; visa id: 1398
  %877 = extractelement <8 x float> %.sroa.424.0, i32 7		; visa id: 1399
  %878 = fmul reassoc nsz arcp contract float %877, %simdBroadcast107.15, !spirv.Decorations !1233		; visa id: 1400
  %.sroa.424.508.vec.insert = insertelement <8 x float> %.sroa.424.504.vec.insert, float %878, i64 7		; visa id: 1401
  %879 = fmul reassoc nsz arcp contract float %.sroa.0114.1179, %622, !spirv.Decorations !1233		; visa id: 1402
  br label %.loopexit.i, !stats.blockFrequency.digits !1235, !stats.blockFrequency.scale !1226		; visa id: 1531

.loopexit.i:                                      ; preds = %.loopexit4.i..loopexit.i_crit_edge, %.loopexit.i.loopexit
; BB54 :
  %.sroa.424.1 = phi <8 x float> [ %.sroa.424.508.vec.insert, %.loopexit.i.loopexit ], [ %.sroa.424.0, %.loopexit4.i..loopexit.i_crit_edge ]
  %.sroa.396.1 = phi <8 x float> [ %.sroa.396.476.vec.insert, %.loopexit.i.loopexit ], [ %.sroa.396.0, %.loopexit4.i..loopexit.i_crit_edge ]
  %.sroa.368.1 = phi <8 x float> [ %.sroa.368.444.vec.insert, %.loopexit.i.loopexit ], [ %.sroa.368.0, %.loopexit4.i..loopexit.i_crit_edge ]
  %.sroa.340.1 = phi <8 x float> [ %.sroa.340.412.vec.insert, %.loopexit.i.loopexit ], [ %.sroa.340.0, %.loopexit4.i..loopexit.i_crit_edge ]
  %.sroa.312.1 = phi <8 x float> [ %.sroa.312.380.vec.insert, %.loopexit.i.loopexit ], [ %.sroa.312.0, %.loopexit4.i..loopexit.i_crit_edge ]
  %.sroa.284.1 = phi <8 x float> [ %.sroa.284.348.vec.insert, %.loopexit.i.loopexit ], [ %.sroa.284.0, %.loopexit4.i..loopexit.i_crit_edge ]
  %.sroa.256.1 = phi <8 x float> [ %.sroa.256.316.vec.insert, %.loopexit.i.loopexit ], [ %.sroa.256.0, %.loopexit4.i..loopexit.i_crit_edge ]
  %.sroa.228.1 = phi <8 x float> [ %.sroa.228.284.vec.insert, %.loopexit.i.loopexit ], [ %.sroa.228.0, %.loopexit4.i..loopexit.i_crit_edge ]
  %.sroa.200.1 = phi <8 x float> [ %.sroa.200.252.vec.insert, %.loopexit.i.loopexit ], [ %.sroa.200.0, %.loopexit4.i..loopexit.i_crit_edge ]
  %.sroa.172.1 = phi <8 x float> [ %.sroa.172.220.vec.insert, %.loopexit.i.loopexit ], [ %.sroa.172.0, %.loopexit4.i..loopexit.i_crit_edge ]
  %.sroa.144.1 = phi <8 x float> [ %.sroa.144.188.vec.insert, %.loopexit.i.loopexit ], [ %.sroa.144.0, %.loopexit4.i..loopexit.i_crit_edge ]
  %.sroa.116.1 = phi <8 x float> [ %.sroa.116.156.vec.insert, %.loopexit.i.loopexit ], [ %.sroa.116.0, %.loopexit4.i..loopexit.i_crit_edge ]
  %.sroa.88.1 = phi <8 x float> [ %.sroa.88.124.vec.insert, %.loopexit.i.loopexit ], [ %.sroa.88.0, %.loopexit4.i..loopexit.i_crit_edge ]
  %.sroa.60.1 = phi <8 x float> [ %.sroa.60.92.vec.insert, %.loopexit.i.loopexit ], [ %.sroa.60.0, %.loopexit4.i..loopexit.i_crit_edge ]
  %.sroa.32.1 = phi <8 x float> [ %.sroa.32.60.vec.insert, %.loopexit.i.loopexit ], [ %.sroa.32.0, %.loopexit4.i..loopexit.i_crit_edge ]
  %.sroa.0.1 = phi <8 x float> [ %.sroa.0.28.vec.insert, %.loopexit.i.loopexit ], [ %.sroa.0.0, %.loopexit4.i..loopexit.i_crit_edge ]
  %.sroa.0114.2 = phi float [ %879, %.loopexit.i.loopexit ], [ %.sroa.0114.1179, %.loopexit4.i..loopexit.i_crit_edge ]
  %880 = fadd reassoc nsz arcp contract float %588, %604, !spirv.Decorations !1233		; visa id: 1532
  %881 = fadd reassoc nsz arcp contract float %589, %605, !spirv.Decorations !1233		; visa id: 1533
  %882 = fadd reassoc nsz arcp contract float %590, %606, !spirv.Decorations !1233		; visa id: 1534
  %883 = fadd reassoc nsz arcp contract float %591, %607, !spirv.Decorations !1233		; visa id: 1535
  %884 = fadd reassoc nsz arcp contract float %592, %608, !spirv.Decorations !1233		; visa id: 1536
  %885 = fadd reassoc nsz arcp contract float %593, %609, !spirv.Decorations !1233		; visa id: 1537
  %886 = fadd reassoc nsz arcp contract float %594, %610, !spirv.Decorations !1233		; visa id: 1538
  %887 = fadd reassoc nsz arcp contract float %595, %611, !spirv.Decorations !1233		; visa id: 1539
  %888 = fadd reassoc nsz arcp contract float %596, %612, !spirv.Decorations !1233		; visa id: 1540
  %889 = fadd reassoc nsz arcp contract float %597, %613, !spirv.Decorations !1233		; visa id: 1541
  %890 = fadd reassoc nsz arcp contract float %598, %614, !spirv.Decorations !1233		; visa id: 1542
  %891 = fadd reassoc nsz arcp contract float %599, %615, !spirv.Decorations !1233		; visa id: 1543
  %892 = fadd reassoc nsz arcp contract float %600, %616, !spirv.Decorations !1233		; visa id: 1544
  %893 = fadd reassoc nsz arcp contract float %601, %617, !spirv.Decorations !1233		; visa id: 1545
  %894 = fadd reassoc nsz arcp contract float %602, %618, !spirv.Decorations !1233		; visa id: 1546
  %895 = fadd reassoc nsz arcp contract float %603, %619, !spirv.Decorations !1233		; visa id: 1547
  %896 = call float asm "{\0A.decl INTERLEAVE_2 v_type=P num_elts=16\0A.decl INTERLEAVE_4 v_type=P num_elts=16\0A.decl INTERLEAVE_8 v_type=P num_elts=16\0A.decl IN0 v_type=G type=UD num_elts=16 alias=<$1,0>\0A.decl IN1 v_type=G type=UD num_elts=16 alias=<$2,0>\0A.decl IN2 v_type=G type=UD num_elts=16 alias=<$3,0>\0A.decl IN3 v_type=G type=UD num_elts=16 alias=<$4,0>\0A.decl IN4 v_type=G type=UD num_elts=16 alias=<$5,0>\0A.decl IN5 v_type=G type=UD num_elts=16 alias=<$6,0>\0A.decl IN6 v_type=G type=UD num_elts=16 alias=<$7,0>\0A.decl IN7 v_type=G type=UD num_elts=16 alias=<$8,0>\0A.decl IN8 v_type=G type=UD num_elts=16 alias=<$9,0>\0A.decl IN9 v_type=G type=UD num_elts=16 alias=<$10,0>\0A.decl IN10 v_type=G type=UD num_elts=16 alias=<$11,0>\0A.decl IN11 v_type=G type=UD num_elts=16 alias=<$12,0>\0A.decl IN12 v_type=G type=UD num_elts=16 alias=<$13,0>\0A.decl IN13 v_type=G type=UD num_elts=16 alias=<$14,0>\0A.decl IN14 v_type=G type=UD num_elts=16 alias=<$15,0>\0A.decl IN15 v_type=G type=UD num_elts=16 alias=<$16,0>\0A.decl RA0 v_type=G type=UD num_elts=32 align=64\0A.decl RA2 v_type=G type=UD num_elts=32 align=64\0A.decl RA4 v_type=G type=UD num_elts=32 align=64\0A.decl RA6 v_type=G type=UD num_elts=32 align=64\0A.decl RA8 v_type=G type=UD num_elts=32 align=64\0A.decl RA10 v_type=G type=UD num_elts=32 align=64\0A.decl RA12 v_type=G type=UD num_elts=32 align=64\0A.decl RA14 v_type=G type=UD num_elts=32 align=64\0A.decl RF0 v_type=G type=F num_elts=16 alias=<RA0,0>\0A.decl RF1 v_type=G type=F num_elts=16 alias=<RA0,64>\0A.decl RF2 v_type=G type=F num_elts=16 alias=<RA2,0>\0A.decl RF3 v_type=G type=F num_elts=16 alias=<RA2,64>\0A.decl RF4 v_type=G type=F num_elts=16 alias=<RA4,0>\0A.decl RF5 v_type=G type=F num_elts=16 alias=<RA4,64>\0A.decl RF6 v_type=G type=F num_elts=16 alias=<RA6,0>\0A.decl RF7 v_type=G type=F num_elts=16 alias=<RA6,64>\0A.decl RF8 v_type=G type=F num_elts=16 alias=<RA8,0>\0A.decl RF9 v_type=G type=F num_elts=16 alias=<RA8,64>\0A.decl RF10 v_type=G type=F num_elts=16 alias=<RA10,0>\0A.decl RF11 v_type=G type=F num_elts=16 alias=<RA10,64>\0A.decl RF12 v_type=G type=F num_elts=16 alias=<RA12,0>\0A.decl RF13 v_type=G type=F num_elts=16 alias=<RA12,64>\0A.decl RF14 v_type=G type=F num_elts=16 alias=<RA14,0>\0A.decl RF15 v_type=G type=F num_elts=16 alias=<RA14,64>\0Asetp (M1_NM,16) INTERLEAVE_2 0x5555:uw\0Asetp (M1_NM,16) INTERLEAVE_4 0x3333:uw\0Asetp (M1_NM,16) INTERLEAVE_8 0x0F0F:uw\0A(!INTERLEAVE_2) sel (M1_NM,16) RA0(0,0)<1>  IN1(0,0)<2;2,0>  IN0(0,0)<1;1,0>\0A (INTERLEAVE_2) sel (M1_NM,16) RA0(1,0)<1>  IN0(0,1)<2;2,0>  IN1(0,0)<1;1,0>\0A(!INTERLEAVE_2) sel (M1_NM,16) RA2(0,0)<1>  IN3(0,0)<2;2,0>  IN2(0,0)<1;1,0>\0A (INTERLEAVE_2) sel (M1_NM,16) RA2(1,0)<1>  IN2(0,1)<2;2,0>  IN3(0,0)<1;1,0>\0A(!INTERLEAVE_2) sel (M1_NM,16) RA4(0,0)<1>  IN5(0,0)<2;2,0>  IN4(0,0)<1;1,0>\0A (INTERLEAVE_2) sel (M1_NM,16) RA4(1,0)<1>  IN4(0,1)<2;2,0>  IN5(0,0)<1;1,0>\0A(!INTERLEAVE_2) sel (M1_NM,16) RA6(0,0)<1>  IN7(0,0)<2;2,0>  IN6(0,0)<1;1,0>\0A (INTERLEAVE_2) sel (M1_NM,16) RA6(1,0)<1>  IN6(0,1)<2;2,0>  IN7(0,0)<1;1,0>\0A(!INTERLEAVE_2) sel (M1_NM,16) RA8(0,0)<1>  IN9(0,0)<2;2,0>  IN8(0,0)<1;1,0>\0A (INTERLEAVE_2) sel (M1_NM,16) RA8(1,0)<1>  IN8(0,1)<2;2,0>  IN9(0,0)<1;1,0>\0A(!INTERLEAVE_2) sel (M1_NM,16) RA10(0,0)<1> IN11(0,0)<2;2,0> IN10(0,0)<1;1,0>\0A (INTERLEAVE_2) sel (M1_NM,16) RA10(1,0)<1> IN10(0,1)<2;2,0> IN11(0,0)<1;1,0>\0A(!INTERLEAVE_2) sel (M1_NM,16) RA12(0,0)<1> IN13(0,0)<2;2,0> IN12(0,0)<1;1,0>\0A (INTERLEAVE_2) sel (M1_NM,16) RA12(1,0)<1> IN12(0,1)<2;2,0> IN13(0,0)<1;1,0>\0A(!INTERLEAVE_2) sel (M1_NM,16) RA14(0,0)<1> IN15(0,0)<2;2,0> IN14(0,0)<1;1,0>\0A (INTERLEAVE_2) sel (M1_NM,16) RA14(1,0)<1> IN14(0,1)<2;2,0> IN15(0,0)<1;1,0>\0Aadd (M1_NM,16) RF0(0,0)<1> RF0(0,0)<1;1,0> RF1(0,0)<1;1,0>\0Aadd (M1_NM,16) RF3(0,0)<1> RF2(0,0)<1;1,0> RF3(0,0)<1;1,0>\0Aadd (M1_NM,16) RF4(0,0)<1> RF4(0,0)<1;1,0> RF5(0,0)<1;1,0>\0Aadd (M1_NM,16) RF7(0,0)<1> RF6(0,0)<1;1,0> RF7(0,0)<1;1,0>\0Aadd (M1_NM,16) RF8(0,0)<1> RF8(0,0)<1;1,0> RF9(0,0)<1;1,0>\0Aadd (M1_NM,16) RF11(0,0)<1> RF10(0,0)<1;1,0> RF11(0,0)<1;1,0>\0Aadd (M1_NM,16) RF12(0,0)<1> RF12(0,0)<1;1,0> RF13(0,0)<1;1,0>\0Aadd (M1_NM,16) RF15(0,0)<1> RF14(0,0)<1;1,0> RF15(0,0)<1;1,0>\0A(!INTERLEAVE_4) sel (M1_NM,16) RA0(1,0)<1>  RA2(0,14)<1;1,0>  RA0(0,0)<1;1,0>\0A (INTERLEAVE_4) sel (M1_NM,16) RA0(0,0)<1>  RA0(0,2)<1;1,0>   RA2(1,0)<1;1,0>\0A(!INTERLEAVE_4) sel (M1_NM,16) RA4(1,0)<1>  RA6(0,14)<1;1,0>  RA4(0,0)<1;1,0>\0A (INTERLEAVE_4) sel (M1_NM,16) RA4(0,0)<1>  RA4(0,2)<1;1,0>   RA6(1,0)<1;1,0>\0A(!INTERLEAVE_4) sel (M1_NM,16) RA8(1,0)<1>  RA10(0,14)<1;1,0> RA8(0,0)<1;1,0>\0A (INTERLEAVE_4) sel (M1_NM,16) RA8(0,0)<1>  RA8(0,2)<1;1,0>   RA10(1,0)<1;1,0>\0A(!INTERLEAVE_4) sel (M1_NM,16) RA12(1,0)<1> RA14(0,14)<1;1,0> RA12(0,0)<1;1,0>\0A (INTERLEAVE_4) sel (M1_NM,16) RA12(0,0)<1> RA12(0,2)<1;1,0>  RA14(1,0)<1;1,0>\0Aadd (M1_NM,16) RF0(0,0)<1>  RF0(0,0)<1;1,0>  RF1(0,0)<1;1,0>\0Aadd (M1_NM,16) RF5(0,0)<1>  RF4(0,0)<1;1,0>  RF5(0,0)<1;1,0>\0Aadd (M1_NM,16) RF8(0,0)<1>  RF8(0,0)<1;1,0>  RF9(0,0)<1;1,0>\0Aadd (M1_NM,16) RF13(0,0)<1> RF12(0,0)<1;1,0> RF13(0,0)<1;1,0>\0A(!INTERLEAVE_8) sel (M1_NM,16) RA0(1,0)<1> RA4(0,12)<1;1,0>  RA0(0,0)<1;1,0>\0A (INTERLEAVE_8) sel (M1_NM,16) RA0(0,0)<1> RA0(0,4)<1;1,0>   RA4(1,0)<1;1,0>\0A(!INTERLEAVE_8) sel (M1_NM,16) RA8(1,0)<1> RA12(0,12)<1;1,0> RA8(0,0)<1;1,0>\0A (INTERLEAVE_8) sel (M1_NM,16) RA8(0,0)<1> RA8(0,4)<1;1,0>   RA12(1,0)<1;1,0>\0Aadd (M1_NM,16) RF0(0,0)<1> RF0(0,0)<1;1,0> RF1(0,0)<1;1,0>\0Aadd (M1_NM,16) RF8(0,0)<1> RF8(0,0)<1;1,0> RF9(0,0)<1;1,0>\0Amov (M1_NM, 8) RA0(1,0)<1> RA0(0,8)<1;1,0>\0Amov (M1_NM, 8) RA8(1,8)<1> RA8(0,0)<1;1,0>\0Aadd (M1_NM,8) $0(0,0)<1> RF0(0,0)<1;1,0> RF1(0,0)<1;1,0>\0Aadd (M1_NM,8) $0(0,8)<1> RF8(0,8)<1;1,0> RF9(0,8)<1;1,0>\0A}\0A", "=rw,rw,rw,rw,rw,rw,rw,rw,rw,rw,rw,rw,rw,rw,rw,rw,rw"(float %880, float %881, float %882, float %883, float %884, float %885, float %886, float %887, float %888, float %889, float %890, float %891, float %892, float %893, float %894, float %895) #0		; visa id: 1548
  %bf_cvt = call i16 @llvm.genx.GenISA.ftobf.i16.f32(float %588, i32 0)		; visa id: 1548
  %.sroa.01434.0.vec.insert = insertelement <8 x i16> poison, i16 %bf_cvt, i64 0		; visa id: 1549
  %bf_cvt.1 = call i16 @llvm.genx.GenISA.ftobf.i16.f32(float %589, i32 0)		; visa id: 1550
  %.sroa.01434.2.vec.insert = insertelement <8 x i16> %.sroa.01434.0.vec.insert, i16 %bf_cvt.1, i64 1		; visa id: 1551
  %bf_cvt.2 = call i16 @llvm.genx.GenISA.ftobf.i16.f32(float %590, i32 0)		; visa id: 1552
  %.sroa.01434.4.vec.insert = insertelement <8 x i16> %.sroa.01434.2.vec.insert, i16 %bf_cvt.2, i64 2		; visa id: 1553
  %bf_cvt.3 = call i16 @llvm.genx.GenISA.ftobf.i16.f32(float %591, i32 0)		; visa id: 1554
  %.sroa.01434.6.vec.insert = insertelement <8 x i16> %.sroa.01434.4.vec.insert, i16 %bf_cvt.3, i64 3		; visa id: 1555
  %bf_cvt.4 = call i16 @llvm.genx.GenISA.ftobf.i16.f32(float %592, i32 0)		; visa id: 1556
  %.sroa.01434.8.vec.insert = insertelement <8 x i16> %.sroa.01434.6.vec.insert, i16 %bf_cvt.4, i64 4		; visa id: 1557
  %bf_cvt.5 = call i16 @llvm.genx.GenISA.ftobf.i16.f32(float %593, i32 0)		; visa id: 1558
  %.sroa.01434.10.vec.insert = insertelement <8 x i16> %.sroa.01434.8.vec.insert, i16 %bf_cvt.5, i64 5		; visa id: 1559
  %bf_cvt.6 = call i16 @llvm.genx.GenISA.ftobf.i16.f32(float %594, i32 0)		; visa id: 1560
  %.sroa.01434.12.vec.insert = insertelement <8 x i16> %.sroa.01434.10.vec.insert, i16 %bf_cvt.6, i64 6		; visa id: 1561
  %bf_cvt.7 = call i16 @llvm.genx.GenISA.ftobf.i16.f32(float %595, i32 0)		; visa id: 1562
  %.sroa.01434.14.vec.insert = insertelement <8 x i16> %.sroa.01434.12.vec.insert, i16 %bf_cvt.7, i64 7		; visa id: 1563
  %bf_cvt.8 = call i16 @llvm.genx.GenISA.ftobf.i16.f32(float %596, i32 0)		; visa id: 1564
  %.sroa.19.16.vec.insert = insertelement <8 x i16> poison, i16 %bf_cvt.8, i64 0		; visa id: 1565
  %bf_cvt.9 = call i16 @llvm.genx.GenISA.ftobf.i16.f32(float %597, i32 0)		; visa id: 1566
  %.sroa.19.18.vec.insert = insertelement <8 x i16> %.sroa.19.16.vec.insert, i16 %bf_cvt.9, i64 1		; visa id: 1567
  %bf_cvt.10 = call i16 @llvm.genx.GenISA.ftobf.i16.f32(float %598, i32 0)		; visa id: 1568
  %.sroa.19.20.vec.insert = insertelement <8 x i16> %.sroa.19.18.vec.insert, i16 %bf_cvt.10, i64 2		; visa id: 1569
  %bf_cvt.11 = call i16 @llvm.genx.GenISA.ftobf.i16.f32(float %599, i32 0)		; visa id: 1570
  %.sroa.19.22.vec.insert = insertelement <8 x i16> %.sroa.19.20.vec.insert, i16 %bf_cvt.11, i64 3		; visa id: 1571
  %bf_cvt.12 = call i16 @llvm.genx.GenISA.ftobf.i16.f32(float %600, i32 0)		; visa id: 1572
  %.sroa.19.24.vec.insert = insertelement <8 x i16> %.sroa.19.22.vec.insert, i16 %bf_cvt.12, i64 4		; visa id: 1573
  %bf_cvt.13 = call i16 @llvm.genx.GenISA.ftobf.i16.f32(float %601, i32 0)		; visa id: 1574
  %.sroa.19.26.vec.insert = insertelement <8 x i16> %.sroa.19.24.vec.insert, i16 %bf_cvt.13, i64 5		; visa id: 1575
  %bf_cvt.14 = call i16 @llvm.genx.GenISA.ftobf.i16.f32(float %602, i32 0)		; visa id: 1576
  %.sroa.19.28.vec.insert = insertelement <8 x i16> %.sroa.19.26.vec.insert, i16 %bf_cvt.14, i64 6		; visa id: 1577
  %bf_cvt.15 = call i16 @llvm.genx.GenISA.ftobf.i16.f32(float %603, i32 0)		; visa id: 1578
  %.sroa.19.30.vec.insert = insertelement <8 x i16> %.sroa.19.28.vec.insert, i16 %bf_cvt.15, i64 7		; visa id: 1579
  %bf_cvt.16 = call i16 @llvm.genx.GenISA.ftobf.i16.f32(float %604, i32 0)		; visa id: 1580
  %.sroa.35.32.vec.insert = insertelement <8 x i16> poison, i16 %bf_cvt.16, i64 0		; visa id: 1581
  %bf_cvt.17 = call i16 @llvm.genx.GenISA.ftobf.i16.f32(float %605, i32 0)		; visa id: 1582
  %.sroa.35.34.vec.insert = insertelement <8 x i16> %.sroa.35.32.vec.insert, i16 %bf_cvt.17, i64 1		; visa id: 1583
  %bf_cvt.18 = call i16 @llvm.genx.GenISA.ftobf.i16.f32(float %606, i32 0)		; visa id: 1584
  %.sroa.35.36.vec.insert = insertelement <8 x i16> %.sroa.35.34.vec.insert, i16 %bf_cvt.18, i64 2		; visa id: 1585
  %bf_cvt.19 = call i16 @llvm.genx.GenISA.ftobf.i16.f32(float %607, i32 0)		; visa id: 1586
  %.sroa.35.38.vec.insert = insertelement <8 x i16> %.sroa.35.36.vec.insert, i16 %bf_cvt.19, i64 3		; visa id: 1587
  %bf_cvt.20 = call i16 @llvm.genx.GenISA.ftobf.i16.f32(float %608, i32 0)		; visa id: 1588
  %.sroa.35.40.vec.insert = insertelement <8 x i16> %.sroa.35.38.vec.insert, i16 %bf_cvt.20, i64 4		; visa id: 1589
  %bf_cvt.21 = call i16 @llvm.genx.GenISA.ftobf.i16.f32(float %609, i32 0)		; visa id: 1590
  %.sroa.35.42.vec.insert = insertelement <8 x i16> %.sroa.35.40.vec.insert, i16 %bf_cvt.21, i64 5		; visa id: 1591
  %bf_cvt.22 = call i16 @llvm.genx.GenISA.ftobf.i16.f32(float %610, i32 0)		; visa id: 1592
  %.sroa.35.44.vec.insert = insertelement <8 x i16> %.sroa.35.42.vec.insert, i16 %bf_cvt.22, i64 6		; visa id: 1593
  %bf_cvt.23 = call i16 @llvm.genx.GenISA.ftobf.i16.f32(float %611, i32 0)		; visa id: 1594
  %.sroa.35.46.vec.insert = insertelement <8 x i16> %.sroa.35.44.vec.insert, i16 %bf_cvt.23, i64 7		; visa id: 1595
  %bf_cvt.24 = call i16 @llvm.genx.GenISA.ftobf.i16.f32(float %612, i32 0)		; visa id: 1596
  %.sroa.51.48.vec.insert = insertelement <8 x i16> poison, i16 %bf_cvt.24, i64 0		; visa id: 1597
  %bf_cvt.25 = call i16 @llvm.genx.GenISA.ftobf.i16.f32(float %613, i32 0)		; visa id: 1598
  %.sroa.51.50.vec.insert = insertelement <8 x i16> %.sroa.51.48.vec.insert, i16 %bf_cvt.25, i64 1		; visa id: 1599
  %bf_cvt.26 = call i16 @llvm.genx.GenISA.ftobf.i16.f32(float %614, i32 0)		; visa id: 1600
  %.sroa.51.52.vec.insert = insertelement <8 x i16> %.sroa.51.50.vec.insert, i16 %bf_cvt.26, i64 2		; visa id: 1601
  %bf_cvt.27 = call i16 @llvm.genx.GenISA.ftobf.i16.f32(float %615, i32 0)		; visa id: 1602
  %.sroa.51.54.vec.insert = insertelement <8 x i16> %.sroa.51.52.vec.insert, i16 %bf_cvt.27, i64 3		; visa id: 1603
  %bf_cvt.28 = call i16 @llvm.genx.GenISA.ftobf.i16.f32(float %616, i32 0)		; visa id: 1604
  %.sroa.51.56.vec.insert = insertelement <8 x i16> %.sroa.51.54.vec.insert, i16 %bf_cvt.28, i64 4		; visa id: 1605
  %bf_cvt.29 = call i16 @llvm.genx.GenISA.ftobf.i16.f32(float %617, i32 0)		; visa id: 1606
  %.sroa.51.58.vec.insert = insertelement <8 x i16> %.sroa.51.56.vec.insert, i16 %bf_cvt.29, i64 5		; visa id: 1607
  %bf_cvt.30 = call i16 @llvm.genx.GenISA.ftobf.i16.f32(float %618, i32 0)		; visa id: 1608
  %.sroa.51.60.vec.insert = insertelement <8 x i16> %.sroa.51.58.vec.insert, i16 %bf_cvt.30, i64 6		; visa id: 1609
  %bf_cvt.31 = call i16 @llvm.genx.GenISA.ftobf.i16.f32(float %619, i32 0)		; visa id: 1610
  %.sroa.51.62.vec.insert = insertelement <8 x i16> %.sroa.51.60.vec.insert, i16 %bf_cvt.31, i64 7		; visa id: 1611
  call void @llvm.genx.GenISA.LSC2DBlockSetAddrPayloadField.p4i8.i32(i8 addrspace(4)* %Block2D_AddrPayload110, i32 5, i32 %137, i1 false)		; visa id: 1612
  call void @llvm.genx.GenISA.LSC2DBlockSetAddrPayloadField.p4i8.i32(i8 addrspace(4)* %Block2D_AddrPayload110, i32 6, i32 %143, i1 false)		; visa id: 1613
  %897 = call <32 x i16> asm "lsc_load_block2d.ugm (M1, 1)  $0:d$2.$3x$4x$5nt flat[$1+(0,0)]", "=rw,rw.u,P,P,P,P"(i8 addrspace(4)* %Block2D_AddrPayload110, i32 16, i32 2, i32 16, i32 16) #0		; visa id: 1614
  %898 = add i32 %143, 16		; visa id: 1614
  call void @llvm.genx.GenISA.LSC2DBlockSetAddrPayloadField.p4i8.i32(i8 addrspace(4)* %Block2D_AddrPayload110, i32 5, i32 %137, i1 false)		; visa id: 1615
  call void @llvm.genx.GenISA.LSC2DBlockSetAddrPayloadField.p4i8.i32(i8 addrspace(4)* %Block2D_AddrPayload110, i32 6, i32 %898, i1 false)		; visa id: 1616
  %899 = call <32 x i16> asm "lsc_load_block2d.ugm (M1, 1)  $0:d$2.$3x$4x$5nt flat[$1+(0,0)]", "=rw,rw.u,P,P,P,P"(i8 addrspace(4)* %Block2D_AddrPayload110, i32 16, i32 2, i32 16, i32 16) #0		; visa id: 1617
  %900 = extractelement <32 x i16> %897, i32 0		; visa id: 1617
  %901 = insertelement <16 x i16> undef, i16 %900, i32 0		; visa id: 1617
  %902 = extractelement <32 x i16> %897, i32 1		; visa id: 1617
  %903 = insertelement <16 x i16> %901, i16 %902, i32 1		; visa id: 1617
  %904 = extractelement <32 x i16> %897, i32 2		; visa id: 1617
  %905 = insertelement <16 x i16> %903, i16 %904, i32 2		; visa id: 1617
  %906 = extractelement <32 x i16> %897, i32 3		; visa id: 1617
  %907 = insertelement <16 x i16> %905, i16 %906, i32 3		; visa id: 1617
  %908 = extractelement <32 x i16> %897, i32 4		; visa id: 1617
  %909 = insertelement <16 x i16> %907, i16 %908, i32 4		; visa id: 1617
  %910 = extractelement <32 x i16> %897, i32 5		; visa id: 1617
  %911 = insertelement <16 x i16> %909, i16 %910, i32 5		; visa id: 1617
  %912 = extractelement <32 x i16> %897, i32 6		; visa id: 1617
  %913 = insertelement <16 x i16> %911, i16 %912, i32 6		; visa id: 1617
  %914 = extractelement <32 x i16> %897, i32 7		; visa id: 1617
  %915 = insertelement <16 x i16> %913, i16 %914, i32 7		; visa id: 1617
  %916 = extractelement <32 x i16> %897, i32 8		; visa id: 1617
  %917 = insertelement <16 x i16> %915, i16 %916, i32 8		; visa id: 1617
  %918 = extractelement <32 x i16> %897, i32 9		; visa id: 1617
  %919 = insertelement <16 x i16> %917, i16 %918, i32 9		; visa id: 1617
  %920 = extractelement <32 x i16> %897, i32 10		; visa id: 1617
  %921 = insertelement <16 x i16> %919, i16 %920, i32 10		; visa id: 1617
  %922 = extractelement <32 x i16> %897, i32 11		; visa id: 1617
  %923 = insertelement <16 x i16> %921, i16 %922, i32 11		; visa id: 1617
  %924 = extractelement <32 x i16> %897, i32 12		; visa id: 1617
  %925 = insertelement <16 x i16> %923, i16 %924, i32 12		; visa id: 1617
  %926 = extractelement <32 x i16> %897, i32 13		; visa id: 1617
  %927 = insertelement <16 x i16> %925, i16 %926, i32 13		; visa id: 1617
  %928 = extractelement <32 x i16> %897, i32 14		; visa id: 1617
  %929 = insertelement <16 x i16> %927, i16 %928, i32 14		; visa id: 1617
  %930 = extractelement <32 x i16> %897, i32 15		; visa id: 1617
  %931 = insertelement <16 x i16> %929, i16 %930, i32 15		; visa id: 1617
  %932 = extractelement <32 x i16> %897, i32 16		; visa id: 1617
  %933 = insertelement <16 x i16> undef, i16 %932, i32 0		; visa id: 1617
  %934 = extractelement <32 x i16> %897, i32 17		; visa id: 1617
  %935 = insertelement <16 x i16> %933, i16 %934, i32 1		; visa id: 1617
  %936 = extractelement <32 x i16> %897, i32 18		; visa id: 1617
  %937 = insertelement <16 x i16> %935, i16 %936, i32 2		; visa id: 1617
  %938 = extractelement <32 x i16> %897, i32 19		; visa id: 1617
  %939 = insertelement <16 x i16> %937, i16 %938, i32 3		; visa id: 1617
  %940 = extractelement <32 x i16> %897, i32 20		; visa id: 1617
  %941 = insertelement <16 x i16> %939, i16 %940, i32 4		; visa id: 1617
  %942 = extractelement <32 x i16> %897, i32 21		; visa id: 1617
  %943 = insertelement <16 x i16> %941, i16 %942, i32 5		; visa id: 1617
  %944 = extractelement <32 x i16> %897, i32 22		; visa id: 1617
  %945 = insertelement <16 x i16> %943, i16 %944, i32 6		; visa id: 1617
  %946 = extractelement <32 x i16> %897, i32 23		; visa id: 1617
  %947 = insertelement <16 x i16> %945, i16 %946, i32 7		; visa id: 1617
  %948 = extractelement <32 x i16> %897, i32 24		; visa id: 1617
  %949 = insertelement <16 x i16> %947, i16 %948, i32 8		; visa id: 1617
  %950 = extractelement <32 x i16> %897, i32 25		; visa id: 1617
  %951 = insertelement <16 x i16> %949, i16 %950, i32 9		; visa id: 1617
  %952 = extractelement <32 x i16> %897, i32 26		; visa id: 1617
  %953 = insertelement <16 x i16> %951, i16 %952, i32 10		; visa id: 1617
  %954 = extractelement <32 x i16> %897, i32 27		; visa id: 1617
  %955 = insertelement <16 x i16> %953, i16 %954, i32 11		; visa id: 1617
  %956 = extractelement <32 x i16> %897, i32 28		; visa id: 1617
  %957 = insertelement <16 x i16> %955, i16 %956, i32 12		; visa id: 1617
  %958 = extractelement <32 x i16> %897, i32 29		; visa id: 1617
  %959 = insertelement <16 x i16> %957, i16 %958, i32 13		; visa id: 1617
  %960 = extractelement <32 x i16> %897, i32 30		; visa id: 1617
  %961 = insertelement <16 x i16> %959, i16 %960, i32 14		; visa id: 1617
  %962 = extractelement <32 x i16> %897, i32 31		; visa id: 1617
  %963 = insertelement <16 x i16> %961, i16 %962, i32 15		; visa id: 1617
  %964 = extractelement <32 x i16> %899, i32 0		; visa id: 1617
  %965 = insertelement <16 x i16> undef, i16 %964, i32 0		; visa id: 1617
  %966 = extractelement <32 x i16> %899, i32 1		; visa id: 1617
  %967 = insertelement <16 x i16> %965, i16 %966, i32 1		; visa id: 1617
  %968 = extractelement <32 x i16> %899, i32 2		; visa id: 1617
  %969 = insertelement <16 x i16> %967, i16 %968, i32 2		; visa id: 1617
  %970 = extractelement <32 x i16> %899, i32 3		; visa id: 1617
  %971 = insertelement <16 x i16> %969, i16 %970, i32 3		; visa id: 1617
  %972 = extractelement <32 x i16> %899, i32 4		; visa id: 1617
  %973 = insertelement <16 x i16> %971, i16 %972, i32 4		; visa id: 1617
  %974 = extractelement <32 x i16> %899, i32 5		; visa id: 1617
  %975 = insertelement <16 x i16> %973, i16 %974, i32 5		; visa id: 1617
  %976 = extractelement <32 x i16> %899, i32 6		; visa id: 1617
  %977 = insertelement <16 x i16> %975, i16 %976, i32 6		; visa id: 1617
  %978 = extractelement <32 x i16> %899, i32 7		; visa id: 1617
  %979 = insertelement <16 x i16> %977, i16 %978, i32 7		; visa id: 1617
  %980 = extractelement <32 x i16> %899, i32 8		; visa id: 1617
  %981 = insertelement <16 x i16> %979, i16 %980, i32 8		; visa id: 1617
  %982 = extractelement <32 x i16> %899, i32 9		; visa id: 1617
  %983 = insertelement <16 x i16> %981, i16 %982, i32 9		; visa id: 1617
  %984 = extractelement <32 x i16> %899, i32 10		; visa id: 1617
  %985 = insertelement <16 x i16> %983, i16 %984, i32 10		; visa id: 1617
  %986 = extractelement <32 x i16> %899, i32 11		; visa id: 1617
  %987 = insertelement <16 x i16> %985, i16 %986, i32 11		; visa id: 1617
  %988 = extractelement <32 x i16> %899, i32 12		; visa id: 1617
  %989 = insertelement <16 x i16> %987, i16 %988, i32 12		; visa id: 1617
  %990 = extractelement <32 x i16> %899, i32 13		; visa id: 1617
  %991 = insertelement <16 x i16> %989, i16 %990, i32 13		; visa id: 1617
  %992 = extractelement <32 x i16> %899, i32 14		; visa id: 1617
  %993 = insertelement <16 x i16> %991, i16 %992, i32 14		; visa id: 1617
  %994 = extractelement <32 x i16> %899, i32 15		; visa id: 1617
  %995 = insertelement <16 x i16> %993, i16 %994, i32 15		; visa id: 1617
  %996 = extractelement <32 x i16> %899, i32 16		; visa id: 1617
  %997 = insertelement <16 x i16> undef, i16 %996, i32 0		; visa id: 1617
  %998 = extractelement <32 x i16> %899, i32 17		; visa id: 1617
  %999 = insertelement <16 x i16> %997, i16 %998, i32 1		; visa id: 1617
  %1000 = extractelement <32 x i16> %899, i32 18		; visa id: 1617
  %1001 = insertelement <16 x i16> %999, i16 %1000, i32 2		; visa id: 1617
  %1002 = extractelement <32 x i16> %899, i32 19		; visa id: 1617
  %1003 = insertelement <16 x i16> %1001, i16 %1002, i32 3		; visa id: 1617
  %1004 = extractelement <32 x i16> %899, i32 20		; visa id: 1617
  %1005 = insertelement <16 x i16> %1003, i16 %1004, i32 4		; visa id: 1617
  %1006 = extractelement <32 x i16> %899, i32 21		; visa id: 1617
  %1007 = insertelement <16 x i16> %1005, i16 %1006, i32 5		; visa id: 1617
  %1008 = extractelement <32 x i16> %899, i32 22		; visa id: 1617
  %1009 = insertelement <16 x i16> %1007, i16 %1008, i32 6		; visa id: 1617
  %1010 = extractelement <32 x i16> %899, i32 23		; visa id: 1617
  %1011 = insertelement <16 x i16> %1009, i16 %1010, i32 7		; visa id: 1617
  %1012 = extractelement <32 x i16> %899, i32 24		; visa id: 1617
  %1013 = insertelement <16 x i16> %1011, i16 %1012, i32 8		; visa id: 1617
  %1014 = extractelement <32 x i16> %899, i32 25		; visa id: 1617
  %1015 = insertelement <16 x i16> %1013, i16 %1014, i32 9		; visa id: 1617
  %1016 = extractelement <32 x i16> %899, i32 26		; visa id: 1617
  %1017 = insertelement <16 x i16> %1015, i16 %1016, i32 10		; visa id: 1617
  %1018 = extractelement <32 x i16> %899, i32 27		; visa id: 1617
  %1019 = insertelement <16 x i16> %1017, i16 %1018, i32 11		; visa id: 1617
  %1020 = extractelement <32 x i16> %899, i32 28		; visa id: 1617
  %1021 = insertelement <16 x i16> %1019, i16 %1020, i32 12		; visa id: 1617
  %1022 = extractelement <32 x i16> %899, i32 29		; visa id: 1617
  %1023 = insertelement <16 x i16> %1021, i16 %1022, i32 13		; visa id: 1617
  %1024 = extractelement <32 x i16> %899, i32 30		; visa id: 1617
  %1025 = insertelement <16 x i16> %1023, i16 %1024, i32 14		; visa id: 1617
  %1026 = extractelement <32 x i16> %899, i32 31		; visa id: 1617
  %1027 = insertelement <16 x i16> %1025, i16 %1026, i32 15		; visa id: 1617
  %1028 = call <8 x float> asm "{\0A.decl DST     v_type=G type=f num_elts=$5 alias=<$0,0>\0A.decl SRC1_UD v_type=G type=UD num_elts=128 alias=<$2,0>\0A.decl SRC2_UD v_type=G type=UD num_elts=$4 alias=<$1,0>\0Adpas.bf.bf.8.$3 (M1, 16) DST.0 DST.0 SRC1_UD.0 SRC2_UD(0,0)\0A}\0A", "=rw,rw,rw,P,P,P,0"(<8 x i16> %.sroa.01434.14.vec.insert, <16 x i16> %931, i32 8, i32 64, i32 128, <8 x float> %.sroa.0.1) #0		; visa id: 1617
  %1029 = call <8 x float> asm "{\0A.decl DST     v_type=G type=f num_elts=$5 alias=<$0,0>\0A.decl SRC1_UD v_type=G type=UD num_elts=128 alias=<$2,0>\0A.decl SRC2_UD v_type=G type=UD num_elts=$4 alias=<$1,0>\0Adpas.bf.bf.8.$3 (M1, 16) DST.0 DST.0 SRC1_UD.0 SRC2_UD(0,0)\0A}\0A", "=rw,rw,rw,P,P,P,0"(<8 x i16> %.sroa.19.30.vec.insert, <16 x i16> %931, i32 8, i32 64, i32 128, <8 x float> %.sroa.32.1) #0		; visa id: 1617
  %1030 = call <8 x float> asm "{\0A.decl DST     v_type=G type=f num_elts=$5 alias=<$0,0>\0A.decl SRC1_UD v_type=G type=UD num_elts=128 alias=<$2,0>\0A.decl SRC2_UD v_type=G type=UD num_elts=$4 alias=<$1,0>\0Adpas.bf.bf.8.$3 (M1, 16) DST.0 DST.0 SRC1_UD.0 SRC2_UD(0,0)\0A}\0A", "=rw,rw,rw,P,P,P,0"(<8 x i16> %.sroa.19.30.vec.insert, <16 x i16> %963, i32 8, i32 64, i32 128, <8 x float> %.sroa.88.1) #0		; visa id: 1617
  %1031 = call <8 x float> asm "{\0A.decl DST     v_type=G type=f num_elts=$5 alias=<$0,0>\0A.decl SRC1_UD v_type=G type=UD num_elts=128 alias=<$2,0>\0A.decl SRC2_UD v_type=G type=UD num_elts=$4 alias=<$1,0>\0Adpas.bf.bf.8.$3 (M1, 16) DST.0 DST.0 SRC1_UD.0 SRC2_UD(0,0)\0A}\0A", "=rw,rw,rw,P,P,P,0"(<8 x i16> %.sroa.01434.14.vec.insert, <16 x i16> %963, i32 8, i32 64, i32 128, <8 x float> %.sroa.60.1) #0		; visa id: 1617
  %1032 = call <8 x float> asm "{\0A.decl DST     v_type=G type=f num_elts=$5 alias=<$0,0>\0A.decl SRC1_UD v_type=G type=UD num_elts=128 alias=<$2,0>\0A.decl SRC2_UD v_type=G type=UD num_elts=$4 alias=<$1,0>\0Adpas.bf.bf.8.$3 (M1, 16) DST.0 DST.0 SRC1_UD.0 SRC2_UD(0,0)\0A}\0A", "=rw,rw,rw,P,P,P,0"(<8 x i16> %.sroa.35.46.vec.insert, <16 x i16> %995, i32 8, i32 64, i32 128, <8 x float> %1028) #0		; visa id: 1617
  %1033 = call <8 x float> asm "{\0A.decl DST     v_type=G type=f num_elts=$5 alias=<$0,0>\0A.decl SRC1_UD v_type=G type=UD num_elts=128 alias=<$2,0>\0A.decl SRC2_UD v_type=G type=UD num_elts=$4 alias=<$1,0>\0Adpas.bf.bf.8.$3 (M1, 16) DST.0 DST.0 SRC1_UD.0 SRC2_UD(0,0)\0A}\0A", "=rw,rw,rw,P,P,P,0"(<8 x i16> %.sroa.51.62.vec.insert, <16 x i16> %995, i32 8, i32 64, i32 128, <8 x float> %1029) #0		; visa id: 1617
  %1034 = call <8 x float> asm "{\0A.decl DST     v_type=G type=f num_elts=$5 alias=<$0,0>\0A.decl SRC1_UD v_type=G type=UD num_elts=128 alias=<$2,0>\0A.decl SRC2_UD v_type=G type=UD num_elts=$4 alias=<$1,0>\0Adpas.bf.bf.8.$3 (M1, 16) DST.0 DST.0 SRC1_UD.0 SRC2_UD(0,0)\0A}\0A", "=rw,rw,rw,P,P,P,0"(<8 x i16> %.sroa.51.62.vec.insert, <16 x i16> %1027, i32 8, i32 64, i32 128, <8 x float> %1030) #0		; visa id: 1617
  %1035 = call <8 x float> asm "{\0A.decl DST     v_type=G type=f num_elts=$5 alias=<$0,0>\0A.decl SRC1_UD v_type=G type=UD num_elts=128 alias=<$2,0>\0A.decl SRC2_UD v_type=G type=UD num_elts=$4 alias=<$1,0>\0Adpas.bf.bf.8.$3 (M1, 16) DST.0 DST.0 SRC1_UD.0 SRC2_UD(0,0)\0A}\0A", "=rw,rw,rw,P,P,P,0"(<8 x i16> %.sroa.35.46.vec.insert, <16 x i16> %1027, i32 8, i32 64, i32 128, <8 x float> %1031) #0		; visa id: 1617
  call void @llvm.genx.GenISA.LSC2DBlockSetAddrPayloadField.p4i8.i32(i8 addrspace(4)* %Block2D_AddrPayload110, i32 5, i32 %138, i1 false)		; visa id: 1617
  call void @llvm.genx.GenISA.LSC2DBlockSetAddrPayloadField.p4i8.i32(i8 addrspace(4)* %Block2D_AddrPayload110, i32 6, i32 %143, i1 false)		; visa id: 1618
  %1036 = call <32 x i16> asm "lsc_load_block2d.ugm (M1, 1)  $0:d$2.$3x$4x$5nt flat[$1+(0,0)]", "=rw,rw.u,P,P,P,P"(i8 addrspace(4)* %Block2D_AddrPayload110, i32 16, i32 2, i32 16, i32 16) #0		; visa id: 1619
  call void @llvm.genx.GenISA.LSC2DBlockSetAddrPayloadField.p4i8.i32(i8 addrspace(4)* %Block2D_AddrPayload110, i32 5, i32 %138, i1 false)		; visa id: 1619
  call void @llvm.genx.GenISA.LSC2DBlockSetAddrPayloadField.p4i8.i32(i8 addrspace(4)* %Block2D_AddrPayload110, i32 6, i32 %898, i1 false)		; visa id: 1620
  %1037 = call <32 x i16> asm "lsc_load_block2d.ugm (M1, 1)  $0:d$2.$3x$4x$5nt flat[$1+(0,0)]", "=rw,rw.u,P,P,P,P"(i8 addrspace(4)* %Block2D_AddrPayload110, i32 16, i32 2, i32 16, i32 16) #0		; visa id: 1621
  %1038 = extractelement <32 x i16> %1036, i32 0		; visa id: 1621
  %1039 = insertelement <16 x i16> undef, i16 %1038, i32 0		; visa id: 1621
  %1040 = extractelement <32 x i16> %1036, i32 1		; visa id: 1621
  %1041 = insertelement <16 x i16> %1039, i16 %1040, i32 1		; visa id: 1621
  %1042 = extractelement <32 x i16> %1036, i32 2		; visa id: 1621
  %1043 = insertelement <16 x i16> %1041, i16 %1042, i32 2		; visa id: 1621
  %1044 = extractelement <32 x i16> %1036, i32 3		; visa id: 1621
  %1045 = insertelement <16 x i16> %1043, i16 %1044, i32 3		; visa id: 1621
  %1046 = extractelement <32 x i16> %1036, i32 4		; visa id: 1621
  %1047 = insertelement <16 x i16> %1045, i16 %1046, i32 4		; visa id: 1621
  %1048 = extractelement <32 x i16> %1036, i32 5		; visa id: 1621
  %1049 = insertelement <16 x i16> %1047, i16 %1048, i32 5		; visa id: 1621
  %1050 = extractelement <32 x i16> %1036, i32 6		; visa id: 1621
  %1051 = insertelement <16 x i16> %1049, i16 %1050, i32 6		; visa id: 1621
  %1052 = extractelement <32 x i16> %1036, i32 7		; visa id: 1621
  %1053 = insertelement <16 x i16> %1051, i16 %1052, i32 7		; visa id: 1621
  %1054 = extractelement <32 x i16> %1036, i32 8		; visa id: 1621
  %1055 = insertelement <16 x i16> %1053, i16 %1054, i32 8		; visa id: 1621
  %1056 = extractelement <32 x i16> %1036, i32 9		; visa id: 1621
  %1057 = insertelement <16 x i16> %1055, i16 %1056, i32 9		; visa id: 1621
  %1058 = extractelement <32 x i16> %1036, i32 10		; visa id: 1621
  %1059 = insertelement <16 x i16> %1057, i16 %1058, i32 10		; visa id: 1621
  %1060 = extractelement <32 x i16> %1036, i32 11		; visa id: 1621
  %1061 = insertelement <16 x i16> %1059, i16 %1060, i32 11		; visa id: 1621
  %1062 = extractelement <32 x i16> %1036, i32 12		; visa id: 1621
  %1063 = insertelement <16 x i16> %1061, i16 %1062, i32 12		; visa id: 1621
  %1064 = extractelement <32 x i16> %1036, i32 13		; visa id: 1621
  %1065 = insertelement <16 x i16> %1063, i16 %1064, i32 13		; visa id: 1621
  %1066 = extractelement <32 x i16> %1036, i32 14		; visa id: 1621
  %1067 = insertelement <16 x i16> %1065, i16 %1066, i32 14		; visa id: 1621
  %1068 = extractelement <32 x i16> %1036, i32 15		; visa id: 1621
  %1069 = insertelement <16 x i16> %1067, i16 %1068, i32 15		; visa id: 1621
  %1070 = extractelement <32 x i16> %1036, i32 16		; visa id: 1621
  %1071 = insertelement <16 x i16> undef, i16 %1070, i32 0		; visa id: 1621
  %1072 = extractelement <32 x i16> %1036, i32 17		; visa id: 1621
  %1073 = insertelement <16 x i16> %1071, i16 %1072, i32 1		; visa id: 1621
  %1074 = extractelement <32 x i16> %1036, i32 18		; visa id: 1621
  %1075 = insertelement <16 x i16> %1073, i16 %1074, i32 2		; visa id: 1621
  %1076 = extractelement <32 x i16> %1036, i32 19		; visa id: 1621
  %1077 = insertelement <16 x i16> %1075, i16 %1076, i32 3		; visa id: 1621
  %1078 = extractelement <32 x i16> %1036, i32 20		; visa id: 1621
  %1079 = insertelement <16 x i16> %1077, i16 %1078, i32 4		; visa id: 1621
  %1080 = extractelement <32 x i16> %1036, i32 21		; visa id: 1621
  %1081 = insertelement <16 x i16> %1079, i16 %1080, i32 5		; visa id: 1621
  %1082 = extractelement <32 x i16> %1036, i32 22		; visa id: 1621
  %1083 = insertelement <16 x i16> %1081, i16 %1082, i32 6		; visa id: 1621
  %1084 = extractelement <32 x i16> %1036, i32 23		; visa id: 1621
  %1085 = insertelement <16 x i16> %1083, i16 %1084, i32 7		; visa id: 1621
  %1086 = extractelement <32 x i16> %1036, i32 24		; visa id: 1621
  %1087 = insertelement <16 x i16> %1085, i16 %1086, i32 8		; visa id: 1621
  %1088 = extractelement <32 x i16> %1036, i32 25		; visa id: 1621
  %1089 = insertelement <16 x i16> %1087, i16 %1088, i32 9		; visa id: 1621
  %1090 = extractelement <32 x i16> %1036, i32 26		; visa id: 1621
  %1091 = insertelement <16 x i16> %1089, i16 %1090, i32 10		; visa id: 1621
  %1092 = extractelement <32 x i16> %1036, i32 27		; visa id: 1621
  %1093 = insertelement <16 x i16> %1091, i16 %1092, i32 11		; visa id: 1621
  %1094 = extractelement <32 x i16> %1036, i32 28		; visa id: 1621
  %1095 = insertelement <16 x i16> %1093, i16 %1094, i32 12		; visa id: 1621
  %1096 = extractelement <32 x i16> %1036, i32 29		; visa id: 1621
  %1097 = insertelement <16 x i16> %1095, i16 %1096, i32 13		; visa id: 1621
  %1098 = extractelement <32 x i16> %1036, i32 30		; visa id: 1621
  %1099 = insertelement <16 x i16> %1097, i16 %1098, i32 14		; visa id: 1621
  %1100 = extractelement <32 x i16> %1036, i32 31		; visa id: 1621
  %1101 = insertelement <16 x i16> %1099, i16 %1100, i32 15		; visa id: 1621
  %1102 = extractelement <32 x i16> %1037, i32 0		; visa id: 1621
  %1103 = insertelement <16 x i16> undef, i16 %1102, i32 0		; visa id: 1621
  %1104 = extractelement <32 x i16> %1037, i32 1		; visa id: 1621
  %1105 = insertelement <16 x i16> %1103, i16 %1104, i32 1		; visa id: 1621
  %1106 = extractelement <32 x i16> %1037, i32 2		; visa id: 1621
  %1107 = insertelement <16 x i16> %1105, i16 %1106, i32 2		; visa id: 1621
  %1108 = extractelement <32 x i16> %1037, i32 3		; visa id: 1621
  %1109 = insertelement <16 x i16> %1107, i16 %1108, i32 3		; visa id: 1621
  %1110 = extractelement <32 x i16> %1037, i32 4		; visa id: 1621
  %1111 = insertelement <16 x i16> %1109, i16 %1110, i32 4		; visa id: 1621
  %1112 = extractelement <32 x i16> %1037, i32 5		; visa id: 1621
  %1113 = insertelement <16 x i16> %1111, i16 %1112, i32 5		; visa id: 1621
  %1114 = extractelement <32 x i16> %1037, i32 6		; visa id: 1621
  %1115 = insertelement <16 x i16> %1113, i16 %1114, i32 6		; visa id: 1621
  %1116 = extractelement <32 x i16> %1037, i32 7		; visa id: 1621
  %1117 = insertelement <16 x i16> %1115, i16 %1116, i32 7		; visa id: 1621
  %1118 = extractelement <32 x i16> %1037, i32 8		; visa id: 1621
  %1119 = insertelement <16 x i16> %1117, i16 %1118, i32 8		; visa id: 1621
  %1120 = extractelement <32 x i16> %1037, i32 9		; visa id: 1621
  %1121 = insertelement <16 x i16> %1119, i16 %1120, i32 9		; visa id: 1621
  %1122 = extractelement <32 x i16> %1037, i32 10		; visa id: 1621
  %1123 = insertelement <16 x i16> %1121, i16 %1122, i32 10		; visa id: 1621
  %1124 = extractelement <32 x i16> %1037, i32 11		; visa id: 1621
  %1125 = insertelement <16 x i16> %1123, i16 %1124, i32 11		; visa id: 1621
  %1126 = extractelement <32 x i16> %1037, i32 12		; visa id: 1621
  %1127 = insertelement <16 x i16> %1125, i16 %1126, i32 12		; visa id: 1621
  %1128 = extractelement <32 x i16> %1037, i32 13		; visa id: 1621
  %1129 = insertelement <16 x i16> %1127, i16 %1128, i32 13		; visa id: 1621
  %1130 = extractelement <32 x i16> %1037, i32 14		; visa id: 1621
  %1131 = insertelement <16 x i16> %1129, i16 %1130, i32 14		; visa id: 1621
  %1132 = extractelement <32 x i16> %1037, i32 15		; visa id: 1621
  %1133 = insertelement <16 x i16> %1131, i16 %1132, i32 15		; visa id: 1621
  %1134 = extractelement <32 x i16> %1037, i32 16		; visa id: 1621
  %1135 = insertelement <16 x i16> undef, i16 %1134, i32 0		; visa id: 1621
  %1136 = extractelement <32 x i16> %1037, i32 17		; visa id: 1621
  %1137 = insertelement <16 x i16> %1135, i16 %1136, i32 1		; visa id: 1621
  %1138 = extractelement <32 x i16> %1037, i32 18		; visa id: 1621
  %1139 = insertelement <16 x i16> %1137, i16 %1138, i32 2		; visa id: 1621
  %1140 = extractelement <32 x i16> %1037, i32 19		; visa id: 1621
  %1141 = insertelement <16 x i16> %1139, i16 %1140, i32 3		; visa id: 1621
  %1142 = extractelement <32 x i16> %1037, i32 20		; visa id: 1621
  %1143 = insertelement <16 x i16> %1141, i16 %1142, i32 4		; visa id: 1621
  %1144 = extractelement <32 x i16> %1037, i32 21		; visa id: 1621
  %1145 = insertelement <16 x i16> %1143, i16 %1144, i32 5		; visa id: 1621
  %1146 = extractelement <32 x i16> %1037, i32 22		; visa id: 1621
  %1147 = insertelement <16 x i16> %1145, i16 %1146, i32 6		; visa id: 1621
  %1148 = extractelement <32 x i16> %1037, i32 23		; visa id: 1621
  %1149 = insertelement <16 x i16> %1147, i16 %1148, i32 7		; visa id: 1621
  %1150 = extractelement <32 x i16> %1037, i32 24		; visa id: 1621
  %1151 = insertelement <16 x i16> %1149, i16 %1150, i32 8		; visa id: 1621
  %1152 = extractelement <32 x i16> %1037, i32 25		; visa id: 1621
  %1153 = insertelement <16 x i16> %1151, i16 %1152, i32 9		; visa id: 1621
  %1154 = extractelement <32 x i16> %1037, i32 26		; visa id: 1621
  %1155 = insertelement <16 x i16> %1153, i16 %1154, i32 10		; visa id: 1621
  %1156 = extractelement <32 x i16> %1037, i32 27		; visa id: 1621
  %1157 = insertelement <16 x i16> %1155, i16 %1156, i32 11		; visa id: 1621
  %1158 = extractelement <32 x i16> %1037, i32 28		; visa id: 1621
  %1159 = insertelement <16 x i16> %1157, i16 %1158, i32 12		; visa id: 1621
  %1160 = extractelement <32 x i16> %1037, i32 29		; visa id: 1621
  %1161 = insertelement <16 x i16> %1159, i16 %1160, i32 13		; visa id: 1621
  %1162 = extractelement <32 x i16> %1037, i32 30		; visa id: 1621
  %1163 = insertelement <16 x i16> %1161, i16 %1162, i32 14		; visa id: 1621
  %1164 = extractelement <32 x i16> %1037, i32 31		; visa id: 1621
  %1165 = insertelement <16 x i16> %1163, i16 %1164, i32 15		; visa id: 1621
  %1166 = call <8 x float> asm "{\0A.decl DST     v_type=G type=f num_elts=$5 alias=<$0,0>\0A.decl SRC1_UD v_type=G type=UD num_elts=128 alias=<$2,0>\0A.decl SRC2_UD v_type=G type=UD num_elts=$4 alias=<$1,0>\0Adpas.bf.bf.8.$3 (M1, 16) DST.0 DST.0 SRC1_UD.0 SRC2_UD(0,0)\0A}\0A", "=rw,rw,rw,P,P,P,0"(<8 x i16> %.sroa.01434.14.vec.insert, <16 x i16> %1069, i32 8, i32 64, i32 128, <8 x float> %.sroa.116.1) #0		; visa id: 1621
  %1167 = call <8 x float> asm "{\0A.decl DST     v_type=G type=f num_elts=$5 alias=<$0,0>\0A.decl SRC1_UD v_type=G type=UD num_elts=128 alias=<$2,0>\0A.decl SRC2_UD v_type=G type=UD num_elts=$4 alias=<$1,0>\0Adpas.bf.bf.8.$3 (M1, 16) DST.0 DST.0 SRC1_UD.0 SRC2_UD(0,0)\0A}\0A", "=rw,rw,rw,P,P,P,0"(<8 x i16> %.sroa.19.30.vec.insert, <16 x i16> %1069, i32 8, i32 64, i32 128, <8 x float> %.sroa.144.1) #0		; visa id: 1621
  %1168 = call <8 x float> asm "{\0A.decl DST     v_type=G type=f num_elts=$5 alias=<$0,0>\0A.decl SRC1_UD v_type=G type=UD num_elts=128 alias=<$2,0>\0A.decl SRC2_UD v_type=G type=UD num_elts=$4 alias=<$1,0>\0Adpas.bf.bf.8.$3 (M1, 16) DST.0 DST.0 SRC1_UD.0 SRC2_UD(0,0)\0A}\0A", "=rw,rw,rw,P,P,P,0"(<8 x i16> %.sroa.19.30.vec.insert, <16 x i16> %1101, i32 8, i32 64, i32 128, <8 x float> %.sroa.200.1) #0		; visa id: 1621
  %1169 = call <8 x float> asm "{\0A.decl DST     v_type=G type=f num_elts=$5 alias=<$0,0>\0A.decl SRC1_UD v_type=G type=UD num_elts=128 alias=<$2,0>\0A.decl SRC2_UD v_type=G type=UD num_elts=$4 alias=<$1,0>\0Adpas.bf.bf.8.$3 (M1, 16) DST.0 DST.0 SRC1_UD.0 SRC2_UD(0,0)\0A}\0A", "=rw,rw,rw,P,P,P,0"(<8 x i16> %.sroa.01434.14.vec.insert, <16 x i16> %1101, i32 8, i32 64, i32 128, <8 x float> %.sroa.172.1) #0		; visa id: 1621
  %1170 = call <8 x float> asm "{\0A.decl DST     v_type=G type=f num_elts=$5 alias=<$0,0>\0A.decl SRC1_UD v_type=G type=UD num_elts=128 alias=<$2,0>\0A.decl SRC2_UD v_type=G type=UD num_elts=$4 alias=<$1,0>\0Adpas.bf.bf.8.$3 (M1, 16) DST.0 DST.0 SRC1_UD.0 SRC2_UD(0,0)\0A}\0A", "=rw,rw,rw,P,P,P,0"(<8 x i16> %.sroa.35.46.vec.insert, <16 x i16> %1133, i32 8, i32 64, i32 128, <8 x float> %1166) #0		; visa id: 1621
  %1171 = call <8 x float> asm "{\0A.decl DST     v_type=G type=f num_elts=$5 alias=<$0,0>\0A.decl SRC1_UD v_type=G type=UD num_elts=128 alias=<$2,0>\0A.decl SRC2_UD v_type=G type=UD num_elts=$4 alias=<$1,0>\0Adpas.bf.bf.8.$3 (M1, 16) DST.0 DST.0 SRC1_UD.0 SRC2_UD(0,0)\0A}\0A", "=rw,rw,rw,P,P,P,0"(<8 x i16> %.sroa.51.62.vec.insert, <16 x i16> %1133, i32 8, i32 64, i32 128, <8 x float> %1167) #0		; visa id: 1621
  %1172 = call <8 x float> asm "{\0A.decl DST     v_type=G type=f num_elts=$5 alias=<$0,0>\0A.decl SRC1_UD v_type=G type=UD num_elts=128 alias=<$2,0>\0A.decl SRC2_UD v_type=G type=UD num_elts=$4 alias=<$1,0>\0Adpas.bf.bf.8.$3 (M1, 16) DST.0 DST.0 SRC1_UD.0 SRC2_UD(0,0)\0A}\0A", "=rw,rw,rw,P,P,P,0"(<8 x i16> %.sroa.51.62.vec.insert, <16 x i16> %1165, i32 8, i32 64, i32 128, <8 x float> %1168) #0		; visa id: 1621
  %1173 = call <8 x float> asm "{\0A.decl DST     v_type=G type=f num_elts=$5 alias=<$0,0>\0A.decl SRC1_UD v_type=G type=UD num_elts=128 alias=<$2,0>\0A.decl SRC2_UD v_type=G type=UD num_elts=$4 alias=<$1,0>\0Adpas.bf.bf.8.$3 (M1, 16) DST.0 DST.0 SRC1_UD.0 SRC2_UD(0,0)\0A}\0A", "=rw,rw,rw,P,P,P,0"(<8 x i16> %.sroa.35.46.vec.insert, <16 x i16> %1165, i32 8, i32 64, i32 128, <8 x float> %1169) #0		; visa id: 1621
  call void @llvm.genx.GenISA.LSC2DBlockSetAddrPayloadField.p4i8.i32(i8 addrspace(4)* %Block2D_AddrPayload110, i32 5, i32 %139, i1 false)		; visa id: 1621
  call void @llvm.genx.GenISA.LSC2DBlockSetAddrPayloadField.p4i8.i32(i8 addrspace(4)* %Block2D_AddrPayload110, i32 6, i32 %143, i1 false)		; visa id: 1622
  %1174 = call <32 x i16> asm "lsc_load_block2d.ugm (M1, 1)  $0:d$2.$3x$4x$5nt flat[$1+(0,0)]", "=rw,rw.u,P,P,P,P"(i8 addrspace(4)* %Block2D_AddrPayload110, i32 16, i32 2, i32 16, i32 16) #0		; visa id: 1623
  call void @llvm.genx.GenISA.LSC2DBlockSetAddrPayloadField.p4i8.i32(i8 addrspace(4)* %Block2D_AddrPayload110, i32 5, i32 %139, i1 false)		; visa id: 1623
  call void @llvm.genx.GenISA.LSC2DBlockSetAddrPayloadField.p4i8.i32(i8 addrspace(4)* %Block2D_AddrPayload110, i32 6, i32 %898, i1 false)		; visa id: 1624
  %1175 = call <32 x i16> asm "lsc_load_block2d.ugm (M1, 1)  $0:d$2.$3x$4x$5nt flat[$1+(0,0)]", "=rw,rw.u,P,P,P,P"(i8 addrspace(4)* %Block2D_AddrPayload110, i32 16, i32 2, i32 16, i32 16) #0		; visa id: 1625
  %1176 = extractelement <32 x i16> %1174, i32 0		; visa id: 1625
  %1177 = insertelement <16 x i16> undef, i16 %1176, i32 0		; visa id: 1625
  %1178 = extractelement <32 x i16> %1174, i32 1		; visa id: 1625
  %1179 = insertelement <16 x i16> %1177, i16 %1178, i32 1		; visa id: 1625
  %1180 = extractelement <32 x i16> %1174, i32 2		; visa id: 1625
  %1181 = insertelement <16 x i16> %1179, i16 %1180, i32 2		; visa id: 1625
  %1182 = extractelement <32 x i16> %1174, i32 3		; visa id: 1625
  %1183 = insertelement <16 x i16> %1181, i16 %1182, i32 3		; visa id: 1625
  %1184 = extractelement <32 x i16> %1174, i32 4		; visa id: 1625
  %1185 = insertelement <16 x i16> %1183, i16 %1184, i32 4		; visa id: 1625
  %1186 = extractelement <32 x i16> %1174, i32 5		; visa id: 1625
  %1187 = insertelement <16 x i16> %1185, i16 %1186, i32 5		; visa id: 1625
  %1188 = extractelement <32 x i16> %1174, i32 6		; visa id: 1625
  %1189 = insertelement <16 x i16> %1187, i16 %1188, i32 6		; visa id: 1625
  %1190 = extractelement <32 x i16> %1174, i32 7		; visa id: 1625
  %1191 = insertelement <16 x i16> %1189, i16 %1190, i32 7		; visa id: 1625
  %1192 = extractelement <32 x i16> %1174, i32 8		; visa id: 1625
  %1193 = insertelement <16 x i16> %1191, i16 %1192, i32 8		; visa id: 1625
  %1194 = extractelement <32 x i16> %1174, i32 9		; visa id: 1625
  %1195 = insertelement <16 x i16> %1193, i16 %1194, i32 9		; visa id: 1625
  %1196 = extractelement <32 x i16> %1174, i32 10		; visa id: 1625
  %1197 = insertelement <16 x i16> %1195, i16 %1196, i32 10		; visa id: 1625
  %1198 = extractelement <32 x i16> %1174, i32 11		; visa id: 1625
  %1199 = insertelement <16 x i16> %1197, i16 %1198, i32 11		; visa id: 1625
  %1200 = extractelement <32 x i16> %1174, i32 12		; visa id: 1625
  %1201 = insertelement <16 x i16> %1199, i16 %1200, i32 12		; visa id: 1625
  %1202 = extractelement <32 x i16> %1174, i32 13		; visa id: 1625
  %1203 = insertelement <16 x i16> %1201, i16 %1202, i32 13		; visa id: 1625
  %1204 = extractelement <32 x i16> %1174, i32 14		; visa id: 1625
  %1205 = insertelement <16 x i16> %1203, i16 %1204, i32 14		; visa id: 1625
  %1206 = extractelement <32 x i16> %1174, i32 15		; visa id: 1625
  %1207 = insertelement <16 x i16> %1205, i16 %1206, i32 15		; visa id: 1625
  %1208 = extractelement <32 x i16> %1174, i32 16		; visa id: 1625
  %1209 = insertelement <16 x i16> undef, i16 %1208, i32 0		; visa id: 1625
  %1210 = extractelement <32 x i16> %1174, i32 17		; visa id: 1625
  %1211 = insertelement <16 x i16> %1209, i16 %1210, i32 1		; visa id: 1625
  %1212 = extractelement <32 x i16> %1174, i32 18		; visa id: 1625
  %1213 = insertelement <16 x i16> %1211, i16 %1212, i32 2		; visa id: 1625
  %1214 = extractelement <32 x i16> %1174, i32 19		; visa id: 1625
  %1215 = insertelement <16 x i16> %1213, i16 %1214, i32 3		; visa id: 1625
  %1216 = extractelement <32 x i16> %1174, i32 20		; visa id: 1625
  %1217 = insertelement <16 x i16> %1215, i16 %1216, i32 4		; visa id: 1625
  %1218 = extractelement <32 x i16> %1174, i32 21		; visa id: 1625
  %1219 = insertelement <16 x i16> %1217, i16 %1218, i32 5		; visa id: 1625
  %1220 = extractelement <32 x i16> %1174, i32 22		; visa id: 1625
  %1221 = insertelement <16 x i16> %1219, i16 %1220, i32 6		; visa id: 1625
  %1222 = extractelement <32 x i16> %1174, i32 23		; visa id: 1625
  %1223 = insertelement <16 x i16> %1221, i16 %1222, i32 7		; visa id: 1625
  %1224 = extractelement <32 x i16> %1174, i32 24		; visa id: 1625
  %1225 = insertelement <16 x i16> %1223, i16 %1224, i32 8		; visa id: 1625
  %1226 = extractelement <32 x i16> %1174, i32 25		; visa id: 1625
  %1227 = insertelement <16 x i16> %1225, i16 %1226, i32 9		; visa id: 1625
  %1228 = extractelement <32 x i16> %1174, i32 26		; visa id: 1625
  %1229 = insertelement <16 x i16> %1227, i16 %1228, i32 10		; visa id: 1625
  %1230 = extractelement <32 x i16> %1174, i32 27		; visa id: 1625
  %1231 = insertelement <16 x i16> %1229, i16 %1230, i32 11		; visa id: 1625
  %1232 = extractelement <32 x i16> %1174, i32 28		; visa id: 1625
  %1233 = insertelement <16 x i16> %1231, i16 %1232, i32 12		; visa id: 1625
  %1234 = extractelement <32 x i16> %1174, i32 29		; visa id: 1625
  %1235 = insertelement <16 x i16> %1233, i16 %1234, i32 13		; visa id: 1625
  %1236 = extractelement <32 x i16> %1174, i32 30		; visa id: 1625
  %1237 = insertelement <16 x i16> %1235, i16 %1236, i32 14		; visa id: 1625
  %1238 = extractelement <32 x i16> %1174, i32 31		; visa id: 1625
  %1239 = insertelement <16 x i16> %1237, i16 %1238, i32 15		; visa id: 1625
  %1240 = extractelement <32 x i16> %1175, i32 0		; visa id: 1625
  %1241 = insertelement <16 x i16> undef, i16 %1240, i32 0		; visa id: 1625
  %1242 = extractelement <32 x i16> %1175, i32 1		; visa id: 1625
  %1243 = insertelement <16 x i16> %1241, i16 %1242, i32 1		; visa id: 1625
  %1244 = extractelement <32 x i16> %1175, i32 2		; visa id: 1625
  %1245 = insertelement <16 x i16> %1243, i16 %1244, i32 2		; visa id: 1625
  %1246 = extractelement <32 x i16> %1175, i32 3		; visa id: 1625
  %1247 = insertelement <16 x i16> %1245, i16 %1246, i32 3		; visa id: 1625
  %1248 = extractelement <32 x i16> %1175, i32 4		; visa id: 1625
  %1249 = insertelement <16 x i16> %1247, i16 %1248, i32 4		; visa id: 1625
  %1250 = extractelement <32 x i16> %1175, i32 5		; visa id: 1625
  %1251 = insertelement <16 x i16> %1249, i16 %1250, i32 5		; visa id: 1625
  %1252 = extractelement <32 x i16> %1175, i32 6		; visa id: 1625
  %1253 = insertelement <16 x i16> %1251, i16 %1252, i32 6		; visa id: 1625
  %1254 = extractelement <32 x i16> %1175, i32 7		; visa id: 1625
  %1255 = insertelement <16 x i16> %1253, i16 %1254, i32 7		; visa id: 1625
  %1256 = extractelement <32 x i16> %1175, i32 8		; visa id: 1625
  %1257 = insertelement <16 x i16> %1255, i16 %1256, i32 8		; visa id: 1625
  %1258 = extractelement <32 x i16> %1175, i32 9		; visa id: 1625
  %1259 = insertelement <16 x i16> %1257, i16 %1258, i32 9		; visa id: 1625
  %1260 = extractelement <32 x i16> %1175, i32 10		; visa id: 1625
  %1261 = insertelement <16 x i16> %1259, i16 %1260, i32 10		; visa id: 1625
  %1262 = extractelement <32 x i16> %1175, i32 11		; visa id: 1625
  %1263 = insertelement <16 x i16> %1261, i16 %1262, i32 11		; visa id: 1625
  %1264 = extractelement <32 x i16> %1175, i32 12		; visa id: 1625
  %1265 = insertelement <16 x i16> %1263, i16 %1264, i32 12		; visa id: 1625
  %1266 = extractelement <32 x i16> %1175, i32 13		; visa id: 1625
  %1267 = insertelement <16 x i16> %1265, i16 %1266, i32 13		; visa id: 1625
  %1268 = extractelement <32 x i16> %1175, i32 14		; visa id: 1625
  %1269 = insertelement <16 x i16> %1267, i16 %1268, i32 14		; visa id: 1625
  %1270 = extractelement <32 x i16> %1175, i32 15		; visa id: 1625
  %1271 = insertelement <16 x i16> %1269, i16 %1270, i32 15		; visa id: 1625
  %1272 = extractelement <32 x i16> %1175, i32 16		; visa id: 1625
  %1273 = insertelement <16 x i16> undef, i16 %1272, i32 0		; visa id: 1625
  %1274 = extractelement <32 x i16> %1175, i32 17		; visa id: 1625
  %1275 = insertelement <16 x i16> %1273, i16 %1274, i32 1		; visa id: 1625
  %1276 = extractelement <32 x i16> %1175, i32 18		; visa id: 1625
  %1277 = insertelement <16 x i16> %1275, i16 %1276, i32 2		; visa id: 1625
  %1278 = extractelement <32 x i16> %1175, i32 19		; visa id: 1625
  %1279 = insertelement <16 x i16> %1277, i16 %1278, i32 3		; visa id: 1625
  %1280 = extractelement <32 x i16> %1175, i32 20		; visa id: 1625
  %1281 = insertelement <16 x i16> %1279, i16 %1280, i32 4		; visa id: 1625
  %1282 = extractelement <32 x i16> %1175, i32 21		; visa id: 1625
  %1283 = insertelement <16 x i16> %1281, i16 %1282, i32 5		; visa id: 1625
  %1284 = extractelement <32 x i16> %1175, i32 22		; visa id: 1625
  %1285 = insertelement <16 x i16> %1283, i16 %1284, i32 6		; visa id: 1625
  %1286 = extractelement <32 x i16> %1175, i32 23		; visa id: 1625
  %1287 = insertelement <16 x i16> %1285, i16 %1286, i32 7		; visa id: 1625
  %1288 = extractelement <32 x i16> %1175, i32 24		; visa id: 1625
  %1289 = insertelement <16 x i16> %1287, i16 %1288, i32 8		; visa id: 1625
  %1290 = extractelement <32 x i16> %1175, i32 25		; visa id: 1625
  %1291 = insertelement <16 x i16> %1289, i16 %1290, i32 9		; visa id: 1625
  %1292 = extractelement <32 x i16> %1175, i32 26		; visa id: 1625
  %1293 = insertelement <16 x i16> %1291, i16 %1292, i32 10		; visa id: 1625
  %1294 = extractelement <32 x i16> %1175, i32 27		; visa id: 1625
  %1295 = insertelement <16 x i16> %1293, i16 %1294, i32 11		; visa id: 1625
  %1296 = extractelement <32 x i16> %1175, i32 28		; visa id: 1625
  %1297 = insertelement <16 x i16> %1295, i16 %1296, i32 12		; visa id: 1625
  %1298 = extractelement <32 x i16> %1175, i32 29		; visa id: 1625
  %1299 = insertelement <16 x i16> %1297, i16 %1298, i32 13		; visa id: 1625
  %1300 = extractelement <32 x i16> %1175, i32 30		; visa id: 1625
  %1301 = insertelement <16 x i16> %1299, i16 %1300, i32 14		; visa id: 1625
  %1302 = extractelement <32 x i16> %1175, i32 31		; visa id: 1625
  %1303 = insertelement <16 x i16> %1301, i16 %1302, i32 15		; visa id: 1625
  %1304 = call <8 x float> asm "{\0A.decl DST     v_type=G type=f num_elts=$5 alias=<$0,0>\0A.decl SRC1_UD v_type=G type=UD num_elts=128 alias=<$2,0>\0A.decl SRC2_UD v_type=G type=UD num_elts=$4 alias=<$1,0>\0Adpas.bf.bf.8.$3 (M1, 16) DST.0 DST.0 SRC1_UD.0 SRC2_UD(0,0)\0A}\0A", "=rw,rw,rw,P,P,P,0"(<8 x i16> %.sroa.01434.14.vec.insert, <16 x i16> %1207, i32 8, i32 64, i32 128, <8 x float> %.sroa.228.1) #0		; visa id: 1625
  %1305 = call <8 x float> asm "{\0A.decl DST     v_type=G type=f num_elts=$5 alias=<$0,0>\0A.decl SRC1_UD v_type=G type=UD num_elts=128 alias=<$2,0>\0A.decl SRC2_UD v_type=G type=UD num_elts=$4 alias=<$1,0>\0Adpas.bf.bf.8.$3 (M1, 16) DST.0 DST.0 SRC1_UD.0 SRC2_UD(0,0)\0A}\0A", "=rw,rw,rw,P,P,P,0"(<8 x i16> %.sroa.19.30.vec.insert, <16 x i16> %1207, i32 8, i32 64, i32 128, <8 x float> %.sroa.256.1) #0		; visa id: 1625
  %1306 = call <8 x float> asm "{\0A.decl DST     v_type=G type=f num_elts=$5 alias=<$0,0>\0A.decl SRC1_UD v_type=G type=UD num_elts=128 alias=<$2,0>\0A.decl SRC2_UD v_type=G type=UD num_elts=$4 alias=<$1,0>\0Adpas.bf.bf.8.$3 (M1, 16) DST.0 DST.0 SRC1_UD.0 SRC2_UD(0,0)\0A}\0A", "=rw,rw,rw,P,P,P,0"(<8 x i16> %.sroa.19.30.vec.insert, <16 x i16> %1239, i32 8, i32 64, i32 128, <8 x float> %.sroa.312.1) #0		; visa id: 1625
  %1307 = call <8 x float> asm "{\0A.decl DST     v_type=G type=f num_elts=$5 alias=<$0,0>\0A.decl SRC1_UD v_type=G type=UD num_elts=128 alias=<$2,0>\0A.decl SRC2_UD v_type=G type=UD num_elts=$4 alias=<$1,0>\0Adpas.bf.bf.8.$3 (M1, 16) DST.0 DST.0 SRC1_UD.0 SRC2_UD(0,0)\0A}\0A", "=rw,rw,rw,P,P,P,0"(<8 x i16> %.sroa.01434.14.vec.insert, <16 x i16> %1239, i32 8, i32 64, i32 128, <8 x float> %.sroa.284.1) #0		; visa id: 1625
  %1308 = call <8 x float> asm "{\0A.decl DST     v_type=G type=f num_elts=$5 alias=<$0,0>\0A.decl SRC1_UD v_type=G type=UD num_elts=128 alias=<$2,0>\0A.decl SRC2_UD v_type=G type=UD num_elts=$4 alias=<$1,0>\0Adpas.bf.bf.8.$3 (M1, 16) DST.0 DST.0 SRC1_UD.0 SRC2_UD(0,0)\0A}\0A", "=rw,rw,rw,P,P,P,0"(<8 x i16> %.sroa.35.46.vec.insert, <16 x i16> %1271, i32 8, i32 64, i32 128, <8 x float> %1304) #0		; visa id: 1625
  %1309 = call <8 x float> asm "{\0A.decl DST     v_type=G type=f num_elts=$5 alias=<$0,0>\0A.decl SRC1_UD v_type=G type=UD num_elts=128 alias=<$2,0>\0A.decl SRC2_UD v_type=G type=UD num_elts=$4 alias=<$1,0>\0Adpas.bf.bf.8.$3 (M1, 16) DST.0 DST.0 SRC1_UD.0 SRC2_UD(0,0)\0A}\0A", "=rw,rw,rw,P,P,P,0"(<8 x i16> %.sroa.51.62.vec.insert, <16 x i16> %1271, i32 8, i32 64, i32 128, <8 x float> %1305) #0		; visa id: 1625
  %1310 = call <8 x float> asm "{\0A.decl DST     v_type=G type=f num_elts=$5 alias=<$0,0>\0A.decl SRC1_UD v_type=G type=UD num_elts=128 alias=<$2,0>\0A.decl SRC2_UD v_type=G type=UD num_elts=$4 alias=<$1,0>\0Adpas.bf.bf.8.$3 (M1, 16) DST.0 DST.0 SRC1_UD.0 SRC2_UD(0,0)\0A}\0A", "=rw,rw,rw,P,P,P,0"(<8 x i16> %.sroa.51.62.vec.insert, <16 x i16> %1303, i32 8, i32 64, i32 128, <8 x float> %1306) #0		; visa id: 1625
  %1311 = call <8 x float> asm "{\0A.decl DST     v_type=G type=f num_elts=$5 alias=<$0,0>\0A.decl SRC1_UD v_type=G type=UD num_elts=128 alias=<$2,0>\0A.decl SRC2_UD v_type=G type=UD num_elts=$4 alias=<$1,0>\0Adpas.bf.bf.8.$3 (M1, 16) DST.0 DST.0 SRC1_UD.0 SRC2_UD(0,0)\0A}\0A", "=rw,rw,rw,P,P,P,0"(<8 x i16> %.sroa.35.46.vec.insert, <16 x i16> %1303, i32 8, i32 64, i32 128, <8 x float> %1307) #0		; visa id: 1625
  call void @llvm.genx.GenISA.LSC2DBlockSetAddrPayloadField.p4i8.i32(i8 addrspace(4)* %Block2D_AddrPayload110, i32 5, i32 %140, i1 false)		; visa id: 1625
  call void @llvm.genx.GenISA.LSC2DBlockSetAddrPayloadField.p4i8.i32(i8 addrspace(4)* %Block2D_AddrPayload110, i32 6, i32 %143, i1 false)		; visa id: 1626
  %1312 = call <32 x i16> asm "lsc_load_block2d.ugm (M1, 1)  $0:d$2.$3x$4x$5nt flat[$1+(0,0)]", "=rw,rw.u,P,P,P,P"(i8 addrspace(4)* %Block2D_AddrPayload110, i32 16, i32 2, i32 16, i32 16) #0		; visa id: 1627
  call void @llvm.genx.GenISA.LSC2DBlockSetAddrPayloadField.p4i8.i32(i8 addrspace(4)* %Block2D_AddrPayload110, i32 5, i32 %140, i1 false)		; visa id: 1627
  call void @llvm.genx.GenISA.LSC2DBlockSetAddrPayloadField.p4i8.i32(i8 addrspace(4)* %Block2D_AddrPayload110, i32 6, i32 %898, i1 false)		; visa id: 1628
  %1313 = call <32 x i16> asm "lsc_load_block2d.ugm (M1, 1)  $0:d$2.$3x$4x$5nt flat[$1+(0,0)]", "=rw,rw.u,P,P,P,P"(i8 addrspace(4)* %Block2D_AddrPayload110, i32 16, i32 2, i32 16, i32 16) #0		; visa id: 1629
  %1314 = extractelement <32 x i16> %1312, i32 0		; visa id: 1629
  %1315 = insertelement <16 x i16> undef, i16 %1314, i32 0		; visa id: 1629
  %1316 = extractelement <32 x i16> %1312, i32 1		; visa id: 1629
  %1317 = insertelement <16 x i16> %1315, i16 %1316, i32 1		; visa id: 1629
  %1318 = extractelement <32 x i16> %1312, i32 2		; visa id: 1629
  %1319 = insertelement <16 x i16> %1317, i16 %1318, i32 2		; visa id: 1629
  %1320 = extractelement <32 x i16> %1312, i32 3		; visa id: 1629
  %1321 = insertelement <16 x i16> %1319, i16 %1320, i32 3		; visa id: 1629
  %1322 = extractelement <32 x i16> %1312, i32 4		; visa id: 1629
  %1323 = insertelement <16 x i16> %1321, i16 %1322, i32 4		; visa id: 1629
  %1324 = extractelement <32 x i16> %1312, i32 5		; visa id: 1629
  %1325 = insertelement <16 x i16> %1323, i16 %1324, i32 5		; visa id: 1629
  %1326 = extractelement <32 x i16> %1312, i32 6		; visa id: 1629
  %1327 = insertelement <16 x i16> %1325, i16 %1326, i32 6		; visa id: 1629
  %1328 = extractelement <32 x i16> %1312, i32 7		; visa id: 1629
  %1329 = insertelement <16 x i16> %1327, i16 %1328, i32 7		; visa id: 1629
  %1330 = extractelement <32 x i16> %1312, i32 8		; visa id: 1629
  %1331 = insertelement <16 x i16> %1329, i16 %1330, i32 8		; visa id: 1629
  %1332 = extractelement <32 x i16> %1312, i32 9		; visa id: 1629
  %1333 = insertelement <16 x i16> %1331, i16 %1332, i32 9		; visa id: 1629
  %1334 = extractelement <32 x i16> %1312, i32 10		; visa id: 1629
  %1335 = insertelement <16 x i16> %1333, i16 %1334, i32 10		; visa id: 1629
  %1336 = extractelement <32 x i16> %1312, i32 11		; visa id: 1629
  %1337 = insertelement <16 x i16> %1335, i16 %1336, i32 11		; visa id: 1629
  %1338 = extractelement <32 x i16> %1312, i32 12		; visa id: 1629
  %1339 = insertelement <16 x i16> %1337, i16 %1338, i32 12		; visa id: 1629
  %1340 = extractelement <32 x i16> %1312, i32 13		; visa id: 1629
  %1341 = insertelement <16 x i16> %1339, i16 %1340, i32 13		; visa id: 1629
  %1342 = extractelement <32 x i16> %1312, i32 14		; visa id: 1629
  %1343 = insertelement <16 x i16> %1341, i16 %1342, i32 14		; visa id: 1629
  %1344 = extractelement <32 x i16> %1312, i32 15		; visa id: 1629
  %1345 = insertelement <16 x i16> %1343, i16 %1344, i32 15		; visa id: 1629
  %1346 = extractelement <32 x i16> %1312, i32 16		; visa id: 1629
  %1347 = insertelement <16 x i16> undef, i16 %1346, i32 0		; visa id: 1629
  %1348 = extractelement <32 x i16> %1312, i32 17		; visa id: 1629
  %1349 = insertelement <16 x i16> %1347, i16 %1348, i32 1		; visa id: 1629
  %1350 = extractelement <32 x i16> %1312, i32 18		; visa id: 1629
  %1351 = insertelement <16 x i16> %1349, i16 %1350, i32 2		; visa id: 1629
  %1352 = extractelement <32 x i16> %1312, i32 19		; visa id: 1629
  %1353 = insertelement <16 x i16> %1351, i16 %1352, i32 3		; visa id: 1629
  %1354 = extractelement <32 x i16> %1312, i32 20		; visa id: 1629
  %1355 = insertelement <16 x i16> %1353, i16 %1354, i32 4		; visa id: 1629
  %1356 = extractelement <32 x i16> %1312, i32 21		; visa id: 1629
  %1357 = insertelement <16 x i16> %1355, i16 %1356, i32 5		; visa id: 1629
  %1358 = extractelement <32 x i16> %1312, i32 22		; visa id: 1629
  %1359 = insertelement <16 x i16> %1357, i16 %1358, i32 6		; visa id: 1629
  %1360 = extractelement <32 x i16> %1312, i32 23		; visa id: 1629
  %1361 = insertelement <16 x i16> %1359, i16 %1360, i32 7		; visa id: 1629
  %1362 = extractelement <32 x i16> %1312, i32 24		; visa id: 1629
  %1363 = insertelement <16 x i16> %1361, i16 %1362, i32 8		; visa id: 1629
  %1364 = extractelement <32 x i16> %1312, i32 25		; visa id: 1629
  %1365 = insertelement <16 x i16> %1363, i16 %1364, i32 9		; visa id: 1629
  %1366 = extractelement <32 x i16> %1312, i32 26		; visa id: 1629
  %1367 = insertelement <16 x i16> %1365, i16 %1366, i32 10		; visa id: 1629
  %1368 = extractelement <32 x i16> %1312, i32 27		; visa id: 1629
  %1369 = insertelement <16 x i16> %1367, i16 %1368, i32 11		; visa id: 1629
  %1370 = extractelement <32 x i16> %1312, i32 28		; visa id: 1629
  %1371 = insertelement <16 x i16> %1369, i16 %1370, i32 12		; visa id: 1629
  %1372 = extractelement <32 x i16> %1312, i32 29		; visa id: 1629
  %1373 = insertelement <16 x i16> %1371, i16 %1372, i32 13		; visa id: 1629
  %1374 = extractelement <32 x i16> %1312, i32 30		; visa id: 1629
  %1375 = insertelement <16 x i16> %1373, i16 %1374, i32 14		; visa id: 1629
  %1376 = extractelement <32 x i16> %1312, i32 31		; visa id: 1629
  %1377 = insertelement <16 x i16> %1375, i16 %1376, i32 15		; visa id: 1629
  %1378 = extractelement <32 x i16> %1313, i32 0		; visa id: 1629
  %1379 = insertelement <16 x i16> undef, i16 %1378, i32 0		; visa id: 1629
  %1380 = extractelement <32 x i16> %1313, i32 1		; visa id: 1629
  %1381 = insertelement <16 x i16> %1379, i16 %1380, i32 1		; visa id: 1629
  %1382 = extractelement <32 x i16> %1313, i32 2		; visa id: 1629
  %1383 = insertelement <16 x i16> %1381, i16 %1382, i32 2		; visa id: 1629
  %1384 = extractelement <32 x i16> %1313, i32 3		; visa id: 1629
  %1385 = insertelement <16 x i16> %1383, i16 %1384, i32 3		; visa id: 1629
  %1386 = extractelement <32 x i16> %1313, i32 4		; visa id: 1629
  %1387 = insertelement <16 x i16> %1385, i16 %1386, i32 4		; visa id: 1629
  %1388 = extractelement <32 x i16> %1313, i32 5		; visa id: 1629
  %1389 = insertelement <16 x i16> %1387, i16 %1388, i32 5		; visa id: 1629
  %1390 = extractelement <32 x i16> %1313, i32 6		; visa id: 1629
  %1391 = insertelement <16 x i16> %1389, i16 %1390, i32 6		; visa id: 1629
  %1392 = extractelement <32 x i16> %1313, i32 7		; visa id: 1629
  %1393 = insertelement <16 x i16> %1391, i16 %1392, i32 7		; visa id: 1629
  %1394 = extractelement <32 x i16> %1313, i32 8		; visa id: 1629
  %1395 = insertelement <16 x i16> %1393, i16 %1394, i32 8		; visa id: 1629
  %1396 = extractelement <32 x i16> %1313, i32 9		; visa id: 1629
  %1397 = insertelement <16 x i16> %1395, i16 %1396, i32 9		; visa id: 1629
  %1398 = extractelement <32 x i16> %1313, i32 10		; visa id: 1629
  %1399 = insertelement <16 x i16> %1397, i16 %1398, i32 10		; visa id: 1629
  %1400 = extractelement <32 x i16> %1313, i32 11		; visa id: 1629
  %1401 = insertelement <16 x i16> %1399, i16 %1400, i32 11		; visa id: 1629
  %1402 = extractelement <32 x i16> %1313, i32 12		; visa id: 1629
  %1403 = insertelement <16 x i16> %1401, i16 %1402, i32 12		; visa id: 1629
  %1404 = extractelement <32 x i16> %1313, i32 13		; visa id: 1629
  %1405 = insertelement <16 x i16> %1403, i16 %1404, i32 13		; visa id: 1629
  %1406 = extractelement <32 x i16> %1313, i32 14		; visa id: 1629
  %1407 = insertelement <16 x i16> %1405, i16 %1406, i32 14		; visa id: 1629
  %1408 = extractelement <32 x i16> %1313, i32 15		; visa id: 1629
  %1409 = insertelement <16 x i16> %1407, i16 %1408, i32 15		; visa id: 1629
  %1410 = extractelement <32 x i16> %1313, i32 16		; visa id: 1629
  %1411 = insertelement <16 x i16> undef, i16 %1410, i32 0		; visa id: 1629
  %1412 = extractelement <32 x i16> %1313, i32 17		; visa id: 1629
  %1413 = insertelement <16 x i16> %1411, i16 %1412, i32 1		; visa id: 1629
  %1414 = extractelement <32 x i16> %1313, i32 18		; visa id: 1629
  %1415 = insertelement <16 x i16> %1413, i16 %1414, i32 2		; visa id: 1629
  %1416 = extractelement <32 x i16> %1313, i32 19		; visa id: 1629
  %1417 = insertelement <16 x i16> %1415, i16 %1416, i32 3		; visa id: 1629
  %1418 = extractelement <32 x i16> %1313, i32 20		; visa id: 1629
  %1419 = insertelement <16 x i16> %1417, i16 %1418, i32 4		; visa id: 1629
  %1420 = extractelement <32 x i16> %1313, i32 21		; visa id: 1629
  %1421 = insertelement <16 x i16> %1419, i16 %1420, i32 5		; visa id: 1629
  %1422 = extractelement <32 x i16> %1313, i32 22		; visa id: 1629
  %1423 = insertelement <16 x i16> %1421, i16 %1422, i32 6		; visa id: 1629
  %1424 = extractelement <32 x i16> %1313, i32 23		; visa id: 1629
  %1425 = insertelement <16 x i16> %1423, i16 %1424, i32 7		; visa id: 1629
  %1426 = extractelement <32 x i16> %1313, i32 24		; visa id: 1629
  %1427 = insertelement <16 x i16> %1425, i16 %1426, i32 8		; visa id: 1629
  %1428 = extractelement <32 x i16> %1313, i32 25		; visa id: 1629
  %1429 = insertelement <16 x i16> %1427, i16 %1428, i32 9		; visa id: 1629
  %1430 = extractelement <32 x i16> %1313, i32 26		; visa id: 1629
  %1431 = insertelement <16 x i16> %1429, i16 %1430, i32 10		; visa id: 1629
  %1432 = extractelement <32 x i16> %1313, i32 27		; visa id: 1629
  %1433 = insertelement <16 x i16> %1431, i16 %1432, i32 11		; visa id: 1629
  %1434 = extractelement <32 x i16> %1313, i32 28		; visa id: 1629
  %1435 = insertelement <16 x i16> %1433, i16 %1434, i32 12		; visa id: 1629
  %1436 = extractelement <32 x i16> %1313, i32 29		; visa id: 1629
  %1437 = insertelement <16 x i16> %1435, i16 %1436, i32 13		; visa id: 1629
  %1438 = extractelement <32 x i16> %1313, i32 30		; visa id: 1629
  %1439 = insertelement <16 x i16> %1437, i16 %1438, i32 14		; visa id: 1629
  %1440 = extractelement <32 x i16> %1313, i32 31		; visa id: 1629
  %1441 = insertelement <16 x i16> %1439, i16 %1440, i32 15		; visa id: 1629
  %1442 = call <8 x float> asm "{\0A.decl DST     v_type=G type=f num_elts=$5 alias=<$0,0>\0A.decl SRC1_UD v_type=G type=UD num_elts=128 alias=<$2,0>\0A.decl SRC2_UD v_type=G type=UD num_elts=$4 alias=<$1,0>\0Adpas.bf.bf.8.$3 (M1, 16) DST.0 DST.0 SRC1_UD.0 SRC2_UD(0,0)\0A}\0A", "=rw,rw,rw,P,P,P,0"(<8 x i16> %.sroa.01434.14.vec.insert, <16 x i16> %1345, i32 8, i32 64, i32 128, <8 x float> %.sroa.340.1) #0		; visa id: 1629
  %1443 = call <8 x float> asm "{\0A.decl DST     v_type=G type=f num_elts=$5 alias=<$0,0>\0A.decl SRC1_UD v_type=G type=UD num_elts=128 alias=<$2,0>\0A.decl SRC2_UD v_type=G type=UD num_elts=$4 alias=<$1,0>\0Adpas.bf.bf.8.$3 (M1, 16) DST.0 DST.0 SRC1_UD.0 SRC2_UD(0,0)\0A}\0A", "=rw,rw,rw,P,P,P,0"(<8 x i16> %.sroa.19.30.vec.insert, <16 x i16> %1345, i32 8, i32 64, i32 128, <8 x float> %.sroa.368.1) #0		; visa id: 1629
  %1444 = call <8 x float> asm "{\0A.decl DST     v_type=G type=f num_elts=$5 alias=<$0,0>\0A.decl SRC1_UD v_type=G type=UD num_elts=128 alias=<$2,0>\0A.decl SRC2_UD v_type=G type=UD num_elts=$4 alias=<$1,0>\0Adpas.bf.bf.8.$3 (M1, 16) DST.0 DST.0 SRC1_UD.0 SRC2_UD(0,0)\0A}\0A", "=rw,rw,rw,P,P,P,0"(<8 x i16> %.sroa.19.30.vec.insert, <16 x i16> %1377, i32 8, i32 64, i32 128, <8 x float> %.sroa.424.1) #0		; visa id: 1629
  %1445 = call <8 x float> asm "{\0A.decl DST     v_type=G type=f num_elts=$5 alias=<$0,0>\0A.decl SRC1_UD v_type=G type=UD num_elts=128 alias=<$2,0>\0A.decl SRC2_UD v_type=G type=UD num_elts=$4 alias=<$1,0>\0Adpas.bf.bf.8.$3 (M1, 16) DST.0 DST.0 SRC1_UD.0 SRC2_UD(0,0)\0A}\0A", "=rw,rw,rw,P,P,P,0"(<8 x i16> %.sroa.01434.14.vec.insert, <16 x i16> %1377, i32 8, i32 64, i32 128, <8 x float> %.sroa.396.1) #0		; visa id: 1629
  %1446 = call <8 x float> asm "{\0A.decl DST     v_type=G type=f num_elts=$5 alias=<$0,0>\0A.decl SRC1_UD v_type=G type=UD num_elts=128 alias=<$2,0>\0A.decl SRC2_UD v_type=G type=UD num_elts=$4 alias=<$1,0>\0Adpas.bf.bf.8.$3 (M1, 16) DST.0 DST.0 SRC1_UD.0 SRC2_UD(0,0)\0A}\0A", "=rw,rw,rw,P,P,P,0"(<8 x i16> %.sroa.35.46.vec.insert, <16 x i16> %1409, i32 8, i32 64, i32 128, <8 x float> %1442) #0		; visa id: 1629
  %1447 = call <8 x float> asm "{\0A.decl DST     v_type=G type=f num_elts=$5 alias=<$0,0>\0A.decl SRC1_UD v_type=G type=UD num_elts=128 alias=<$2,0>\0A.decl SRC2_UD v_type=G type=UD num_elts=$4 alias=<$1,0>\0Adpas.bf.bf.8.$3 (M1, 16) DST.0 DST.0 SRC1_UD.0 SRC2_UD(0,0)\0A}\0A", "=rw,rw,rw,P,P,P,0"(<8 x i16> %.sroa.51.62.vec.insert, <16 x i16> %1409, i32 8, i32 64, i32 128, <8 x float> %1443) #0		; visa id: 1629
  %1448 = call <8 x float> asm "{\0A.decl DST     v_type=G type=f num_elts=$5 alias=<$0,0>\0A.decl SRC1_UD v_type=G type=UD num_elts=128 alias=<$2,0>\0A.decl SRC2_UD v_type=G type=UD num_elts=$4 alias=<$1,0>\0Adpas.bf.bf.8.$3 (M1, 16) DST.0 DST.0 SRC1_UD.0 SRC2_UD(0,0)\0A}\0A", "=rw,rw,rw,P,P,P,0"(<8 x i16> %.sroa.51.62.vec.insert, <16 x i16> %1441, i32 8, i32 64, i32 128, <8 x float> %1444) #0		; visa id: 1629
  %1449 = call <8 x float> asm "{\0A.decl DST     v_type=G type=f num_elts=$5 alias=<$0,0>\0A.decl SRC1_UD v_type=G type=UD num_elts=128 alias=<$2,0>\0A.decl SRC2_UD v_type=G type=UD num_elts=$4 alias=<$1,0>\0Adpas.bf.bf.8.$3 (M1, 16) DST.0 DST.0 SRC1_UD.0 SRC2_UD(0,0)\0A}\0A", "=rw,rw,rw,P,P,P,0"(<8 x i16> %.sroa.35.46.vec.insert, <16 x i16> %1441, i32 8, i32 64, i32 128, <8 x float> %1445) #0		; visa id: 1629
  %1450 = fadd reassoc nsz arcp contract float %.sroa.0114.2, %896, !spirv.Decorations !1233		; visa id: 1629
  br i1 %109, label %.lr.ph178, label %.loopexit.i._ZZN7cutlass4fmha10collective15FMHAFwdMainloopINS0_9XeDefaultILi2EEELb0ELb0ELb0EN4cute8TiledMMAINS5_8MMA_AtomIJNS5_10XE_DPAS_TTILi8EfNS_10bfloat16_tES9_fEEEEENS5_6LayoutINS5_5tupleIJNS5_1CILi16EEENSE_ILi1EEESG_EEENSD_IJSG_NSE_ILi0EEESI_EEEEEKNSD_IJNSC_INSD_IJNSE_ILi8EEESF_NSE_ILi2EEEEEENSD_IJSG_SF_SL_EEEEENSC_INSE_ILi32EEESG_EESR_EEEEESU_Li4ENS5_6TensorINS5_10ViewEngineINS5_8gmem_ptrIPS9_EEEENSC_INSD_IJiiiiEEENSD_IJiSG_iiEEEEEEES14_NSV_IS10_NSC_IS11_NSD_IJSG_iiiEEEEEEES14_S17_vvvvvEclINSD_IJjjEEEEEvRKNSV_IS10_NSC_INSD_IJiiEEENSD_IJiSG_EEEEEEES1G_RKNSV_IS10_NSC_IS1B_NSD_IJSG_iEEEEEEERNS5_14SubgroupTensorINS5_11ArrayEngineIfLm128EEENSC_INSD_IJSL_SM_SM_NSE_ILi4EEEEEENSD_IJSG_SL_SF_SQ_EEEEENSC_INSD_IJSF_NSD_IJSL_NSD_IJSM_SM_EEES1P_EEEEEENSD_IJNS5_11ScaledBasisISG_JLi1EEEENSD_IJNS1W_ISG_JLi0EEEENSD_IJNS1W_ISL_JLi0EEEENS1W_ISF_JLi1EEEEEEENS1W_ISQ_JLi1EEEEEEEEEEEEEERNSV_INS1N_IfLm1EEENSC_ISG_SI_EEEES2B_T_iiiiiiiiiS1G_S1L_ENKUlS2C_iRT0_RT1_RT2_RT3_RT4_RT5_E_clISt17integral_constantIbLb0EENS5_9TiledCopyINS5_9Copy_Atom_crit_edge, !stats.blockFrequency.digits !1224, !stats.blockFrequency.scale !1218		; visa id: 1630

.loopexit.i._ZZN7cutlass4fmha10collective15FMHAFwdMainloopINS0_9XeDefaultILi2EEELb0ELb0ELb0EN4cute8TiledMMAINS5_8MMA_AtomIJNS5_10XE_DPAS_TTILi8EfNS_10bfloat16_tES9_fEEEEENS5_6LayoutINS5_5tupleIJNS5_1CILi16EEENSE_ILi1EEESG_EEENSD_IJSG_NSE_ILi0EEESI_EEEEEKNSD_IJNSC_INSD_IJNSE_ILi8EEESF_NSE_ILi2EEEEEENSD_IJSG_SF_SL_EEEEENSC_INSE_ILi32EEESG_EESR_EEEEESU_Li4ENS5_6TensorINS5_10ViewEngineINS5_8gmem_ptrIPS9_EEEENSC_INSD_IJiiiiEEENSD_IJiSG_iiEEEEEEES14_NSV_IS10_NSC_IS11_NSD_IJSG_iiiEEEEEEES14_S17_vvvvvEclINSD_IJjjEEEEEvRKNSV_IS10_NSC_INSD_IJiiEEENSD_IJiSG_EEEEEEES1G_RKNSV_IS10_NSC_IS1B_NSD_IJSG_iEEEEEEERNS5_14SubgroupTensorINS5_11ArrayEngineIfLm128EEENSC_INSD_IJSL_SM_SM_NSE_ILi4EEEEEENSD_IJSG_SL_SF_SQ_EEEEENSC_INSD_IJSF_NSD_IJSL_NSD_IJSM_SM_EEES1P_EEEEEENSD_IJNS5_11ScaledBasisISG_JLi1EEEENSD_IJNS1W_ISG_JLi0EEEENSD_IJNS1W_ISL_JLi0EEEENS1W_ISF_JLi1EEEEEEENS1W_ISQ_JLi1EEEEEEEEEEEEEERNSV_INS1N_IfLm1EEENSC_ISG_SI_EEEES2B_T_iiiiiiiiiS1G_S1L_ENKUlS2C_iRT0_RT1_RT2_RT3_RT4_RT5_E_clISt17integral_constantIbLb0EENS5_9TiledCopyINS5_9Copy_Atom_crit_edge: ; preds = %.loopexit.i
; BB:
  br label %_ZZN7cutlass4fmha10collective15FMHAFwdMainloopINS0_9XeDefaultILi2EEELb0ELb0ELb0EN4cute8TiledMMAINS5_8MMA_AtomIJNS5_10XE_DPAS_TTILi8EfNS_10bfloat16_tES9_fEEEEENS5_6LayoutINS5_5tupleIJNS5_1CILi16EEENSE_ILi1EEESG_EEENSD_IJSG_NSE_ILi0EEESI_EEEEEKNSD_IJNSC_INSD_IJNSE_ILi8EEESF_NSE_ILi2EEEEEENSD_IJSG_SF_SL_EEEEENSC_INSE_ILi32EEESG_EESR_EEEEESU_Li4ENS5_6TensorINS5_10ViewEngineINS5_8gmem_ptrIPS9_EEEENSC_INSD_IJiiiiEEENSD_IJiSG_iiEEEEEEES14_NSV_IS10_NSC_IS11_NSD_IJSG_iiiEEEEEEES14_S17_vvvvvEclINSD_IJjjEEEEEvRKNSV_IS10_NSC_INSD_IJiiEEENSD_IJiSG_EEEEEEES1G_RKNSV_IS10_NSC_IS1B_NSD_IJSG_iEEEEEEERNS5_14SubgroupTensorINS5_11ArrayEngineIfLm128EEENSC_INSD_IJSL_SM_SM_NSE_ILi4EEEEEENSD_IJSG_SL_SF_SQ_EEEEENSC_INSD_IJSF_NSD_IJSL_NSD_IJSM_SM_EEES1P_EEEEEENSD_IJNS5_11ScaledBasisISG_JLi1EEEENSD_IJNS1W_ISG_JLi0EEEENSD_IJNS1W_ISL_JLi0EEEENS1W_ISF_JLi1EEEEEEENS1W_ISQ_JLi1EEEEEEEEEEEEEERNSV_INS1N_IfLm1EEENSC_ISG_SI_EEEES2B_T_iiiiiiiiiS1G_S1L_ENKUlS2C_iRT0_RT1_RT2_RT3_RT4_RT5_E_clISt17integral_constantIbLb0EENS5_9TiledCopyINS5_9Copy_Atom, !stats.blockFrequency.digits !1225, !stats.blockFrequency.scale !1226

.lr.ph178:                                        ; preds = %.loopexit.i
; BB56 :
  %1451 = add nuw nsw i32 %141, 2, !spirv.Decorations !1212
  %1452 = sub nsw i32 %1451, %qot3462, !spirv.Decorations !1212		; visa id: 1632
  %1453 = shl nsw i32 %1452, 5, !spirv.Decorations !1212		; visa id: 1633
  %1454 = add nsw i32 %105, %1453, !spirv.Decorations !1212		; visa id: 1634
  br label %1455, !stats.blockFrequency.digits !1220, !stats.blockFrequency.scale !1204		; visa id: 1636

1455:                                             ; preds = %._crit_edge3526, %.lr.ph178
; BB57 :
  %1456 = phi i32 [ 0, %.lr.ph178 ], [ %1458, %._crit_edge3526 ]
  %1457 = shl nsw i32 %1456, 5, !spirv.Decorations !1212		; visa id: 1637
  call void @llvm.genx.GenISA.LSC2DBlockSetAddrPayloadField.p4i8.i32(i8 addrspace(4)* %Block2D_AddrPayload114, i32 5, i32 %1457, i1 false)		; visa id: 1638
  call void @llvm.genx.GenISA.LSC2DBlockSetAddrPayloadField.p4i8.i32(i8 addrspace(4)* %Block2D_AddrPayload114, i32 6, i32 %1454, i1 false)		; visa id: 1639
  call void asm sideeffect "lsc_load_block2d.ugm.ca.ca (M1, 1)  %null:d$1.$2x$3nn flat[$0+(0,0)]", "rw.u,P,P,P"(i8 addrspace(4)* %Block2D_AddrPayload114, i32 16, i32 32, i32 2) #0		; visa id: 1640
  %1458 = add nuw nsw i32 %1456, 1, !spirv.Decorations !1215		; visa id: 1640
  %1459 = icmp slt i32 %1458, %qot3458		; visa id: 1641
  br i1 %1459, label %._crit_edge3526, label %_ZZN7cutlass4fmha10collective15FMHAFwdMainloopINS0_9XeDefaultILi2EEELb0ELb0ELb0EN4cute8TiledMMAINS5_8MMA_AtomIJNS5_10XE_DPAS_TTILi8EfNS_10bfloat16_tES9_fEEEEENS5_6LayoutINS5_5tupleIJNS5_1CILi16EEENSE_ILi1EEESG_EEENSD_IJSG_NSE_ILi0EEESI_EEEEEKNSD_IJNSC_INSD_IJNSE_ILi8EEESF_NSE_ILi2EEEEEENSD_IJSG_SF_SL_EEEEENSC_INSE_ILi32EEESG_EESR_EEEEESU_Li4ENS5_6TensorINS5_10ViewEngineINS5_8gmem_ptrIPS9_EEEENSC_INSD_IJiiiiEEENSD_IJiSG_iiEEEEEEES14_NSV_IS10_NSC_IS11_NSD_IJSG_iiiEEEEEEES14_S17_vvvvvEclINSD_IJjjEEEEEvRKNSV_IS10_NSC_INSD_IJiiEEENSD_IJiSG_EEEEEEES1G_RKNSV_IS10_NSC_IS1B_NSD_IJSG_iEEEEEEERNS5_14SubgroupTensorINS5_11ArrayEngineIfLm128EEENSC_INSD_IJSL_SM_SM_NSE_ILi4EEEEEENSD_IJSG_SL_SF_SQ_EEEEENSC_INSD_IJSF_NSD_IJSL_NSD_IJSM_SM_EEES1P_EEEEEENSD_IJNS5_11ScaledBasisISG_JLi1EEEENSD_IJNS1W_ISG_JLi0EEEENSD_IJNS1W_ISL_JLi0EEEENS1W_ISF_JLi1EEEEEEENS1W_ISQ_JLi1EEEEEEEEEEEEEERNSV_INS1N_IfLm1EEENSC_ISG_SI_EEEES2B_T_iiiiiiiiiS1G_S1L_ENKUlS2C_iRT0_RT1_RT2_RT3_RT4_RT5_E_clISt17integral_constantIbLb0EENS5_9TiledCopyINS5_9Copy_Atom3502, !stats.blockFrequency.digits !1220, !stats.blockFrequency.scale !1236		; visa id: 1642

_ZZN7cutlass4fmha10collective15FMHAFwdMainloopINS0_9XeDefaultILi2EEELb0ELb0ELb0EN4cute8TiledMMAINS5_8MMA_AtomIJNS5_10XE_DPAS_TTILi8EfNS_10bfloat16_tES9_fEEEEENS5_6LayoutINS5_5tupleIJNS5_1CILi16EEENSE_ILi1EEESG_EEENSD_IJSG_NSE_ILi0EEESI_EEEEEKNSD_IJNSC_INSD_IJNSE_ILi8EEESF_NSE_ILi2EEEEEENSD_IJSG_SF_SL_EEEEENSC_INSE_ILi32EEESG_EESR_EEEEESU_Li4ENS5_6TensorINS5_10ViewEngineINS5_8gmem_ptrIPS9_EEEENSC_INSD_IJiiiiEEENSD_IJiSG_iiEEEEEEES14_NSV_IS10_NSC_IS11_NSD_IJSG_iiiEEEEEEES14_S17_vvvvvEclINSD_IJjjEEEEEvRKNSV_IS10_NSC_INSD_IJiiEEENSD_IJiSG_EEEEEEES1G_RKNSV_IS10_NSC_IS1B_NSD_IJSG_iEEEEEEERNS5_14SubgroupTensorINS5_11ArrayEngineIfLm128EEENSC_INSD_IJSL_SM_SM_NSE_ILi4EEEEEENSD_IJSG_SL_SF_SQ_EEEEENSC_INSD_IJSF_NSD_IJSL_NSD_IJSM_SM_EEES1P_EEEEEENSD_IJNS5_11ScaledBasisISG_JLi1EEEENSD_IJNS1W_ISG_JLi0EEEENSD_IJNS1W_ISL_JLi0EEEENS1W_ISF_JLi1EEEEEEENS1W_ISQ_JLi1EEEEEEEEEEEEEERNSV_INS1N_IfLm1EEENSC_ISG_SI_EEEES2B_T_iiiiiiiiiS1G_S1L_ENKUlS2C_iRT0_RT1_RT2_RT3_RT4_RT5_E_clISt17integral_constantIbLb0EENS5_9TiledCopyINS5_9Copy_Atom3502: ; preds = %1455
; BB:
  br label %_ZZN7cutlass4fmha10collective15FMHAFwdMainloopINS0_9XeDefaultILi2EEELb0ELb0ELb0EN4cute8TiledMMAINS5_8MMA_AtomIJNS5_10XE_DPAS_TTILi8EfNS_10bfloat16_tES9_fEEEEENS5_6LayoutINS5_5tupleIJNS5_1CILi16EEENSE_ILi1EEESG_EEENSD_IJSG_NSE_ILi0EEESI_EEEEEKNSD_IJNSC_INSD_IJNSE_ILi8EEESF_NSE_ILi2EEEEEENSD_IJSG_SF_SL_EEEEENSC_INSE_ILi32EEESG_EESR_EEEEESU_Li4ENS5_6TensorINS5_10ViewEngineINS5_8gmem_ptrIPS9_EEEENSC_INSD_IJiiiiEEENSD_IJiSG_iiEEEEEEES14_NSV_IS10_NSC_IS11_NSD_IJSG_iiiEEEEEEES14_S17_vvvvvEclINSD_IJjjEEEEEvRKNSV_IS10_NSC_INSD_IJiiEEENSD_IJiSG_EEEEEEES1G_RKNSV_IS10_NSC_IS1B_NSD_IJSG_iEEEEEEERNS5_14SubgroupTensorINS5_11ArrayEngineIfLm128EEENSC_INSD_IJSL_SM_SM_NSE_ILi4EEEEEENSD_IJSG_SL_SF_SQ_EEEEENSC_INSD_IJSF_NSD_IJSL_NSD_IJSM_SM_EEES1P_EEEEEENSD_IJNS5_11ScaledBasisISG_JLi1EEEENSD_IJNS1W_ISG_JLi0EEEENSD_IJNS1W_ISL_JLi0EEEENS1W_ISF_JLi1EEEEEEENS1W_ISQ_JLi1EEEEEEEEEEEEEERNSV_INS1N_IfLm1EEENSC_ISG_SI_EEEES2B_T_iiiiiiiiiS1G_S1L_ENKUlS2C_iRT0_RT1_RT2_RT3_RT4_RT5_E_clISt17integral_constantIbLb0EENS5_9TiledCopyINS5_9Copy_Atom, !stats.blockFrequency.digits !1220, !stats.blockFrequency.scale !1204

._crit_edge3526:                                  ; preds = %1455
; BB:
  br label %1455, !stats.blockFrequency.digits !1223, !stats.blockFrequency.scale !1236

_ZZN7cutlass4fmha10collective15FMHAFwdMainloopINS0_9XeDefaultILi2EEELb0ELb0ELb0EN4cute8TiledMMAINS5_8MMA_AtomIJNS5_10XE_DPAS_TTILi8EfNS_10bfloat16_tES9_fEEEEENS5_6LayoutINS5_5tupleIJNS5_1CILi16EEENSE_ILi1EEESG_EEENSD_IJSG_NSE_ILi0EEESI_EEEEEKNSD_IJNSC_INSD_IJNSE_ILi8EEESF_NSE_ILi2EEEEEENSD_IJSG_SF_SL_EEEEENSC_INSE_ILi32EEESG_EESR_EEEEESU_Li4ENS5_6TensorINS5_10ViewEngineINS5_8gmem_ptrIPS9_EEEENSC_INSD_IJiiiiEEENSD_IJiSG_iiEEEEEEES14_NSV_IS10_NSC_IS11_NSD_IJSG_iiiEEEEEEES14_S17_vvvvvEclINSD_IJjjEEEEEvRKNSV_IS10_NSC_INSD_IJiiEEENSD_IJiSG_EEEEEEES1G_RKNSV_IS10_NSC_IS1B_NSD_IJSG_iEEEEEEERNS5_14SubgroupTensorINS5_11ArrayEngineIfLm128EEENSC_INSD_IJSL_SM_SM_NSE_ILi4EEEEEENSD_IJSG_SL_SF_SQ_EEEEENSC_INSD_IJSF_NSD_IJSL_NSD_IJSM_SM_EEES1P_EEEEEENSD_IJNS5_11ScaledBasisISG_JLi1EEEENSD_IJNS1W_ISG_JLi0EEEENSD_IJNS1W_ISL_JLi0EEEENS1W_ISF_JLi1EEEEEEENS1W_ISQ_JLi1EEEEEEEEEEEEEERNSV_INS1N_IfLm1EEENSC_ISG_SI_EEEES2B_T_iiiiiiiiiS1G_S1L_ENKUlS2C_iRT0_RT1_RT2_RT3_RT4_RT5_E_clISt17integral_constantIbLb0EENS5_9TiledCopyINS5_9Copy_Atom: ; preds = %.loopexit.i._ZZN7cutlass4fmha10collective15FMHAFwdMainloopINS0_9XeDefaultILi2EEELb0ELb0ELb0EN4cute8TiledMMAINS5_8MMA_AtomIJNS5_10XE_DPAS_TTILi8EfNS_10bfloat16_tES9_fEEEEENS5_6LayoutINS5_5tupleIJNS5_1CILi16EEENSE_ILi1EEESG_EEENSD_IJSG_NSE_ILi0EEESI_EEEEEKNSD_IJNSC_INSD_IJNSE_ILi8EEESF_NSE_ILi2EEEEEENSD_IJSG_SF_SL_EEEEENSC_INSE_ILi32EEESG_EESR_EEEEESU_Li4ENS5_6TensorINS5_10ViewEngineINS5_8gmem_ptrIPS9_EEEENSC_INSD_IJiiiiEEENSD_IJiSG_iiEEEEEEES14_NSV_IS10_NSC_IS11_NSD_IJSG_iiiEEEEEEES14_S17_vvvvvEclINSD_IJjjEEEEEvRKNSV_IS10_NSC_INSD_IJiiEEENSD_IJiSG_EEEEEEES1G_RKNSV_IS10_NSC_IS1B_NSD_IJSG_iEEEEEEERNS5_14SubgroupTensorINS5_11ArrayEngineIfLm128EEENSC_INSD_IJSL_SM_SM_NSE_ILi4EEEEEENSD_IJSG_SL_SF_SQ_EEEEENSC_INSD_IJSF_NSD_IJSL_NSD_IJSM_SM_EEES1P_EEEEEENSD_IJNS5_11ScaledBasisISG_JLi1EEEENSD_IJNS1W_ISG_JLi0EEEENSD_IJNS1W_ISL_JLi0EEEENS1W_ISF_JLi1EEEEEEENS1W_ISQ_JLi1EEEEEEEEEEEEEERNSV_INS1N_IfLm1EEENSC_ISG_SI_EEEES2B_T_iiiiiiiiiS1G_S1L_ENKUlS2C_iRT0_RT1_RT2_RT3_RT4_RT5_E_clISt17integral_constantIbLb0EENS5_9TiledCopyINS5_9Copy_Atom_crit_edge, %_ZZN7cutlass4fmha10collective15FMHAFwdMainloopINS0_9XeDefaultILi2EEELb0ELb0ELb0EN4cute8TiledMMAINS5_8MMA_AtomIJNS5_10XE_DPAS_TTILi8EfNS_10bfloat16_tES9_fEEEEENS5_6LayoutINS5_5tupleIJNS5_1CILi16EEENSE_ILi1EEESG_EEENSD_IJSG_NSE_ILi0EEESI_EEEEEKNSD_IJNSC_INSD_IJNSE_ILi8EEESF_NSE_ILi2EEEEEENSD_IJSG_SF_SL_EEEEENSC_INSE_ILi32EEESG_EESR_EEEEESU_Li4ENS5_6TensorINS5_10ViewEngineINS5_8gmem_ptrIPS9_EEEENSC_INSD_IJiiiiEEENSD_IJiSG_iiEEEEEEES14_NSV_IS10_NSC_IS11_NSD_IJSG_iiiEEEEEEES14_S17_vvvvvEclINSD_IJjjEEEEEvRKNSV_IS10_NSC_INSD_IJiiEEENSD_IJiSG_EEEEEEES1G_RKNSV_IS10_NSC_IS1B_NSD_IJSG_iEEEEEEERNS5_14SubgroupTensorINS5_11ArrayEngineIfLm128EEENSC_INSD_IJSL_SM_SM_NSE_ILi4EEEEEENSD_IJSG_SL_SF_SQ_EEEEENSC_INSD_IJSF_NSD_IJSL_NSD_IJSM_SM_EEES1P_EEEEEENSD_IJNS5_11ScaledBasisISG_JLi1EEEENSD_IJNS1W_ISG_JLi0EEEENSD_IJNS1W_ISL_JLi0EEEENS1W_ISF_JLi1EEEEEEENS1W_ISQ_JLi1EEEEEEEEEEEEEERNSV_INS1N_IfLm1EEENSC_ISG_SI_EEEES2B_T_iiiiiiiiiS1G_S1L_ENKUlS2C_iRT0_RT1_RT2_RT3_RT4_RT5_E_clISt17integral_constantIbLb0EENS5_9TiledCopyINS5_9Copy_Atom3502
; BB60 :
  %1460 = add nuw nsw i32 %141, 1, !spirv.Decorations !1212		; visa id: 1644
  %1461 = icmp slt i32 %1460, %qot		; visa id: 1645
  br i1 %1461, label %_ZZN7cutlass4fmha10collective15FMHAFwdMainloopINS0_9XeDefaultILi2EEELb0ELb0ELb0EN4cute8TiledMMAINS5_8MMA_AtomIJNS5_10XE_DPAS_TTILi8EfNS_10bfloat16_tES9_fEEEEENS5_6LayoutINS5_5tupleIJNS5_1CILi16EEENSE_ILi1EEESG_EEENSD_IJSG_NSE_ILi0EEESI_EEEEEKNSD_IJNSC_INSD_IJNSE_ILi8EEESF_NSE_ILi2EEEEEENSD_IJSG_SF_SL_EEEEENSC_INSE_ILi32EEESG_EESR_EEEEESU_Li4ENS5_6TensorINS5_10ViewEngineINS5_8gmem_ptrIPS9_EEEENSC_INSD_IJiiiiEEENSD_IJiSG_iiEEEEEEES14_NSV_IS10_NSC_IS11_NSD_IJSG_iiiEEEEEEES14_S17_vvvvvEclINSD_IJjjEEEEEvRKNSV_IS10_NSC_INSD_IJiiEEENSD_IJiSG_EEEEEEES1G_RKNSV_IS10_NSC_IS1B_NSD_IJSG_iEEEEEEERNS5_14SubgroupTensorINS5_11ArrayEngineIfLm128EEENSC_INSD_IJSL_SM_SM_NSE_ILi4EEEEEENSD_IJSG_SL_SF_SQ_EEEEENSC_INSD_IJSF_NSD_IJSL_NSD_IJSM_SM_EEES1P_EEEEEENSD_IJNS5_11ScaledBasisISG_JLi1EEEENSD_IJNS1W_ISG_JLi0EEEENSD_IJNS1W_ISL_JLi0EEEENS1W_ISF_JLi1EEEEEEENS1W_ISQ_JLi1EEEEEEEEEEEEEERNSV_INS1N_IfLm1EEENSC_ISG_SI_EEEES2B_T_iiiiiiiiiS1G_S1L_ENKUlS2C_iRT0_RT1_RT2_RT3_RT4_RT5_E_clISt17integral_constantIbLb0EENS5_9TiledCopyINS5_9Copy_Atom..preheader172_crit_edge, label %._crit_edge181.loopexit, !stats.blockFrequency.digits !1224, !stats.blockFrequency.scale !1218		; visa id: 1646

_ZZN7cutlass4fmha10collective15FMHAFwdMainloopINS0_9XeDefaultILi2EEELb0ELb0ELb0EN4cute8TiledMMAINS5_8MMA_AtomIJNS5_10XE_DPAS_TTILi8EfNS_10bfloat16_tES9_fEEEEENS5_6LayoutINS5_5tupleIJNS5_1CILi16EEENSE_ILi1EEESG_EEENSD_IJSG_NSE_ILi0EEESI_EEEEEKNSD_IJNSC_INSD_IJNSE_ILi8EEESF_NSE_ILi2EEEEEENSD_IJSG_SF_SL_EEEEENSC_INSE_ILi32EEESG_EESR_EEEEESU_Li4ENS5_6TensorINS5_10ViewEngineINS5_8gmem_ptrIPS9_EEEENSC_INSD_IJiiiiEEENSD_IJiSG_iiEEEEEEES14_NSV_IS10_NSC_IS11_NSD_IJSG_iiiEEEEEEES14_S17_vvvvvEclINSD_IJjjEEEEEvRKNSV_IS10_NSC_INSD_IJiiEEENSD_IJiSG_EEEEEEES1G_RKNSV_IS10_NSC_IS1B_NSD_IJSG_iEEEEEEERNS5_14SubgroupTensorINS5_11ArrayEngineIfLm128EEENSC_INSD_IJSL_SM_SM_NSE_ILi4EEEEEENSD_IJSG_SL_SF_SQ_EEEEENSC_INSD_IJSF_NSD_IJSL_NSD_IJSM_SM_EEES1P_EEEEEENSD_IJNS5_11ScaledBasisISG_JLi1EEEENSD_IJNS1W_ISG_JLi0EEEENSD_IJNS1W_ISL_JLi0EEEENS1W_ISF_JLi1EEEEEEENS1W_ISQ_JLi1EEEEEEEEEEEEEERNSV_INS1N_IfLm1EEENSC_ISG_SI_EEEES2B_T_iiiiiiiiiS1G_S1L_ENKUlS2C_iRT0_RT1_RT2_RT3_RT4_RT5_E_clISt17integral_constantIbLb0EENS5_9TiledCopyINS5_9Copy_Atom..preheader172_crit_edge: ; preds = %_ZZN7cutlass4fmha10collective15FMHAFwdMainloopINS0_9XeDefaultILi2EEELb0ELb0ELb0EN4cute8TiledMMAINS5_8MMA_AtomIJNS5_10XE_DPAS_TTILi8EfNS_10bfloat16_tES9_fEEEEENS5_6LayoutINS5_5tupleIJNS5_1CILi16EEENSE_ILi1EEESG_EEENSD_IJSG_NSE_ILi0EEESI_EEEEEKNSD_IJNSC_INSD_IJNSE_ILi8EEESF_NSE_ILi2EEEEEENSD_IJSG_SF_SL_EEEEENSC_INSE_ILi32EEESG_EESR_EEEEESU_Li4ENS5_6TensorINS5_10ViewEngineINS5_8gmem_ptrIPS9_EEEENSC_INSD_IJiiiiEEENSD_IJiSG_iiEEEEEEES14_NSV_IS10_NSC_IS11_NSD_IJSG_iiiEEEEEEES14_S17_vvvvvEclINSD_IJjjEEEEEvRKNSV_IS10_NSC_INSD_IJiiEEENSD_IJiSG_EEEEEEES1G_RKNSV_IS10_NSC_IS1B_NSD_IJSG_iEEEEEEERNS5_14SubgroupTensorINS5_11ArrayEngineIfLm128EEENSC_INSD_IJSL_SM_SM_NSE_ILi4EEEEEENSD_IJSG_SL_SF_SQ_EEEEENSC_INSD_IJSF_NSD_IJSL_NSD_IJSM_SM_EEES1P_EEEEEENSD_IJNS5_11ScaledBasisISG_JLi1EEEENSD_IJNS1W_ISG_JLi0EEEENSD_IJNS1W_ISL_JLi0EEEENS1W_ISF_JLi1EEEEEEENS1W_ISQ_JLi1EEEEEEEEEEEEEERNSV_INS1N_IfLm1EEENSC_ISG_SI_EEEES2B_T_iiiiiiiiiS1G_S1L_ENKUlS2C_iRT0_RT1_RT2_RT3_RT4_RT5_E_clISt17integral_constantIbLb0EENS5_9TiledCopyINS5_9Copy_Atom
; BB61 :
  %indvars.iv.next = add nuw i32 %indvars.iv, 32		; visa id: 1648
  br label %.preheader172, !stats.blockFrequency.digits !1237, !stats.blockFrequency.scale !1218		; visa id: 1650

._crit_edge181.loopexit:                          ; preds = %_ZZN7cutlass4fmha10collective15FMHAFwdMainloopINS0_9XeDefaultILi2EEELb0ELb0ELb0EN4cute8TiledMMAINS5_8MMA_AtomIJNS5_10XE_DPAS_TTILi8EfNS_10bfloat16_tES9_fEEEEENS5_6LayoutINS5_5tupleIJNS5_1CILi16EEENSE_ILi1EEESG_EEENSD_IJSG_NSE_ILi0EEESI_EEEEEKNSD_IJNSC_INSD_IJNSE_ILi8EEESF_NSE_ILi2EEEEEENSD_IJSG_SF_SL_EEEEENSC_INSE_ILi32EEESG_EESR_EEEEESU_Li4ENS5_6TensorINS5_10ViewEngineINS5_8gmem_ptrIPS9_EEEENSC_INSD_IJiiiiEEENSD_IJiSG_iiEEEEEEES14_NSV_IS10_NSC_IS11_NSD_IJSG_iiiEEEEEEES14_S17_vvvvvEclINSD_IJjjEEEEEvRKNSV_IS10_NSC_INSD_IJiiEEENSD_IJiSG_EEEEEEES1G_RKNSV_IS10_NSC_IS1B_NSD_IJSG_iEEEEEEERNS5_14SubgroupTensorINS5_11ArrayEngineIfLm128EEENSC_INSD_IJSL_SM_SM_NSE_ILi4EEEEEENSD_IJSG_SL_SF_SQ_EEEEENSC_INSD_IJSF_NSD_IJSL_NSD_IJSM_SM_EEES1P_EEEEEENSD_IJNS5_11ScaledBasisISG_JLi1EEEENSD_IJNS1W_ISG_JLi0EEEENSD_IJNS1W_ISL_JLi0EEEENS1W_ISF_JLi1EEEEEEENS1W_ISQ_JLi1EEEEEEEEEEEEEERNSV_INS1N_IfLm1EEENSC_ISG_SI_EEEES2B_T_iiiiiiiiiS1G_S1L_ENKUlS2C_iRT0_RT1_RT2_RT3_RT4_RT5_E_clISt17integral_constantIbLb0EENS5_9TiledCopyINS5_9Copy_Atom
; BB:
